EXPORTS
	??0CGlobalText@@IAE@PBVCParaFormatLayer@@PBVCCharFormatLayer@@@Z @ 1 NONAME ; protected: __thiscall CGlobalText::CGlobalText(class CParaFormatLayer const *,class CCharFormatLayer const *)
	??0CGlobalText@@IAE@XZ @ 2 NONAME ; protected: __thiscall CGlobalText::CGlobalText(void)
	??0CParaFormat@@QAE@XZ @ 3 NONAME ; public: __thiscall CParaFormat::CParaFormat(void)
	??0CPlainText@@IAE@XZ @ 4 NONAME ; protected: __thiscall CPlainText::CPlainText(void)
	??0CRichText@@IAE@PBVCParaFormatLayer@@PBVCCharFormatLayer@@PAVCStyleList@@@Z @ 5 NONAME ; protected: __thiscall CRichText::CRichText(class CParaFormatLayer const *,class CCharFormatLayer const *,class CStyleList *)
	??0CStyleList@@IAE@XZ @ 6 NONAME ; protected: __thiscall CStyleList::CStyleList(void)
	??0TBullet@@QAE@XZ @ 7 NONAME ; public: __thiscall TBullet::TBullet(void)
	??0TCharFormat@@QAE@ABVTDesC16@@H@Z @ 8 NONAME ; public: __thiscall TCharFormat::TCharFormat(class TDesC16 const &,int)
	??0TCharFormat@@QAE@XZ @ 9 NONAME ; public: __thiscall TCharFormat::TCharFormat(void)
	??0TEtextComponentInfo@@QAE@HHH@Z @ 10 NONAME ; public: __thiscall TEtextComponentInfo::TEtextComponentInfo(int,int,int)
	??0TEtextComponentInfo@@QAE@XZ @ 11 NONAME ; public: __thiscall TEtextComponentInfo::TEtextComponentInfo(void)
	??0TFontPresentation@@QAE@XZ @ 12 NONAME ; public: __thiscall TFontPresentation::TFontPresentation(void)
	??0TParaBorder@@QAE@XZ @ 13 NONAME ; public: __thiscall TParaBorder::TParaBorder(void)
	??0TTabStop@@QAE@ABV0@@Z @ 14 NONAME ; public: __thiscall TTabStop::TTabStop(class TTabStop const &)
	??0TTabStop@@QAE@XZ @ 15 NONAME ; public: __thiscall TTabStop::TTabStop(void)
	??1CEditableText@@UAE@XZ @ 16 NONAME ; public: virtual __thiscall CEditableText::~CEditableText(void)
	??1CGlobalText@@UAE@XZ @ 17 NONAME ; public: virtual __thiscall CGlobalText::~CGlobalText(void)
	??1CParaFormat@@UAE@XZ @ 18 NONAME ; public: virtual __thiscall CParaFormat::~CParaFormat(void)
	??1CParagraphStyle@@UAE@XZ @ 19 NONAME ; public: virtual __thiscall CParagraphStyle::~CParagraphStyle(void)
	??1CPlainText@@UAE@XZ @ 20 NONAME ; public: virtual __thiscall CPlainText::~CPlainText(void)
	??1CRichText@@UAE@XZ @ 21 NONAME ; public: virtual __thiscall CRichText::~CRichText(void)
	??1CStyleList@@UAE@XZ @ 22 NONAME ; public: virtual __thiscall CStyleList::~CStyleList(void)
	??4TTabStop@@QAEAAV0@ABV0@@Z @ 23 NONAME ; public: class TTabStop & __thiscall TTabStop::operator=(class TTabStop const &)
	??8TBullet@@QBEHABV0@@Z @ 24 NONAME ; public: int __thiscall TBullet::operator==(class TBullet const &)const 
	??8TCharFormatMask@@QBEHABV0@@Z @ 25 NONAME ; public: int __thiscall TCharFormatMask::operator==(class TCharFormatMask const &)const 
	??8TParaBorder@@QBEHABV0@@Z @ 26 NONAME ; public: int __thiscall TParaBorder::operator==(class TParaBorder const &)const 
	??8TParaFormatMask@@QBEHABV0@@Z @ 27 NONAME ; public: int __thiscall TParaFormatMask::operator==(class TParaFormatMask const &)const 
	??8TTabStop@@QBEHABV0@@Z @ 28 NONAME ; public: int __thiscall TTabStop::operator==(class TTabStop const &)const 
	?ActivateDefaultParserL@CRichText@@SAXPAVMParser@@@Z @ 29 NONAME ; public: static void __cdecl CRichText::ActivateDefaultParserL(class MParser *)
	?ActivateParserL@CRichText@@SAXPAVMParser@@@Z @ 30 NONAME ; public: static void __cdecl CRichText::ActivateParserL(class MParser *)
	?AllBordersEqual@CParaFormat@@QBEHABV1@@Z @ 31 NONAME ; public: int __thiscall CParaFormat::AllBordersEqual(class CParaFormat const &)const 
	?AppendL@CStyleList@@QAEHPAVRParagraphStyleInfo@@@Z @ 32 NONAME ; public: int __thiscall CStyleList::AppendL(class RParagraphStyleInfo *)
	?AppendParagraphL@CRichText@@QAEXH@Z @ 33 NONAME ; public: void __thiscall CRichText::AppendParagraphL(int)
	?AppendTakingSolePictureOwnershipL@CRichText@@QAEXABV1@@Z @ 34 NONAME ; public: void __thiscall CRichText::AppendTakingSolePictureOwnershipL(class CRichText const &)
	?ApplyCharFormatL@CGlobalText@@UAEXABVTCharFormat@@ABVTCharFormatMask@@HH@Z @ 35 NONAME ; public: virtual void __thiscall CGlobalText::ApplyCharFormatL(class TCharFormat const &,class TCharFormatMask const &,int,int)
	?ApplyCharFormatL@CRichText@@UAEXABVTCharFormat@@ABVTCharFormatMask@@HH@Z @ 36 NONAME ; public: virtual void __thiscall CRichText::ApplyCharFormatL(class TCharFormat const &,class TCharFormatMask const &,int,int)
	?ApplyParaFormatL@CGlobalText@@UAEXPBVCParaFormat@@ABVTParaFormatMask@@HH@Z @ 37 NONAME ; public: virtual void __thiscall CGlobalText::ApplyParaFormatL(class CParaFormat const *,class TParaFormatMask const &,int,int)
	?ApplyParaFormatL@CRichText@@UAEXPBVCParaFormat@@ABVTParaFormatMask@@HH@Z @ 38 NONAME ; public: virtual void __thiscall CRichText::ApplyParaFormatL(class CParaFormat const *,class TParaFormatMask const &,int,int)
	?ApplyParagraphStyleL@CRichText@@QAEXABVCParagraphStyle@@HHW4TApplyParaStyleMode@2@@Z @ 39 NONAME ; public: void __thiscall CRichText::ApplyParagraphStyleL(class CParagraphStyle const &,int,int,enum CParagraphStyle::TApplyParaStyleMode)
	?At@CStyleList@@QAEAAVRParagraphStyleInfo@@H@Z @ 40 NONAME ; public: class RParagraphStyleInfo & __thiscall CStyleList::At(int)
	?At@CStyleList@@QBEABVRParagraphStyleInfo@@H@Z @ 41 NONAME ; public: class RParagraphStyleInfo const & __thiscall CStyleList::At(int)const 
	?CancelFepInlineEdit@CEditableText@@QAEXAAH000H@Z @ 42 NONAME ; public: void __thiscall CEditableText::CancelFepInlineEdit(int &,int &,int &,int &,int)
	?CancelInsertCharFormat@CRichText@@QAEXXZ @ 43 NONAME ; public: void __thiscall CRichText::CancelInsertCharFormat(void)
	?CancelSelectLabel@CGlobalText@@UAEXXZ @ 44 NONAME ; public: virtual void __thiscall CGlobalText::CancelSelectLabel(void)
	?ChainCount@CFormatLayer@@QBEHXZ @ 45 NONAME ; public: int __thiscall CFormatLayer::ChainCount(void)const 
	?CharPosOfParagraph@CPlainText@@UBEHAAHH@Z @ 46 NONAME ; public: virtual int __thiscall CPlainText::CharPosOfParagraph(int &,int)const 
	?CharPosOfParagraph@CRichText@@UBEHAAHH@Z @ 47 NONAME ; public: virtual int __thiscall CRichText::CharPosOfParagraph(int &,int)const 
	?ClearAll@TCharFormatMask@@QAEXXZ @ 48 NONAME ; public: void __thiscall TCharFormatMask::ClearAll(void)
	?ClearAll@TParaFormatMask@@QAEXXZ @ 49 NONAME ; public: void __thiscall TParaFormatMask::ClearAll(void)
	?CommitFepInlineEditL@CEditableText@@QAEXAAH000H@Z @ 50 NONAME ; public: void __thiscall CEditableText::CommitFepInlineEditL(int &,int &,int &,int &,int)
	?ComponentInfo@CPlainText@@UBE?AVTEtextComponentInfo@@XZ @ 51 NONAME ; public: virtual class TEtextComponentInfo  __thiscall CPlainText::ComponentInfo(void)const 
	?ComponentInfo@CRichText@@UBE?AVTEtextComponentInfo@@XZ @ 52 NONAME ; public: virtual class TEtextComponentInfo  __thiscall CRichText::ComponentInfo(void)const 
	?ConstructL@CPlainText@@IAEXABVCStreamStore@@VTStreamId@@PAVMTextFieldFactory@@W4TDocumentStorage@CEditableText@@@Z @ 53 NONAME ; protected: void __thiscall CPlainText::ConstructL(class CStreamStore const &,class TStreamId,class MTextFieldFactory *,enum CEditableText::TDocumentStorage)
	?ConstructL@CPlainText@@IAEXW4TDocumentStorage@CEditableText@@H@Z @ 54 NONAME ; protected: void __thiscall CPlainText::ConstructL(enum CEditableText::TDocumentStorage,int)
	?ConstructL@CRichText@@IAEXABVCStreamStore@@VTStreamId@@PAVMPictureFactory@@PAVMRichTextStoreResolver@@PAVMTextFieldFactory@@W4TDocumentStorage@CEditableText@@@Z @ 55 NONAME ; protected: void __thiscall CRichText::ConstructL(class CStreamStore const &,class TStreamId,class MPictureFactory *,class MRichTextStoreResolver *,class MTextFieldFactory *,enum CEditableText::TDocumentStorage)
	?ConstructL@CRichText@@IAEXW4TDocumentStorage@CEditableText@@HW4TParaType@1@@Z @ 56 NONAME ; protected: void __thiscall CRichText::ConstructL(enum CEditableText::TDocumentStorage,int,enum CRichText::TParaType)
	?ConstructL@CStyleList@@IAEXH@Z @ 57 NONAME ; protected: void __thiscall CStyleList::ConstructL(int)
	?ConvertAllFieldsToText@CPlainText@@QAEXXZ @ 58 NONAME ; public: void __thiscall CPlainText::ConvertAllFieldsToText(void)
	?ConvertFieldToText@CPlainText@@QAEHH@Z @ 59 NONAME ; public: int __thiscall CPlainText::ConvertFieldToText(int)
	?CopyComponentsL@CRichText@@IBEXAAVCStreamStore@@AAVCStoreMap@@HHVTStreamId@@@Z @ 60 NONAME ; protected: void __thiscall CRichText::CopyComponentsL(class CStreamStore &,class CStoreMap &,int,int,class TStreamId)const 
	?CopyL@CParaFormat@@QAEXABV1@@Z @ 61 NONAME ; public: void __thiscall CParaFormat::CopyL(class CParaFormat const &)
	?CopyL@CParaFormat@@QAEXABV1@ABVTParaFormatMask@@@Z @ 62 NONAME ; public: void __thiscall CParaFormat::CopyL(class CParaFormat const &,class TParaFormatMask const &)
	?CopyToStoreL@CPlainText@@UBEXAAVCStreamStore@@AAVCStreamDictionary@@HH@Z @ 63 NONAME ; public: virtual void __thiscall CPlainText::CopyToStoreL(class CStreamStore &,class CStreamDictionary &,int,int)const 
	?CopyToStoreL@CRichText@@UBEXAAVCStreamStore@@AAVCStreamDictionary@@HH@Z @ 64 NONAME ; public: virtual void __thiscall CRichText::CopyToStoreL(class CStreamStore &,class CStreamDictionary &,int,int)const 
	?CopyToStreamL@CRichText@@IBEXAAVRWriteStream@@HH@Z @ 65 NONAME ; protected: void __thiscall CRichText::CopyToStreamL(class RWriteStream &,int,int)const 
	?CopyToStreamL@CRichText@@IBEXAAVRWriteStream@@HHVTStreamId@@@Z @ 66 NONAME ; protected: void __thiscall CRichText::CopyToStreamL(class RWriteStream &,int,int,class TStreamId)const 
	?CursorOverTag@CRichText@@QBEHHAAPAVMParser@@AAH1@Z @ 67 NONAME ; public: int __thiscall CRichText::CursorOverTag(int,class MParser * &,int &,int &)const 
	?DeactivateParser@CRichText@@SAXPAVMParser@@@Z @ 68 NONAME ; public: static void __cdecl CRichText::DeactivateParser(class MParser *)
	?DeactivateParserDefaults@CRichText@@SAXXZ @ 69 NONAME ; public: static void __cdecl CRichText::DeactivateParserDefaults(void)
	?DeepCloneL@CStyleList@@QBEPAV1@XZ @ 70 NONAME ; public: class CStyleList * __thiscall CStyleList::DeepCloneL(void)const 
	?DelSetInsertCharFormatL@CRichText@@QAEHHH@Z @ 71 NONAME ; public: int __thiscall CRichText::DelSetInsertCharFormatL(int,int)
	?DeleteFromParagraph@CRichText@@QAEXHH@Z @ 72 NONAME ; public: void __thiscall CRichText::DeleteFromParagraph(int,int)
	?DeleteL@CPlainText@@UAEHHH@Z @ 73 NONAME ; public: virtual int __thiscall CPlainText::DeleteL(int,int)
	?DeleteL@CRichText@@UAEHHH@Z @ 74 NONAME ; public: virtual int __thiscall CRichText::DeleteL(int,int)
	?DeleteParagraph@CRichText@@QAEXHH@Z @ 75 NONAME ; public: void __thiscall CRichText::DeleteParagraph(int,int)
	?DetachFromStoreL@CRichText@@QAEXW4TDetach@CPicture@@@Z @ 76 NONAME ; public: void __thiscall CRichText::DetachFromStoreL(enum CPicture::TDetach)
	?DetachFromStoreL@CRichText@@QAEXW4TDetach@CPicture@@HH@Z @ 77 NONAME ; public: void __thiscall CRichText::DetachFromStoreL(enum CPicture::TDetach,int,int)
	?DoCloneL@CCharFormatLayer@@EBEPAVCFormatLayer@@XZ @ 78 NONAME ; private: virtual class CFormatLayer * __thiscall CCharFormatLayer::DoCloneL(void)const 
	?DoCloneL@CParaFormatLayer@@EBEPAVCFormatLayer@@XZ @ 79 NONAME ; private: virtual class CFormatLayer * __thiscall CParaFormatLayer::DoCloneL(void)const 
	?DoCloneL@CParagraphStyle@@EBEPAVCFormatLayer@@XZ @ 80 NONAME ; private: virtual class CFormatLayer * __thiscall CParagraphStyle::DoCloneL(void)const 
	?DoConstructL@CPlainText@@IAEXW4TDocumentStorage@CEditableText@@HPAVMTextFieldFactory@@@Z @ 81 NONAME ; protected: void __thiscall CPlainText::DoConstructL(enum CEditableText::TDocumentStorage,int,class MTextFieldFactory *)
	?DoExternalizeFieldDataL@CPlainText@@IBEXAAVRWriteStream@@@Z @ 82 NONAME ; protected: void __thiscall CPlainText::DoExternalizeFieldDataL(class RWriteStream &)const 
	?DoExternalizeMarkupDataL@CRichText@@IBEXAAVRWriteStream@@@Z @ 83 NONAME ; protected: void __thiscall CRichText::DoExternalizeMarkupDataL(class RWriteStream &)const 
	?DoExternalizePlainTextL@CPlainText@@IBEXAAVRWriteStream@@@Z @ 84 NONAME ; protected: void __thiscall CPlainText::DoExternalizePlainTextL(class RWriteStream &)const 
	?DoExternalizeStyleDataL@CRichText@@IBEXAAVRWriteStream@@@Z @ 85 NONAME ; protected: void __thiscall CRichText::DoExternalizeStyleDataL(class RWriteStream &)const 
	?DoInternalizeFieldDataL@CPlainText@@IAEXAAVRReadStream@@@Z @ 86 NONAME ; protected: void __thiscall CPlainText::DoInternalizeFieldDataL(class RReadStream &)
	?DoInternalizeMarkupDataL@CRichText@@IAEXAAVRReadStream@@@Z @ 87 NONAME ; protected: void __thiscall CRichText::DoInternalizeMarkupDataL(class RReadStream &)
	?DoInternalizePlainTextL@CPlainText@@IAEXAAVRReadStream@@@Z @ 88 NONAME ; protected: void __thiscall CPlainText::DoInternalizePlainTextL(class RReadStream &)
	?DoInternalizeStyleDataL@CRichText@@IAEXAAVRReadStream@@@Z @ 89 NONAME ; protected: void __thiscall CRichText::DoInternalizeStyleDataL(class RReadStream &)
	?DoPtDelete@CPlainText@@IAEHHH@Z @ 90 NONAME ; protected: int __thiscall CPlainText::DoPtDelete(int,int)
	?DoPtInsertL@CPlainText@@IAEXHABVTDesC16@@@Z @ 91 NONAME ; protected: void __thiscall CPlainText::DoPtInsertL(int,class TDesC16 const &)
	?DocumentLength@CPlainText@@UBEHXZ @ 92 NONAME ; public: virtual int __thiscall CPlainText::DocumentLength(void)const 
	?EnquirePageBreak@CGlobalText@@UBEHHH@Z @ 93 NONAME ; public: virtual int __thiscall CGlobalText::EnquirePageBreak(int,int)const 
	?ExportAsTextL@CPlainText@@UBEXABVTDes16@@W4TTextOrganisation@1@H@Z @ 94 NONAME ; public: virtual void __thiscall CPlainText::ExportAsTextL(class TDes16 const &,enum CPlainText::TTextOrganisation,int)const 
	?ExportTextL@CPlainText@@QBEXHAAVRWriteStream@@W4TTextOrganisation@1@HHHPAH2@Z @ 95 NONAME ; public: void __thiscall CPlainText::ExportTextL(int,class RWriteStream &,enum CPlainText::TTextOrganisation,int,int,int,int *,int *)const 
	?ExternalizeChainL@CFormatLayer@@QBEXAAVRWriteStream@@H@Z @ 96 NONAME ; public: void __thiscall CFormatLayer::ExternalizeChainL(class RWriteStream &,int)const 
	?ExternalizeFieldDataL@CPlainText@@QBEXAAVRWriteStream@@@Z @ 97 NONAME ; public: void __thiscall CPlainText::ExternalizeFieldDataL(class RWriteStream &)const 
	?ExternalizeL@CCharFormatLayer@@UBEXAAVRWriteStream@@@Z @ 98 NONAME ; public: virtual void __thiscall CCharFormatLayer::ExternalizeL(class RWriteStream &)const 
	?ExternalizeL@CParaFormatLayer@@UBEXAAVRWriteStream@@@Z @ 99 NONAME ; public: virtual void __thiscall CParaFormatLayer::ExternalizeL(class RWriteStream &)const 
	?ExternalizeL@CPlainText@@UBEXAAVRWriteStream@@@Z @ 100 NONAME ; public: virtual void __thiscall CPlainText::ExternalizeL(class RWriteStream &)const 
	?ExternalizeL@CRichText@@UBEXAAVRWriteStream@@@Z @ 101 NONAME ; public: virtual void __thiscall CRichText::ExternalizeL(class RWriteStream &)const 
	?ExternalizeL@CStyleList@@QBEXAAVRWriteStream@@@Z @ 102 NONAME ; public: void __thiscall CStyleList::ExternalizeL(class RWriteStream &)const 
	?ExternalizeMarkupDataL@CRichText@@QBEXAAVRWriteStream@@@Z @ 103 NONAME ; public: void __thiscall CRichText::ExternalizeMarkupDataL(class RWriteStream &)const 
	?ExternalizePlainTextL@CPlainText@@QBEXAAVRWriteStream@@@Z @ 104 NONAME ; public: void __thiscall CPlainText::ExternalizePlainTextL(class RWriteStream &)const 
	?ExternalizePlainTextNoLengthCountL@CPlainText@@QBEXAAVRWriteStream@@@Z @ 105 NONAME ; public: void __thiscall CPlainText::ExternalizePlainTextNoLengthCountL(class RWriteStream &)const 
	?ExternalizeStyleDataL@CRichText@@QBEXAAVRWriteStream@@@Z @ 106 NONAME ; public: void __thiscall CRichText::ExternalizeStyleDataL(class RWriteStream &)const 
	?Extract@CPlainText@@UBEXAAVTDes16@@H@Z @ 107 NONAME ; public: virtual void __thiscall CPlainText::Extract(class TDes16 &,int)const 
	?Extract@CPlainText@@UBEXAAVTDes16@@HH@Z @ 108 NONAME ; public: virtual void __thiscall CPlainText::Extract(class TDes16 &,int,int)const 
	?ExtractSelectively@CPlainText@@QAEXAAVTDes16@@HHI@Z @ 109 NONAME ; public: void __thiscall CPlainText::ExtractSelectively(class TDes16 &,int,int,unsigned int)
	?FieldCount@CPlainText@@QBEHXZ @ 110 NONAME ; public: int __thiscall CPlainText::FieldCount(void)const 
	?FindFields@CPlainText@@QBEHAAVTFindFieldInfo@@HH@Z @ 111 NONAME ; public: int __thiscall CPlainText::FindFields(class TFindFieldInfo &,int,int)const 
	?FindFields@CPlainText@@QBEHH@Z @ 112 NONAME ; public: int __thiscall CPlainText::FindFields(int)const 
	?GetCharFormat@CGlobalText@@UBEXAAVTCharFormat@@AAVTCharFormatMask@@HH@Z @ 113 NONAME ; public: virtual void __thiscall CGlobalText::GetCharFormat(class TCharFormat &,class TCharFormatMask &,int,int)const 
	?GetCharFormat@CRichText@@UBEXAAVTCharFormat@@AAVTCharFormatMask@@HH@Z @ 114 NONAME ; public: virtual void __thiscall CRichText::GetCharFormat(class TCharFormat &,class TCharFormatMask &,int,int)const 
	?GetChars@CGlobalText@@UBEXAAVTPtrC16@@AAVTCharFormat@@H@Z @ 115 NONAME ; public: virtual void __thiscall CGlobalText::GetChars(class TPtrC16 &,class TCharFormat &,int)const 
	?GetChars@CRichText@@UBEXAAVTPtrC16@@AAVTCharFormat@@H@Z @ 116 NONAME ; public: virtual void __thiscall CRichText::GetChars(class TPtrC16 &,class TCharFormat &,int)const 
	?GetParaFormatL@CGlobalText@@UBEXPAVCParaFormat@@AAVTParaFormatMask@@HHW4TParaFormatGetMode@2@@Z @ 117 NONAME ; public: virtual void __thiscall CGlobalText::GetParaFormatL(class CParaFormat *,class TParaFormatMask &,int,int,enum CParaFormat::TParaFormatGetMode)const 
	?GetParaFormatL@CRichText@@UBEXPAVCParaFormat@@AAVTParaFormatMask@@HHW4TParaFormatGetMode@2@@Z @ 118 NONAME ; public: virtual void __thiscall CRichText::GetParaFormatL(class CParaFormat *,class TParaFormatMask &,int,int,enum CParaFormat::TParaFormatGetMode)const 
	?GetParagraphFormatL@CGlobalText@@UBEXPAVCParaFormat@@H@Z @ 119 NONAME ; public: virtual void __thiscall CGlobalText::GetParagraphFormatL(class CParaFormat *,int)const 
	?GetParagraphFormatL@CRichText@@UBEXPAVCParaFormat@@H@Z @ 120 NONAME ; public: virtual void __thiscall CRichText::GetParagraphFormatL(class CParaFormat *,int)const 
	?GetPictureSizeInTwips@CGlobalText@@UBEHAAVTSize@@H@Z @ 121 NONAME ; public: virtual int __thiscall CGlobalText::GetPictureSizeInTwips(class TSize &,int)const 
	?GetPictureSizeInTwips@CRichText@@UBEHAAVTSize@@H@Z @ 122 NONAME ; public: virtual int __thiscall CRichText::GetPictureSizeInTwips(class TSize &,int)const 
	?GetRecogniseFormat@MParser@@UAEXAAVTCharFormat@@@Z @ 123 NONAME ; public: virtual void __thiscall MParser::GetRecogniseFormat(class TCharFormat &)
	?GetRolloverFormat@MParser@@UAEXAAVTCharFormat@@@Z @ 124 NONAME ; public: virtual void __thiscall MParser::GetRolloverFormat(class TCharFormat &)
	?GetSpecificCharFormat@CRichText@@QBEXAAVTCharFormat@@AAVTCharFormatMask@@H@Z @ 125 NONAME ; public: void __thiscall CRichText::GetSpecificCharFormat(class TCharFormat &,class TCharFormatMask &,int)const 
	?GetWordInfo@CPlainText@@UBEXHAAH0HH@Z @ 126 NONAME ; public: virtual void __thiscall CPlainText::GetWordInfo(int,int &,int &,int,int)const 
	?HasMarkupData@CRichText@@QBEHXZ @ 127 NONAME ; public: int __thiscall CRichText::HasMarkupData(void)const 
	?ImportTextFileL@CPlainText@@UAEHHABVTDes16@@W4TTextOrganisation@1@@Z @ 128 NONAME ; public: virtual int __thiscall CPlainText::ImportTextFileL(int,class TDes16 const &,enum CPlainText::TTextOrganisation)
	?ImportTextL@CPlainText@@QAEXHAAVRReadStream@@W4TTextOrganisation@1@HHPAH2@Z @ 129 NONAME ; public: void __thiscall CPlainText::ImportTextL(int,class RReadStream &,enum CPlainText::TTextOrganisation,int,int,int *,int *)
	?IndexByName@CStyleList@@QBEHABVTDesC16@@@Z @ 130 NONAME ; public: int __thiscall CStyleList::IndexByName(class TDesC16 const &)const 
	?IndexByPtr@CStyleList@@QBEHPBVCParaFormatLayer@@@Z @ 131 NONAME ; public: int __thiscall CStyleList::IndexByPtr(class CParaFormatLayer const *)const 
	?InsertFieldL@CPlainText@@QAEXHPAVCTextField@@VTUid@@@Z @ 132 NONAME ; public: void __thiscall CPlainText::InsertFieldL(int,class CTextField *,class TUid)
	?InsertL@CPlainText@@UAEXHABVTChar@@@Z @ 133 NONAME ; public: virtual void __thiscall CPlainText::InsertL(int,class TChar const &)
	?InsertL@CPlainText@@UAEXHABVTDesC16@@@Z @ 134 NONAME ; public: virtual void __thiscall CPlainText::InsertL(int,class TDesC16 const &)
	?InsertL@CRichText@@QAEXHABVTPictureHeader@@@Z @ 135 NONAME ; public: void __thiscall CRichText::InsertL(int,class TPictureHeader const &)
	?InsertL@CRichText@@UAEXHABVTChar@@@Z @ 136 NONAME ; public: virtual void __thiscall CRichText::InsertL(int,class TChar const &)
	?InsertL@CRichText@@UAEXHABVTDesC16@@@Z @ 137 NONAME ; public: virtual void __thiscall CRichText::InsertL(int,class TDesC16 const &)
	?InternalizeChainL@CFormatLayer@@QAEXAAVRReadStream@@PBV1@@Z @ 138 NONAME ; public: void __thiscall CFormatLayer::InternalizeChainL(class RReadStream &,class CFormatLayer const *)
	?InternalizeFieldDataL@CPlainText@@QAEXAAVRReadStream@@@Z @ 139 NONAME ; public: void __thiscall CPlainText::InternalizeFieldDataL(class RReadStream &)
	?InternalizeL@CCharFormatLayer@@UAEXAAVRReadStream@@PBVCFormatLayer@@@Z @ 140 NONAME ; public: virtual void __thiscall CCharFormatLayer::InternalizeL(class RReadStream &,class CFormatLayer const *)
	?InternalizeL@CParaFormatLayer@@UAEXAAVRReadStream@@PBVCFormatLayer@@@Z @ 141 NONAME ; public: virtual void __thiscall CParaFormatLayer::InternalizeL(class RReadStream &,class CFormatLayer const *)
	?InternalizeL@CPlainText@@UAEXAAVRReadStream@@@Z @ 142 NONAME ; public: virtual void __thiscall CPlainText::InternalizeL(class RReadStream &)
	?InternalizeL@CRichText@@UAEXAAVRReadStream@@@Z @ 143 NONAME ; public: virtual void __thiscall CRichText::InternalizeL(class RReadStream &)
	?InternalizeL@CStyleList@@QAEXAAVRReadStream@@PBVCParaFormatLayer@@PBVCCharFormatLayer@@@Z @ 144 NONAME ; public: void __thiscall CStyleList::InternalizeL(class RReadStream &,class CParaFormatLayer const *,class CCharFormatLayer const *)
	?InternalizeMarkupDataL@CRichText@@QAEXAAVRReadStream@@@Z @ 145 NONAME ; public: void __thiscall CRichText::InternalizeMarkupDataL(class RReadStream &)
	?InternalizePlainTextL@CPlainText@@QAEXAAVRReadStream@@@Z @ 146 NONAME ; public: void __thiscall CPlainText::InternalizePlainTextL(class RReadStream &)
	?InternalizePlainTextL@CPlainText@@QAEXAAVRReadStream@@H@Z @ 147 NONAME ; public: void __thiscall CPlainText::InternalizePlainTextL(class RReadStream &,int)
	?InternalizeStyleDataL@CRichText@@QAEXAAVRReadStream@@@Z @ 148 NONAME ; public: void __thiscall CRichText::InternalizeStyleDataL(class RReadStream &)
	?IsBorderEqual@CParaFormat@@QBEHW4TParaBorderSide@1@ABV1@@Z @ 149 NONAME ; public: int __thiscall CParaFormat::IsBorderEqual(enum CParaFormat::TParaBorderSide,class CParaFormat const &)const 
	?IsEmpty@CFormatLayer@@QBEHXZ @ 150 NONAME ; public: int __thiscall CFormatLayer::IsEmpty(void)const 
	?IsEqual@CParaFormat@@QBEHABV1@@Z @ 151 NONAME ; public: int __thiscall CParaFormat::IsEqual(class CParaFormat const &)const 
	?IsEqual@CParaFormat@@QBEHABV1@ABVTParaFormatMask@@@Z @ 152 NONAME ; public: int __thiscall CParaFormat::IsEqual(class CParaFormat const &,class TParaFormatMask const &)const 
	?IsEqual@TCharFormat@@QBEHABV1@@Z @ 153 NONAME ; public: int __thiscall TCharFormat::IsEqual(class TCharFormat const &)const 
	?IsEqual@TCharFormat@@QBEHABV1@ABVTCharFormatMask@@@Z @ 154 NONAME ; public: int __thiscall TCharFormat::IsEqual(class TCharFormat const &,class TCharFormatMask const &)const 
	?IsEqual@TFontPresentation@@QBEHABV1@ABVTCharFormatMask@@@Z @ 155 NONAME ; public: int __thiscall TFontPresentation::IsEqual(class TFontPresentation const &,class TCharFormatMask const &)const 
	?IsIdentical@CCharFormatLayer@@QBEHABVTCharFormat@@ABVTCharFormatMask@@@Z @ 156 NONAME ; public: int __thiscall CCharFormatLayer::IsIdentical(class TCharFormat const &,class TCharFormatMask const &)const 
	?IsIdentical@CCharFormatLayer@@UBEHPAVCFormatLayer@@H@Z @ 157 NONAME ; public: virtual int __thiscall CCharFormatLayer::IsIdentical(class CFormatLayer *,int)const 
	?IsIdentical@CParaFormatLayer@@UBEHPAVCFormatLayer@@H@Z @ 158 NONAME ; public: virtual int __thiscall CParaFormatLayer::IsIdentical(class CFormatLayer *,int)const 
	?IsIdenticalL@CParaFormatLayer@@QBEHPBVCParaFormat@@ABVTParaFormatMask@@@Z @ 159 NONAME ; public: int __thiscall CParaFormatLayer::IsIdenticalL(class CParaFormat const *,class TParaFormatMask const &)const 
	?LdDocumentLength@CGlobalText@@UBEHXZ @ 160 NONAME ; public: virtual int __thiscall CGlobalText::LdDocumentLength(void)const 
	?LdToParagraphStart@CGlobalText@@UBEHAAH@Z @ 161 NONAME ; public: virtual int __thiscall CGlobalText::LdToParagraphStart(int &)const 
	?LocateTab@CParaFormat@@QBEHH@Z @ 162 NONAME ; public: int __thiscall CParaFormat::LocateTab(int)const 
	?MLayDoc_Reserved_1@MLayDoc@@UAEXXZ @ 163 NONAME ; public: virtual void __thiscall MLayDoc::MLayDoc_Reserved_1(void)
	?ConfirmCursorOverTag@MParser@@UAEHABVCRichText@@HHH@Z @ 164 NONAME ; public: virtual int __thiscall MParser::ConfirmCursorOverTag(class CRichText const &,int,int,int)
	?MParser_Reserved_2@MParser@@UAEXXZ @ 165 NONAME ; public: virtual void __thiscall MParser::MParser_Reserved_2(void)
	?NewL@CCharFormatLayer@@SAPAV1@AAVRReadStream@@@Z @ 166 NONAME ; public: static class CCharFormatLayer * __cdecl CCharFormatLayer::NewL(class RReadStream &)
	?NewL@CCharFormatLayer@@SAPAV1@ABVTCharFormat@@ABVTCharFormatMask@@@Z @ 167 NONAME ; public: static class CCharFormatLayer * __cdecl CCharFormatLayer::NewL(class TCharFormat const &,class TCharFormatMask const &)
	?NewL@CCharFormatLayer@@SAPAV1@XZ @ 168 NONAME ; public: static class CCharFormatLayer * __cdecl CCharFormatLayer::NewL(void)
	?NewL@CGlobalText@@SAPAV1@ABVCStreamStore@@VTStreamId@@PBVCParaFormatLayer@@PBVCCharFormatLayer@@PAVMTextFieldFactory@@W4TDocumentStorage@CEditableText@@@Z @ 169 NONAME ; public: static class CGlobalText * __cdecl CGlobalText::NewL(class CStreamStore const &,class TStreamId,class CParaFormatLayer const *,class CCharFormatLayer const *,class MTextFieldFactory *,enum CEditableText::TDocumentStorage)
	?NewL@CGlobalText@@SAPAV1@PBVCParaFormatLayer@@PBVCCharFormatLayer@@W4TDocumentStorage@CEditableText@@H@Z @ 170 NONAME ; public: static class CGlobalText * __cdecl CGlobalText::NewL(class CParaFormatLayer const *,class CCharFormatLayer const *,enum CEditableText::TDocumentStorage,int)
	?NewL@CParaFormat@@SAPAV1@ABV1@@Z @ 171 NONAME ; public: static class CParaFormat * __cdecl CParaFormat::NewL(class CParaFormat const &)
	?NewL@CParaFormat@@SAPAV1@XZ @ 172 NONAME ; public: static class CParaFormat * __cdecl CParaFormat::NewL(void)
	?NewL@CParaFormatLayer@@SAPAV1@AAVRReadStream@@@Z @ 173 NONAME ; public: static class CParaFormatLayer * __cdecl CParaFormatLayer::NewL(class RReadStream &)
	?NewL@CParaFormatLayer@@SAPAV1@PBVCParaFormat@@ABVTParaFormatMask@@@Z @ 174 NONAME ; public: static class CParaFormatLayer * __cdecl CParaFormatLayer::NewL(class CParaFormat const *,class TParaFormatMask const &)
	?NewL@CParaFormatLayer@@SAPAV1@XZ @ 175 NONAME ; public: static class CParaFormatLayer * __cdecl CParaFormatLayer::NewL(void)
	?NewL@CParagraphStyle@@SAPAV1@ABVCParaFormatLayer@@ABVCCharFormatLayer@@@Z @ 176 NONAME ; public: static class CParagraphStyle * __cdecl CParagraphStyle::NewL(class CParaFormatLayer const &,class CCharFormatLayer const &)
	?NewL@CPlainText@@SAPAV1@ABVCStreamStore@@VTStreamId@@PAVMTextFieldFactory@@W4TDocumentStorage@CEditableText@@@Z @ 177 NONAME ; public: static class CPlainText * __cdecl CPlainText::NewL(class CStreamStore const &,class TStreamId,class MTextFieldFactory *,enum CEditableText::TDocumentStorage)
	?NewL@CPlainText@@SAPAV1@W4TDocumentStorage@CEditableText@@H@Z @ 178 NONAME ; public: static class CPlainText * __cdecl CPlainText::NewL(enum CEditableText::TDocumentStorage,int)
	?NewL@CRichText@@SAPAV1@ABVCStreamStore@@VTStreamId@@PBVCParaFormatLayer@@PBVCCharFormatLayer@@PAVMPictureFactory@@PAVMRichTextStoreResolver@@PAVMTextFieldFactory@@W4TDocumentStorage@CEditableText@@@Z @ 179 NONAME ; public: static class CRichText * __cdecl CRichText::NewL(class CStreamStore const &,class TStreamId,class CParaFormatLayer const *,class CCharFormatLayer const *,class MPictureFactory *,class MRichTextStoreResolver *,class MTextFieldFactory *,enum CEditableText::TDocumentStorage)
	?NewL@CRichText@@SAPAV1@ABVCStreamStore@@VTStreamId@@PBVCParaFormatLayer@@PBVCCharFormatLayer@@PAVMTextFieldFactory@@W4TDocumentStorage@CEditableText@@@Z @ 180 NONAME ; public: static class CRichText * __cdecl CRichText::NewL(class CStreamStore const &,class TStreamId,class CParaFormatLayer const *,class CCharFormatLayer const *,class MTextFieldFactory *,enum CEditableText::TDocumentStorage)
	?NewL@CRichText@@SAPAV1@PBVCParaFormatLayer@@PBVCCharFormatLayer@@ABVCStyleList@@W4TDocumentStorage@CEditableText@@HW4TParaType@1@@Z @ 181 NONAME ; public: static class CRichText * __cdecl CRichText::NewL(class CParaFormatLayer const *,class CCharFormatLayer const *,class CStyleList const &,enum CEditableText::TDocumentStorage,int,enum CRichText::TParaType)
	?NewL@CRichText@@SAPAV1@PBVCParaFormatLayer@@PBVCCharFormatLayer@@W4TDocumentStorage@CEditableText@@HW4TParaType@1@@Z @ 182 NONAME ; public: static class CRichText * __cdecl CRichText::NewL(class CParaFormatLayer const *,class CCharFormatLayer const *,enum CEditableText::TDocumentStorage,int,enum CRichText::TParaType)
	?NewL@CStyleList@@SAPAV1@AAVRReadStream@@PBVCParaFormatLayer@@PBVCCharFormatLayer@@@Z @ 183 NONAME ; public: static class CStyleList * __cdecl CStyleList::NewL(class RReadStream &,class CParaFormatLayer const *,class CCharFormatLayer const *)
	?NewL@CStyleList@@SAPAV1@H@Z @ 184 NONAME ; public: static class CStyleList * __cdecl CStyleList::NewL(int)
	?NewLC@CParaFormat@@SAPAV1@XZ @ 185 NONAME ; public: static class CParaFormat * __cdecl CParaFormat::NewLC(void)
	?NewTextFieldL@CPlainText@@QBEPAVCTextField@@VTUid@@@Z @ 186 NONAME ; public: class CTextField * __thiscall CPlainText::NewTextFieldL(class TUid)const 
	?NotifyStyleChangedL@CRichText@@QAEXPBVCParagraphStyle@@0@Z @ 187 NONAME ; public: void __thiscall CRichText::NotifyStyleChangedL(class CParagraphStyle const *,class CParagraphStyle const *)
	?OverrideFormatOfInlineTextIfApplicable@CEditableText@@IBEXAAVTPtrC16@@AAVTCharFormat@@H@Z @ 188 NONAME ; protected: void __thiscall CEditableText::OverrideFormatOfInlineTextIfApplicable(class TPtrC16 &,class TCharFormat &,int)const 
	?PageContainingPos@CPlainText@@QBEHH@Z @ 189 NONAME ; public: int __thiscall CPlainText::PageContainingPos(int)const 
	?ParaBorder@CParaFormat@@QBE?BVTParaBorder@@W4TParaBorderSide@1@@Z @ 190 NONAME ; public: class TParaBorder const  __thiscall CParaFormat::ParaBorder(enum CParaFormat::TParaBorderSide)const 
	?ParagraphCount@CPlainText@@UBEHXZ @ 191 NONAME ; public: virtual int __thiscall CPlainText::ParagraphCount(void)const 
	?ParagraphCount@CRichText@@UBEHXZ @ 192 NONAME ; public: virtual int __thiscall CRichText::ParagraphCount(void)const 
	?ParagraphNumberForPos@CPlainText@@UBEHAAH@Z @ 193 NONAME ; public: virtual int __thiscall CPlainText::ParagraphNumberForPos(int &)const 
	?ParagraphNumberForPos@CRichText@@UBEHAAH@Z @ 194 NONAME ; public: virtual int __thiscall CRichText::ParagraphNumberForPos(int &)const 
	?ParagraphStyle@CRichText@@QBEPBVCParaFormatLayer@@AAHHH@Z @ 195 NONAME ; public: class CParaFormatLayer const * __thiscall CRichText::ParagraphStyle(int &,int,int)const 
	?ParseText@CRichText@@QAEHAAH0H@Z @ 196 NONAME ; public: int __thiscall CRichText::ParseText(int &,int &,int)
	?PasteFromStoreL@CPlainText@@UAEHABVCStreamStore@@ABVCStreamDictionary@@H@Z @ 197 NONAME ; public: virtual int __thiscall CPlainText::PasteFromStoreL(class CStreamStore const &,class CStreamDictionary const &,int)
	?PasteFromStoreL@CRichText@@QAEHABVCStreamStore@@ABVCStreamDictionary@@HW4TStylePasteMode@CParagraphStyle@@@Z @ 198 NONAME ; public: int __thiscall CRichText::PasteFromStoreL(class CStreamStore const &,class CStreamDictionary const &,int,enum CParagraphStyle::TStylePasteMode)
	?PasteFromStoreL@CRichText@@UAEHABVCStreamStore@@ABVCStreamDictionary@@H@Z @ 199 NONAME ; public: virtual int __thiscall CRichText::PasteFromStoreL(class CStreamStore const &,class CStreamDictionary const &,int)
	?PictureCount@CRichText@@QBEHXZ @ 200 NONAME ; public: int __thiscall CRichText::PictureCount(void)const 
	?PictureHandleL@CGlobalText@@UBEPAVCPicture@@HW4TForcePictureLoad@MLayDoc@@@Z @ 201 NONAME ; public: virtual class CPicture * __thiscall CGlobalText::PictureHandleL(int,enum MLayDoc::TForcePictureLoad)const 
	?PictureHandleL@CRichText@@UBEPAVCPicture@@HW4TForcePictureLoad@MLayDoc@@@Z @ 202 NONAME ; public: virtual class CPicture * __thiscall CRichText::PictureHandleL(int,enum MLayDoc::TForcePictureLoad)const 
	?PictureHeader@CRichText@@QBE?AVTPictureHeader@@H@Z @ 203 NONAME ; public: class TPictureHeader  __thiscall CRichText::PictureHeader(int)const 
	?PositionOfNextTag@CRichText@@QBEHH@Z @ 204 NONAME ; public: int __thiscall CRichText::PositionOfNextTag(int)const 
	?PositionOfNextTag@CRichText@@QBEHHPBVMParser@@@Z @ 205 NONAME ; public: int __thiscall CRichText::PositionOfNextTag(int,class MParser const *)const 
	?PositionOfPrevTag@CRichText@@QBEHH@Z @ 206 NONAME ; public: int __thiscall CRichText::PositionOfPrevTag(int)const 
	?PositionOfPrevTag@CRichText@@QBEHHPBVMParser@@@Z @ 207 NONAME ; public: int __thiscall CRichText::PositionOfPrevTag(int,class MParser const *)const 
	?PtInsertL@CPlainText@@IAEXHABVTDesC16@@@Z @ 208 NONAME ; protected: void __thiscall CPlainText::PtInsertL(int,class TDesC16 const &)
	?Ptr@CCharFormatLayer@@QBEPBEAAH@Z @ 209 NONAME ; public: unsigned char const * __thiscall CCharFormatLayer::Ptr(int &)const 
	?Ptr@CParaFormatLayer@@QBEPBEAAH@Z @ 210 NONAME ; public: unsigned char const * __thiscall CParaFormatLayer::Ptr(int &)const 
	?PtrByName@CStyleList@@QBEPAVRParagraphStyleInfo@@ABV?$TBuf@$0CA@@@@Z @ 211 NONAME ; public: class RParagraphStyleInfo * __thiscall CStyleList::PtrByName(class TBuf<32> const &)const 
	?PtrByType@CStyleList@@QBEPAVRParagraphStyleInfo@@VTUid@@@Z @ 212 NONAME ; public: class RParagraphStyleInfo * __thiscall CStyleList::PtrByType(class TUid)const 
	?Read@CPlainText@@UBE?AVTPtrC16@@H@Z @ 213 NONAME ; public: virtual class TPtrC16  __thiscall CPlainText::Read(int)const 
	?Read@CPlainText@@UBE?AVTPtrC16@@HH@Z @ 214 NONAME ; public: virtual class TPtrC16  __thiscall CPlainText::Read(int,int)const 
	?ReformatOnRecognise@MParser@@UBEHXZ @ 215 NONAME ; public: virtual int __thiscall MParser::ReformatOnRecognise(void)const 
	?ReformatOnRollover@MParser@@UBEHXZ @ 216 NONAME ; public: virtual int __thiscall MParser::ReformatOnRollover(void)const 
	?Remove@CStyleList@@QAEXPAVCParagraphStyle@@@Z @ 217 NONAME ; public: void __thiscall CStyleList::Remove(class CParagraphStyle *)
	?RemoveAllBorders@CParaFormat@@QAEXXZ @ 218 NONAME ; public: void __thiscall CParaFormat::RemoveAllBorders(void)
	?RemoveField@CPlainText@@QAEHH@Z @ 219 NONAME ; public: int __thiscall CPlainText::RemoveField(int)
	?RemoveSpecificCharFormatL@CRichText@@QAEXHH@Z @ 220 NONAME ; public: void __thiscall CRichText::RemoveSpecificCharFormatL(int,int)
	?RemoveSpecificParaFormatL@CRichText@@QAEXHH@Z @ 221 NONAME ; public: void __thiscall CRichText::RemoveSpecificParaFormatL(int,int)
	?RemoveTab@CParaFormat@@QAEXH@Z @ 222 NONAME ; public: void __thiscall CParaFormat::RemoveTab(int)
	?ExtendedInterface@CEditableText@@UAEXAAPAXVTUid@@@Z @ 223 NONAME ; void CEditableText::ExtendedInterface(void * &, class TUid)
	?ExtendedInterface@CPlainText@@UAEXAAPAXVTUid@@@Z @ 224 NONAME ; void CPlainText::ExtendedInterface(void * &, class TUid)
	?Reserved_2@CPlainText@@EAEXXZ @ 225 NONAME ; private: virtual void __thiscall CPlainText::Reserved_2(void)
	?Reset@CFormatLayer@@QAEXXZ @ 226 NONAME ; public: void __thiscall CFormatLayer::Reset(void)
	?Reset@CParaFormat@@QAEXXZ @ 227 NONAME ; public: void __thiscall CParaFormat::Reset(void)
	?Reset@CPlainText@@UAEXXZ @ 228 NONAME ; public: virtual void __thiscall CPlainText::Reset(void)
	?Reset@CRichText@@UAEXXZ @ 229 NONAME ; public: virtual void __thiscall CRichText::Reset(void)
	?Reset@CStyleList@@QAEXXZ @ 230 NONAME ; public: void __thiscall CStyleList::Reset(void)
	?ResetNonDestructive@CParaFormat@@QAEXXZ @ 231 NONAME ; public: void __thiscall CParaFormat::ResetNonDestructive(void)
	?RestoreComponentsL@CPlainText@@UAEXABVCStreamStore@@@Z @ 232 NONAME ; public: virtual void __thiscall CPlainText::RestoreComponentsL(class CStreamStore const &)
	?RestoreComponentsL@CRichText@@UAEXABVCStreamStore@@@Z @ 233 NONAME ; public: virtual void __thiscall CRichText::RestoreComponentsL(class CStreamStore const &)
	?RestoreFieldComponentsL@CPlainText@@QAEXABVCStreamStore@@@Z @ 234 NONAME ; public: void __thiscall CPlainText::RestoreFieldComponentsL(class CStreamStore const &)
	?RestoreL@CEditableText@@QAEXABVCStreamStore@@VTStreamId@@@Z @ 235 NONAME ; public: void __thiscall CEditableText::RestoreL(class CStreamStore const &,class TStreamId)
	?RestoreWithStyleListL@CRichText@@QAEXABVCStreamStore@@VTStreamId@@ABVCStyleList@@@Z @ 236 NONAME ; public: void __thiscall CRichText::RestoreWithStyleListL(class CStreamStore const &,class TStreamId,class CStyleList const &)
	?RtInsertL@CRichText@@IAEXHABVTDesC16@@@Z @ 237 NONAME ; protected: void __thiscall CRichText::RtInsertL(int,class TDesC16 const &)
	?ScanParas@CEditableText@@UBEHAAHAAI@Z @ 238 NONAME ; public: virtual int __thiscall CEditableText::ScanParas(int &,unsigned int &)const 
	?ScanParas@CPlainText@@UBEHAAHAAI@Z @ 239 NONAME ; public: virtual int __thiscall CPlainText::ScanParas(int &,unsigned int &)const 
	?ScanWords@CEditableText@@UBEHAAHAAI@Z @ 240 NONAME ; public: virtual int __thiscall CEditableText::ScanWords(int &,unsigned int &)const 
	?ScanWords@CPlainText@@UBEHAAHAAI@Z @ 241 NONAME ; public: virtual int __thiscall CPlainText::ScanWords(int &,unsigned int &)const 
	?SelectParagraphLabel@CGlobalText@@UAEHH@Z @ 242 NONAME ; public: virtual int __thiscall CGlobalText::SelectParagraphLabel(int)
	?Sense@CCharFormatLayer@@QBEXAAVTCharFormat@@AAVTCharFormatMask@@@Z @ 243 NONAME ; public: void __thiscall CCharFormatLayer::Sense(class TCharFormat &,class TCharFormatMask &)const 
	?SenseBase@CFormatLayer@@QBEPBV1@XZ @ 244 NONAME ; public: class CFormatLayer const * __thiscall CFormatLayer::SenseBase(void)const 
	?SenseEffective@CCharFormatLayer@@QBEXAAVTCharFormat@@@Z @ 245 NONAME ; public: void __thiscall CCharFormatLayer::SenseEffective(class TCharFormat &)const 
	?SenseEffectiveL@CParaFormatLayer@@QBEXPAVCParaFormat@@W4TParaFormatGetMode@2@@Z @ 246 NONAME ; public: void __thiscall CParaFormatLayer::SenseEffectiveL(class CParaFormat *,enum CParaFormat::TParaFormatGetMode)const 
	?SenseL@CParaFormatLayer@@QBEXPAVCParaFormat@@AAVTParaFormatMask@@W4TParaFormatGetMode@2@@Z @ 247 NONAME ; public: void __thiscall CParaFormatLayer::SenseL(class CParaFormat *,class TParaFormatMask &,enum CParaFormat::TParaFormatGetMode)const 
	?SetAll@TCharFormatMask@@QAEXXZ @ 248 NONAME ; public: void __thiscall TCharFormatMask::SetAll(void)
	?SetAll@TParaFormatMask@@QAEXXZ @ 249 NONAME ; public: void __thiscall TParaFormatMask::SetAll(void)
	?SetBase@CFormatLayer@@QAEXPBV1@@Z @ 250 NONAME ; public: void __thiscall CFormatLayer::SetBase(class CFormatLayer const *)
	?SetEditObserver@CRichText@@QAEXPAVMEditObserver@@@Z @ 251 NONAME ; public: void __thiscall CRichText::SetEditObserver(class MEditObserver *)
	?SetFieldFactory@CPlainText@@QAEXPAVMTextFieldFactory@@@Z @ 252 NONAME ; public: void __thiscall CPlainText::SetFieldFactory(class MTextFieldFactory *)
	?SetGlobalCharFormat@CGlobalText@@QAEXPBVCCharFormatLayer@@@Z @ 253 NONAME ; public: void __thiscall CGlobalText::SetGlobalCharFormat(class CCharFormatLayer const *)
	?SetGlobalParaFormat@CGlobalText@@QAEXPBVCParaFormatLayer@@@Z @ 254 NONAME ; public: void __thiscall CGlobalText::SetGlobalParaFormat(class CParaFormatLayer const *)
	?SetHasChanged@CEditableText@@UAEXH@Z @ 255 NONAME ; public: virtual void __thiscall CEditableText::SetHasChanged(int)
	?SetHasChanged@CRichText@@UAEXH@Z @ 256 NONAME ; public: virtual void __thiscall CRichText::SetHasChanged(int)
	?SetInsertCharFormatL@CRichText@@QAEXABVTCharFormat@@ABVTCharFormatMask@@H@Z @ 257 NONAME ; public: void __thiscall CRichText::SetInsertCharFormatL(class TCharFormat const &,class TCharFormatMask const &,int)
	?SetL@CCharFormatLayer@@QAEXABVTCharFormat@@ABVTCharFormatMask@@@Z @ 258 NONAME ; public: void __thiscall CCharFormatLayer::SetL(class TCharFormat const &,class TCharFormatMask const &)
	?SetL@CParaFormatLayer@@QAEXPBVCParaFormat@@ABVTParaFormatMask@@@Z @ 259 NONAME ; public: void __thiscall CParaFormatLayer::SetL(class CParaFormat const *,class TParaFormatMask const &)
	?SetPageTable@CPlainText@@QAEXPAV?$CArrayFix@H@@@Z @ 260 NONAME ; public: void __thiscall CPlainText::SetPageTable(class CArrayFix<int> *)
	?SetParaBorderL@CParaFormat@@QAEXW4TParaBorderSide@1@ABVTParaBorder@@@Z @ 261 NONAME ; public: void __thiscall CParaFormat::SetParaBorderL(enum CParaFormat::TParaBorderSide,class TParaBorder const &)
	?SetPictureFactory@CRichText@@QAEXPAVMPictureFactory@@PAVMRichTextStoreResolver@@@Z @ 262 NONAME ; public: void __thiscall CRichText::SetPictureFactory(class MPictureFactory *,class MRichTextStoreResolver *)
	?SetStyleListExternallyOwned@CRichText@@QAEXABVCStyleList@@@Z @ 263 NONAME ; public: void __thiscall CRichText::SetStyleListExternallyOwned(class CStyleList const &)
	?SetStyleToFollow@CStyleList@@QAEHABVRParagraphStyleInfo@@@Z @ 264 NONAME ; public: int __thiscall CStyleList::SetStyleToFollow(class RParagraphStyleInfo const &)
	?StartFepInlineEditL@CEditableText@@QAEXAAH000HABVTDesC16@@HHAAVMFepInlineTextFormatRetriever@@@Z @ 265 NONAME ; public: void __thiscall CEditableText::StartFepInlineEditL(int &,int &,int &,int &,int,class TDesC16 const &,int,int,class MFepInlineTextFormatRetriever &)
	?StoreComponentsL@CPlainText@@UBEXAAVCStreamStore@@AAVCStoreMap@@@Z @ 266 NONAME ; public: virtual void __thiscall CPlainText::StoreComponentsL(class CStreamStore &,class CStoreMap &)const 
	?StoreComponentsL@CRichText@@UBEXAAVCStreamStore@@AAVCStoreMap@@@Z @ 267 NONAME ; public: virtual void __thiscall CRichText::StoreComponentsL(class CStreamStore &,class CStoreMap &)const 
	?StoreFieldComponentsL@CPlainText@@QBEXAAVCStreamStore@@AAVCStoreMap@@@Z @ 268 NONAME ; public: void __thiscall CPlainText::StoreFieldComponentsL(class CStreamStore &,class CStoreMap &)const 
	?StoreL@CEditableText@@QBE?AVTStreamId@@AAVCStreamStore@@@Z @ 269 NONAME ; public: class TStreamId  __thiscall CEditableText::StoreL(class CStreamStore &)const 
	?StoreL@CStyleList@@QBE?AVTStreamId@@AAVCStreamStore@@@Z @ 270 NONAME ; public: class TStreamId  __thiscall CStyleList::StoreL(class CStreamStore &)const 
	?StoreMarkupComponentsL@CRichText@@QBEXAAVCStreamStore@@AAVCStoreMap@@@Z @ 271 NONAME ; public: void __thiscall CRichText::StoreMarkupComponentsL(class CStreamStore &,class CStoreMap &)const 
	?StoreTabL@CParaFormat@@QAEXABVTTabStop@@@Z @ 272 NONAME ; public: void __thiscall CParaFormat::StoreTabL(class TTabStop const &)
	?Strip@CParaFormat@@QAEXXZ @ 273 NONAME ; public: void __thiscall CParaFormat::Strip(void)
	?TabStop@CParaFormat@@QBE?BVTTabStop@@H@Z @ 274 NONAME ; public: class TTabStop const  __thiscall CParaFormat::TabStop(int)const 
	?TextField@CPlainText@@QBEPBVCTextField@@H@Z @ 275 NONAME ; public: class CTextField const * __thiscall CPlainText::TextField(int)const 
	?ToParagraphStart@CPlainText@@UBEHAAH@Z @ 276 NONAME ; public: virtual int __thiscall CPlainText::ToParagraphStart(int &)const 
	?Type@CParaFormatLayer@@UBE?AVTUid@@XZ @ 277 NONAME ; public: virtual class TUid  __thiscall CParaFormatLayer::Type(void)const 
	?Type@CParagraphStyle@@UBE?AVTUid@@XZ @ 278 NONAME ; public: virtual class TUid  __thiscall CParagraphStyle::Type(void)const 
	?UpdateAllFieldsL@CPlainText@@QAEXXZ @ 279 NONAME ; public: void __thiscall CPlainText::UpdateAllFieldsL(void)
	?UpdateFepInlineTextL@CEditableText@@QAEXAAH000HABVTDesC16@@@Z @ 280 NONAME ; public: void __thiscall CEditableText::UpdateFepInlineTextL(int &,int &,int &,int &,int,class TDesC16 const &)
	?UpdateFieldL@CPlainText@@UAEXH@Z @ 281 NONAME ; public: virtual void __thiscall CPlainText::UpdateFieldL(int)
	?UpdateFieldL@CRichText@@UAEXH@Z @ 282 NONAME ; public: virtual void __thiscall CRichText::UpdateFieldL(int)
	?WordCount@CPlainText@@UBEHXZ @ 283 NONAME ; public: virtual int __thiscall CPlainText::WordCount(void)const 
	?__DbgTestInvariant@CFormatLayer@@QBEXXZ @ 284 NONAME ; public: void __thiscall CFormatLayer::__DbgTestInvariant(void)const 
	?__DbgTestInvariant@CGlobalText@@QBEXXZ @ 285 NONAME ; public: void __thiscall CGlobalText::__DbgTestInvariant(void)const 
	?__DbgTestInvariant@CPlainText@@QBEXXZ @ 286 NONAME ; public: void __thiscall CPlainText::__DbgTestInvariant(void)const 
	?__DbgTestInvariant@CRichText@@QBEXXZ @ 287 NONAME ; public: void __thiscall CRichText::__DbgTestInvariant(void)const 
	?__DbgTestInvariant@CRichTextIndex@@QBEXXZ @ 288 NONAME ; public: void __thiscall CRichTextIndex::__DbgTestInvariant(void)const 
	?__DbgTestInvariant@CStyleList@@QBEXXZ @ 289 NONAME ; public: void __thiscall CStyleList::__DbgTestInvariant(void)const 
	?__DbgTestInvariant@RFormatStream@@QBEXXZ @ 290 NONAME ; public: void __thiscall RFormatStream::__DbgTestInvariant(void)const 
	?__DbgTestInvariant@RPhraseAttribsEntry@@QBEXXZ @ 291 NONAME ; public: void __thiscall RPhraseAttribsEntry::__DbgTestInvariant(void)const 
	?ExportTextL@CPlainText@@QBEXHAAVRWriteStream@@ABVTImportExportParam@1@AAVTImportExportResult@1@@Z @ 292 NONAME ; public: void __thiscall CPlainText::ExportTextL(int,class RWriteStream &,class CPlainText::TImportExportParam const &,class CPlainText::TImportExportResult &)const 
	?ImportTextL@CPlainText@@QAEXHAAVRReadStream@@ABVTImportExportParam@1@AAVTImportExportResult@1@@Z @ 293 NONAME ; public: void __thiscall CPlainText::ImportTextL(int,class RReadStream &,class CPlainText::TImportExportParam const &,class CPlainText::TImportExportResult &)
	?GetSpecificCharFormatRight@CRichText@@QBEXAAVTCharFormat@@AAVTCharFormatMask@@H@Z @ 294 NONAME ; public: void __thiscall CRichText::GetSpecificCharFormatRight(class TCharFormat &,class TCharFormatMask &,int)const 
	?GetSpecificParagraphFormatL@CRichText@@QBEXPAVCParaFormat@@AAVTParaFormatMask@@H@Z @ 295 NONAME ; public: void __thiscall CRichText::GetSpecificParagraphFormatL(class CParaFormat *,class TParaFormatMask &,int)const 
	?DropPictureOwnership@CRichText@@QAEXH@Z @ 296 NONAME ; public: void __thiscall CRichText::DropPictureOwnership(int)
	?ExtendedInterface@CRichText@@UAEXAAPAXVTUid@@@Z @ 297 NONAME ; void CRichText::ExtendedInterface(void * &, class TUid)
	?GetLengthOfInlineText@CEditableText@@QBEHXZ @ 298 NONAME ; int CEditableText::GetLengthOfInlineText(void) const
	?GetPositionOfInlineTextInDocument@CEditableText@@QBEHXZ @ 299 NONAME ; int CEditableText::GetPositionOfInlineTextInDocument(void) const
	?FieldFactory@CPlainText@@QBEPBVMTextFieldFactory@@XZ @ 300 NONAME ; class MTextFieldFactory const * CPlainText::FieldFactory(void) const

