EXPORTS ??0CDateTimeField@@QAE@XZ @1 NONAME
EXPORTS ?RestoreL@CFileNameField@@UAEXABVCStreamStore@@VTStreamId@@@Z @2 NONAME
EXPORTS ??1CTextFieldSet@@UAE@XZ @3 NONAME
EXPORTS ??8TFindFieldInfo@@QBEHABV0@@Z @4 NONAME
EXPORTS ??9TFindFieldInfo@@QBEHABV0@@Z @5 NONAME
EXPORTS ?CharCount@CTextFieldSet@@QBEHXZ @6 NONAME
EXPORTS ?CopyComponentsL@CTextFieldSet@@QBEXAAVCStreamStore@@AAVCStoreMap@@HH@Z @7 NONAME
EXPORTS ?CopyToStoreL@CTextFieldSet@@QBE?AVTStreamId@@AAVCStreamStore@@HH@Z @8 NONAME
EXPORTS ?CopyToStreamL@CTextFieldSet@@QBEXAAVRWriteStream@@HH@Z @9 NONAME
EXPORTS ?DeneryToChar@TDeneryToCharBase@@QBEHAAVTPtr16@@H@Z @10 NONAME
EXPORTS ?DoDeneryToChar@TAlphabeticNumeral@@MBEXAAVTPtr16@@H@Z @11 NONAME
EXPORTS ?DoDeneryToChar@TArabicNumeral@@MBEXAAVTPtr16@@H@Z @12 NONAME
EXPORTS ?DoDeneryToChar@TRomanNumeral@@MBEXAAVTPtr16@@H@Z @13 NONAME
EXPORTS ?ExternalizeL@CDateTimeField@@UBEXAAVRWriteStream@@@Z @14 NONAME
EXPORTS ?ExternalizeL@CPageFieldBase@@UBEXAAVRWriteStream@@@Z @15 NONAME
EXPORTS ?ExternalizeL@CTextField@@UBEXAAVRWriteStream@@@Z @16 NONAME
EXPORTS ?ExternalizeL@CTextFieldSet@@QBEXAAVRWriteStream@@@Z @17 NONAME
EXPORTS ?ExternalizeL@TTextFieldEntry@@QBEXAAVRWriteStream@@@Z @18 NONAME
EXPORTS ?ExternalizeL@TTextFieldHeader@@QBEXAAVRWriteStream@@@Z @19 NONAME
EXPORTS ?FieldCount@CTextFieldSet@@QBEHXZ @20 NONAME
EXPORTS ?FieldFactory@CTextFieldSet@@QBEPAVMTextFieldFactory@@XZ @21 NONAME
EXPORTS ?FindFields@CTextFieldSet@@QBEHAAVTFindFieldInfo@@HH@Z @22 NONAME
EXPORTS ?FindFields@CTextFieldSet@@QBEHH@Z @23 NONAME
EXPORTS ?FormatString@CDateTimeField@@QBEABVTDesC16@@XZ @24 NONAME
EXPORTS ?InsertFieldL@CTextFieldSet@@QAEHHPAVCTextField@@VTUid@@@Z @25 NONAME
EXPORTS ?InternalizeL@CDateTimeField@@UAEXAAVRReadStream@@@Z @26 NONAME
EXPORTS ?InternalizeL@CPageFieldBase@@UAEXAAVRReadStream@@@Z @27 NONAME
EXPORTS ?InternalizeL@CTextFieldSet@@QAEXAAVRReadStream@@@Z @28 NONAME
EXPORTS ?InternalizeL@TTextFieldEntry@@QAEXAAVRReadStream@@@Z @29 NONAME
EXPORTS ?InternalizeL@TTextFieldHeader@@QAEXAAVRReadStream@@@Z @30 NONAME
EXPORTS ?NewFieldL@CTextFieldSet@@QAEPAVCTextField@@VTUid@@@Z @31 NONAME
EXPORTS ?NewFieldValueL@CTextFieldSet@@QAEHAAPAVHBufC16@@H@Z @32 NONAME
EXPORTS ?NewL@CTextFieldSet@@SAPAV1@H@Z @33 NONAME
EXPORTS ?NewL@CTextFieldSet@@SAPAV1@PBVMTextFieldFactory@@ABVCStreamStore@@VTStreamId@@@Z @34 NONAME
EXPORTS ?NotifyDeletion@CTextFieldSet@@QAEXHH@Z @35 NONAME
EXPORTS ?NotifyFieldUpdate@CTextFieldSet@@QAEXHH@Z @36 NONAME
EXPORTS ?NotifyInsertion@CTextFieldSet@@QAEXHH@Z @37 NONAME
EXPORTS ?NumChars@TAlphabeticNumeral@@MBEHH@Z @38 NONAME
EXPORTS ?NumChars@TArabicNumeral@@MBEHH@Z @39 NONAME
EXPORTS ?NumChars@TRomanNumeral@@MBEHH@Z @40 NONAME
EXPORTS ?NumberStyle@CPageFieldBase@@QBE?AW4TNumberStyle@1@XZ @41 NONAME
EXPORTS ?PasteComponentsL@CTextFieldSet@@QAEXABVCStreamStore@@H@Z @42 NONAME
EXPORTS ?PasteFromStoreL@CTextFieldSet@@QAEXABVCStreamStore@@VTStreamId@@HH@Z @43 NONAME
EXPORTS ?PasteFromStreamL@CTextFieldSet@@QAEXAAVRReadStream@@HH@Z @44 NONAME
EXPORTS ?RemoveField@CTextFieldSet@@QAEHH@Z @45 NONAME
EXPORTS ?Reset@CTextFieldSet@@QAEXXZ @46 NONAME
EXPORTS ?RestoreFieldsL@CTextFieldSet@@QAEXABVCStreamStore@@@Z @47 NONAME
EXPORTS ?RestoreL@CTextField@@UAEXABVCStreamStore@@VTStreamId@@@Z @48 NONAME
EXPORTS ?RestoreL@CTextFieldSet@@QAEXABVCStreamStore@@VTStreamId@@@Z @49 NONAME
EXPORTS ?RollbackPaste@CTextFieldSet@@QAEXXZ @50 NONAME
EXPORTS ?SetFieldFactory@CTextFieldSet@@QAEXPAVMTextFieldFactory@@@Z @51 NONAME
EXPORTS ?SetFormat@CDateTimeField@@QAEXABVTDesC16@@@Z @52 NONAME
EXPORTS ?StoreFieldsL@CTextFieldSet@@QBEXAAVCStreamStore@@AAVCStoreMap@@@Z @53 NONAME
EXPORTS ?StoreL@CFileNameField@@UBE?AVTStreamId@@AAVCStreamStore@@@Z @54 NONAME
EXPORTS ?StoreL@CTextField@@UBE?AVTStreamId@@AAVCStreamStore@@@Z @55 NONAME
EXPORTS ?StoreL@CTextFieldSet@@QBE?AVTStreamId@@AAVCStreamStore@@@Z @56 NONAME
EXPORTS ?TextField@CTextFieldSet@@QBEPBVCTextField@@H@Z @57 NONAME
EXPORTS ?Type@CDateTimeField@@UBE?AVTUid@@XZ @58 NONAME
EXPORTS ?Type@CFileNameField@@UBE?AVTUid@@XZ @59 NONAME
EXPORTS ?Type@CNumPagesField@@UBE?AVTUid@@XZ @60 NONAME
EXPORTS ?Type@CPageNumField@@UBE?AVTUid@@XZ @61 NONAME
EXPORTS ?Value@CDateTimeField@@UAEHAAVTPtr16@@@Z @62 NONAME
EXPORTS ?Value@CFileNameField@@UAEHAAVTPtr16@@@Z @63 NONAME
EXPORTS ?Value@CNumPagesField@@UAEHAAVTPtr16@@@Z @64 NONAME
EXPORTS ?Value@CPageNumField@@UAEHAAVTPtr16@@@Z @65 NONAME
EXPORTS ??0TFieldMapExternalizer@@AAE@ABVCStoreMap@@@Z @66 NONAME
EXPORTS ?ExternalizeL@TFieldMapExternalizer@@EBEXABVTStreamRef@@AAVRWriteStream@@@Z @67 NONAME
EXPORTS ?__DbgTestInvariant@CTextFieldSet@@QBEXXZ @68 NONAME
