EXPORTS ??0CDummyField@@QAE@XZ @1 NONAME
EXPORTS ??0CTestPicture@@IAE@XZ @2 NONAME
EXPORTS ??0CXzeDoor@@IAE@H@Z @3 NONAME
EXPORTS ??0CXzeDoor@@IAE@VTChar@@H@Z @4 NONAME
EXPORTS ??0CXzePicture@@IAE@VTChar@@@Z @5 NONAME
EXPORTS ??0CXzePicture@@IAE@XZ @6 NONAME
EXPORTS ??0MDemPictureFactory@@QAE@XZ @7 NONAME
EXPORTS ??1CClipboard@@UAE@XZ @8 NONAME
EXPORTS ??1CXzePicture@@UAE@XZ @9 NONAME
EXPORTS ?CommitL@CClipboard@@QAEXXZ @10 NONAME
EXPORTS ?DetachFromStoreL@CXzeDoor@@UAEXW4TDetach@CPicture@@@Z @11 NONAME
EXPORTS ?Draw@CTestPicture@@UBEXAAVCGraphicsContext@@ABVTPoint@@ABVTRect@@PAVMGraphicsDeviceMap@@@Z @12 NONAME
EXPORTS ?Draw@CXzePicture@@UBEXAAVCGraphicsContext@@ABVTPoint@@ABVTRect@@PAVMGraphicsDeviceMap@@@Z @13 NONAME
EXPORTS ?ExternalizeL@CDummyField@@UBEXAAVRWriteStream@@@Z @14 NONAME
EXPORTS ?ExternalizeL@CTestPicture@@UBEXAAVRWriteStream@@@Z @15 NONAME
EXPORTS ?ExternalizeL@CXzeDoor@@UBEXAAVRWriteStream@@@Z @16 NONAME
EXPORTS ?ExternalizeL@CXzePicture@@UBEXAAVRWriteStream@@@Z @17 NONAME
EXPORTS ?GetOriginalSizeInTwips@CTestPicture@@UBEXAAVTSize@@@Z @18 NONAME
EXPORTS ?GetOriginalSizeInTwips@CXzePicture@@UBEXAAVTSize@@@Z @19 NONAME
EXPORTS ?InternalizeL@CDummyField@@UAEXAAVRReadStream@@@Z @20 NONAME
EXPORTS ?InternalizeL@CXzeDoor@@QAEXAAVRReadStream@@@Z @21 NONAME
EXPORTS ?InternalizeL@CXzePicture@@QAEXAAVRReadStream@@@Z @22 NONAME
EXPORTS ?NewForReadingLC@CClipboard@@SAPAV1@AAVRFs@@@Z @23 NONAME
EXPORTS ?NewForWritingLC@CClipboard@@SAPAV1@AAVRFs@@@Z @24 NONAME
EXPORTS ?NewL@CTestPicture@@SAPAV1@XZ @25 NONAME
EXPORTS ?NewL@CXzeDoor@@SAPAV1@ABVCStreamStore@@VTStreamId@@@Z @26 NONAME
EXPORTS ?NewL@CXzeDoor@@SAPAV1@VTChar@@H@Z @27 NONAME
EXPORTS ?NewL@CXzePicture@@SAPAV1@ABVCStreamStore@@VTStreamId@@@Z @28 NONAME
EXPORTS ?NewL@CXzePicture@@SAPAV1@VTChar@@@Z @29 NONAME
EXPORTS ?NewPictureL@MDemPictureFactory@@UBEXAAVTPictureHeader@@ABVCStreamStore@@@Z @30 NONAME
EXPORTS ?RestoreL@CXzeDoor@@QAEXABVCStreamStore@@VTStreamId@@@Z @31 NONAME
EXPORTS ?RestoreL@CXzePicture@@QAEXABVCStreamStore@@VTStreamId@@@Z @32 NONAME
EXPORTS ?Type@CDummyField@@UBE?AVTUid@@XZ @33 NONAME
EXPORTS ?Value@CDummyField@@UAEHAAVTPtr16@@@Z @34 NONAME
