EXPORTS
	KAggregateCertStore @ 1 NONAME DATA 1
	_ZTI10COpenedKey @ 2 NONAME
	_ZTI11CKeyCreator @ 3 NONAME
	_ZTI11CPassphrase @ 4 NONAME
	_ZTI11CRunPackage @ 5 NONAME
	_ZTI12CDHAgreement @ 6 NONAME
	_ZTI12CFileKeyData @ 7 NONAME
	_ZTI12CSimpleDHKey @ 8 NONAME
	_ZTI12CTokenServer @ 9 NONAME
	_ZTI15CCertStoreEntry @ 10 NONAME
	_ZTI15CFSRSADecryptor @ 11 NONAME
	_ZTI16CCertAppsConduit @ 12 NONAME
	_ZTI16CCertAppsSession @ 13 NONAME
	_ZTI16CKeyStoreConduit @ 14 NONAME
	_ZTI16CKeyStoreSession @ 15 NONAME
	_ZTI17CCertStoreConduit @ 16 NONAME
	_ZTI17CCertStoreSession @ 17 NONAME
	_ZTI17CFSCertAppsServer @ 18 NONAME
	_ZTI17CFSKeyStoreServer @ 19 NONAME
	_ZTI18CFSCertStoreServer @ 20 NONAME
	_ZTI18CPassphraseManager @ 21 NONAME
	_ZTI19CCertStoreEntryList @ 22 NONAME
	_ZTI19CFileKeyDataManager @ 23 NONAME
	_ZTI19CTokenServerSession @ 24 NONAME
	_ZTI20CDSARepudiableSigner @ 25 NONAME
	_ZTI20CRSARepudiableSigner @ 26 NONAME
	_ZTI9CShutdown @ 27 NONAME
	_ZTIN11CKeyCreator15CKeyCreatorDataE @ 28 NONAME
	_ZTV10COpenedKey @ 29 NONAME
	_ZTV11CKeyCreator @ 30 NONAME
	_ZTV11CPassphrase @ 31 NONAME
	_ZTV11CRunPackage @ 32 NONAME
	_ZTV12CDHAgreement @ 33 NONAME
	_ZTV12CFileKeyData @ 34 NONAME
	_ZTV12CSimpleDHKey @ 35 NONAME
	_ZTV12CTokenServer @ 36 NONAME
	_ZTV15CCertStoreEntry @ 37 NONAME
	_ZTV15CFSRSADecryptor @ 38 NONAME
	_ZTV16CCertAppsConduit @ 39 NONAME
	_ZTV16CCertAppsSession @ 40 NONAME
	_ZTV16CKeyStoreConduit @ 41 NONAME
	_ZTV16CKeyStoreSession @ 42 NONAME
	_ZTV17CCertStoreConduit @ 43 NONAME
	_ZTV17CCertStoreSession @ 44 NONAME
	_ZTV17CFSCertAppsServer @ 45 NONAME
	_ZTV17CFSKeyStoreServer @ 46 NONAME
	_ZTV18CFSCertStoreServer @ 47 NONAME
	_ZTV18CPassphraseManager @ 48 NONAME
	_ZTV19CCertStoreEntryList @ 49 NONAME
	_ZTV19CFileKeyDataManager @ 50 NONAME
	_ZTV19CTokenServerSession @ 51 NONAME
	_ZTV20CDSARepudiableSigner @ 52 NONAME
	_ZTV20CRSARepudiableSigner @ 53 NONAME
	_ZTV9CShutdown @ 54 NONAME
	_ZTVN11CKeyCreator15CKeyCreatorDataE @ 55 NONAME

