EXPORTS
	??0TDeleteText@@QAE@AAVCBandMaintainer@@AAVCRichText@@AAVCBandValidator@@@Z @ 1 NONAME ; TDeleteText::TDeleteText(class CBandMaintainer &, class CRichText &, class CBandValidator &)
	??0TDocumentSpec@@QAE@ABVMDesC16Array@@H@Z @ 2 NONAME ; TDocumentSpec::TDocumentSpec(class MDesC16Array const &, int)
	??0TInsertText@@QAE@AAVCBandMaintainer@@AAVCRichText@@AAVCBandValidator@@ABVTDesC16@@@Z @ 3 NONAME ; TInsertText::TInsertText(class CBandMaintainer &, class CRichText &, class CBandValidator &, class TDesC16 const &)
	??0TReformatText@@QAE@AAVCBandMaintainer@@AAVCRichText@@AAVCBandValidator@@W4TReformatAction@@AAVCFbsScreenDevice@@@Z @ 4 NONAME ; TReformatText::TReformatText(class CBandMaintainer &, class CRichText &, class CBandValidator &, enum TReformatAction, class CFbsScreenDevice &)
	??1CBandMaintainer@@UAE@XZ @ 5 NONAME ; CBandMaintainer::~CBandMaintainer(void)
	??1CBandTestEnvironment@@UAE@XZ @ 6 NONAME ; CBandTestEnvironment::~CBandTestEnvironment(void)
	??1CBandValidator@@UAE@XZ @ 7 NONAME ; CBandValidator::~CBandValidator(void)
	?CharFormat@CBandTestEnvironment@@QAEPAVCCharFormatLayer@@XZ @ 8 NONAME ; class CCharFormatLayer * CBandTestEnvironment::CharFormat(void)
	?Device@CBandTestEnvironment@@QAEAAVCFbsScreenDevice@@XZ @ 9 NONAME ; class CFbsScreenDevice & CBandTestEnvironment::Device(void)
	?ExecuteL@TDeleteText@@UAE?AW4TTestResult@TBandTestAction@@HH@Z @ 10 NONAME ; enum TBandTestAction::TTestResult TDeleteText::ExecuteL(int, int)
	?ExecuteL@TInsertText@@UAE?AW4TTestResult@TBandTestAction@@HH@Z @ 11 NONAME ; enum TBandTestAction::TTestResult TInsertText::ExecuteL(int, int)
	?ExecuteL@TReformatText@@UAE?AW4TTestResult@TBandTestAction@@HH@Z @ 12 NONAME ; enum TBandTestAction::TTestResult TReformatText::ExecuteL(int, int)
	?ExecuteTestL@@YAXAAVCRichText@@AAVCBandMaintainer@@AAVTBandTestAction@@AAVTDocumentSpec@@AAV?$RArray@H@@@Z @ 13 NONAME ; void ExecuteTestL(class CRichText &, class CBandMaintainer &, class TBandTestAction &, class TDocumentSpec &, class RArray<int> &)
	?GetLinesInBandL@@YAXABVCTmTextLayout@@AAV?$RArray@VTTmLineInfo@@@@@Z @ 14 NONAME ; void GetLinesInBandL(class CTmTextLayout const &, class RArray<class TTmLineInfo> &)
	?GetVisibleLinesL@@YAXABVCTextLayout@@AAV?$RArray@VTTmLineInfo@@@@@Z @ 15 NONAME ; void GetVisibleLinesL(class CTextLayout const &, class RArray<class TTmLineInfo> &)
	?HandleDeleteL@CBandMaintainer@@QAEXHH@Z @ 16 NONAME ; void CBandMaintainer::HandleDeleteL(int, int)
	?HandleFormatChangeL@CBandMaintainer@@QAEXVTCursorSelection@@@Z @ 17 NONAME ; void CBandMaintainer::HandleFormatChangeL(class TCursorSelection)
	?HandleGlobalChangeL@CBandMaintainer@@QAEXXZ @ 18 NONAME ; void CBandMaintainer::HandleGlobalChangeL(void)
	?HandleInsertL@CBandMaintainer@@QAEXVTCursorSelection@@@Z @ 19 NONAME ; void CBandMaintainer::HandleInsertL(class TCursorSelection)
	?InitialiseViewL@CBandMaintainer@@QAEXXZ @ 20 NONAME ; void CBandMaintainer::InitialiseViewL(void)
	?InsertTextL@@YAXAAVCRichText@@AAVCBandMaintainer@@AAVCBandValidator@@AAVTDocumentSpec@@ABVTDesC16@@AAV?$RArray@H@@@Z @ 21 NONAME ; void InsertTextL(class CRichText &, class CBandMaintainer &, class CBandValidator &, class TDocumentSpec &, class TDesC16 const &, class RArray<int> &)
	?LayoutReference@CBandMaintainer@@QBEABVCTextLayout@@XZ @ 22 NONAME ; class CTextLayout const & CBandMaintainer::LayoutReference(void) const
	?LayoutUnderTest@CBandMaintainer@@QBEABVCTextLayout@@XZ @ 23 NONAME ; class CTextLayout const & CBandMaintainer::LayoutUnderTest(void) const
	?NewL@CFileOutput@@SAPAV1@XZ @ 24 NONAME ; class CFileOutput * CFileOutput::NewL(void)
	?NewLC@CBandMaintainer@@SAPAV1@AAVCRichText@@VTRect@@H@Z @ 25 NONAME ; class CBandMaintainer * CBandMaintainer::NewLC(class CRichText &, class TRect, int)
	?NewLC@CBandTestEnvironment@@SAPAV1@AAVCCoeEnv@@ABVTDesC16@@H@Z @ 26 NONAME ; class CBandTestEnvironment * CBandTestEnvironment::NewLC(class CCoeEnv &, class TDesC16 const &, int)
	?NewLC@CBandValidator@@SAPAV1@ABVCTextView@@0AAVCFileOutput@@@Z @ 27 NONAME ; class CBandValidator * CBandValidator::NewLC(class CTextView const &, class CTextView const &, class CFileOutput &)
	?ParaFormat@CBandTestEnvironment@@QAEPAVCParaFormatLayer@@XZ @ 28 NONAME ; class CParaFormatLayer * CBandTestEnvironment::ParaFormat(void)
	?PositionsToTestL@@YAXABV?$RArray@VTTmLineInfo@@@@AAV?$RArray@H@@@Z @ 29 NONAME ; void PositionsToTestL(class RArray<class TTmLineInfo> const &, class RArray<int> &)
	?ScrollDisplayPixelsL@CBandMaintainer@@QAEXAAH@Z @ 30 NONAME ; void CBandMaintainer::ScrollDisplayPixelsL(int &)
	?ScrollL@CBandMaintainer@@QAEHAAW4TMovementType@TCursorPosition@@@Z @ 31 NONAME ; int CBandMaintainer::ScrollL(enum TCursorPosition::TMovementType &)
	?SetupDocumentL@TDocumentSpec@@QAEXAAVCRichText@@AAVCBandMaintainer@@@Z @ 32 NONAME ; void TDocumentSpec::SetupDocumentL(class CRichText &, class CBandMaintainer &)
	?TmLayoutReference@CBandMaintainer@@QBEABVCTmTextLayout@@XZ @ 33 NONAME ; class CTmTextLayout const & CBandMaintainer::TmLayoutReference(void) const
	?TmLayoutUnderTest@CBandMaintainer@@QBEABVCTmTextLayout@@XZ @ 34 NONAME ; class CTmTextLayout const & CBandMaintainer::TmLayoutUnderTest(void) const
	?ValidateL@CBandValidator@@QAEHABVTDes16@@@Z @ 35 NONAME ; int CBandValidator::ValidateL(class TDes16 const &)
	?ViewReference@CBandMaintainer@@QBEAAVCTextView@@XZ @ 36 NONAME ; class CTextView & CBandMaintainer::ViewReference(void) const
	?ViewUnderTest@CBandMaintainer@@QBEAAVCTextView@@XZ @ 37 NONAME ; class CTextView & CBandMaintainer::ViewUnderTest(void) const

