EXPORTS
	_ZN12StringLoader4LoadER6TDes16iP7CCoeEnv @ 1 NONAME
	_ZN12StringLoader5LoadLEiP7CCoeEnv @ 2 NONAME
	_ZN12StringLoader5LoadLEiRK12MDesC16ArrayP7CCoeEnv @ 3 NONAME
	_ZN12StringLoader5LoadLEiRK12MDesC16ArrayRK9CArrayFixIiEP7CCoeEnv @ 4 NONAME
	_ZN12StringLoader5LoadLEiRK7TDesC16P7CCoeEnv @ 5 NONAME
	_ZN12StringLoader5LoadLEiRK7TDesC16iP7CCoeEnv @ 6 NONAME
	_ZN12StringLoader5LoadLEiRK9CArrayFixIiEP7CCoeEnv @ 7 NONAME
	_ZN12StringLoader5LoadLEiiP7CCoeEnv @ 8 NONAME
	_ZN12StringLoader6FormatER6TDes16RK7TDesC16iS4_ @ 9 NONAME
	_ZN12StringLoader6FormatER6TDes16RK7TDesC16ii @ 10 NONAME
	_ZN12StringLoader6LoadLCEiP7CCoeEnv @ 11 NONAME
	_ZN12StringLoader6LoadLCEiRK12MDesC16ArrayP7CCoeEnv @ 12 NONAME
	_ZN12StringLoader6LoadLCEiRK12MDesC16ArrayRK9CArrayFixIiEP7CCoeEnv @ 13 NONAME
	_ZN12StringLoader6LoadLCEiRK7TDesC16P7CCoeEnv @ 14 NONAME
	_ZN12StringLoader6LoadLCEiRK7TDesC16iP7CCoeEnv @ 15 NONAME
	_ZN12StringLoader6LoadLCEiRK9CArrayFixIiEP7CCoeEnv @ 16 NONAME
	_ZN12StringLoader6LoadLCEiiP7CCoeEnv @ 17 NONAME
	_ZN13CTextResolver18ResolveErrorStringEiNS_13TErrorContextE @ 18 NONAME
	_ZN13CTextResolver18ResolveErrorStringEiRiRjNS_13TErrorContextE @ 19 NONAME
	_ZN13CTextResolver4NewLER7CCoeEnv @ 20 NONAME
	_ZN13CTextResolver4NewLEv @ 21 NONAME
	_ZN13CTextResolver5NewLCER7CCoeEnv @ 22 NONAME
	_ZN13CTextResolver5NewLCEv @ 23 NONAME
	_ZN13CTextResolverD0Ev @ 24 NONAME
	_ZN13CTextResolverD1Ev @ 25 NONAME
	_ZN13CTextResolverD2Ev @ 26 NONAME
	_ZN15CFindItemEngine12DoNewSearchLERK7TDesC16NS_19TFindItemSearchCaseE @ 27 NONAME
	_ZN15CFindItemEngine13ResetPositionEv @ 28 NONAME
	_ZN15CFindItemEngine4ItemERNS_10SFoundItemE @ 29 NONAME
	_ZN15CFindItemEngine4NewLERK7TDesC16NS_19TFindItemSearchCaseE @ 30 NONAME
	_ZN15CFindItemEngine8NextItemERNS_10SFoundItemE @ 31 NONAME
	_ZN15CFindItemEngine8PrevItemERNS_10SFoundItemE @ 32 NONAME
	_ZN15CFindItemEngineD0Ev @ 33 NONAME
	_ZN15CFindItemEngineD1Ev @ 34 NONAME
	_ZN15CFindItemEngineD2Ev @ 35 NONAME
	_ZN17CSharedDataServer11ThreadStartERNS_7TSignalE @ 36 NONAME ABSENT
	_ZN17CommonPhoneParser16ParsePhoneNumberER6TDes16i @ 37 NONAME
	_ZN17CommonPhoneParser18IsValidPhoneNumberERK7TDesC16i @ 38 NONAME
	_ZN17RSharedDataClient5CloseEv @ 39 NONAME ABSENT
	_ZN17RSharedDataClient7ConnectEv @ 40 NONAME ABSENT
	_ZN17RSharedDataClientC1Ev @ 41 NONAME ABSENT
	_ZN17RSharedDataClientC2Ev @ 42 NONAME ABSENT
	_ZN19RConeResourceLoader4OpenER4TBufILi256EE @ 43 NONAME
	_ZN19RConeResourceLoader5CloseEv @ 44 NONAME
	_ZN19RConeResourceLoader5OpenLER4TBufILi256EE @ 45 NONAME
	_ZN19RConeResourceLoaderC1ER7CCoeEnv @ 46 NONAME
	_ZN19RConeResourceLoaderC2ER7CCoeEnv @ 47 NONAME
	_ZN20CCommonContentPolicy12IsClosedTypeERK7TDesC16 @ 48 NONAME
	_ZN20CCommonContentPolicy13IsClosedFileLERK7TDesC16 @ 49 NONAME
	_ZN20CCommonContentPolicy14IsDRMEnvelopeLERK7TDesC16 @ 50 NONAME
	_ZN20CCommonContentPolicy17IsClosedExtensionERK7TDesC16 @ 51 NONAME
	_ZN20CCommonContentPolicy4NewLEv @ 52 NONAME
	_ZN20CCommonContentPolicy5NewLCEv @ 53 NONAME
	_ZN20CCommonContentPolicyD0Ev @ 54 NONAME
	_ZN20CCommonContentPolicyD1Ev @ 55 NONAME
	_ZN20CCommonContentPolicyD2Ev @ 56 NONAME
	_ZN21CStringResourceReader18ReadResourceStringEi @ 57 NONAME
	_ZN21CStringResourceReader4NewLER4TBufILi256EE @ 58 NONAME
	_ZN21CStringResourceReader5NewLCER4TBufILi256EE @ 59 NONAME
	_ZNK15CFindItemEngine8PositionEv @ 60 NONAME
	_ZNK15CFindItemEngine9ItemArrayEv @ 61 NONAME
	_ZNK15CFindItemEngine9ItemCountEv @ 62 NONAME
	_ZNK17RSharedDataClient20RequestFreeDiskSpaceEi @ 63 NONAME ABSENT
	_ZNK17RSharedDataClient22RequestFreeDiskSpaceLCEi @ 64 NONAME ABSENT
	_ZNK17RSharedDataClient26CancelFreeDiskSpaceRequestEv @ 65 NONAME ABSENT
	_ZTI13CTextResolver @ 66 NONAME ; #<TI>#
	_ZTI15CFindItemEngine @ 67 NONAME ; #<TI>#
	_ZTI17CSharedDataServer @ 68 NONAME ABSENT ; #<TI>#
	_ZTI20CCommonContentPolicy @ 69 NONAME ABSENT; #<TI>#
	_ZN21CStringResourceReader @ 70 NONAME ABSENT; #<TI>#
	_ZTV13CTextResolver @ 71 NONAME ; #<VT>#
	_ZTV15CFindItemEngine @ 72 NONAME ; #<VT>#
	_ZTV17CSharedDataServer @ 73 NONAME ABSENT ; #<VT>#
	_ZTV20CCommonContentPolicy @ 74 NONAME ABSENT; #<VT>#
	_ZN21CStringResourceReader @ 75 NONAME ABSENT; #<VT>#
	_ZN20CCommonContentPolicy13IsClosedFileLER5RFile @ 76 NONAME
	_ZN20CCommonContentPolicy14IsDRMEnvelopeLER5RFile @ 77 NONAME
	_ZN21CStringResourceReader4NewLER4TBufILi256EER3RFs @ 78 NONAME
	_ZN21CStringResourceReader5NewLCER4TBufILi256EER3RFs @ 79 NONAME
	_ZN20CCommonContentPolicy4NewLER3RFs @ 80 NONAME
	_ZN20CCommonContentPolicy5NewLCER3RFs @ 81 NONAME
	_ZN15CFindItemEngine12DoNewSearchLERK7TDesC16NS_19TFindItemSearchCaseEi @ 82 NONAME
	_ZN15CFindItemEngine4NewLERK7TDesC16NS_19TFindItemSearchCaseEi @ 83 NONAME
