EXPORTS
	_ZN12CSharedDataI10AddToValueERK7TDesC16Ri @ 1 NONAME
	_ZN12CSharedDataI12AddCallBackLERK9TCallBackRK7TDesC16 @ 2 NONAME
	_ZN12CSharedDataI12CancelSignalERK7TDesC16 @ 3 NONAME
	_ZN12CSharedDataI3GetERK7TDesC16R6TDes16 @ 4 NONAME
	_ZN12CSharedDataI3GetERK7TDesC16Rd @ 5 NONAME
	_ZN12CSharedDataI3GetERK7TDesC16Ri @ 6 NONAME
	_ZN12CSharedDataI3SetERK7TDesC16Rd @ 7 NONAME
	_ZN12CSharedDataI3SetERK7TDesC16Ri @ 8 NONAME
	_ZN12CSharedDataI3SetERK7TDesC16S2_ @ 9 NONAME
	_ZN12CSharedDataI4NewLERK4TUidi @ 10 NONAME
	_ZN12CSharedDataI6SignalERK7TDesC16 @ 11 NONAME
	_ZN12CSharedDataI9AddNotifyERK7TDesC16 @ 12 NONAME
	_ZN12CSharedDataID0Ev @ 13 NONAME
	_ZN12CSharedDataID1Ev @ 14 NONAME
	_ZN12CSharedDataID2Ev @ 15 NONAME
	_ZN12StringLoader4LoadER6TDes16iP7CCoeEnv @ 16 NONAME
	_ZN12StringLoader5LoadLEiP7CCoeEnv @ 17 NONAME
	_ZN12StringLoader5LoadLEiRK12MDesC16ArrayP7CCoeEnv @ 18 NONAME
	_ZN12StringLoader5LoadLEiRK12MDesC16ArrayRK9CArrayFixIiEP7CCoeEnv @ 19 NONAME
	_ZN12StringLoader5LoadLEiRK7TDesC16P7CCoeEnv @ 20 NONAME
	_ZN12StringLoader5LoadLEiRK7TDesC16iP7CCoeEnv @ 21 NONAME
	_ZN12StringLoader5LoadLEiRK9CArrayFixIiEP7CCoeEnv @ 22 NONAME
	_ZN12StringLoader5LoadLEiiP7CCoeEnv @ 23 NONAME
	_ZN12StringLoader6FormatER6TDes16RK7TDesC16iS4_ @ 24 NONAME
	_ZN12StringLoader6FormatER6TDes16RK7TDesC16ii @ 25 NONAME
	_ZN12StringLoader6LoadLCEiP7CCoeEnv @ 26 NONAME
	_ZN12StringLoader6LoadLCEiRK12MDesC16ArrayP7CCoeEnv @ 27 NONAME
	_ZN12StringLoader6LoadLCEiRK12MDesC16ArrayRK9CArrayFixIiEP7CCoeEnv @ 28 NONAME
	_ZN12StringLoader6LoadLCEiRK7TDesC16P7CCoeEnv @ 29 NONAME
	_ZN12StringLoader6LoadLCEiRK7TDesC16iP7CCoeEnv @ 30 NONAME
	_ZN12StringLoader6LoadLCEiRK9CArrayFixIiEP7CCoeEnv @ 31 NONAME
	_ZN12StringLoader6LoadLCEiiP7CCoeEnv @ 32 NONAME
	_ZN13CTextResolver18ResolveErrorStringEiNS_13TErrorContextE @ 33 NONAME
	_ZN13CTextResolver18ResolveErrorStringEiRiRjNS_13TErrorContextE @ 34 NONAME
	_ZN13CTextResolver4NewLER7CCoeEnv @ 35 NONAME
	_ZN13CTextResolver4NewLEv @ 36 NONAME
	_ZN13CTextResolver5NewLCER7CCoeEnv @ 37 NONAME
	_ZN13CTextResolver5NewLCEv @ 38 NONAME
	_ZN13CTextResolverD0Ev @ 39 NONAME
	_ZN13CTextResolverD1Ev @ 40 NONAME
	_ZN13CTextResolverD2Ev @ 41 NONAME
	_ZN15CFindItemEngine12DoNewSearchLERK7TDesC16NS_19TFindItemSearchCaseE @ 42 NONAME
	_ZN15CFindItemEngine13ResetPositionEv @ 43 NONAME
	_ZN15CFindItemEngine4ItemERNS_10SFoundItemE @ 44 NONAME
	_ZN15CFindItemEngine4NewLERK7TDesC16NS_19TFindItemSearchCaseE @ 45 NONAME
	_ZN15CFindItemEngine8NextItemERNS_10SFoundItemE @ 46 NONAME
	_ZN15CFindItemEngine8PrevItemERNS_10SFoundItemE @ 47 NONAME
	_ZN15CFindItemEngineD0Ev @ 48 NONAME
	_ZN15CFindItemEngineD1Ev @ 49 NONAME
	_ZN15CFindItemEngineD2Ev @ 50 NONAME
	_ZN17CSharedDataServer11ThreadStartERNS_7TSignalE @ 51 NONAME
	_ZN17CSharedDataString4NewLERK7TDesC16P12CSharedDataI9TCallBackS2_ @ 52 NONAME
	_ZN17CSharedDataString4NewLERK7TDesC16P12CSharedDataIS2_ @ 53 NONAME
	_ZN17CSharedDataString5NewLCERK7TDesC16P12CSharedDataI9TCallBackS2_ @ 54 NONAME
	_ZN17CSharedDataString5NewLCERK7TDesC16P12CSharedDataIS2_ @ 55 NONAME
	_ZN17CSharedDataString5ValueEv @ 56 NONAME
	_ZN17CSharedDataString6TProxyC1ERS_ @ 57 NONAME
	_ZN17CSharedDataString6TProxyC2ERS_ @ 58 NONAME
	_ZN17CSharedDataString6TProxyaSEP7HBufC16 @ 59 NONAME
	_ZN17CSharedDataString6TProxyaSERKS0_ @ 60 NONAME
	_ZN17CSharedDataStringD0Ev @ 61 NONAME
	_ZN17CSharedDataStringD1Ev @ 62 NONAME
	_ZN17CSharedDataStringD2Ev @ 63 NONAME
	_ZN17CommonPhoneParser16ParsePhoneNumberER6TDes16NS_16TPhoneNumberTypeE @ 64 NONAME
	_ZN17CommonPhoneParser18IsValidPhoneNumberERK7TDesC16NS_16TPhoneNumberTypeE @ 65 NONAME
	_ZN17RSharedDataClient10AddToValueERK7TDesC16i @ 66 NONAME
	_ZN17RSharedDataClient12CancelNotifyE4TUidPK7TDesC16 @ 67 NONAME
	_ZN17RSharedDataClient12CancelSignalERK7TDesC16 @ 68 NONAME
	_ZN17RSharedDataClient12NotifyChangeE4TUidPK7TDesC16 @ 69 NONAME
	_ZN17RSharedDataClient15RestoreOriginalE4TUidPK12MDesC16Array @ 70 NONAME
	_ZN17RSharedDataClient16CancelAllSignalsEv @ 71 NONAME
	_ZN17RSharedDataClient17CancelAllNotifiesEv @ 72 NONAME
	_ZN17RSharedDataClient5CloseEv @ 73 NONAME
	_ZN17RSharedDataClient6SetIntERK7TDesC16i @ 74 NONAME
	_ZN17RSharedDataClient6SignalERK7TDesC16 @ 75 NONAME
	_ZN17RSharedDataClient7ConnectEi @ 76 NONAME
	_ZN17RSharedDataClient7SetRealERK7TDesC16d @ 77 NONAME
	_ZN17RSharedDataClient9NotifySetE4TUidPK7TDesC16 @ 78 NONAME
	_ZN17RSharedDataClient9SetStringERK7TDesC16S2_ @ 79 NONAME
	_ZN17RSharedDataClientC1EP24MSharedDataNotifyHandler @ 80 NONAME
	_ZN17RSharedDataClientC1Ev @ 81 NONAME
	_ZN17RSharedDataClientC2EP24MSharedDataNotifyHandler @ 82 NONAME
	_ZN17RSharedDataClientC2Ev @ 83 NONAME
	_ZN17SharedDataFlusher8FlushAllEv @ 84 NONAME
	_ZN18CSharedDataInteger4NewLERK7TDesC16P12CSharedDataI9TCallBacki @ 85 NONAME
	_ZN18CSharedDataInteger4NewLERK7TDesC16P12CSharedDataIi @ 86 NONAME
	_ZN18CSharedDataInteger5NewLCERK7TDesC16P12CSharedDataI9TCallBacki @ 87 NONAME
	_ZN18CSharedDataInteger5NewLCERK7TDesC16P12CSharedDataIi @ 88 NONAME
	_ZN18CSharedDataInteger5ValueEv @ 89 NONAME
	_ZN18CSharedDataInteger6TProxyC1ERS_ @ 90 NONAME
	_ZN18CSharedDataInteger6TProxyC2ERS_ @ 91 NONAME
	_ZN18CSharedDataInteger6TProxyaSERKS0_ @ 92 NONAME
	_ZN18CSharedDataInteger6TProxyaSEi @ 93 NONAME
	_ZN18CSharedDataInteger6TProxypLEi @ 94 NONAME
	_ZN18CSharedDataIntegerD0Ev @ 95 NONAME
	_ZN18CSharedDataIntegerD1Ev @ 96 NONAME
	_ZN18CSharedDataIntegerD2Ev @ 97 NONAME
	_ZN19RConeResourceLoader4OpenER4TBufILi256EE @ 98 NONAME
	_ZN19RConeResourceLoader5CloseEv @ 99 NONAME
	_ZN19RConeResourceLoader5OpenLER4TBufILi256EE @ 100 NONAME
	_ZN19RConeResourceLoaderC1ER7CCoeEnv @ 101 NONAME
	_ZN19RConeResourceLoaderC2ER7CCoeEnv @ 102 NONAME
	_ZN20CCommonContentPolicy12IsClosedTypeERK7TDesC16 @ 103 NONAME
	_ZN20CCommonContentPolicy13IsClosedFileLERK7TDesC16 @ 104 NONAME
	_ZN20CCommonContentPolicy14IsDRMEnvelopeLERK7TDesC16 @ 105 NONAME
	_ZN20CCommonContentPolicy17IsClosedExtensionERK7TDesC16 @ 106 NONAME
	_ZN20CCommonContentPolicy4NewLEv @ 107 NONAME
	_ZN20CCommonContentPolicy5NewLCEv @ 108 NONAME
	_ZN20CCommonContentPolicyD0Ev @ 109 NONAME
	_ZN20CCommonContentPolicyD1Ev @ 110 NONAME
	_ZN20CCommonContentPolicyD2Ev @ 111 NONAME
	_ZN21CStringResourceReader18ReadResourceStringEi @ 112 NONAME
	_ZN21CStringResourceReader4NewLER4TBufILi256EE @ 113 NONAME
	_ZN21CStringResourceReader5NewLCER4TBufILi256EE @ 114 NONAME
	_ZNK15CFindItemEngine8PositionEv @ 115 NONAME
	_ZNK15CFindItemEngine9ItemArrayEv @ 116 NONAME
	_ZNK15CFindItemEngine9ItemCountEv @ 117 NONAME
	_ZNK17CSharedDataString5ValueEv @ 118 NONAME
	_ZNK17CSharedDataString6TProxycvP7HBufC16Ev @ 119 NONAME
	_ZNK17RSharedDataClient20RequestFreeDiskSpaceEi @ 120 NONAME
	_ZNK17RSharedDataClient21AssignToTemporaryFileE4TUid @ 121 NONAME
	_ZNK17RSharedDataClient22RequestFreeDiskSpaceLCEi @ 122 NONAME
	_ZNK17RSharedDataClient26CancelFreeDiskSpaceRequestEv @ 123 NONAME
	_ZNK17RSharedDataClient5FlushEv @ 124 NONAME
	_ZNK17RSharedDataClient6AssignE4TUid @ 125 NONAME
	_ZNK17RSharedDataClient6GetIntERK7TDesC16Ri @ 126 NONAME
	_ZNK17RSharedDataClient7GetRealERK7TDesC16Rd @ 127 NONAME
	_ZNK17RSharedDataClient9GetStringERK7TDesC16R6TDes16 @ 128 NONAME
	_ZNK18CSharedDataInteger5ValueEv @ 129 NONAME
	_ZNK18CSharedDataInteger6TProxycviEv @ 130 NONAME
	_ZTI12CSharedDataI @ 131 NONAME ; #<TI>#
	_ZTI13CTextResolver @ 132 NONAME ; #<TI>#
	_ZTI15CFindItemEngine @ 133 NONAME ; #<TI>#
	_ZTI15CSharedDataFile @ 134 NONAME ; #<TI>#
	_ZTI16CSharedDataEvent @ 135 NONAME ; #<TI>#
	_ZTI16CSharedDataField @ 136 NONAME ; #<TI>#
	_ZTI17CSharedDataNotify @ 137 NONAME ; #<TI>#
	_ZTI17CSharedDataPlugin @ 138 NONAME ; #<TI>#
	_ZTI17CSharedDataServer @ 139 NONAME ; #<TI>#
	_ZTI17CSharedDataString @ 140 NONAME ; #<TI>#
	_ZTI18CSharedDataInteger @ 141 NONAME ; #<TI>#
	_ZTI18CSharedDataSession @ 142 NONAME ; #<TI>#
	_ZTI20CCommonContentPolicy @ 143 NONAME ; #<TI>#
	_ZTI20CSharedDataFieldList @ 144 NONAME ; #<TI>#
	_ZTI20CSharedDataScheduler @ 145 NONAME ; #<TI>#
	_ZTI21CStringResourceReader @ 146 NONAME ; #<TI>#
	_ZTI22CSharedDataActiveFlush @ 147 NONAME ; #<TI>#
	_ZTI23CSharedDataAsyncMessage @ 148 NONAME ; #<TI>#
	_ZTI23CSharedDataAsyncRequest @ 149 NONAME ; #<TI>#
	_ZTI24CCommonContentPolicyImpl @ 150 NONAME ; #<TI>#
	_ZTI24CSharedDataActiveRestore @ 151 NONAME ; #<TI>#
	_ZTI24CSharedDataAsyncFunction @ 152 NONAME ; #<TI>#
	_ZTI24CSharedDataNotifyHandler @ 153 NONAME ; #<TI>#
	_ZTI25CSharedDataINotifyHandler @ 154 NONAME ; #<TI>#
	_ZTI29CSharedDataFileSystemNotifier @ 155 NONAME ; #<TI>#
	_ZTIN17CSharedDataPlugin3DfcE @ 156 NONAME ; #<TI>#
	_ZTIN17CSharedDataServer14CShutdownTimerE @ 157 NONAME ; #<TI>#
	_ZTV12CSharedDataI @ 158 NONAME ; #<VT>#
	_ZTV13CTextResolver @ 159 NONAME ; #<VT>#
	_ZTV15CFindItemEngine @ 160 NONAME ; #<VT>#
	_ZTV15CSharedDataFile @ 161 NONAME ; #<VT>#
	_ZTV16CSharedDataEvent @ 162 NONAME ; #<VT>#
	_ZTV16CSharedDataField @ 163 NONAME ; #<VT>#
	_ZTV17CSharedDataNotify @ 164 NONAME ; #<VT>#
	_ZTV17CSharedDataPlugin @ 165 NONAME ; #<VT>#
	_ZTV17CSharedDataServer @ 166 NONAME ; #<VT>#
	_ZTV17CSharedDataString @ 167 NONAME ; #<VT>#
	_ZTV18CSharedDataInteger @ 168 NONAME ; #<VT>#
	_ZTV18CSharedDataSession @ 169 NONAME ; #<VT>#
	_ZTV20CCommonContentPolicy @ 170 NONAME ; #<VT>#
	_ZTV20CSharedDataFieldList @ 171 NONAME ; #<VT>#
	_ZTV20CSharedDataScheduler @ 172 NONAME ; #<VT>#
	_ZTV21CStringResourceReader @ 173 NONAME ; #<VT>#
	_ZTV22CSharedDataActiveFlush @ 174 NONAME ; #<VT>#
	_ZTV23CSharedDataAsyncMessage @ 175 NONAME ; #<VT>#
	_ZTV23CSharedDataAsyncRequest @ 176 NONAME ; #<VT>#
	_ZTV24CCommonContentPolicyImpl @ 177 NONAME ; #<VT>#
	_ZTV24CSharedDataActiveRestore @ 178 NONAME ; #<VT>#
	_ZTV24CSharedDataAsyncFunction @ 179 NONAME ; #<VT>#
	_ZTV24CSharedDataNotifyHandler @ 180 NONAME ; #<VT>#
	_ZTV25CSharedDataINotifyHandler @ 181 NONAME ; #<VT>#
	_ZTV29CSharedDataFileSystemNotifier @ 182 NONAME ; #<VT>#
	_ZTVN17CSharedDataPlugin3DfcE @ 183 NONAME ; #<VT>#
	_ZTVN17CSharedDataServer14CShutdownTimerE @ 184 NONAME ; #<VT>#

