EXPORTS
	_ZN10TDbSeekKey3AddE5TTime @ 1 NONAME
	_ZN10TDbSeekKey3AddEx @ 2 NONAME
	_ZN10TDbSeekKey3AddERK6TDesC8 @ 3 NONAME
	_ZN10TDbSeekKey3AddERK7TDesC16 @ 4 NONAME
	_ZN10TDbSeekKey3AddEd @ 5 NONAME
	_ZN10TDbSeekKey3AddEf @ 6 NONAME
	_ZN10TDbSeekKey3AddEi @ 7 NONAME
	_ZN10TDbSeekKey3AddEj @ 8 NONAME
	_ZN11CDbDatabase10Reserved_1Ev @ 9 NONAME
	_ZN11CDbDatabase10Reserved_2Ev @ 10 NONAME
	_ZN11CDbTableDef10ConstructLERK7TDesC16i @ 11 NONAME
	_ZN11CDbTableDef7ChangedEv @ 12 NONAME
	_ZN4RDbs17FreeReservedSpaceEi @ 13 NONAME
	_ZN11CDbTableDefC2Ev @ 14 NONAME
	_ZN11CDbTableDefD0Ev @ 15 NONAME
	_ZN11CDbTableDefD1Ev @ 16 NONAME
	_ZN11CDbTableDefD2Ev @ 17 NONAME
	_ZN11RDbDatabase10AlterTableERK7TDesC16RK9CDbColSet @ 18 NONAME
	_ZN11RDbDatabase11CreateIndexERK7TDesC16S2_RK6CDbKey @ 19 NONAME
	_ZN11RDbDatabase11CreateTableERK7TDesC16RK9CDbColSetPK6CDbKey @ 20 NONAME
	_ZN11RDbDatabase11UpdateStatsEv @ 21 NONAME
	_ZN4RDbs20ReleaseReserveAccessEi @ 22 NONAME
	_ZN11RDbDatabase5BeginEv @ 23 NONAME
	_ZN11RDbDatabase5CloseEv @ 24 NONAME
	_ZN11RDbDatabase6CommitEv @ 25 NONAME
	_ZN11RDbDatabase7CompactEv @ 26 NONAME
	_ZN11RDbDatabase7DestroyEv @ 27 NONAME
	_ZN11RDbDatabase7ExecuteERK7TDesC1617TDbTextComparison @ 28 NONAME
	_ZN11RDbDatabase7RecoverEv @ 29 NONAME
	_ZN11RDbDatabase8RollbackEv @ 30 NONAME
	_ZN11RDbDatabase9DropIndexERK7TDesC16S2_ @ 31 NONAME
	_ZN11RDbDatabase9DropTableERK7TDesC16 @ 32 NONAME
	_ZN11RDbNotifier12NotifyChangeER14TRequestStatus @ 33 NONAME
	_ZN11RDbNotifier12NotifyUnlockER14TRequestStatus @ 34 NONAME
	_ZN11RDbNotifier4OpenER11RDbDatabase @ 35 NONAME
	_ZN11RDbNotifier5CloseEv @ 36 NONAME
	_ZN11RDbNotifier6CancelEv @ 37 NONAME
	_ZN11RDbTableRow5ReadLE11TDbRecordId @ 38 NONAME
	_ZN12CDbBlobSpace6DeleteEm @ 39 NONAME
	_ZN12CDbBlobSpace7CreateLE10TDbColTypePKvi @ 40 NONAME
	_ZN12CDbBlobSpace7CreateLERm10TDbColType @ 41 NONAME
	_ZN12CDbBlobSpace7DeleteLEm @ 42 NONAME
	_ZN12TDbColumnDef4SetLERK6TDbCol @ 43 NONAME
	_ZN12TDbColumnDef4SetLERKS_ @ 44 NONAME
	_ZN13CDbRecordBase10DoRestoreLEv @ 45 NONAME
	_ZN13CDbRecordBase14AboutToModifyLEv @ 46 NONAME
	_ZN13CDbRecordBase6FlushLEv @ 47 NONAME
	_ZN13CDbRecordBase6SynchLEv @ 48 NONAME
	_ZN13CDbRecordBase6TouchLEv @ 49 NONAME
	_ZN13CDbRecordBase8RestoreLEv @ 50 NONAME
	_ZTV9CDbCursor @ 51 NONAME ; #<VT>#
	_ZN13CDbRecordIterC2ER13CDbRecordBase @ 52 NONAME
	_ZN13CDbRecordIterD0Ev @ 53 NONAME
	_ZN13CDbRecordIterD1Ev @ 54 NONAME
	_ZN13CDbRecordIterD2Ev @ 55 NONAME
	_ZN13TDbColSetIterC1ERK9CDbColSet @ 56 NONAME
	_ZN13TDbColSetIterC2ERK9CDbColSet @ 57 NONAME
	_ZN13TDbColSetIterppEv @ 58 NONAME
	_ZN14RDbIncremental10AlterTableER11RDbDatabaseRK7TDesC16RK9CDbColSetRi @ 59 NONAME
	_ZN14RDbIncremental11CreateIndexER11RDbDatabaseRK7TDesC16S4_RK6CDbKeyRi @ 60 NONAME
	_ZN14RDbIncremental11UpdateStatsER11RDbDatabaseRi @ 61 NONAME
	_ZN14RDbIncremental4NextER8TPckgBufIiER14TRequestStatus @ 62 NONAME
	_ZN14RDbIncremental4NextERi @ 63 NONAME
	_ZN14RDbIncremental5CloseEv @ 64 NONAME
	_ZN14RDbIncremental7CompactER11RDbDatabaseRi @ 65 NONAME
	_ZN14RDbIncremental7ExecuteER11RDbDatabaseRK7TDesC1617TDbTextComparisonRi @ 66 NONAME
	_ZN14RDbIncremental7RecoverER11RDbDatabaseRi @ 67 NONAME
	_ZN14RDbIncremental9DropIndexER11RDbDatabaseRK7TDesC16S4_Ri @ 68 NONAME
	_ZN14RDbIncremental9DropTableER11RDbDatabaseRK7TDesC16Ri @ 69 NONAME
	_ZN16CDbStoreDatabase10ConstructLEv @ 70 NONAME
	_ZN16CDbStoreDatabase10Reserved_1Ev @ 71 NONAME
	_ZN16CDbStoreDatabase10Reserved_2Ev @ 72 NONAME
	_ZN16CDbStoreDatabase11LoadSchemaLEv @ 73 NONAME
	_ZN16CDbStoreDatabase11TableAlterLER11CDbTableDefRK12HDbColumnSetRi @ 74 NONAME
	_ZN16CDbStoreDatabase12CreateIndexLERK11CDbTableDefRK7TDesC16RK6CDbKey @ 75 NONAME
	_ZN16CDbStoreDatabase12CreateTableLERK7TDesC16RK9CDbColSetPK6CDbKey @ 76 NONAME
	_ZN16CDbStoreDatabase13AuthenticateLEv @ 77 NONAME
	_ZN4RDbs17ReserveDriveSpaceEii @ 78 NONAME
	_ZN16CDbStoreDatabase15IndexDiscarderLERK11CDbTableDefRK16CDbTableIndexDefRi @ 79 NONAME
	_ZN16CDbStoreDatabase16RecordDiscarderLERK11CDbTableDefRi @ 80 NONAME
	_ZN16CDbStoreDatabase4IdleEv @ 81 NONAME
	_ZN16CDbStoreDatabase6RevertE11TDbLockType @ 82 NONAME
	_ZN16CDbStoreDatabase6SynchLE11TDbLockType @ 83 NONAME
	_ZN16CDbStoreDatabase6TableLERK11CDbTableDef @ 84 NONAME
	_ZN16CDbStoreDatabase8DestroyLEv @ 85 NONAME
	_ZN16CDbStoreDatabase8PropertyEN11CDbDatabase9TPropertyE @ 86 NONAME
	_ZN16CDbStoreDatabase8RestoreLE9TStreamId @ 87 NONAME
	_ZN16CDbStoreDatabase8UtilityLEN11CDbDatabase8TUtilityERi @ 88 NONAME
	_ZN4RDbs16GetReserveAccessEi @ 89 NONAME
	_ZN16CDbStoreDatabaseC1Ev @ 90 NONAME
	_ZN16CDbStoreDatabaseC2Ev @ 91 NONAME
	_ZN16CDbStoreDatabaseD0Ev @ 92 NONAME
	_ZN16CDbStoreDatabaseD1Ev @ 93 NONAME
	_ZN16CDbStoreDatabaseD2Ev @ 94 NONAME
	_ZN16CDbTableDatabase10InterfaceLEv @ 95 NONAME
	_ZN16CDbTableDatabase10Reserved_1Ev @ 96 NONAME
	_ZN16CDbTableDatabase10Reserved_2Ev @ 97 NONAME
	_ZN16CDbTableDatabase11CBuildIndex4NewLERS_RK11CDbTableDefRK16CDbTableIndexDef @ 98 NONAME
	_ZN16CDbTableDatabase11CBuildIndex5StepsEi @ 99 NONAME
	_ZN16CDbTableDatabase11CBuildIndex6StepsLEv @ 100 NONAME
	_ZN16CDbTableDatabase13CMultiStepper10AddStepperEPNS_8CStepperEi @ 101 NONAME
	_ZN16CDbTableDatabase13CMultiStepper10TotalStepsEv @ 102 NONAME
	_ZN16CDbTableDatabase13CMultiStepper4NewLEi @ 103 NONAME
	_ZN16CDbTableDatabase4IdleEv @ 104 NONAME
	_ZN16CDbTableDatabase7SchemaLEv @ 105 NONAME
	_ZN16CDbTableDatabase7SourceLEv @ 106 NONAME
	_ZN16CDbTableDatabase8PropertyEN11CDbDatabase9TPropertyE @ 107 NONAME
	_ZN16CDbTableDatabase8UtilityLEN11CDbDatabase8TUtilityERi @ 108 NONAME
	_ZTV9CDbColSet @ 109 NONAME ; #<VT>#
	_ZN16CDbTableDatabaseC2Ev @ 110 NONAME
	_ZN16CDbTableDatabaseD0Ev @ 111 NONAME
	_ZN16CDbTableDatabaseD1Ev @ 112 NONAME
	_ZN16CDbTableDatabaseD2Ev @ 113 NONAME
	_ZN16CDbTableIndexDef10ConstructLERK7TDesC16 @ 114 NONAME
	_ZN16CDbTableIndexDefC1Ev @ 115 NONAME
	_ZN16CDbTableIndexDefC2Ev @ 116 NONAME
	_ZN16CDbTableIndexDefD0Ev @ 117 NONAME
	_ZN16CDbTableIndexDefD1Ev @ 118 NONAME
	_ZN16CDbTableIndexDefD2Ev @ 119 NONAME
	_ZN16RDbColReadStream5OpenLERK9RDbRowSeti @ 120 NONAME
	_ZN16RDbColReadStream6OpenLCERK9RDbRowSeti @ 121 NONAME
	_ZN16RDbNamedDatabase4OpenER3RFsRK7TDesC16S4_NS_7TAccessE @ 122 NONAME
	_ZN16RDbNamedDatabase4OpenER4RDbsRK7TDesC16S4_ @ 123 NONAME
	_ZN16RDbNamedDatabase6CreateER3RFsRK7TDesC16S4_ @ 124 NONAME
	_ZN16RDbNamedDatabase7ReplaceER3RFsRK7TDesC16S4_ @ 125 NONAME
	_ZN16RDbRowConstraint4OpenERK9RDbRowSet8TDbQuery @ 126 NONAME
	_ZN16RDbRowConstraint5CloseEv @ 127 NONAME
	_ZN16RDbStoreDatabase11DecompressLER12CStreamStore9TStreamId @ 128 NONAME
	_ZN16RDbStoreDatabase5OpenLEP12CStreamStore9TStreamId @ 129 NONAME
	_ZN4RDbs17GetDatabasePolicyE4TUidNS_11TPolicyTypeER15TSecurityPolicy @ 130 NONAME
	_ZN16RDbStoreDatabase7CreateLEP12CStreamStore @ 131 NONAME
	_ZN4RDbs16GetTablePoliciesE4TUidRK7TDesC16NS_11TPolicyTypeER15TSecurityPolicyS6_ @ 132 NONAME
	_ZN16RDbStoreDatabase9CompressLER12CStreamStore9TStreamId @ 133 NONAME
	_ZN17RDbColWriteStream5OpenLER9RDbRowSeti @ 134 NONAME
	_ZN17RDbColWriteStream6OpenLCER9RDbRowSeti @ 135 NONAME
	_ZN4RDbs14GetTablePolicyE4TUidRK7TDesC16NS_11TPolicyTypeER15TSecurityPolicy @ 136 NONAME
	_ZN4RDbs14DeleteDatabaseERK7TDesC164TUid @ 137 NONAME
	_ZN18CDbSyncIncremental4NextER8TPckgBufIiER14TRequestStatus @ 138 NONAME
	_ZN19CDbAsyncIncremental5NextLERi @ 139 NONAME
	_ZN20CDbFileStoreDatabase11CreateRootLE9TStreamId @ 140 NONAME
	_ZN20CDbFileStoreDatabase11DatabaseIdLE9TStreamId @ 141 NONAME
	_ZN20CDbFileStoreDatabase5OpenLER3RFsRK7TDesC16N9TDbFormat5TOpenE @ 142 NONAME
	_ZN20CDbFileStoreDatabase5OpenLERK7TDesC16N9TDbFormat5TOpenE @ 143 NONAME
	_ZN20CDbFileStoreDatabase7CreateLER3RFsRK7TDesC16N9TDbFormat7TCreateERK8TUidType @ 144 NONAME
	_ZN20CDbFileStoreDatabase7CreateLERK7TDesC16N9TDbFormat7TCreateERK8TUidType @ 145 NONAME
	_ZN20CDbFileStoreDatabase8DestroyLEv @ 146 NONAME
	_ZN20CDbFileStoreDatabase8PropertyEN11CDbDatabase9TPropertyE @ 147 NONAME
	_ZN20CDbFileStoreDatabaseC1ER3RFs @ 148 NONAME
	_ZN20CDbFileStoreDatabaseC2ER3RFs @ 149 NONAME
	_ZN20CDbFileStoreDatabaseD0Ev @ 150 NONAME
	_ZN20CDbFileStoreDatabaseD1Ev @ 151 NONAME
	_ZN20CDbFileStoreDatabaseD2Ev @ 152 NONAME
	_ZN3Dbs3RunEv @ 153 NONAME
	_ZN4Dbms5PanicERK7TDesC16i @ 154 NONAME
	_ZN4RDbs12ResourceMarkEv @ 155 NONAME
	_ZN4RDbs13ResourceCheckEv @ 156 NONAME
	_ZN4RDbs13ResourceCountEv @ 157 NONAME
	_ZN4RDbs14SetHeapFailureEii @ 158 NONAME
	_ZN4RDbs7ConnectEv @ 159 NONAME
	_ZN4RDbs7VersionEv @ 160 NONAME
	_ZN6CDbKey4AddLERK9TDbKeyCol @ 161 NONAME
	_ZN6CDbKey4NewLEv @ 162 NONAME
	_ZN6CDbKey5ClearEv @ 163 NONAME
	_ZN6CDbKey5NewLCEv @ 164 NONAME
	_ZN6CDbKey6RemoveERK7TDesC16 @ 165 NONAME
	_ZN6CDbKeyC1Ev @ 166 NONAME
	_ZN6CDbKeyC2Ev @ 167 NONAME
	_ZN6CDbKeyD0Ev @ 168 NONAME
	_ZN6CDbKeyD1Ev @ 169 NONAME
	_ZN6CDbKeyD2Ev @ 170 NONAME
	_ZN6RDbRow15SetColumnWidthLEii @ 171 NONAME
	_ZN6RDbRow4OpenEPvii @ 172 NONAME
	_ZN6RDbRow5CloseEv @ 173 NONAME
	_ZN6RDbRow5GrowLEi @ 174 NONAME
	_ZN6RDbRow7CreateLEi @ 175 NONAME
	_ZN6RDbRow7SetSizeEi @ 176 NONAME
	_ZN6RDbRowC1Ev @ 177 NONAME
	_ZN6RDbRowC2Ev @ 178 NONAME
	_ZN6TDbColC1ERK7TDesC1610TDbColType @ 179 NONAME
	_ZN6TDbColC1ERK7TDesC1610TDbColTypei @ 180 NONAME
	_ZN6TDbColC2ERK7TDesC1610TDbColType @ 181 NONAME
	_ZN6TDbColC2ERK7TDesC1610TDbColTypei @ 182 NONAME
	_ZN7RDbView11EvaluateAllEv @ 183 NONAME
	_ZN7RDbView7PrepareER11RDbDatabaseRK8TDbQueryN9RDbRowSet7TAccessE @ 184 NONAME
	_ZN7RDbView7PrepareER11RDbDatabaseRK8TDbQueryRK9TDbWindow @ 185 NONAME
	_ZN7RDbView7PrepareER11RDbDatabaseRK8TDbQueryRK9TDbWindowN9RDbRowSet7TAccessE @ 186 NONAME
	_ZN7RDbView8EvaluateER14TRequestStatus @ 187 NONAME
	_ZN7RDbView8EvaluateEv @ 188 NONAME
	_ZN8CDbNames4AddLERK7TDesC16 @ 189 NONAME
	_ZN8CDbTable10IndexSpanLERK16CDbTableIndexDefjPK12TDbLookupKeyS5_ @ 190 NONAME
	_ZN8CDbTable13DiscardBlobsLER6RDbRow @ 191 NONAME
	_ZN8CDbTable6BlobsLEv @ 192 NONAME
	_ZN8CDbTable6IndexLERK16CDbTableIndexDef @ 193 NONAME
	_ZN8CDbTable8RecordsLEv @ 194 NONAME
	_ZTV8CDbTable @ 195 NONAME ; #<VT>#
	_ZN8CDbTableC2ER16CDbTableDatabaseRK11CDbTableDef @ 196 NONAME
	_ZN8CDbTableD0Ev @ 197 NONAME
	_ZN8CDbTableD1Ev @ 198 NONAME
	_ZN8CDbTableD2Ev @ 199 NONAME
	_ZN8RDbTable4OpenER11RDbDatabaseRK7TDesC16N9RDbRowSet7TAccessE @ 200 NONAME
	_ZN8RDbTable5SeekLERK10TDbSeekKeyNS_11TComparisonE @ 201 NONAME
	_ZN8RDbTable8SetIndexEPK7TDesC16 @ 202 NONAME
	_ZN8TTextOps3OpsE17TDbTextComparison @ 203 NONAME
	_ZN9CDbColSet4AddLERK6TDbCol @ 204 NONAME
	_ZN9CDbColSet4NewLEv @ 205 NONAME
	_ZN9CDbColSet5NewLCEv @ 206 NONAME
	_ZN9CDbColSet6RemoveERK7TDesC16 @ 207 NONAME
	_ZN9CDbColSetC1Ev @ 208 NONAME
	_ZN9CDbColSetC2Ev @ 209 NONAME
	_ZN9CDbColSetD0Ev @ 210 NONAME
	_ZN9CDbColSetD1Ev @ 211 NONAME
	_ZN9CDbColSetD2Ev @ 212 NONAME
	_ZN9CDbCursor10Reserved_1Ev @ 213 NONAME
	_ZN9CDbCursor10Reserved_2Ev @ 214 NONAME
	_ZN9CDbCursor5FindLEN9RDbRowSet10TDirectionERK8TDbQuery @ 215 NONAME
	_ZN9CDbCursor6CountLEN9RDbRowSet9TAccuracyE @ 216 NONAME
	_ZN9CDbCursor8ColumnsLER9CDbColSet @ 217 NONAME
	_ZN4RDbs14DatabaseNamesLE12TDriveNumber4TUid @ 218 NONAME
	_ZN9RDbRowSet11InsertCopyLEv @ 219 NONAME
	_ZN9RDbRowSet11SetColNullLEi @ 220 NONAME
	_ZN9RDbRowSet4GetLEv @ 221 NONAME
	_ZN9RDbRowSet4PutLEv @ 222 NONAME
	_ZN9RDbRowSet5CloseEv @ 223 NONAME
	_ZN9RDbRowSet5FindLENS_10TDirectionE8TDbQuery @ 224 NONAME
	_ZN9RDbRowSet5GotoLENS_9TPositionE @ 225 NONAME
	_ZN9RDbRowSet5GotoLERK11TDbBookmark @ 226 NONAME
	_ZN9RDbRowSet5ResetEv @ 227 NONAME
	_ZN9RDbRowSet6CancelEv @ 228 NONAME
	_ZN9RDbRowSet6MatchLERK16RDbRowConstraint @ 229 NONAME
	_ZN9RDbRowSet7DeleteLEv @ 230 NONAME
	_ZN9RDbRowSet7InsertLEv @ 231 NONAME
	_ZN9RDbRowSet7SetColLEi5TTime @ 232 NONAME
	_ZN9RDbRowSet7SetColLEix @ 233 NONAME
	_ZN9RDbRowSet7SetColLEiRK6TDesC8 @ 234 NONAME
	_ZN9RDbRowSet7SetColLEiRK7TDesC16 @ 235 NONAME
	_ZN9RDbRowSet7SetColLEid @ 236 NONAME
	_ZN9RDbRowSet7SetColLEif @ 237 NONAME
	_ZN9RDbRowSet7SetColLEil @ 238 NONAME
	_ZN9RDbRowSet7SetColLEim @ 239 NONAME
	_ZN9RDbRowSet7UpdateLEv @ 240 NONAME
	_ZN9RDbUpdate4NextER14TRequestStatus @ 241 NONAME
	_ZN9RDbUpdate4NextEv @ 242 NONAME
	_ZN9RDbUpdate5CloseEv @ 243 NONAME
	_ZN9RDbUpdate7ExecuteER11RDbDatabaseRK7TDesC1617TDbTextComparison @ 244 NONAME
	_ZN9TDbColumn10CommitBlobERK7TDbBlob @ 245 NONAME
	_ZN9TDbColumn4SetLEx @ 246 NONAME
	_ZN9TDbColumn4SetLEPKvi @ 247 NONAME
	_ZN9TDbColumn4SetLERK6TDesC8 @ 248 NONAME
	_ZN9TDbColumn4SetLERK7TDesC16 @ 249 NONAME
	_ZN9TDbColumn4SetLEd @ 250 NONAME
	_ZN9TDbColumn4SetLEf @ 251 NONAME
	_ZN9TDbColumn4SetLEm @ 252 NONAME
	_ZN9TDbColumn8SetBlobLEPKhi @ 253 NONAME
	_ZN9TDbColumn8SetBlobLEmi @ 254 NONAME
	_ZN9TDbColumn9InitBlobLEv @ 255 NONAME
	_ZN9TDbKeyColC1ERK7TDesC16NS_6TOrderE @ 256 NONAME
	_ZN9TDbKeyColC1ERK7TDesC16iNS_6TOrderE @ 257 NONAME
	_ZN9TDbKeyColC2ERK7TDesC16NS_6TOrderE @ 258 NONAME
	_ZN9TDbKeyColC2ERK7TDesC16iNS_6TOrderE @ 259 NONAME
	_ZN9TDbWindowC1Eii @ 260 NONAME
	_ZN9TDbWindowC2Eii @ 261 NONAME
	_ZNK10RDbIndexes5CountEv @ 262 NONAME
	_ZNK11RDbDatabase11IndexNamesLERK7TDesC16 @ 263 NONAME
	_ZNK11RDbDatabase11TableNamesLEv @ 264 NONAME
	_ZNK11RDbDatabase13InTransactionEv @ 265 NONAME
	_ZNK11RDbDatabase4KeyLERK7TDesC16S2_ @ 266 NONAME
	_ZNK11RDbDatabase4SizeEv @ 267 NONAME
	_ZNK11RDbDatabase7ColSetLERK7TDesC16 @ 268 NONAME
	_ZNK11RDbDatabase9IsDamagedEv @ 269 NONAME
	_ZNK12CDbBlobSpace6ReadLCEm10TDbColType @ 270 NONAME
	_ZNK12HDbColumnSet5CountEv @ 271 NONAME
	_ZNK12HDbColumnSet6ColNoLERK7TDesC16 @ 272 NONAME
	_ZNK12HDbColumnSet7ColumnLERK7TDesC16 @ 273 NONAME
	_ZNK6RDbRow7ColCellEi @ 274 NONAME
	_ZNK7RDbView11UnevaluatedEv @ 275 NONAME
	_ZNK8TTextOps4FindEPKhiS1_i @ 276 NONAME
	_ZNK8TTextOps4FindEPKtiS1_i @ 277 NONAME
	_ZNK8TTextOps4FindERK6TDesC8S2_ @ 278 NONAME
	_ZNK8TTextOps4FindERK7TDesC16S2_ @ 279 NONAME
	_ZNK8TTextOps5MatchEPKhiS1_i @ 280 NONAME
	_ZNK8TTextOps5MatchEPKtiS1_i @ 281 NONAME
	_ZNK8TTextOps7CompareERK6TDesC8S2_ @ 282 NONAME
	_ZNK8TTextOps7CompareERK7TDesC16S2_ @ 283 NONAME
	_ZNK9CDbColSet3ColERK7TDesC16 @ 284 NONAME
	_ZNK9CDbColSet5ColNoERK7TDesC16 @ 285 NONAME
	_ZNK9RDbRowSet11AtBeginningEv @ 286 NONAME
	_ZNK9RDbRowSet5AtEndEv @ 287 NONAME
	_ZNK9RDbRowSet5AtRowEv @ 288 NONAME
	_ZNK9RDbRowSet6ColDefEi @ 289 NONAME
	_ZNK9RDbRowSet6ColDesEi @ 290 NONAME
	_ZNK9RDbRowSet6CountLENS_9TAccuracyE @ 291 NONAME
	_ZNK9RDbRowSet7ColDes8Ei @ 292 NONAME
	_ZNK9RDbRowSet7ColInt8Ei @ 293 NONAME
	_ZNK9RDbRowSet7ColSetLEv @ 294 NONAME
	_ZNK9RDbRowSet7ColSizeEi @ 295 NONAME
	_ZNK9RDbRowSet7ColTimeEi @ 296 NONAME
	_ZNK9RDbRowSet7ColTypeEi @ 297 NONAME
	_ZNK9RDbRowSet8BookmarkEv @ 298 NONAME
	_ZNK9RDbRowSet8ColCountEv @ 299 NONAME
	_ZNK9RDbRowSet8ColDes16Ei @ 300 NONAME
	_ZNK9RDbRowSet8ColInt16Ei @ 301 NONAME
	_ZNK9RDbRowSet8ColInt32Ei @ 302 NONAME
	_ZNK9RDbRowSet8ColInt64Ei @ 303 NONAME
	_ZNK9RDbRowSet8ColUint8Ei @ 304 NONAME
	_ZNK9RDbRowSet8IsEmptyLEv @ 305 NONAME
	_ZNK9RDbRowSet9ColLengthEi @ 306 NONAME
	_ZNK9RDbRowSet9ColReal32Ei @ 307 NONAME
	_ZNK9RDbRowSet9ColReal64Ei @ 308 NONAME
	_ZNK9RDbRowSet9ColUint16Ei @ 309 NONAME
	_ZNK9RDbRowSet9ColUint32Ei @ 310 NONAME
	_ZNK9RDbUpdate8RowCountEv @ 311 NONAME
	_ZTI11CDbDatabase @ 312 NONAME ; #<TI>#
	_ZTI11CDbTableDef @ 313 NONAME ; #<TI>#
	_ZTI13CDbRecordBase @ 314 NONAME ; #<TI>#
	_ZTI13CDbRecordIter @ 315 NONAME ; #<TI>#
	_ZTI16CDbStoreDatabase @ 316 NONAME ; #<TI>#
	_ZTI16CDbTableDatabase @ 317 NONAME ; #<TI>#
	_ZTI16CDbTableIndexDef @ 318 NONAME ; #<TI>#
	_ZTI20CDbFileStoreDatabase @ 319 NONAME ; #<TI>#
	_ZTI6CDbKey @ 320 NONAME ; #<TI>#
	_ZTI8CDbTable @ 321 NONAME ; #<TI>#
	_ZTI9CDbColSet @ 322 NONAME ; #<TI>#
	_ZTI9CDbCursor @ 323 NONAME ; #<TI>#
	_ZN4RDbs12CopyDatabaseERK7TDesC16S2_4TUid @ 324 NONAME
	_ZTV11CDbDatabase @ 325 NONAME ; #<VT>#
	_ZTV11CDbTableDef @ 326 NONAME ; #<VT>#
	_ZTV13CDbRecordBase @ 327 NONAME ; #<VT>#
	_ZTV13CDbRecordIter @ 328 NONAME ; #<VT>#
	_ZTV16CDbStoreDatabase @ 329 NONAME ; #<VT>#
	_ZTV16CDbTableDatabase @ 330 NONAME ; #<VT>#
	_ZTV16CDbTableIndexDef @ 331 NONAME ; #<VT>#
	_ZTV20CDbFileStoreDatabase @ 332 NONAME ; #<VT>#
	_ZTV6CDbKey @ 333 NONAME ; #<VT>#
	_ZTI10CDbContext @ 334 NONAME ; #<TI>#
	_ZTI10CDbsCursor @ 335 NONAME ABSENT ; #<TI>#
	_ZTI10CDbsServer @ 336 NONAME ABSENT ; #<TI>#
	_ZTI10CDbsSource @ 337 NONAME ABSENT ; #<TI>#
	_ZTI10CSqlValues @ 338 NONAME ABSENT ; #<TI>#
	_ZTI11CDbStoreDef @ 339 NONAME ABSENT ; #<TI>#
	_ZTI11CDbsSession @ 340 NONAME ABSENT ; #<TI>#
	_ZTI11HDbsReadBuf @ 341 NONAME ABSENT ; #<TI>#
	_ZTI11HDeflateBuf @ 342 NONAME ABSENT ; #<TI>#
	_ZTI11HInflateBuf @ 343 NONAME ABSENT ; #<TI>#
	_ZTI11TDesMatcherIh6TDesC8E @ 344 NONAME ; #<TI>#
	_ZTI11TDesMatcherIt7TDesC16E @ 345 NONAME ; #<TI>#
	_ZTI12CDbDataStage @ 346 NONAME ABSENT ; #<TI>#
	_ZTI12CDbsDatabase @ 347 NONAME ABSENT ; #<TI>#
	_ZTI12CDbsNotifier @ 348 NONAME ABSENT ; #<TI>#
	_ZTI12CDbsObserver @ 349 NONAME ABSENT ; #<TI>#
	_ZTI13CClusterCache @ 350 NONAME ABSENT ; #<TI>#
	_ZTI13CDbFindDriver @ 351 NONAME ABSENT ; #<TI>#
	_ZTI13CDbStoreBlobs @ 352 NONAME ABSENT ; #<TI>#
	_ZTI13CDbStoreIndex @ 353 NONAME ABSENT ; #<TI>#
	_ZTI13CDbStoreTable @ 354 NONAME ABSENT ; #<TI>#
	_ZTI13CSqlBoundNode @ 355 NONAME ABSENT ; #<TI>#
	_ZTI13CSqlMultiNode @ 356 NONAME ABSENT ; #<TI>#
	_ZTI13TDeflateStats @ 357 NONAME ABSENT ; #<TI>#
	_ZTI14CDbBlobCleanup @ 358 NONAME ABSENT ; #<TI>#
	_ZTI14CDbReverseIter @ 359 NONAME ABSENT ; #<TI>#
	_ZN16RDbNamedDatabase6CreateER4RDbsRK7TDesC16S4_ @ 360 NONAME
	_ZTI14CDbTableCursor @ 361 NONAME ABSENT ; #<TI>#
	_ZTI14CDbTableSource @ 362 NONAME ABSENT ; #<TI>#
	_ZTI14CDbWindowStage @ 363 NONAME ABSENT ; #<TI>#
	_ZTI14CDbsConnection @ 364 NONAME ABSENT ; #<TI>#
	_ZTI14CDbsConstraint @ 365 NONAME ABSENT ; #<TI>#
	_ZTI14TStreamMatcherIh6TDesC8E @ 366 NONAME ; #<TI>#
	_ZTI14TStreamMatcherIt7TDesC16E @ 367 NONAME ; #<TI>#
	_ZTI15CDbOrderByStage @ 368 NONAME ABSENT ; #<TI>#
	_ZTI15CDbProjectStage @ 369 NONAME ABSENT ; #<TI>#
	_ZTI15CDbStoreRecords @ 370 NONAME ABSENT ; #<TI>#
	_ZTI15CDbsIncremental @ 371 NONAME ABSENT ; #<TI>#
	_ZTI15CSqlLiteralNode @ 372 NONAME ABSENT ; #<TI>#
	_ZTI16CDbRestrictStage @ 373 NONAME ABSENT ; #<TI>#
	_ZTI16CSqlDMLStatement @ 374 NONAME ABSENT ; #<TI>#
	_ZTI16HUnicodeExpander @ 375 NONAME ABSENT ; #<TI>#
	_ZTI17CDbIncrementalDML @ 376 NONAME ABSENT ; #<TI>#
	_ZTI17CSqlCompPredicate @ 377 NONAME ABSENT ; #<TI>#
	_ZTI17CSqlLikePredicate @ 378 NONAME ABSENT ; #<TI>#
	_ZTI17CSqlNullPredicate @ 379 NONAME ABSENT ; #<TI>#
	_ZTI18CDbSyncIncremental @ 380 NONAME ; #<TI>#
	_ZTI18HUnicodeCompressor @ 381 NONAME ABSENT ; #<TI>#
	_ZTI19CDbAsyncIncremental @ 382 NONAME ; #<TI>#
	_ZTI19CDbBasicWindowStage @ 383 NONAME ABSENT ; #<TI>#
	_ZTI19CDbStoreCompression @ 384 NONAME ABSENT ; #<TI>#
	_ZTI19CSqlInsertStatement @ 385 NONAME ABSENT ; #<TI>#
	_ZTI19CSqlModifyStatement @ 386 NONAME ABSENT ; #<TI>#
	_ZTI21CDbReorderWindowStage @ 387 NONAME ABSENT ; #<TI>#
	_ZTI22CSqlDropIndexStatement @ 388 NONAME ABSENT ; #<TI>#
	_ZTI22CSqlDropTableStatement @ 389 NONAME ABSENT ; #<TI>#
	_ZTI23CSqlAlterTableStatement @ 390 NONAME ABSENT ; #<TI>#
	_ZTI24CSqlCreateIndexStatement @ 391 NONAME ABSENT ; #<TI>#
	_ZTI24CSqlCreateTableStatement @ 392 NONAME ABSENT ; #<TI>#
	_ZTI7HBufBuf @ 393 NONAME ABSENT ; #<TI>#
	_ZTI7HDbsBuf @ 394 NONAME ABSENT ; #<TI>#
	_ZTI8CCluster @ 395 NONAME ABSENT ; #<TI>#
	_ZTI8CDbNames @ 396 NONAME ; #<TI>#
	_ZTI9CDbDriver @ 397 NONAME ABSENT ; #<TI>#
	_ZTI9CSqlQuery @ 398 NONAME ABSENT ; #<TI>#
	_ZTI9TDeflater @ 399 NONAME ABSENT ; #<TI>#
	_ZTIN13CDbStoreIndex10CDiscarderE @ 400 NONAME ABSENT ; #<TI>#
	_ZTIN13CDbStoreIndex4HKeyE @ 401 NONAME ABSENT ; #<TI>#
	_ZTIN13CDbStoreIndex5CIterE @ 402 NONAME ABSENT ; #<TI>#
	_ZTIN13CDbStoreIndex7CRepairE @ 403 NONAME ABSENT ; #<TI>#
	_ZTIN13CDbStoreIndex7HDupKeyE @ 404 NONAME ABSENT ; #<TI>#
	_ZTIN13CDbStoreIndex8CRecoverE @ 405 NONAME ABSENT ; #<TI>#
	_ZTIN13CDbStoreTable10CDiscarderE @ 406 NONAME ABSENT ; #<TI>#
	_ZTIN13CDbStoreTable11CCompressorE @ 407 NONAME ABSENT ; #<TI>#
	_ZTIN13CDbStoreTable6CAlterE @ 408 NONAME ABSENT ; #<TI>#
	_ZTVN8RDbCache6CCacheE @ 409 NONAME ABSENT ; #<VT>#
	_ZTIN14CDbTableCursor11CConstraintE @ 410 NONAME ABSENT ; #<TI>#
	_ZTIN14CDbTableCursor7HMemBufE @ 411 NONAME ABSENT ; #<TI>#
	_ZTIN14CDbTableCursor8HReadBufE @ 412 NONAME ABSENT ; #<TI>#
	_ZTIN14CDbTableCursor9HWriteBufE @ 413 NONAME ABSENT ; #<TI>#
	_ZTIN14RDbTransaction9CNotifierE @ 414 NONAME ABSENT ; #<TI>#
	_ZTIN15CDbOrderByStage5CKeysE @ 415 NONAME ABSENT ; #<TI>#
	_ZTIN15CDbStoreRecords5CIterE @ 416 NONAME ABSENT ; #<TI>#
	_ZTIN16CDbStoreDatabase10CCompactorE @ 417 NONAME ABSENT ; #<TI>#
	_ZTIN16CDbTableDatabase10CDropIndexE @ 418 NONAME ABSENT ; #<TI>#
	_ZTIN16CDbTableDatabase10CDropTableE @ 419 NONAME ABSENT ; #<TI>#
	_ZTIN16CDbTableDatabase10CInterfaceE @ 420 NONAME ABSENT ; #<TI>#
	_ZTIN16CDbTableDatabase11CAlterTableE @ 421 NONAME ABSENT ; #<TI>#
	_ZTIN16CDbTableDatabase11CBuildIndexE @ 422 NONAME ; #<TI>#
	_ZTIN16CDbTableDatabase12CIncrementalE @ 423 NONAME ABSENT ; #<TI>#
	_ZTIN16CDbTableDatabase13CMultiStepperE @ 424 NONAME ; #<TI>#
	_ZTIN16CDbTableDatabase15CIncrementalDDLE @ 425 NONAME ABSENT ; #<TI>#
	_ZTIN16CDbTableDatabase7CSourceE @ 426 NONAME ABSENT ; #<TI>#
	_ZTIN16CDbTableDatabase8CUtilityE @ 427 NONAME ABSENT ; #<TI>#
	_ZTIN8CCluster6MAlterE @ 428 NONAME ABSENT ; #<TI>#
	_ZTIN8RDbCache6CCacheE @ 429 NONAME ABSENT ; #<TI>#
	_ZTV10CDbContext @ 430 NONAME ; #<VT>#
	_ZTV10CDbsCursor @ 431 NONAME ABSENT ; #<VT>#
	_ZTV10CDbsServer @ 432 NONAME ABSENT ; #<VT>#
	_ZTV10CDbsSource @ 433 NONAME ABSENT ; #<VT>#
	_ZTV10CSqlValues @ 434 NONAME ABSENT ; #<VT>#
	_ZTV11CDbStoreDef @ 435 NONAME ABSENT ; #<VT>#
	_ZTV11CDbsSession @ 436 NONAME ABSENT ; #<VT>#
	_ZTV11HDbsReadBuf @ 437 NONAME ABSENT ; #<VT>#
	_ZTV11HDeflateBuf @ 438 NONAME ABSENT ; #<VT>#
	_ZTV11HInflateBuf @ 439 NONAME ABSENT ; #<VT>#
	_ZTV11TDesMatcherIh6TDesC8E @ 440 NONAME ; #<VT>#
	_ZTV11TDesMatcherIt7TDesC16E @ 441 NONAME ; #<VT>#
	_ZTV12CDbDataStage @ 442 NONAME ABSENT ; #<VT>#
	_ZTV12CDbsDatabase @ 443 NONAME ABSENT ; #<VT>#
	_ZTV12CDbsNotifier @ 444 NONAME ABSENT ; #<VT>#
	_ZTV12CDbsObserver @ 445 NONAME ABSENT ; #<VT>#
	_ZTV13CClusterCache @ 446 NONAME ABSENT ; #<VT>#
	_ZTV13CDbFindDriver @ 447 NONAME ABSENT ; #<VT>#
	_ZTV13CDbStoreBlobs @ 448 NONAME ABSENT ; #<VT>#
	_ZTV13CDbStoreIndex @ 449 NONAME ABSENT ; #<VT>#
	_ZTV13CDbStoreTable @ 450 NONAME ABSENT ; #<VT>#
	_ZTV13CSqlBoundNode @ 451 NONAME ABSENT ; #<VT>#
	_ZTV13CSqlMultiNode @ 452 NONAME ABSENT ; #<VT>#
	_ZTV13TDeflateStats @ 453 NONAME ABSENT ; #<VT>#
	_ZTV14CDbBlobCleanup @ 454 NONAME ABSENT ; #<VT>#
	_ZTV14CDbReverseIter @ 455 NONAME ABSENT ; #<VT>#
	_ZTVN8CCluster6MAlterE @ 456 NONAME ABSENT ; #<VT>#
	_ZTV14CDbTableCursor @ 457 NONAME ABSENT ; #<VT>#
	_ZTV14CDbTableSource @ 458 NONAME ABSENT ; #<VT>#
	_ZTV14CDbWindowStage @ 459 NONAME ABSENT ; #<VT>#
	_ZTV14CDbsConnection @ 460 NONAME ABSENT ; #<VT>#
	_ZTV14CDbsConstraint @ 461 NONAME ABSENT ; #<VT>#
	_ZTV14TStreamMatcherIh6TDesC8E @ 462 NONAME ; #<VT>#
	_ZTV14TStreamMatcherIt7TDesC16E @ 463 NONAME ; #<VT>#
	_ZTV15CDbOrderByStage @ 464 NONAME ABSENT ; #<VT>#
	_ZTV15CDbProjectStage @ 465 NONAME ABSENT ; #<VT>#
	_ZTV15CDbStoreRecords @ 466 NONAME ABSENT ; #<VT>#
	_ZTV15CDbsIncremental @ 467 NONAME ABSENT ; #<VT>#
	_ZTV15CSqlLiteralNode @ 468 NONAME ABSENT ; #<VT>#
	_ZTV16CDbRestrictStage @ 469 NONAME ABSENT ; #<VT>#
	_ZTV16CSqlDMLStatement @ 470 NONAME ABSENT ; #<VT>#
	_ZTV16HUnicodeExpander @ 471 NONAME ABSENT ; #<VT>#
	_ZTV17CDbIncrementalDML @ 472 NONAME ABSENT ; #<VT>#
	_ZTV17CSqlCompPredicate @ 473 NONAME ABSENT ; #<VT>#
	_ZTV17CSqlLikePredicate @ 474 NONAME ABSENT ; #<VT>#
	_ZTV17CSqlNullPredicate @ 475 NONAME ABSENT ; #<VT>#
	_ZTV18CDbSyncIncremental @ 476 NONAME ; #<VT>#
	_ZTV18HUnicodeCompressor @ 477 NONAME ABSENT ; #<VT>#
	_ZTV19CDbAsyncIncremental @ 478 NONAME ; #<VT>#
	_ZTV19CDbBasicWindowStage @ 479 NONAME ABSENT ; #<VT>#
	_ZTV19CDbStoreCompression @ 480 NONAME ABSENT ; #<VT>#
	_ZTV19CSqlInsertStatement @ 481 NONAME ABSENT ; #<VT>#
	_ZTV19CSqlModifyStatement @ 482 NONAME ABSENT ; #<VT>#
	_ZTV21CDbReorderWindowStage @ 483 NONAME ABSENT ; #<VT>#
	_ZTV22CSqlDropIndexStatement @ 484 NONAME ABSENT ; #<VT>#
	_ZTV22CSqlDropTableStatement @ 485 NONAME ABSENT ; #<VT>#
	_ZTV23CSqlAlterTableStatement @ 486 NONAME ABSENT ; #<VT>#
	_ZTV24CSqlCreateIndexStatement @ 487 NONAME ABSENT ; #<VT>#
	_ZTV24CSqlCreateTableStatement @ 488 NONAME ABSENT ; #<VT>#
	_ZTV7HBufBuf @ 489 NONAME ABSENT ; #<VT>#
	_ZTV7HDbsBuf @ 490 NONAME ABSENT ; #<VT>#
	_ZTV8CCluster @ 491 NONAME ABSENT ; #<VT>#
	_ZTV8CDbNames @ 492 NONAME ; #<VT>#
	_ZTV9CDbDriver @ 493 NONAME ABSENT ; #<VT>#
	_ZTV9CSqlQuery @ 494 NONAME ABSENT ; #<VT>#
	_ZTV9TDeflater @ 495 NONAME ABSENT ; #<VT>#
	_ZTVN13CDbStoreIndex10CDiscarderE @ 496 NONAME ABSENT ; #<VT>#
	_ZTVN13CDbStoreIndex4HKeyE @ 497 NONAME ABSENT ; #<VT>#
	_ZTVN13CDbStoreIndex5CIterE @ 498 NONAME ABSENT ; #<VT>#
	_ZTVN13CDbStoreIndex7CRepairE @ 499 NONAME ABSENT ; #<VT>#
	_ZTVN13CDbStoreIndex7HDupKeyE @ 500 NONAME ABSENT ; #<VT>#
	_ZTVN13CDbStoreIndex8CRecoverE @ 501 NONAME ABSENT ; #<VT>#
	_ZTVN13CDbStoreTable10CDiscarderE @ 502 NONAME ABSENT ; #<VT>#
	_ZTVN13CDbStoreTable11CCompressorE @ 503 NONAME ABSENT ; #<VT>#
	_ZTVN13CDbStoreTable6CAlterE @ 504 NONAME ABSENT ; #<VT>#
	_ZTVN16CDbTableDatabase8CUtilityE @ 505 NONAME ABSENT ; #<VT>#
	_ZTVN14CDbTableCursor11CConstraintE @ 506 NONAME ABSENT ; #<VT>#
	_ZTVN14CDbTableCursor7HMemBufE @ 507 NONAME ABSENT ; #<VT>#
	_ZTVN14CDbTableCursor8HReadBufE @ 508 NONAME ABSENT ; #<VT>#
	_ZTVN14CDbTableCursor9HWriteBufE @ 509 NONAME ABSENT ; #<VT>#
	_ZTVN14RDbTransaction9CNotifierE @ 510 NONAME ABSENT ; #<VT>#
	_ZTVN15CDbOrderByStage5CKeysE @ 511 NONAME ABSENT ; #<VT>#
	_ZTVN15CDbStoreRecords5CIterE @ 512 NONAME ABSENT ; #<VT>#
	_ZTVN16CDbStoreDatabase10CCompactorE @ 513 NONAME ABSENT ; #<VT>#
	_ZTVN16CDbTableDatabase10CDropIndexE @ 514 NONAME ABSENT ; #<VT>#
	_ZTVN16CDbTableDatabase10CDropTableE @ 515 NONAME ABSENT ; #<VT>#
	_ZTVN16CDbTableDatabase10CInterfaceE @ 516 NONAME ABSENT ; #<VT>#
	_ZTVN16CDbTableDatabase11CAlterTableE @ 517 NONAME ABSENT ; #<VT>#
	_ZTVN16CDbTableDatabase11CBuildIndexE @ 518 NONAME ; #<VT>#
	_ZTVN16CDbTableDatabase12CIncrementalE @ 519 NONAME ABSENT ; #<VT>#
	_ZTVN16CDbTableDatabase13CMultiStepperE @ 520 NONAME ; #<VT>#
	_ZTVN16CDbTableDatabase15CIncrementalDDLE @ 521 NONAME ABSENT ; #<VT>#
	_ZTVN16CDbTableDatabase7CSourceE @ 522 NONAME ABSENT ; #<VT>#
	_ZN4RDbs13GetBackupPathE9TSecureIdRK7TDesC164TUidR6TDes16 @ 523 NONAME
	_ZN4RDbs12BackupPathsLE9TSecureId4TUid @ 524 NONAME
	_ZTI10CDbStrings @ 525 NONAME ; #<TI>#
	_ZTV10CDbStrings @ 526 NONAME ; #<VT>#

