EXPORTS
	_ZN9TOLDEZLIB10CEZZStream8SetInputERK6TDesC8 @ 1 NONAME
	_ZN9TOLDEZLIB10CEZZStream9SetOutputER5TDes8 @ 2 NONAME
	_ZN9TOLDEZLIB10EZGZipFile10IsGzipFileER3RFsRK7TDesC16 @ 3 NONAME
	_ZN9TOLDEZLIB10EZGZipFile11IsGzipFileLER3RFsRK7TDesC16 @ 4 NONAME
	_ZN9TOLDEZLIB10EZGZipFile11ReadHeaderLER5RFileRNS_13TEZGZipHeaderE @ 5 NONAME
	_ZN9TOLDEZLIB10EZGZipFile12ReadTrailerLER5RFileRNS_14TEZGZipTrailerE @ 6 NONAME
	_ZN9TOLDEZLIB10EZGZipFile12WriteHeaderLER5RFileRNS_13TEZGZipHeaderE @ 7 NONAME
	_ZN9TOLDEZLIB10EZGZipFile13WriteTrailerLER5RFileRNS_14TEZGZipTrailerE @ 8 NONAME
	_ZN9TOLDEZLIB10EZGZipFile21LocateAndReadTrailerLER3RFsRK7TDesC16RNS_14TEZGZipTrailerE @ 9 NONAME
	_ZN9TOLDEZLIB13CEZCompressor4NewLERNS_16MEZBufferManagerERK6TDesC8iiiNS0_9TStrategyE @ 10 NONAME
	_ZN9TOLDEZLIB13CEZCompressor4NewLERNS_16MEZBufferManagerEiiiNS0_9TStrategyE @ 11 NONAME
	_ZN9TOLDEZLIB13CEZCompressor5NewLCERNS_16MEZBufferManagerERK6TDesC8iiiNS0_9TStrategyE @ 12 NONAME
	_ZN9TOLDEZLIB13CEZCompressor5NewLCERNS_16MEZBufferManagerEiiiNS0_9TStrategyE @ 13 NONAME
	_ZN9TOLDEZLIB13CEZCompressor6ResetLERNS_16MEZBufferManagerE @ 14 NONAME
	_ZN9TOLDEZLIB13CEZCompressor8DeflateLEv @ 15 NONAME
	_ZN9TOLDEZLIB13CEZCompressor9CompressLER5TDes8RK6TDesC8i @ 16 NONAME
	_ZN9TOLDEZLIB13CEZFileToGZip4NewLER3RFsRK7TDesC16R5RFilei @ 17 NONAME
	_ZN9TOLDEZLIB13CEZFileToGZip5NewLCER3RFsRK7TDesC16R5RFilei @ 18 NONAME
	_ZN9TOLDEZLIB13CEZFileToGZip6ResetLER3RFsRK7TDesC16R5RFilei @ 19 NONAME
	_ZN9TOLDEZLIB13CEZFileToGZip8DeflateLEv @ 20 NONAME
	_ZN9TOLDEZLIB13CEZGZipToFile4NewLER3RFsRK7TDesC16R5RFilei @ 21 NONAME
	_ZN9TOLDEZLIB13CEZGZipToFile5NewLCER3RFsRK7TDesC16R5RFilei @ 22 NONAME
	_ZN9TOLDEZLIB13CEZGZipToFile6ResetLER3RFsRK7TDesC16R5RFilei @ 23 NONAME
	_ZN9TOLDEZLIB13CEZGZipToFile8InflateLEv @ 24 NONAME
	_ZN9TOLDEZLIB13TEZGZipHeaderC1Ev @ 25 NONAME
	_ZN9TOLDEZLIB13TEZGZipHeaderC2Ev @ 26 NONAME
	_ZN9TOLDEZLIB13TEZGZipHeaderD1Ev @ 27 NONAME
	_ZN9TOLDEZLIB13TEZGZipHeaderD2Ev @ 28 NONAME
	_ZN9TOLDEZLIB14TEZGZipTrailerC1Ell @ 29 NONAME
	_ZN9TOLDEZLIB14TEZGZipTrailerC1Ev @ 30 NONAME
	_ZN9TOLDEZLIB14TEZGZipTrailerC2Ell @ 31 NONAME
	_ZN9TOLDEZLIB14TEZGZipTrailerC2Ev @ 32 NONAME
	_ZN9TOLDEZLIB15CEZDecompressor11DecompressLER5TDes8RK6TDesC8 @ 33 NONAME
	_ZN9TOLDEZLIB15CEZDecompressor4NewLERNS_16MEZBufferManagerERK6TDesC8i @ 34 NONAME
	_ZN9TOLDEZLIB15CEZDecompressor4NewLERNS_16MEZBufferManagerEi @ 35 NONAME
	_ZN9TOLDEZLIB15CEZDecompressor5NewLCERNS_16MEZBufferManagerERK6TDesC8i @ 36 NONAME
	_ZN9TOLDEZLIB15CEZDecompressor5NewLCERNS_16MEZBufferManagerEi @ 37 NONAME
	_ZN9TOLDEZLIB15CEZDecompressor6ResetLERNS_16MEZBufferManagerE @ 38 NONAME
	_ZN9TOLDEZLIB15CEZDecompressor8InflateLEv @ 39 NONAME
	_ZN9TOLDEZLIB20CEZFileBufferManager4NewLER5RFileS2_i @ 40 NONAME
	_ZN9TOLDEZLIB20CEZFileBufferManager5NewLCER5RFileS2_i @ 41 NONAME
	_ZNK9TOLDEZLIB10CEZZStream16OutputDescriptorEv @ 42 NONAME
	_ZNK9TOLDEZLIB10CEZZStream7Adler32Ev @ 43 NONAME
	_ZNK9TOLDEZLIB10CEZZStream7AvailInEv @ 44 NONAME
	_ZNK9TOLDEZLIB10CEZZStream7TotalInEv @ 45 NONAME
	_ZNK9TOLDEZLIB10CEZZStream8AvailOutEv @ 46 NONAME
	_ZNK9TOLDEZLIB10CEZZStream8ProgressEi @ 47 NONAME
	_ZNK9TOLDEZLIB10CEZZStream8TotalOutEv @ 48 NONAME
	_ZTIN9TOLDEZLIB13CEZCompressorE @ 49 NONAME
	_ZTIN9TOLDEZLIB13CEZFileToGZipE @ 50 NONAME
	_ZTIN9TOLDEZLIB13CEZGZipToFileE @ 51 NONAME
	_ZTIN9TOLDEZLIB15CEZDecompressorE @ 52 NONAME
	_ZTIN9TOLDEZLIB20CEZFileBufferManagerE @ 53 NONAME
	_ZTVN9TOLDEZLIB13CEZCompressorE @ 54 NONAME
	_ZTVN9TOLDEZLIB13CEZFileToGZipE @ 55 NONAME
	_ZTVN9TOLDEZLIB13CEZGZipToFileE @ 56 NONAME
	_ZTVN9TOLDEZLIB15CEZDecompressorE @ 57 NONAME
	_ZTVN9TOLDEZLIB20CEZFileBufferManagerE @ 58 NONAME
	adler32 @ 59 NONAME
	compress @ 60 NONAME
	compress2 @ 61 NONAME
	crc32 @ 62 NONAME
	deflate @ 63 NONAME
	deflateCopy @ 64 NONAME
	deflateEnd @ 65 NONAME
	deflateInit2_ @ 66 NONAME
	deflateInit_ @ 67 NONAME
	deflateParams @ 68 NONAME
	deflateReset @ 69 NONAME
	deflateSetDictionary @ 70 NONAME
	get_crc_table @ 71 NONAME
	inflate @ 72 NONAME
	inflateEnd @ 73 NONAME
	inflateInit2_ @ 74 NONAME
	inflateInit_ @ 75 NONAME
	inflateReset @ 76 NONAME
	inflateSetDictionary @ 77 NONAME
	inflateSync @ 78 NONAME
	inflateSyncPoint @ 79 NONAME
	uncompress @ 80 NONAME
	zError @ 81 NONAME
	zlibVersion @ 82 NONAME

