EXPORTS
	??0REComSession@@QAE@XZ @ 1 NONAME ; public: __thiscall REComSession::REComSession(void)
	?CancelNotifyOnChange@REComSession@@QAEXAAVTRequestStatus@@@Z @ 2 NONAME ; public: void __thiscall REComSession::CancelNotifyOnChange(class TRequestStatus &)
	?Close@REComSession@@QAEXXZ @ 3 NONAME ; public: void __thiscall REComSession::Close(void)
	?CreateImplementationL@REComSession@@SAPAXVTUid@@AAV2@@Z @ 4 NONAME ; public: static void * __cdecl REComSession::CreateImplementationL(class TUid,class TUid &)
	?CreateImplementationL@REComSession@@SAPAXVTUid@@AAV2@ABVTEComResolverParams@@0@Z @ 5 NONAME ; public: static void * __cdecl REComSession::CreateImplementationL(class TUid,class TUid &,class TEComResolverParams const &,class TUid)
	?CreateImplementationL@REComSession@@SAPAXVTUid@@AAV2@ABVTEComResolverParams@@@Z @ 6 NONAME ; public: static void * __cdecl REComSession::CreateImplementationL(class TUid,class TUid &,class TEComResolverParams const &)
	?CreateImplementationL@REComSession@@SAPAXVTUid@@AAV2@PAX@Z @ 7 NONAME ; public: static void * __cdecl REComSession::CreateImplementationL(class TUid,class TUid &,void *)
	?CreateImplementationL@REComSession@@SAPAXVTUid@@AAV2@PAXABVTEComResolverParams@@0@Z @ 8 NONAME ; public: static void * __cdecl REComSession::CreateImplementationL(class TUid,class TUid &,void *,class TEComResolverParams const &,class TUid)
	?CreateImplementationL@REComSession@@SAPAXVTUid@@AAV2@PAXABVTEComResolverParams@@@Z @ 9 NONAME ; public: static void * __cdecl REComSession::CreateImplementationL(class TUid,class TUid &,void *,class TEComResolverParams const &)
	?CreateImplementationL@REComSession@@SAPAXVTUid@@J@Z @ 10 NONAME ; public: static void * __cdecl REComSession::CreateImplementationL(class TUid,long)
	?CreateImplementationL@REComSession@@SAPAXVTUid@@JABVTEComResolverParams@@0@Z @ 11 NONAME ; public: static void * __cdecl REComSession::CreateImplementationL(class TUid,long,class TEComResolverParams const &,class TUid)
	?CreateImplementationL@REComSession@@SAPAXVTUid@@JABVTEComResolverParams@@@Z @ 12 NONAME ; public: static void * __cdecl REComSession::CreateImplementationL(class TUid,long,class TEComResolverParams const &)
	?CreateImplementationL@REComSession@@SAPAXVTUid@@JPAX@Z @ 13 NONAME ; public: static void * __cdecl REComSession::CreateImplementationL(class TUid,long,void *)
	?CreateImplementationL@REComSession@@SAPAXVTUid@@JPAXABVTEComResolverParams@@0@Z @ 14 NONAME ; public: static void * __cdecl REComSession::CreateImplementationL(class TUid,long,void *,class TEComResolverParams const &,class TUid)
	?CreateImplementationL@REComSession@@SAPAXVTUid@@JPAXABVTEComResolverParams@@@Z @ 15 NONAME ; public: static void * __cdecl REComSession::CreateImplementationL(class TUid,long,void *,class TEComResolverParams const &)
	?DestroyedImplementation@REComSession@@SAXVTUid@@@Z @ 16 NONAME ; public: static void __cdecl REComSession::DestroyedImplementation(class TUid)
	?ListImplementationsL@REComSession@@SAXVTUid@@AAV?$RPointerArray@VCImplementationInformation@@@@@Z @ 17 NONAME ; public: static void __cdecl REComSession::ListImplementationsL(class TUid,class RPointerArray<class CImplementationInformation> &)
	?ListImplementationsL@REComSession@@SAXVTUid@@ABVTEComResolverParams@@0AAV?$RPointerArray@VCImplementationInformation@@@@@Z @ 18 NONAME ; public: static void __cdecl REComSession::ListImplementationsL(class TUid,class TEComResolverParams const &,class TUid,class RPointerArray<class CImplementationInformation> &)
	?ListImplementationsL@REComSession@@SAXVTUid@@ABVTEComResolverParams@@AAV?$RPointerArray@VCImplementationInformation@@@@@Z @ 19 NONAME ; public: static void __cdecl REComSession::ListImplementationsL(class TUid,class TEComResolverParams const &,class RPointerArray<class CImplementationInformation> &)
	?NotifyOnChange@REComSession@@QAEXAAVTRequestStatus@@@Z @ 20 NONAME ; public: void __thiscall REComSession::NotifyOnChange(class TRequestStatus &)
	?OpenL@REComSession@@SAAAV1@XZ @ 21 NONAME ; public: static class REComSession & __cdecl REComSession::OpenL(void)
	?FinalClose@REComSession@@SAXXZ @ 22 NONAME ; public: static void __cdecl REComSession::FinalClose(void)
	?SetGetParametersL@REComSession@@SAXABVTIpcArgs@@@Z @ 23 NONAME ; void REComSession::SetGetParametersL(class TIpcArgs const &)
	?GetImplementationUidL@REComSession@@SA?AVTUid@@V2@@Z @ 24 NONAME ; class TUid REComSession::GetImplementationUidL(class TUid)
	?CreateImplementationL@REComSession@@SAPAXVTUid@@ABV?$RArray@VTUid@@@@AAV2@ABVTEComResolverParams@@0PAX@Z @ 25 NONAME ; void * REComSession::CreateImplementationL(class TUid, class RArray<class TUid> const &, class TUid &, class TEComResolverParams const &, class TUid, void *)
	?CreateImplementationL@REComSession@@SAPAXVTUid@@ABV?$RArray@VTUid@@@@AAV2@ABVTEComResolverParams@@PAX@Z @ 26 NONAME ; void * REComSession::CreateImplementationL(class TUid, class RArray<class TUid> const &, class TUid &, class TEComResolverParams const &, void *)
	?CreateImplementationL@REComSession@@SAPAXVTUid@@ABV?$RArray@VTUid@@@@JABVTEComResolverParams@@0PAX@Z @ 27 NONAME ; void * REComSession::CreateImplementationL(class TUid, class RArray<class TUid> const &, long, class TEComResolverParams const &, class TUid, void *)
	?CreateImplementationL@REComSession@@SAPAXVTUid@@ABV?$RArray@VTUid@@@@JABVTEComResolverParams@@PAX@Z @ 28 NONAME ; void * REComSession::CreateImplementationL(class TUid, class RArray<class TUid> const &, long, class TEComResolverParams const &, void *)
	?GetExtendedInterfaceL@REComSession@@SAPAXABVTUid@@0@Z @ 29 NONAME ; void * REComSession::GetExtendedInterfaceL(class TUid const &, class TUid const &)
	?GetExtendedInterfaceListL@CImplementationInformation@@QAEXAAV?$RArray@VTUid@@@@@Z @ 30 NONAME ; void CImplementationInformation::GetExtendedInterfaceListL(class RArray<class TUid> &)
	?ListExtendedInterfacesL@REComSession@@SAXABVTUid@@AAV?$RArray@VTUid@@@@@Z @ 31 NONAME ; void REComSession::ListExtendedInterfacesL(class TUid const &, class RArray<class TUid> &)
	?ListImplementationsL@REComSession@@SAXVTUid@@AAV?$RArray@VTUid@@@@AAV?$RPointerArray@VCImplementationInformation@@@@@Z @ 32 NONAME ; void REComSession::ListImplementationsL(class TUid, class RArray<class TUid> &, class RPointerArray<class CImplementationInformation> &)
	?ListImplementationsL@REComSession@@SAXVTUid@@AAV?$RArray@VTUid@@@@ABVTEComResolverParams@@0AAV?$RPointerArray@VCImplementationInformation@@@@@Z @ 33 NONAME ; void REComSession::ListImplementationsL(class TUid, class RArray<class TUid> &, class TEComResolverParams const &, class TUid, class RPointerArray<class CImplementationInformation> &)
	?ListImplementationsL@REComSession@@SAXVTUid@@AAV?$RArray@VTUid@@@@ABVTEComResolverParams@@AAV?$RPointerArray@VCImplementationInformation@@@@@Z @ 34 NONAME ; void REComSession::ListImplementationsL(class TUid, class RArray<class TUid> &, class TEComResolverParams const &, class RPointerArray<class CImplementationInformation> &)
	?ManuallyReleaseExtendedInterfaceL@REComSession@@SAXABVTUid@@0@Z @ 35 NONAME ; void REComSession::ManuallyReleaseExtendedInterfaceL(class TUid const &, class TUid const &)
	?ListImplementationsL@REComSession@@SAXVTUid@@ABVTEComResolverParams@@0AAV?$RPointerArray@VCImplementationInformation@@@@H@Z @ 36 NONAME ; void REComSession::ListImplementationsL(class TUid, class TEComResolverParams const &, class TUid, class RPointerArray<class CImplementationInformation> &, int)
	?ListImplementationsL@REComSession@@SAXVTUid@@ABVTEComResolverParams@@AAV?$RPointerArray@VCImplementationInformation@@@@H@Z @ 37 NONAME ; void REComSession::ListImplementationsL(class TUid, class TEComResolverParams const &, class RPointerArray<class CImplementationInformation> &, int)
	?ListImplementationsL@REComSession@@SAXVTUid@@AAV?$RPointerArray@VCImplementationInformation@@@@H@Z @ 38 NONAME ; void REComSession::ListImplementationsL(class TUid, class RPointerArray<class CImplementationInformation> &, int)

