EXPORTS
	_ZN14CShaperFactory10NewShaperLEP11CBitmapFontP5RHeap @ 1 NONAME
	_ZTI14FontTableCache @ 2 NONAME ; #<TI>#
	_ZTI15CMAPGroupMapper @ 3 NONAME ; #<TI>#
	_ZTI16CIcuLayoutEngine @ 4 NONAME ; #<TI>#
	_ZTI17CMAPFormat4Mapper @ 5 NONAME ; #<TI>#
	_ZTI19SymbianFontInstance @ 6 NONAME ; #<TI>#
	_ZTI7CShaper @ 7 NONAME ; #<TI>#
	_ZTIN7icu_3_212LayoutEngineE @ 8 NONAME ; #<TI>#
	_ZTIN7icu_3_213GlyphIteratorE @ 9 NONAME ; #<TI>#
	_ZTIN7icu_3_213LEGlyphFilterE @ 10 NONAME ; #<TI>#
	_ZTIN7icu_3_214GDEFMarkFilterE @ 11 NONAME ; #<TI>#
	_ZTIN7icu_3_214GXLayoutEngineE @ 12 NONAME ; #<TI>#
	_ZTIN7icu_3_214LEFontInstanceE @ 13 NONAME ; #<TI>#
	_ZTIN7icu_3_214LEGlyphStorageE @ 14 NONAME ; #<TI>#
	_ZTIN7icu_3_215LEInsertionListE @ 15 NONAME ; #<TI>#
	_ZTIN7icu_3_215LookupProcessorE @ 16 NONAME ; #<TI>#
	_ZTIN7icu_3_216ThaiLayoutEngineE @ 17 NONAME ; #<TI>#
	_ZTIN7icu_3_217DefaultCharMapperE @ 18 NONAME ; #<TI>#
	_ZTIN7icu_3_217SubtableProcessorE @ 19 NONAME ; #<TI>#
	_ZTIN7icu_3_219StateTableProcessorE @ 20 NONAME ; #<TI>#
	_ZTIN7icu_3_220OpenTypeLayoutEngineE @ 21 NONAME ; #<TI>#
	_ZTIN7icu_3_220SimpleArrayProcessorE @ 22 NONAME ; #<TI>#
	_ZTIN7icu_3_220SingleTableProcessorE @ 23 NONAME ; #<TI>#
	_ZTIN7icu_3_221SegmentArrayProcessorE @ 24 NONAME ; #<TI>#
	_ZTIN7icu_3_221TrimmedArrayProcessorE @ 25 NONAME ; #<TI>#
	_ZTIN7icu_3_222CharSubstitutionFilterE @ 26 NONAME ; #<TI>#
	_ZTIN7icu_3_222SegmentSingleProcessorE @ 27 NONAME ; #<TI>#
	_ZTIN7icu_3_223HanOpenTypeLayoutEngineE @ 28 NONAME ; #<TI>#
	_ZTIN7icu_3_225IndicOpenTypeLayoutEngineE @ 29 NONAME ; #<TI>#
	_ZTIN7icu_3_226ArabicOpenTypeLayoutEngineE @ 30 NONAME ; #<TI>#
	_ZTIN7icu_3_227IndicRearrangementProcessorE @ 31 NONAME ; #<TI>#
	_ZTIN7icu_3_229LigatureSubstitutionProcessorE @ 32 NONAME ; #<TI>#
	_ZTIN7icu_3_231GlyphPositioningLookupProcessorE @ 33 NONAME ; #<TI>#
	_ZTIN7icu_3_232GlyphSubstitutionLookupProcessorE @ 34 NONAME ; #<TI>#
	_ZTIN7icu_3_233UnicodeArabicOpenTypeLayoutEngineE @ 35 NONAME ; #<TI>#
	_ZTIN7icu_3_236ContextualGlyphSubstitutionProcessorE @ 36 NONAME ; #<TI>#
	_ZTIN7icu_3_239NonContextualGlyphSubstitutionProcessorE @ 37 NONAME ; #<TI>#
	_ZTIN7icu_3_27UObjectE @ 38 NONAME ; #<TI>#
	_ZTV14FontTableCache @ 39 NONAME ; #<VT>#
	_ZTV15CMAPGroupMapper @ 40 NONAME ; #<VT>#
	_ZTV16CIcuLayoutEngine @ 41 NONAME ; #<VT>#
	_ZTV17CMAPFormat4Mapper @ 42 NONAME ; #<VT>#
	_ZTV19SymbianFontInstance @ 43 NONAME ; #<VT>#
	_ZTV7CShaper @ 44 NONAME ; #<VT>#
	_ZTVN7icu_3_212LayoutEngineE @ 45 NONAME ; #<VT>#
	_ZTVN7icu_3_213GlyphIteratorE @ 46 NONAME ; #<VT>#
	_ZTVN7icu_3_213LEGlyphFilterE @ 47 NONAME ; #<VT>#
	_ZTVN7icu_3_214GDEFMarkFilterE @ 48 NONAME ; #<VT>#
	_ZTVN7icu_3_214GXLayoutEngineE @ 49 NONAME ; #<VT>#
	_ZTVN7icu_3_214LEFontInstanceE @ 50 NONAME ; #<VT>#
	_ZTVN7icu_3_214LEGlyphStorageE @ 51 NONAME ; #<VT>#
	_ZTVN7icu_3_215LEInsertionListE @ 52 NONAME ; #<VT>#
	_ZTVN7icu_3_215LookupProcessorE @ 53 NONAME ; #<VT>#
	_ZTVN7icu_3_216ThaiLayoutEngineE @ 54 NONAME ; #<VT>#
	_ZTVN7icu_3_217DefaultCharMapperE @ 55 NONAME ; #<VT>#
	_ZTVN7icu_3_217SubtableProcessorE @ 56 NONAME ; #<VT>#
	_ZTVN7icu_3_219StateTableProcessorE @ 57 NONAME ; #<VT>#
	_ZTVN7icu_3_220OpenTypeLayoutEngineE @ 58 NONAME ; #<VT>#
	_ZTVN7icu_3_220SimpleArrayProcessorE @ 59 NONAME ; #<VT>#
	_ZTVN7icu_3_220SingleTableProcessorE @ 60 NONAME ; #<VT>#
	_ZTVN7icu_3_221SegmentArrayProcessorE @ 61 NONAME ; #<VT>#
	_ZTVN7icu_3_221TrimmedArrayProcessorE @ 62 NONAME ; #<VT>#
	_ZTVN7icu_3_222CharSubstitutionFilterE @ 63 NONAME ; #<VT>#
	_ZTVN7icu_3_222SegmentSingleProcessorE @ 64 NONAME ; #<VT>#
	_ZTVN7icu_3_223HanOpenTypeLayoutEngineE @ 65 NONAME ; #<VT>#
	_ZTVN7icu_3_225IndicOpenTypeLayoutEngineE @ 66 NONAME ; #<VT>#
	_ZTVN7icu_3_226ArabicOpenTypeLayoutEngineE @ 67 NONAME ; #<VT>#
	_ZTVN7icu_3_227IndicRearrangementProcessorE @ 68 NONAME ; #<VT>#
	_ZTVN7icu_3_229LigatureSubstitutionProcessorE @ 69 NONAME ; #<VT>#
	_ZTVN7icu_3_231GlyphPositioningLookupProcessorE @ 70 NONAME ; #<VT>#
	_ZTVN7icu_3_232GlyphSubstitutionLookupProcessorE @ 71 NONAME ; #<VT>#
	_ZTVN7icu_3_233UnicodeArabicOpenTypeLayoutEngineE @ 72 NONAME ; #<VT>#
	_ZTVN7icu_3_236ContextualGlyphSubstitutionProcessorE @ 73 NONAME ; #<VT>#
	_ZTVN7icu_3_239NonContextualGlyphSubstitutionProcessorE @ 74 NONAME ; #<VT>#
	_ZTVN7icu_3_27UObjectE @ 75 NONAME ; #<VT>#

