EXPORTS
	??0CDelimitedDataBase16@@IAE@XZ @ 1 NONAME ; protected: __thiscall CDelimitedDataBase16::CDelimitedDataBase16(void)
	??0CDelimitedDataBase8@@IAE@XZ @ 2 NONAME ; protected: __thiscall CDelimitedDataBase8::CDelimitedDataBase8(void)
	??0TAuthorityC16@@IAE@XZ @ 3 NONAME ; protected: __thiscall TAuthorityC16::TAuthorityC16(void)
	??0TAuthorityC8@@IAE@XZ @ 4 NONAME ; protected: __thiscall TAuthorityC8::TAuthorityC8(void)
	??0TAuthorityParser16@@QAE@XZ @ 5 NONAME ; public: __thiscall TAuthorityParser16::TAuthorityParser16(void)
	??0TAuthorityParser8@@QAE@XZ @ 6 NONAME ; public: __thiscall TAuthorityParser8::TAuthorityParser8(void)
	??0TDelimitedParserBase16@@IAE@XZ @ 7 NONAME ; protected: __thiscall TDelimitedParserBase16::TDelimitedParserBase16(void)
	??0TDelimitedParserBase8@@IAE@XZ @ 8 NONAME ; protected: __thiscall TDelimitedParserBase8::TDelimitedParserBase8(void)
	??0TDelimitedPathParser16@@QAE@XZ @ 9 NONAME ; public: __thiscall TDelimitedPathParser16::TDelimitedPathParser16(void)
	??0TDelimitedPathParser8@@QAE@XZ @ 10 NONAME ; public: __thiscall TDelimitedPathParser8::TDelimitedPathParser8(void)
	??0TDelimitedPathSegmentParser16@@QAE@XZ @ 11 NONAME ; public: __thiscall TDelimitedPathSegmentParser16::TDelimitedPathSegmentParser16(void)
	??0TDelimitedPathSegmentParser8@@QAE@XZ @ 12 NONAME ; public: __thiscall TDelimitedPathSegmentParser8::TDelimitedPathSegmentParser8(void)
	??0TDelimitedQueryParser16@@QAE@XZ @ 13 NONAME ; public: __thiscall TDelimitedQueryParser16::TDelimitedQueryParser16(void)
	??0TDelimitedQueryParser8@@QAE@XZ @ 14 NONAME ; public: __thiscall TDelimitedQueryParser8::TDelimitedQueryParser8(void)
	??0TUriC16@@IAE@XZ @ 15 NONAME ; protected: __thiscall TUriC16::TUriC16(void)
	??0TUriC8@@IAE@XZ @ 16 NONAME ; protected: __thiscall TUriC8::TUriC8(void)
	??0TUriParser16@@QAE@XZ @ 17 NONAME ; public: __thiscall TUriParser16::TUriParser16(void)
	??0TUriParser8@@QAE@XZ @ 18 NONAME ; public: __thiscall TUriParser8::TUriParser8(void)
	??1CAuthority16@@UAE@XZ @ 19 NONAME ; public: virtual __thiscall CAuthority16::~CAuthority16(void)
	??1CAuthority8@@UAE@XZ @ 20 NONAME ; public: virtual __thiscall CAuthority8::~CAuthority8(void)
	??1CDelimitedDataBase16@@UAE@XZ @ 21 NONAME ; public: virtual __thiscall CDelimitedDataBase16::~CDelimitedDataBase16(void)
	??1CDelimitedDataBase8@@UAE@XZ @ 22 NONAME ; public: virtual __thiscall CDelimitedDataBase8::~CDelimitedDataBase8(void)
	??1CDelimitedPath16@@UAE@XZ @ 23 NONAME ; public: virtual __thiscall CDelimitedPath16::~CDelimitedPath16(void)
	??1CDelimitedPath8@@UAE@XZ @ 24 NONAME ; public: virtual __thiscall CDelimitedPath8::~CDelimitedPath8(void)
	??1CDelimitedPathSegment16@@UAE@XZ @ 25 NONAME ; public: virtual __thiscall CDelimitedPathSegment16::~CDelimitedPathSegment16(void)
	??1CDelimitedPathSegment8@@UAE@XZ @ 26 NONAME ; public: virtual __thiscall CDelimitedPathSegment8::~CDelimitedPathSegment8(void)
	??1CDelimitedQuery16@@UAE@XZ @ 27 NONAME ; public: virtual __thiscall CDelimitedQuery16::~CDelimitedQuery16(void)
	??1CDelimitedQuery8@@UAE@XZ @ 28 NONAME ; public: virtual __thiscall CDelimitedQuery8::~CDelimitedQuery8(void)
	??1CUri16@@UAE@XZ @ 29 NONAME ; public: virtual __thiscall CUri16::~CUri16(void)
	??1CUri8@@UAE@XZ @ 30 NONAME ; public: virtual __thiscall CUri8::~CUri8(void)
	??1CWspHeaderEncoder@@UAE@XZ @ 31 NONAME ; public: virtual __thiscall CWspHeaderEncoder::~CWspHeaderEncoder(void)
	?AddBackDelimiterL@CDelimitedDataBase16@@QAEXXZ @ 32 NONAME ; public: void __thiscall CDelimitedDataBase16::AddBackDelimiterL(void)
	?AddBackDelimiterL@CDelimitedDataBase8@@QAEXXZ @ 33 NONAME ; public: void __thiscall CDelimitedDataBase8::AddBackDelimiterL(void)
	?AddDateL@CWspHeaderEncoder@@QAEXVTDateTime@@@Z @ 34 NONAME ; public: void __thiscall CWspHeaderEncoder::AddDateL(class TDateTime)
	?AddFrontDelimiterL@CDelimitedDataBase16@@QAEXXZ @ 35 NONAME ; public: void __thiscall CDelimitedDataBase16::AddFrontDelimiterL(void)
	?AddFrontDelimiterL@CDelimitedDataBase8@@QAEXXZ @ 36 NONAME ; public: void __thiscall CDelimitedDataBase8::AddFrontDelimiterL(void)
	?AddIntegerL@CWspHeaderEncoder@@QAEXI@Z @ 37 NONAME ; public: void __thiscall CWspHeaderEncoder::AddIntegerL(unsigned int)
	?AddLongIntL@CWspHeaderEncoder@@QAEXK@Z @ 38 NONAME ; public: void __thiscall CWspHeaderEncoder::AddLongIntL(unsigned long)
	?AddShortIntL@CWspHeaderEncoder@@QAEXE@Z @ 39 NONAME ; public: void __thiscall CWspHeaderEncoder::AddShortIntL(unsigned char)
	?AddShortLengthL@CWspHeaderEncoder@@QAEXE@Z @ 40 NONAME ; public: void __thiscall CWspHeaderEncoder::AddShortLengthL(unsigned char)
	?AddTextStringL@CWspHeaderEncoder@@QAEXABVRString@@@Z @ 41 NONAME ; public: void __thiscall CWspHeaderEncoder::AddTextStringL(class RString const &)
	?AddTextStringL@CWspHeaderEncoder@@QAEXABVTDesC8@@@Z @ 42 NONAME ; public: void __thiscall CWspHeaderEncoder::AddTextStringL(class TDesC8 const &)
	?AddTokenL@CWspHeaderEncoder@@QAEXE@Z @ 43 NONAME ; public: void __thiscall CWspHeaderEncoder::AddTokenL(unsigned char)
	?AddTokenTextL@CWspHeaderEncoder@@QAEXABVTDesC8@@@Z @ 44 NONAME ; public: void __thiscall CWspHeaderEncoder::AddTokenTextL(class TDesC8 const &)
	?AddUintVarL@CWspHeaderEncoder@@QAEXI@Z @ 45 NONAME ; public: void __thiscall CWspHeaderEncoder::AddUintVarL(unsigned int)
	?Authority@CAuthority16@@QBEABVTAuthorityC16@@XZ @ 46 NONAME ; public: class TAuthorityC16 const & __thiscall CAuthority16::Authority(void)const 
	?Authority@CAuthority8@@QBEABVTAuthorityC8@@XZ @ 47 NONAME ; public: class TAuthorityC8 const & __thiscall CAuthority8::Authority(void)const 
	?AuthorityDes@TAuthorityC16@@QBEABVTDesC16@@XZ @ 48 NONAME ; public: class TDesC16 const & __thiscall TAuthorityC16::AuthorityDes(void)const 
	?AuthorityDes@TAuthorityC8@@QBEABVTDesC8@@XZ @ 49 NONAME ; public: class TDesC8 const & __thiscall TAuthorityC8::AuthorityDes(void)const 
	?BackDelimiter@TDelimitedParserBase16@@QBEHXZ @ 50 NONAME ; public: int __thiscall TDelimitedParserBase16::BackDelimiter(void)const 
	?BackDelimiter@TDelimitedParserBase8@@QBEHXZ @ 51 NONAME ; public: int __thiscall TDelimitedParserBase8::BackDelimiter(void)const 
	?Compare@TAuthorityC16@@QBEHABV1@W4TAuthorityComponent@@@Z @ 52 NONAME ; public: int __thiscall TAuthorityC16::Compare(class TAuthorityC16 const &,enum TAuthorityComponent)const 
	?Compare@TAuthorityC8@@QBEHABV1@W4TAuthorityComponent@@@Z @ 53 NONAME ; public: int __thiscall TAuthorityC8::Compare(class TAuthorityC8 const &,enum TAuthorityComponent)const 
	?Compare@TUriC16@@QBEHABV1@W4TUriComponent@@@Z @ 54 NONAME ; public: int __thiscall TUriC16::Compare(class TUriC16 const &,enum TUriComponent)const 
	?Compare@TUriC8@@QBEHABV1@W4TUriComponent@@@Z @ 55 NONAME ; public: int __thiscall TUriC8::Compare(class TUriC8 const &,enum TUriComponent)const 
	?ConstructL@CDelimitedDataBase16@@IAEXABVTDesC16@@@Z @ 56 NONAME ; protected: void __thiscall CDelimitedDataBase16::ConstructL(class TDesC16 const &)
	?ConstructL@CDelimitedDataBase8@@IAEXABVTDesC8@@@Z @ 57 NONAME ; protected: void __thiscall CDelimitedDataBase8::ConstructL(class TDesC8 const &)
	?ConvertDescriptorToInt@InetProtTextUtils@@SAHABVTDesC16@@AAH@Z @ 58 NONAME ; public: static int __cdecl InetProtTextUtils::ConvertDescriptorToInt(class TDesC16 const &,int &)
	?ConvertDescriptorToInt@InetProtTextUtils@@SAHABVTDesC8@@AAH@Z @ 59 NONAME ; public: static int __cdecl InetProtTextUtils::ConvertDescriptorToInt(class TDesC8 const &,int &)
	?ConvertFromUnicodeToUtf8L@EscapeUtils@@SAPAVHBufC8@@ABVTDesC16@@@Z @ 60 NONAME ; public: static class HBufC8 * __cdecl EscapeUtils::ConvertFromUnicodeToUtf8L(class TDesC16 const &)
	?ConvertIntToDescriptorL@InetProtTextUtils@@SAXHAAPAVHBufC16@@@Z @ 61 NONAME ; public: static void __cdecl InetProtTextUtils::ConvertIntToDescriptorL(int,class HBufC16 * &)
	?ConvertIntToDescriptorL@InetProtTextUtils@@SAXHAAPAVHBufC8@@@Z @ 62 NONAME ; public: static void __cdecl InetProtTextUtils::ConvertIntToDescriptorL(int,class HBufC8 * &)
	?ConvertToDisplayFormL@UriUtils@@SAPAVCUri16@@ABVTUriC8@@@Z @ 63 NONAME ; public: static class CUri16 * __cdecl UriUtils::ConvertToDisplayFormL(class TUriC8 const &)
	?ConvertToInternetFormL@UriUtils@@SAPAVCUri8@@ABVTUriC16@@@Z @ 64 NONAME ; public: static class CUri8 * __cdecl UriUtils::ConvertToInternetFormL(class TUriC16 const &)
	?ConvertToUnicodeFromUtf8L@EscapeUtils@@SAPAVHBufC16@@ABVTDesC8@@@Z @ 65 NONAME ; public: static class HBufC16 * __cdecl EscapeUtils::ConvertToUnicodeFromUtf8L(class TDesC8 const &)
	?Date@TWspPrimitiveDecoder@@QAEHAAVTDateTime@@@Z @ 66 NONAME ; public: int __thiscall TWspPrimitiveDecoder::Date(class TDateTime &)
	?DateL@TWspPrimitiveEncoder@@SAPAVHBufC8@@VTDateTime@@@Z @ 67 NONAME ; public: static class HBufC8 * __cdecl TWspPrimitiveEncoder::DateL(class TDateTime)
	?Dec@TDelimitedParserBase16@@QBEHXZ @ 68 NONAME ; public: int __thiscall TDelimitedParserBase16::Dec(void)const 
	?Dec@TDelimitedParserBase8@@QBEHXZ @ 69 NONAME ; public: int __thiscall TDelimitedParserBase8::Dec(void)const 
	?Des@TDelimitedParserBase16@@QBEABVTDesC16@@XZ @ 70 NONAME ; public: class TDesC16 const & __thiscall TDelimitedParserBase16::Des(void)const 
	?Des@TDelimitedParserBase8@@QBEABVTDesC8@@XZ @ 71 NONAME ; public: class TDesC8 const & __thiscall TDelimitedParserBase8::Des(void)const 
	?EndHeaderL@CWspHeaderEncoder@@QAEPAVHBufC8@@XZ @ 72 NONAME ; public: class HBufC8 * __thiscall CWspHeaderEncoder::EndHeaderL(void)
	?EndValueLengthL@CWspHeaderEncoder@@QAEXXZ @ 73 NONAME ; public: void __thiscall CWspHeaderEncoder::EndValueLengthL(void)
	?Eos@TDelimitedParserBase16@@QBEHXZ @ 74 NONAME ; public: int __thiscall TDelimitedParserBase16::Eos(void)const 
	?Eos@TDelimitedParserBase8@@QBEHXZ @ 75 NONAME ; public: int __thiscall TDelimitedParserBase8::Eos(void)const 
	?EscapeDecodeL@EscapeUtils@@SAPAVHBufC16@@ABVTDesC16@@@Z @ 76 NONAME ; public: static class HBufC16 * __cdecl EscapeUtils::EscapeDecodeL(class TDesC16 const &)
	?EscapeDecodeL@EscapeUtils@@SAPAVHBufC8@@ABVTDesC8@@@Z @ 77 NONAME ; public: static class HBufC8 * __cdecl EscapeUtils::EscapeDecodeL(class TDesC8 const &)
	?EscapeEncodeL@EscapeUtils@@SAPAVHBufC16@@ABVTDesC16@@0@Z @ 78 NONAME ; public: static class HBufC16 * __cdecl EscapeUtils::EscapeEncodeL(class TDesC16 const &,class TDesC16 const &)
	?EscapeEncodeL@EscapeUtils@@SAPAVHBufC16@@ABVTDesC16@@W4TEscapeMode@1@@Z @ 79 NONAME ; public: static class HBufC16 * __cdecl EscapeUtils::EscapeEncodeL(class TDesC16 const &,enum EscapeUtils::TEscapeMode)
	?EscapeEncodeL@EscapeUtils@@SAPAVHBufC8@@ABVTDesC8@@0@Z @ 80 NONAME ; public: static class HBufC8 * __cdecl EscapeUtils::EscapeEncodeL(class TDesC8 const &,class TDesC8 const &)
	?EscapeEncodeL@EscapeUtils@@SAPAVHBufC8@@ABVTDesC8@@W4TEscapeMode@1@@Z @ 81 NONAME ; public: static class HBufC8 * __cdecl EscapeUtils::EscapeEncodeL(class TDesC8 const &,enum EscapeUtils::TEscapeMode)
	?Extract@TAuthorityC16@@QBEABVTDesC16@@W4TAuthorityComponent@@@Z @ 82 NONAME ; public: class TDesC16 const & __thiscall TAuthorityC16::Extract(enum TAuthorityComponent)const 
	?Extract@TAuthorityC8@@QBEABVTDesC8@@W4TAuthorityComponent@@@Z @ 83 NONAME ; public: class TDesC8 const & __thiscall TAuthorityC8::Extract(enum TAuthorityComponent)const 
	?Extract@TUriC16@@QBEABVTDesC16@@W4TUriComponent@@@Z @ 84 NONAME ; public: class TDesC16 const & __thiscall TUriC16::Extract(enum TUriComponent)const 
	?Extract@TUriC8@@QBEABVTDesC8@@W4TUriComponent@@@Z @ 85 NONAME ; public: class TDesC8 const & __thiscall TUriC8::Extract(enum TUriComponent)const 
	?FrontDelimiter@TDelimitedParserBase16@@QBEHXZ @ 86 NONAME ; public: int __thiscall TDelimitedParserBase16::FrontDelimiter(void)const 
	?FrontDelimiter@TDelimitedParserBase8@@QBEHXZ @ 87 NONAME ; public: int __thiscall TDelimitedParserBase8::FrontDelimiter(void)const 
	?GetNext@TDelimitedParserBase16@@QBEHAAVTPtrC16@@@Z @ 88 NONAME ; public: int __thiscall TDelimitedParserBase16::GetNext(class TPtrC16 &)const 
	?GetNext@TDelimitedParserBase8@@QBEHAAVTPtrC8@@@Z @ 89 NONAME ; public: int __thiscall TDelimitedParserBase8::GetNext(class TPtrC8 &)const 
	?HasInvalidChars@UriUtils@@SAHABVTDesC16@@@Z @ 90 NONAME ; public: static int __cdecl UriUtils::HasInvalidChars(class TDesC16 const &)
	?HasInvalidChars@UriUtils@@SAHABVTDesC8@@@Z @ 91 NONAME ; public: static int __cdecl UriUtils::HasInvalidChars(class TDesC8 const &)
	?HostType@UriUtils@@SA?AW4TUriHostType@1@ABVTDesC16@@@Z @ 92 NONAME ; public: static enum UriUtils::TUriHostType  __cdecl UriUtils::HostType(class TDesC16 const &)
	?HostType@UriUtils@@SA?AW4TUriHostType@1@ABVTDesC8@@@Z @ 93 NONAME ; public: static enum UriUtils::TUriHostType  __cdecl UriUtils::HostType(class TDesC8 const &)
	?Inc@TDelimitedParserBase16@@QBEHXZ @ 94 NONAME ; public: int __thiscall TDelimitedParserBase16::Inc(void)const 
	?Inc@TDelimitedParserBase8@@QBEHXZ @ 95 NONAME ; public: int __thiscall TDelimitedParserBase8::Inc(void)const 
	?InsertAndEscapeCurrentL@CDelimitedPath16@@QAEXABVTDesC16@@@Z @ 96 NONAME ; public: void __thiscall CDelimitedPath16::InsertAndEscapeCurrentL(class TDesC16 const &)
	?InsertAndEscapeCurrentL@CDelimitedPath8@@QAEXABVTDesC8@@@Z @ 97 NONAME ; public: void __thiscall CDelimitedPath8::InsertAndEscapeCurrentL(class TDesC8 const &)
	?InsertAndEscapeCurrentL@CDelimitedPathSegment16@@QAEXABVTDesC16@@@Z @ 98 NONAME ; public: void __thiscall CDelimitedPathSegment16::InsertAndEscapeCurrentL(class TDesC16 const &)
	?InsertAndEscapeCurrentL@CDelimitedPathSegment8@@QAEXABVTDesC8@@@Z @ 99 NONAME ; public: void __thiscall CDelimitedPathSegment8::InsertAndEscapeCurrentL(class TDesC8 const &)
	?InsertAndEscapeCurrentL@CDelimitedQuery16@@QAEXABVTDesC16@@@Z @ 100 NONAME ; public: void __thiscall CDelimitedQuery16::InsertAndEscapeCurrentL(class TDesC16 const &)
	?InsertAndEscapeCurrentL@CDelimitedQuery8@@QAEXABVTDesC8@@@Z @ 101 NONAME ; public: void __thiscall CDelimitedQuery8::InsertAndEscapeCurrentL(class TDesC8 const &)
	?InsertCurrentL@CDelimitedDataBase16@@QAEXABVTDesC16@@@Z @ 102 NONAME ; public: void __thiscall CDelimitedDataBase16::InsertCurrentL(class TDesC16 const &)
	?InsertCurrentL@CDelimitedDataBase8@@QAEXABVTDesC8@@@Z @ 103 NONAME ; public: void __thiscall CDelimitedDataBase8::InsertCurrentL(class TDesC8 const &)
	?Integer@TWspPrimitiveDecoder@@QAEHAAK@Z @ 104 NONAME ; public: int __thiscall TWspPrimitiveDecoder::Integer(unsigned long &)
	?IsEscapeTriple@EscapeUtils@@SAHABVTDesC16@@AAH@Z @ 105 NONAME ; public: static int __cdecl EscapeUtils::IsEscapeTriple(class TDesC16 const &,int &)
	?IsEscapeTriple@EscapeUtils@@SAHABVTDesC8@@AAH@Z @ 106 NONAME ; public: static int __cdecl EscapeUtils::IsEscapeTriple(class TDesC8 const &,int &)
	?IsExcludedChar@EscapeUtils@@SAHVTChar@@@Z @ 107 NONAME ; public: static int __cdecl EscapeUtils::IsExcludedChar(class TChar)
	?IsPresent@TAuthorityC16@@QBEHW4TAuthorityComponent@@@Z @ 108 NONAME ; public: int __thiscall TAuthorityC16::IsPresent(enum TAuthorityComponent)const 
	?IsPresent@TAuthorityC8@@QBEHW4TAuthorityComponent@@@Z @ 109 NONAME ; public: int __thiscall TAuthorityC8::IsPresent(enum TAuthorityComponent)const 
	?IsPresent@TUriC16@@QBEHW4TUriComponent@@@Z @ 110 NONAME ; public: int __thiscall TUriC16::IsPresent(enum TUriComponent)const 
	?IsPresent@TUriC8@@QBEHW4TUriComponent@@@Z @ 111 NONAME ; public: int __thiscall TUriC8::IsPresent(enum TUriComponent)const 
	?IsSchemeValid@TUriC16@@QBEHXZ @ 112 NONAME ; public: int __thiscall TUriC16::IsSchemeValid(void)const 
	?IsSchemeValid@TUriC8@@QBEHXZ @ 113 NONAME ; public: int __thiscall TUriC8::IsSchemeValid(void)const 
	?LengthVal@TWspPrimitiveDecoder@@QAEHAAH@Z @ 114 NONAME ; public: int __thiscall TWspPrimitiveDecoder::LengthVal(int &)
	?LongInt@TWspPrimitiveDecoder@@QAEHAAK@Z @ 115 NONAME ; public: int __thiscall TWspPrimitiveDecoder::LongInt(unsigned long &)
	?LongIntL@TWspPrimitiveEncoder@@SAPAVHBufC8@@K@Z @ 116 NONAME ; public: static class HBufC8 * __cdecl TWspPrimitiveEncoder::LongIntL(unsigned long)
	?NewL@CAuthority16@@SAPAV1@ABVTAuthorityC16@@@Z @ 117 NONAME ; public: static class CAuthority16 * __cdecl CAuthority16::NewL(class TAuthorityC16 const &)
	?NewL@CAuthority16@@SAPAV1@XZ @ 118 NONAME ; public: static class CAuthority16 * __cdecl CAuthority16::NewL(void)
	?NewL@CAuthority8@@SAPAV1@ABVTAuthorityC8@@@Z @ 119 NONAME ; public: static class CAuthority8 * __cdecl CAuthority8::NewL(class TAuthorityC8 const &)
	?NewL@CAuthority8@@SAPAV1@XZ @ 120 NONAME ; public: static class CAuthority8 * __cdecl CAuthority8::NewL(void)
	?NewL@CDelimitedPath16@@SAPAV1@ABVTDesC16@@@Z @ 121 NONAME ; public: static class CDelimitedPath16 * __cdecl CDelimitedPath16::NewL(class TDesC16 const &)
	?NewL@CDelimitedPath8@@SAPAV1@ABVTDesC8@@@Z @ 122 NONAME ; public: static class CDelimitedPath8 * __cdecl CDelimitedPath8::NewL(class TDesC8 const &)
	?NewL@CDelimitedPathSegment16@@SAPAV1@ABVTDesC16@@@Z @ 123 NONAME ; public: static class CDelimitedPathSegment16 * __cdecl CDelimitedPathSegment16::NewL(class TDesC16 const &)
	?NewL@CDelimitedPathSegment8@@SAPAV1@ABVTDesC8@@@Z @ 124 NONAME ; public: static class CDelimitedPathSegment8 * __cdecl CDelimitedPathSegment8::NewL(class TDesC8 const &)
	?NewL@CDelimitedQuery16@@SAPAV1@ABVTDesC16@@@Z @ 125 NONAME ; public: static class CDelimitedQuery16 * __cdecl CDelimitedQuery16::NewL(class TDesC16 const &)
	?NewL@CDelimitedQuery8@@SAPAV1@ABVTDesC8@@@Z @ 126 NONAME ; public: static class CDelimitedQuery8 * __cdecl CDelimitedQuery8::NewL(class TDesC8 const &)
	?NewL@CUri16@@SAPAV1@ABVTUriC16@@@Z @ 127 NONAME ; public: static class CUri16 * __cdecl CUri16::NewL(class TUriC16 const &)
	?NewL@CUri16@@SAPAV1@XZ @ 128 NONAME ; public: static class CUri16 * __cdecl CUri16::NewL(void)
	?NewL@CUri8@@SAPAV1@ABVTUriC8@@@Z @ 129 NONAME ; public: static class CUri8 * __cdecl CUri8::NewL(class TUriC8 const &)
	?NewL@CUri8@@SAPAV1@XZ @ 130 NONAME ; public: static class CUri8 * __cdecl CUri8::NewL(void)
	?NewL@CWspHeaderEncoder@@SAPAV1@XZ @ 131 NONAME ; public: static class CWspHeaderEncoder * __cdecl CWspHeaderEncoder::NewL(void)
	?NewLC@CAuthority16@@SAPAV1@ABVTAuthorityC16@@@Z @ 132 NONAME ; public: static class CAuthority16 * __cdecl CAuthority16::NewLC(class TAuthorityC16 const &)
	?NewLC@CAuthority16@@SAPAV1@XZ @ 133 NONAME ; public: static class CAuthority16 * __cdecl CAuthority16::NewLC(void)
	?NewLC@CAuthority8@@SAPAV1@ABVTAuthorityC8@@@Z @ 134 NONAME ; public: static class CAuthority8 * __cdecl CAuthority8::NewLC(class TAuthorityC8 const &)
	?NewLC@CAuthority8@@SAPAV1@XZ @ 135 NONAME ; public: static class CAuthority8 * __cdecl CAuthority8::NewLC(void)
	?NewLC@CDelimitedPath16@@SAPAV1@ABVTDesC16@@@Z @ 136 NONAME ; public: static class CDelimitedPath16 * __cdecl CDelimitedPath16::NewLC(class TDesC16 const &)
	?NewLC@CDelimitedPath8@@SAPAV1@ABVTDesC8@@@Z @ 137 NONAME ; public: static class CDelimitedPath8 * __cdecl CDelimitedPath8::NewLC(class TDesC8 const &)
	?NewLC@CDelimitedPathSegment16@@SAPAV1@ABVTDesC16@@@Z @ 138 NONAME ; public: static class CDelimitedPathSegment16 * __cdecl CDelimitedPathSegment16::NewLC(class TDesC16 const &)
	?NewLC@CDelimitedPathSegment8@@SAPAV1@ABVTDesC8@@@Z @ 139 NONAME ; public: static class CDelimitedPathSegment8 * __cdecl CDelimitedPathSegment8::NewLC(class TDesC8 const &)
	?NewLC@CDelimitedQuery16@@SAPAV1@ABVTDesC16@@@Z @ 140 NONAME ; public: static class CDelimitedQuery16 * __cdecl CDelimitedQuery16::NewLC(class TDesC16 const &)
	?NewLC@CDelimitedQuery8@@SAPAV1@ABVTDesC8@@@Z @ 141 NONAME ; public: static class CDelimitedQuery8 * __cdecl CDelimitedQuery8::NewLC(class TDesC8 const &)
	?NewLC@CUri16@@SAPAV1@ABVTUriC16@@@Z @ 142 NONAME ; public: static class CUri16 * __cdecl CUri16::NewLC(class TUriC16 const &)
	?NewLC@CUri16@@SAPAV1@XZ @ 143 NONAME ; public: static class CUri16 * __cdecl CUri16::NewLC(void)
	?NewLC@CUri8@@SAPAV1@ABVTUriC8@@@Z @ 144 NONAME ; public: static class CUri8 * __cdecl CUri8::NewLC(class TUriC8 const &)
	?NewLC@CUri8@@SAPAV1@XZ @ 145 NONAME ; public: static class CUri8 * __cdecl CUri8::NewLC(void)
	?NewLC@CWspHeaderEncoder@@SAPAV1@XZ @ 146 NONAME ; public: static class CWspHeaderEncoder * __cdecl CWspHeaderEncoder::NewLC(void)
	?NextL@TWspHeaderSegmenter@@QAEHAAVTWspField@@@Z @ 147 NONAME ; public: int __thiscall TWspHeaderSegmenter::NextL(class TWspField &)
	?Parse@CDelimitedDataBase16@@QAEXXZ @ 148 NONAME ; public: void __thiscall CDelimitedDataBase16::Parse(void)
	?Parse@CDelimitedDataBase8@@QAEXXZ @ 149 NONAME ; public: void __thiscall CDelimitedDataBase8::Parse(void)
	?Parse@TAuthorityParser16@@QAEHABVTDesC16@@@Z @ 150 NONAME ; public: int __thiscall TAuthorityParser16::Parse(class TDesC16 const &)
	?Parse@TAuthorityParser8@@QAEHABVTDesC8@@@Z @ 151 NONAME ; public: int __thiscall TAuthorityParser8::Parse(class TDesC8 const &)
	?Parse@TDelimitedParserBase16@@IAEXABVTDesC16@@@Z @ 152 NONAME ; protected: void __thiscall TDelimitedParserBase16::Parse(class TDesC16 const &)
	?Parse@TDelimitedParserBase8@@IAEXABVTDesC8@@@Z @ 153 NONAME ; protected: void __thiscall TDelimitedParserBase8::Parse(class TDesC8 const &)
	?Parse@TDelimitedPathParser16@@QAEXABVTDesC16@@@Z @ 154 NONAME ; public: void __thiscall TDelimitedPathParser16::Parse(class TDesC16 const &)
	?Parse@TDelimitedPathParser8@@QAEXABVTDesC8@@@Z @ 155 NONAME ; public: void __thiscall TDelimitedPathParser8::Parse(class TDesC8 const &)
	?Parse@TDelimitedPathSegmentParser16@@QAEXABVTDesC16@@@Z @ 156 NONAME ; public: void __thiscall TDelimitedPathSegmentParser16::Parse(class TDesC16 const &)
	?Parse@TDelimitedPathSegmentParser8@@QAEXABVTDesC8@@@Z @ 157 NONAME ; public: void __thiscall TDelimitedPathSegmentParser8::Parse(class TDesC8 const &)
	?Parse@TDelimitedQueryParser16@@QAEXABVTDesC16@@@Z @ 158 NONAME ; public: void __thiscall TDelimitedQueryParser16::Parse(class TDesC16 const &)
	?Parse@TDelimitedQueryParser8@@QAEXABVTDesC8@@@Z @ 159 NONAME ; public: void __thiscall TDelimitedQueryParser8::Parse(class TDesC8 const &)
	?Parse@TUriParser16@@QAEHABVTDesC16@@@Z @ 160 NONAME ; public: int __thiscall TUriParser16::Parse(class TDesC16 const &)
	?Parse@TUriParser8@@QAEHABVTDesC8@@@Z @ 161 NONAME ; public: int __thiscall TUriParser8::Parse(class TDesC8 const &)
	?ParseReverse@CDelimitedDataBase16@@QAEXXZ @ 162 NONAME ; public: void __thiscall CDelimitedDataBase16::ParseReverse(void)
	?ParseReverse@CDelimitedDataBase8@@QAEXXZ @ 163 NONAME ; public: void __thiscall CDelimitedDataBase8::ParseReverse(void)
	?ParseReverse@TDelimitedParserBase16@@IAEXABVTDesC16@@@Z @ 164 NONAME ; protected: void __thiscall TDelimitedParserBase16::ParseReverse(class TDesC16 const &)
	?ParseReverse@TDelimitedParserBase8@@IAEXABVTDesC8@@@Z @ 165 NONAME ; protected: void __thiscall TDelimitedParserBase8::ParseReverse(class TDesC8 const &)
	?ParseReverse@TDelimitedPathParser16@@QAEXABVTDesC16@@@Z @ 166 NONAME ; public: void __thiscall TDelimitedPathParser16::ParseReverse(class TDesC16 const &)
	?ParseReverse@TDelimitedPathParser8@@QAEXABVTDesC8@@@Z @ 167 NONAME ; public: void __thiscall TDelimitedPathParser8::ParseReverse(class TDesC8 const &)
	?ParseReverse@TDelimitedPathSegmentParser16@@QAEXABVTDesC16@@@Z @ 168 NONAME ; public: void __thiscall TDelimitedPathSegmentParser16::ParseReverse(class TDesC16 const &)
	?ParseReverse@TDelimitedPathSegmentParser8@@QAEXABVTDesC8@@@Z @ 169 NONAME ; public: void __thiscall TDelimitedPathSegmentParser8::ParseReverse(class TDesC8 const &)
	?ParseReverse@TDelimitedQueryParser16@@QAEXABVTDesC16@@@Z @ 170 NONAME ; public: void __thiscall TDelimitedQueryParser16::ParseReverse(class TDesC16 const &)
	?ParseReverse@TDelimitedQueryParser8@@QAEXABVTDesC8@@@Z @ 171 NONAME ; public: void __thiscall TDelimitedQueryParser8::ParseReverse(class TDesC8 const &)
	?Parser@CDelimitedDataBase16@@QBEABVTDelimitedParserBase16@@XZ @ 172 NONAME ; public: class TDelimitedParserBase16 const & __thiscall CDelimitedDataBase16::Parser(void)const 
	?Parser@CDelimitedDataBase8@@QBEABVTDelimitedParserBase8@@XZ @ 173 NONAME ; public: class TDelimitedParserBase8 const & __thiscall CDelimitedDataBase8::Parser(void)const 
	?Peek@TDelimitedParserBase16@@QBEHAAVTPtrC16@@@Z @ 174 NONAME ; public: int __thiscall TDelimitedParserBase16::Peek(class TPtrC16 &)const 
	?Peek@TDelimitedParserBase8@@QBEHAAVTPtrC8@@@Z @ 175 NONAME ; public: int __thiscall TDelimitedParserBase8::Peek(class TPtrC8 &)const 
	?PopBackL@CDelimitedDataBase16@@QAEXXZ @ 176 NONAME ; public: void __thiscall CDelimitedDataBase16::PopBackL(void)
	?PopBackL@CDelimitedDataBase8@@QAEXXZ @ 177 NONAME ; public: void __thiscall CDelimitedDataBase8::PopBackL(void)
	?PopFrontL@CDelimitedDataBase16@@QAEXXZ @ 178 NONAME ; public: void __thiscall CDelimitedDataBase16::PopFrontL(void)
	?PopFrontL@CDelimitedDataBase8@@QAEXXZ @ 179 NONAME ; public: void __thiscall CDelimitedDataBase8::PopFrontL(void)
	?PushAndEscapeBackL@CDelimitedPath16@@QAEXABVTDesC16@@@Z @ 180 NONAME ; public: void __thiscall CDelimitedPath16::PushAndEscapeBackL(class TDesC16 const &)
	?PushAndEscapeBackL@CDelimitedPath8@@QAEXABVTDesC8@@@Z @ 181 NONAME ; public: void __thiscall CDelimitedPath8::PushAndEscapeBackL(class TDesC8 const &)
	?PushAndEscapeBackL@CDelimitedPathSegment16@@QAEXABVTDesC16@@@Z @ 182 NONAME ; public: void __thiscall CDelimitedPathSegment16::PushAndEscapeBackL(class TDesC16 const &)
	?PushAndEscapeBackL@CDelimitedPathSegment8@@QAEXABVTDesC8@@@Z @ 183 NONAME ; public: void __thiscall CDelimitedPathSegment8::PushAndEscapeBackL(class TDesC8 const &)
	?PushAndEscapeBackL@CDelimitedQuery16@@QAEXABVTDesC16@@@Z @ 184 NONAME ; public: void __thiscall CDelimitedQuery16::PushAndEscapeBackL(class TDesC16 const &)
	?PushAndEscapeBackL@CDelimitedQuery8@@QAEXABVTDesC8@@@Z @ 185 NONAME ; public: void __thiscall CDelimitedQuery8::PushAndEscapeBackL(class TDesC8 const &)
	?PushAndEscapeFrontL@CDelimitedPath16@@QAEXABVTDesC16@@@Z @ 186 NONAME ; public: void __thiscall CDelimitedPath16::PushAndEscapeFrontL(class TDesC16 const &)
	?PushAndEscapeFrontL@CDelimitedPath8@@QAEXABVTDesC8@@@Z @ 187 NONAME ; public: void __thiscall CDelimitedPath8::PushAndEscapeFrontL(class TDesC8 const &)
	?PushAndEscapeFrontL@CDelimitedPathSegment16@@QAEXABVTDesC16@@@Z @ 188 NONAME ; public: void __thiscall CDelimitedPathSegment16::PushAndEscapeFrontL(class TDesC16 const &)
	?PushAndEscapeFrontL@CDelimitedPathSegment8@@QAEXABVTDesC8@@@Z @ 189 NONAME ; public: void __thiscall CDelimitedPathSegment8::PushAndEscapeFrontL(class TDesC8 const &)
	?PushAndEscapeFrontL@CDelimitedQuery16@@QAEXABVTDesC16@@@Z @ 190 NONAME ; public: void __thiscall CDelimitedQuery16::PushAndEscapeFrontL(class TDesC16 const &)
	?PushAndEscapeFrontL@CDelimitedQuery8@@QAEXABVTDesC8@@@Z @ 191 NONAME ; public: void __thiscall CDelimitedQuery8::PushAndEscapeFrontL(class TDesC8 const &)
	?PushBackL@CDelimitedDataBase16@@QAEXABVTDesC16@@@Z @ 192 NONAME ; public: void __thiscall CDelimitedDataBase16::PushBackL(class TDesC16 const &)
	?PushBackL@CDelimitedDataBase8@@QAEXABVTDesC8@@@Z @ 193 NONAME ; public: void __thiscall CDelimitedDataBase8::PushBackL(class TDesC8 const &)
	?PushFrontL@CDelimitedDataBase16@@QAEXABVTDesC16@@@Z @ 194 NONAME ; public: void __thiscall CDelimitedDataBase16::PushFrontL(class TDesC16 const &)
	?PushFrontL@CDelimitedDataBase8@@QAEXABVTDesC8@@@Z @ 195 NONAME ; public: void __thiscall CDelimitedDataBase8::PushFrontL(class TDesC8 const &)
	?Remainder@TDelimitedParserBase16@@QBEHAAVTPtrC16@@@Z @ 196 NONAME ; public: int __thiscall TDelimitedParserBase16::Remainder(class TPtrC16 &)const 
	?Remainder@TDelimitedParserBase8@@QBEHAAVTPtrC8@@@Z @ 197 NONAME ; public: int __thiscall TDelimitedParserBase8::Remainder(class TPtrC8 &)const 
	?RemoveComponentL@CAuthority16@@QAEXW4TAuthorityComponent@@@Z @ 198 NONAME ; public: void __thiscall CAuthority16::RemoveComponentL(enum TAuthorityComponent)
	?RemoveComponentL@CAuthority8@@QAEXW4TAuthorityComponent@@@Z @ 199 NONAME ; public: void __thiscall CAuthority8::RemoveComponentL(enum TAuthorityComponent)
	?RemoveComponentL@CUri16@@QAEXW4TUriComponent@@@Z @ 200 NONAME ; public: void __thiscall CUri16::RemoveComponentL(enum TUriComponent)
	?RemoveComponentL@CUri8@@QAEXW4TUriComponent@@@Z @ 201 NONAME ; public: void __thiscall CUri8::RemoveComponentL(enum TUriComponent)
	?RemoveCurrentL@CDelimitedDataBase16@@QAEXXZ @ 202 NONAME ; public: void __thiscall CDelimitedDataBase16::RemoveCurrentL(void)
	?RemoveCurrentL@CDelimitedDataBase8@@QAEXXZ @ 203 NONAME ; public: void __thiscall CDelimitedDataBase8::RemoveCurrentL(void)
	?RemoveWhiteSpace@InetProtTextUtils@@SAHAAVTPtrC16@@W4TRemoveMode@1@@Z @ 204 NONAME ; public: static int __cdecl InetProtTextUtils::RemoveWhiteSpace(class TPtrC16 &,enum InetProtTextUtils::TRemoveMode)
	?RemoveWhiteSpace@InetProtTextUtils@@SAHAAVTPtrC8@@W4TRemoveMode@1@@Z @ 205 NONAME ; public: static int __cdecl InetProtTextUtils::RemoveWhiteSpace(class TPtrC8 &,enum InetProtTextUtils::TRemoveMode)
	?ResolveL@CUri16@@SAPAV1@ABVTUriC16@@0@Z @ 206 NONAME ; public: static class CUri16 * __cdecl CUri16::ResolveL(class TUriC16 const &,class TUriC16 const &)
	?ResolveL@CUri8@@SAPAV1@ABVTUriC8@@0@Z @ 207 NONAME ; public: static class CUri8 * __cdecl CUri8::ResolveL(class TUriC8 const &,class TUriC8 const &)
	?SetAndEscapeComponentL@CAuthority16@@QAEXABVTDesC16@@W4TAuthorityComponent@@@Z @ 208 NONAME ; public: void __thiscall CAuthority16::SetAndEscapeComponentL(class TDesC16 const &,enum TAuthorityComponent)
	?SetAndEscapeComponentL@CAuthority8@@QAEXABVTDesC8@@W4TAuthorityComponent@@@Z @ 209 NONAME ; public: void __thiscall CAuthority8::SetAndEscapeComponentL(class TDesC8 const &,enum TAuthorityComponent)
	?SetComponentL@CAuthority16@@QAEXABVTDesC16@@W4TAuthorityComponent@@@Z @ 210 NONAME ; public: void __thiscall CAuthority16::SetComponentL(class TDesC16 const &,enum TAuthorityComponent)
	?SetComponentL@CAuthority8@@QAEXABVTDesC8@@W4TAuthorityComponent@@@Z @ 211 NONAME ; public: void __thiscall CAuthority8::SetComponentL(class TDesC8 const &,enum TAuthorityComponent)
	?SetComponentL@CUri16@@QAEXABVTDesC16@@W4TUriComponent@@@Z @ 212 NONAME ; public: void __thiscall CUri16::SetComponentL(class TDesC16 const &,enum TUriComponent)
	?SetComponentL@CUri8@@QAEXABVTDesC8@@W4TUriComponent@@@Z @ 213 NONAME ; public: void __thiscall CUri8::SetComponentL(class TDesC8 const &,enum TUriComponent)
	?SetDelimiter@CDelimitedDataBase16@@IAEXVTChar@@@Z @ 214 NONAME ; protected: void __thiscall CDelimitedDataBase16::SetDelimiter(class TChar)
	?SetDelimiter@CDelimitedDataBase8@@IAEXVTChar@@@Z @ 215 NONAME ; protected: void __thiscall CDelimitedDataBase8::SetDelimiter(class TChar)
	?SetDelimiter@TDelimitedParserBase16@@IAEXVTChar@@@Z @ 216 NONAME ; protected: void __thiscall TDelimitedParserBase16::SetDelimiter(class TChar)
	?SetDelimiter@TDelimitedParserBase8@@IAEXVTChar@@@Z @ 217 NONAME ; protected: void __thiscall TDelimitedParserBase8::SetDelimiter(class TChar)
	?ShortInt@TWspPrimitiveEncoder@@SAEE@Z @ 218 NONAME ; public: static unsigned char __cdecl TWspPrimitiveEncoder::ShortInt(unsigned char)
	?StartHeaderL@CWspHeaderEncoder@@QAEXABVTDesC8@@@Z @ 219 NONAME ; public: void __thiscall CWspHeaderEncoder::StartHeaderL(class TDesC8 const &)
	?StartHeaderL@CWspHeaderEncoder@@QAEXE@Z @ 220 NONAME ; public: void __thiscall CWspHeaderEncoder::StartHeaderL(unsigned char)
	?StartHeaderL@CWspHeaderEncoder@@QAEXVRStringF@@@Z @ 221 NONAME ; public: void __thiscall CWspHeaderEncoder::StartHeaderL(class RStringF)
	?StartValueLengthL@CWspHeaderEncoder@@QAEXXZ @ 222 NONAME ; public: void __thiscall CWspHeaderEncoder::StartValueLengthL(void)
	?String@TWspPrimitiveDecoder@@QAEHAAVTPtrC8@@@Z @ 223 NONAME ; public: int __thiscall TWspPrimitiveDecoder::String(class TPtrC8 &)
	?TextStringL@TWspPrimitiveEncoder@@SAPAVHBufC8@@ABVTDesC8@@@Z @ 224 NONAME ; public: static class HBufC8 * __cdecl TWspPrimitiveEncoder::TextStringL(class TDesC8 const &)
	?TextStringL@TWspPrimitiveEncoder@@SAPAVHBufC8@@VRString@@@Z @ 225 NONAME ; public: static class HBufC8 * __cdecl TWspPrimitiveEncoder::TextStringL(class RString)
	?TrimBackDelimiterL@CDelimitedDataBase16@@QAEXXZ @ 226 NONAME ; public: void __thiscall CDelimitedDataBase16::TrimBackDelimiterL(void)
	?TrimBackDelimiterL@CDelimitedDataBase8@@QAEXXZ @ 227 NONAME ; public: void __thiscall CDelimitedDataBase8::TrimBackDelimiterL(void)
	?TrimFrontDelimiterL@CDelimitedDataBase16@@QAEXXZ @ 228 NONAME ; public: void __thiscall CDelimitedDataBase16::TrimFrontDelimiterL(void)
	?TrimFrontDelimiterL@CDelimitedDataBase8@@QAEXXZ @ 229 NONAME ; public: void __thiscall CDelimitedDataBase8::TrimFrontDelimiterL(void)
	?UintVar@TWspPrimitiveDecoder@@QAEHAAK@Z @ 230 NONAME ; public: int __thiscall TWspPrimitiveDecoder::UintVar(unsigned long &)
	?UintVarL@TWspPrimitiveEncoder@@SAPAVHBufC8@@K@Z @ 231 NONAME ; public: static class HBufC8 * __cdecl TWspPrimitiveEncoder::UintVarL(unsigned long)
	?Uri@CUri16@@QBEABVTUriC16@@XZ @ 232 NONAME ; public: class TUriC16 const & __thiscall CUri16::Uri(void)const 
	?Uri@CUri8@@QBEABVTUriC8@@XZ @ 233 NONAME ; public: class TUriC8 const & __thiscall CUri8::Uri(void)const 
	?UriDes@TUriC16@@QBEABVTDesC16@@XZ @ 234 NONAME ; public: class TDesC16 const & __thiscall TUriC16::UriDes(void)const 
	?UriDes@TUriC8@@QBEABVTDesC8@@XZ @ 235 NONAME ; public: class TDesC8 const & __thiscall TUriC8::UriDes(void)const 
	?UriWithoutFragment@TUriC16@@QBEXAAVTPtrC16@@@Z @ 236 NONAME ; public: void __thiscall TUriC16::UriWithoutFragment(class TPtrC16 &)const 
	?UriWithoutFragment@TUriC8@@QBEXAAVTPtrC8@@@Z @ 237 NONAME ; public: void __thiscall TUriC8::UriWithoutFragment(class TPtrC8 &)const 
	?Val7Bit@TWspPrimitiveDecoder@@QAEHAAE@Z @ 238 NONAME ; public: int __thiscall TWspPrimitiveDecoder::Val7Bit(unsigned char &)
	?VarType@TWspPrimitiveDecoder@@QBE?AW4TWspHeaderType@1@XZ @ 239 NONAME ; public: enum TWspPrimitiveDecoder::TWspHeaderType  __thiscall TWspPrimitiveDecoder::VarType(void)const 
	?VersionL@TWspPrimitiveDecoder@@QAEHVRStringPool@@AAVRStringF@@@Z @ 240 NONAME ; public: int __thiscall TWspPrimitiveDecoder::VersionL(class RStringPool,class RStringF &)
	?AddDataL@CWspHeaderEncoder@@QAEXABVTDesC8@@@Z @ 241 NONAME ; public: void __thiscall CWspHeaderEncoder::AddDataL(class TDesC8 const &)
	?DateTime@TInternetDate@@QAEABVTDateTime@@XZ @ 242 NONAME ; public: class TDateTime const & __thiscall TInternetDate::DateTime(void)
	?InternetDateTimeL@TInternetDate@@QAEPAVHBufC8@@W4TInternetDateFormat@1@@Z @ 243 NONAME ; public: class HBufC8 * __thiscall TInternetDate::InternetDateTimeL(enum TInternetDate::TInternetDateFormat)
	?SetDateL@TInternetDate@@QAEXABVTDesC8@@@Z @ 244 NONAME ; public: void __thiscall TInternetDate::SetDateL(class TDesC8 const &)
	?ConvertDescriptorToHex@InetProtTextUtils@@SAHABVTDesC16@@AAH@Z @ 245 NONAME ; public: static int __cdecl InetProtTextUtils::ConvertDescriptorToHex(class TDesC16 const &,int &)
	?ConvertDescriptorToHex@InetProtTextUtils@@SAHABVTDesC8@@AAH@Z @ 246 NONAME ; public: static int __cdecl InetProtTextUtils::ConvertDescriptorToHex(class TDesC8 const &,int &)
	?ConvertHexToDescriptorL@InetProtTextUtils@@SAXHAAPAVHBufC16@@@Z @ 247 NONAME ; public: static void __cdecl InetProtTextUtils::ConvertHexToDescriptorL(int,class HBufC16 * &)
	?ConvertHexToDescriptorL@InetProtTextUtils@@SAXHAAPAVHBufC8@@@Z @ 248 NONAME ; public: static void __cdecl InetProtTextUtils::ConvertHexToDescriptorL(int,class HBufC8 * &)
	?ExtractNextTokenFromList@InetProtTextUtils@@SAHAAVTPtrC16@@0ABVTDesC16@@@Z @ 249 NONAME ; public: static int __cdecl InetProtTextUtils::ExtractNextTokenFromList(class TPtrC16 &,class TPtrC16 &,class TDesC16 const &)
	?ExtractNextTokenFromList@InetProtTextUtils@@SAHAAVTPtrC16@@0VTChar@@@Z @ 250 NONAME ; public: static int __cdecl InetProtTextUtils::ExtractNextTokenFromList(class TPtrC16 &,class TPtrC16 &,class TChar)
	?ExtractNextTokenFromList@InetProtTextUtils@@SAHAAVTPtrC8@@0ABVTDesC8@@@Z @ 251 NONAME ; public: static int __cdecl InetProtTextUtils::ExtractNextTokenFromList(class TPtrC8 &,class TPtrC8 &,class TDesC8 const &)
	?ExtractNextTokenFromList@InetProtTextUtils@@SAHAAVTPtrC8@@0VTChar@@@Z @ 252 NONAME ; public: static int __cdecl InetProtTextUtils::ExtractNextTokenFromList(class TPtrC8 &,class TPtrC8 &,class TChar)
	?ExtractQuotedStringL@InetProtTextUtils@@SAHAAVTPtrC16@@0@Z @ 253 NONAME ; public: static int __cdecl InetProtTextUtils::ExtractQuotedStringL(class TPtrC16 &,class TPtrC16 &)
	?ExtractQuotedStringL@InetProtTextUtils@@SAHAAVTPtrC8@@0@Z @ 254 NONAME ; public: static int __cdecl InetProtTextUtils::ExtractQuotedStringL(class TPtrC8 &,class TPtrC8 &)
	?Equivalent@TUriC16@@QBEHABV1@@Z @ 255 NONAME ; int TUriC16::Equivalent(class TUriC16 const &) const
	?Equivalent@TUriC8@@QBEHABV1@@Z @ 256 NONAME ; int TUriC8::Equivalent(class TUriC8 const &) const
	?Reset@TDelimitedParserBase16@@QBEXXZ @ 257 NONAME ; void TDelimitedParserBase16::Reset(void) const
	?Reset@TDelimitedParserBase8@@QBEXXZ @ 258 NONAME ; void TDelimitedParserBase8::Reset(void) const
	?Validate@TUriC16@@QBEHXZ @ 259 NONAME ; int TUriC16::Validate(void) const
	?Validate@TUriC8@@QBEHXZ @ 260 NONAME ; int TUriC8::Validate(void) const
	?CreateFileUriL@CUri16@@SAPAV1@ABVTDesC16@@I@Z @ 261 NONAME ; class CUri16 * CUri16::CreateFileUriL(class TDesC16 const &, unsigned int)
	?CreateFileUriL@CUri8@@SAPAV1@ABVTDesC16@@I@Z @ 262 NONAME ; class CUri8 * CUri8::CreateFileUriL(class TDesC16 const &, unsigned int)
	?CreatePrivateFileUriL@CUri16@@SAPAV1@ABVTDesC16@@W4TDriveNumber@@H@Z @ 263 NONAME ; class CUri16 * CUri16::CreatePrivateFileUriL(class TDesC16 const &, enum TDriveNumber, int)
	?CreatePrivateFileUriL@CUri8@@SAPAV1@ABVTDesC16@@W4TDriveNumber@@H@Z @ 264 NONAME ; class CUri8 * CUri8::CreatePrivateFileUriL(class TDesC16 const &, enum TDriveNumber, int)
	??1CAuthentication@@UAE@XZ @ 265 NONAME ; CAuthentication::~CAuthentication(void)
	?GetFileNameL@TUriC16@@QBEPAVHBufC16@@XZ @ 266 NONAME ; class HBufC16 * TUriC16::GetFileNameL(void) const
	?GetFileNameL@TUriC8@@QBEPAVHBufC16@@XZ @ 267 NONAME ; class HBufC16 * TUriC8::GetFileNameL(void) const
	?Method@CAuthentication@@QBE?AW4TMethod@1@XZ @ 268 NONAME ; enum CAuthentication::TMethod CAuthentication::Method(void) const
	?Name@CAuthentication@@QBEABVTDesC8@@XZ @ 269 NONAME ; class TDesC8 const & CAuthentication::Name(void) const
	?NewL@CAuthentication@@SAPAV1@ABVTDesC8@@0W4TMethod@1@@Z @ 270 NONAME ; class CAuthentication * CAuthentication::NewL(class TDesC8 const &, class TDesC8 const &, enum CAuthentication::TMethod)
	?NewL@CAuthentication@@SAPAV1@ABVTUriC8@@W4TMethod@1@@Z @ 271 NONAME ; class CAuthentication * CAuthentication::NewL(class TUriC8 const &, enum CAuthentication::TMethod)
	?Password@CAuthentication@@QBEABVTDesC8@@XZ @ 272 NONAME ; class TDesC8 const & CAuthentication::Password(void) const
	?SetMethod@CAuthentication@@QAEXW4TMethod@1@@Z @ 273 NONAME ; void CAuthentication::SetMethod(enum CAuthentication::TMethod)
	?SetNameL@CAuthentication@@QAEXABVTDesC8@@@Z @ 274 NONAME ; void CAuthentication::SetNameL(class TDesC8 const &)
	?SetPasswordL@CAuthentication@@QAEXABVTDesC8@@@Z @ 275 NONAME ; void CAuthentication::SetPasswordL(class TDesC8 const &)
	?GetFileNameL@TUriC16@@QBEPAVHBufC16@@W4TUriFileName@@@Z @ 276 NONAME ; class HBufC16 * TUriC16::GetFileNameL(enum TUriFileName) const
	?GetFileNameL@TUriC8@@QBEPAVHBufC16@@W4TUriFileName@@@Z @ 277 NONAME ; class HBufC16 * TUriC8::GetFileNameL(enum TUriFileName) const
	?DisplayFormL@TAuthorityC16@@QBEPAVHBufC16@@W4TAuthorityComponent@@@Z @ 278 NONAME ; class HBufC16 * TAuthorityC16::DisplayFormL(enum TAuthorityComponent) const
	?DisplayFormL@TAuthorityC8@@QBEPAVHBufC16@@W4TAuthorityComponent@@@Z @ 279 NONAME ; class HBufC16 * TAuthorityC8::DisplayFormL(enum TAuthorityComponent) const
	?CreateAuthorityL@UriUtils@@SAPAVCAuthority8@@ABVTDesC16@@@Z @ 280 NONAME ; class CAuthority8 * UriUtils::CreateAuthorityL(class TDesC16 const &)
	?CreateUriL@UriUtils@@SAPAVCUri8@@ABVTDesC16@@@Z @ 281 NONAME ; class CUri8 * UriUtils::CreateUriL(class TDesC16 const &)
	?DisplayFormL@TUriC16@@QBEPAVHBufC16@@W4TUriComponent@@@Z @ 282 NONAME ; class HBufC16 * TUriC16::DisplayFormL(enum TUriComponent) const
	?DisplayFormL@TUriC8@@QBEPAVHBufC16@@W4TUriComponent@@@Z @ 283 NONAME ; class HBufC16 * TUriC8::DisplayFormL(enum TUriComponent) const
	?ExtractIntegerValueL@InetProtTextUtils@@SAHAAVTPtrC16@@AAHH@Z @ 284 NONAME ABSENT
	?ExtractIntegerValueL@InetProtTextUtils@@SAHAAVTPtrC8@@AAHH@Z @ 285 NONAME ; int InetProtTextUtils::ExtractIntegerValueL(class TPtrC8 &, int &, int)
	?SpecificEscapeEncodeL@EscapeUtils@@SAPAVHBufC8@@ABVTDesC8@@0@Z @ 286 NONAME ; class HBufC8 * EscapeUtils::SpecificEscapeEncodeL(class TDesC8 const &, class TDesC8 const &)
	?Decode@TBase64@@QAEHABVTDesC8@@AAVTDes8@@@Z @ 287 NONAME ; int TBase64::Decode(class TDesC8 const &, class TDes8 &)
	?Encode@TBase64@@QAEHABVTDesC8@@AAVTDes8@@@Z @ 288 NONAME ; int TBase64::Encode(class TDesC8 const &, class TDes8 &)
	?DummyForwardingFunctionForCompatibility@EscapeUtils@@CAPAVHBufC8@@ABVTDesC8@@0@Z @ 289 NONAME ; class HBufC8 * EscapeUtils::DummyForwardingFunctionForCompatibility(class TDesC8 const &, class TDesC8 const &)
	??0TBase64@@QAE@XZ @ 290 NONAME ; TBase64::TBase64(void)
	?NormaliseUriL@UriUtils@@SAPAVCUri8@@ABVTUriC8@@@Z @ 291 NONAME ; class CUri8 * UriUtils::NormaliseUriL(class TUriC8 const &)
	?PortableEncode@TBase64@@QAEHABVTDesC8@@AAVTDes8@@H@Z @ 292 NONAME ; int TBase64::PortableEncode(class TDesC8 const &, class TDes8 &, int)

