EXPORTS
	??0COpenFont@@QAE@PAVRHeap@@PAVCOpenFontSessionCacheList@@PAVCOpenFontFile@@@Z @ 1 NONAME ; public: __thiscall COpenFont::COpenFont(class RHeap *,class COpenFontSessionCacheList *,class COpenFontFile *)
	??0COpenFont@@QAE@PAVRHeap@@PAVCOpenFontSessionCacheList@@PAVCOpenFontFile@@H@Z @ 2 NONAME ; public: __thiscall COpenFont::COpenFont(class RHeap *,class COpenFontSessionCacheList *,class COpenFontFile *,int)
	??0COpenFontFile@@QAE@HABVTDesC16@@@Z @ 3 NONAME ; public: __thiscall COpenFontFile::COpenFontFile(int,class TDesC16 const &)
	??0TAlgStyle@@QAE@XZ @ 4 NONAME ; public: __thiscall TAlgStyle::TAlgStyle(void)
	??0TCharacterMetrics@@QAE@XZ @ 5 NONAME ; public: __thiscall TCharacterMetrics::TCharacterMetrics(void)
	??0TOpenFontCharMetrics@@QAE@ABVTCharacterMetrics@@@Z @ 6 NONAME ; public: __thiscall TOpenFontCharMetrics::TOpenFontCharMetrics(class TCharacterMetrics const &)
	??0TOpenFontMetrics@@QAE@PBVCFont@@@Z @ 7 NONAME ; public: __thiscall TOpenFontMetrics::TOpenFontMetrics(class CFont const *)
	??0TOpenFontSpec@@QAE@ABVTFontSpec@@@Z @ 8 NONAME ; public: __thiscall TOpenFontSpec::TOpenFontSpec(class TFontSpec const &)
	??0TOpenFontSpec@@QAE@XZ @ 9 NONAME ; public: __thiscall TOpenFontSpec::TOpenFontSpec(void)
	??1CFontStore@@UAE@XZ @ 10 NONAME ; public: virtual __thiscall CFontStore::~CFontStore(void)
	??1COpenFont@@UAE@XZ @ 11 NONAME ; public: virtual __thiscall COpenFont::~COpenFont(void)
	??1COpenFontFile@@UAE@XZ @ 12 NONAME ; public: virtual __thiscall COpenFontFile::~COpenFontFile(void)
	??3CBitmapFont@@SAXPAX@Z @ 13 NONAME ; public: static void __cdecl CBitmapFont::operator delete(void *)
	??3COpenFont@@SAXPAX@Z @ 14 NONAME ; public: static void __cdecl COpenFont::operator delete(void *)
	??4TOpenFontSpec@@QAEXABVTFontSpec@@@Z @ 15 NONAME ; public: void __thiscall TOpenFontSpec::operator=(class TFontSpec const &)
	??8TAlgStyle@@QBEHABV0@@Z @ 16 NONAME ; public: int __thiscall TAlgStyle::operator==(class TAlgStyle const &)const 
	?AddFaceL@COpenFontFile@@QAEXABVTOpenFontFaceAttrib@@@Z @ 17 NONAME ; public: void __thiscall COpenFontFile::AddFaceL(class TOpenFontFaceAttrib const &)
	?AddFileL@CFontStore@@QAE?AVTUid@@ABVTDesC16@@@Z @ 18 NONAME ; public: class TUid  __thiscall CFontStore::AddFileL(class TDesC16 const &)
	?DoAscentInPixels@CBitmapFont@@EBEHXZ @ 19 NONAME ; int CBitmapFont::DoAscentInPixels(void) const
	?DoBaselineOffsetInPixels@CBitmapFont@@EBEHXZ @ 20 NONAME ; int CBitmapFont::DoBaselineOffsetInPixels(void) const
	?BitmapEncoding@CBitmapFont@@QBEHXZ @ 21 NONAME ; public: int __thiscall CBitmapFont::BitmapEncoding(void)const 
	?DoCharWidthInPixels@CBitmapFont@@EBEHVTChar@@@Z @ 22 NONAME ; int CBitmapFont::DoCharWidthInPixels(class TChar) const
	?CharacterMetrics@CBitmapFont@@QBE?AVTCharacterMetrics@@HAAPBE@Z @ 23 NONAME ; public: class TCharacterMetrics  __thiscall CBitmapFont::CharacterMetrics(int,unsigned char const * &)const 
	?CompensateForAspectRatio@TOpenFontSpec@@QAEXABVMGraphicsDeviceMap@@@Z @ 24 NONAME ; public: void __thiscall TOpenFontSpec::CompensateForAspectRatio(class MGraphicsDeviceMap const &)
	?CompensateForAspectRatio@TOpenFontSpec@@QAEXHH@Z @ 25 NONAME ; public: void __thiscall TOpenFontSpec::CompensateForAspectRatio(int,int)
	?DeleteSessionCache@CFontStore@@QAEXH@Z @ 26 NONAME ; public: void __thiscall CFontStore::DeleteSessionCache(int)
	?FontHeightInPixels@CFontStore@@QBEHHH@Z @ 27 NONAME ; public: int __thiscall CFontStore::FontHeightInPixels(int,int)const 
	?FontHeightInTwips@CFontStore@@UBEHHH@Z @ 28 NONAME ; public: virtual int __thiscall CFontStore::FontHeightInTwips(int,int)const 
	?DoFontSpecInTwips@CBitmapFont@@EBE?AVTFontSpec@@XZ @ 29 NONAME ; class TFontSpec CBitmapFont::DoFontSpecInTwips(void) const
	?GetCharacterData@CBitmapFont@@QBEHHHAAVTOpenFontCharMetrics@@AAPBE@Z @ 30 NONAME ; int CBitmapFont::GetCharacterData(int, int, class TOpenFontCharMetrics &, unsigned char const * &) const
	?GetFaceAttrib@CBitmapFont@@QBEHAAVTOpenFontFaceAttrib@@@Z @ 31 NONAME ; public: int __thiscall CBitmapFont::GetFaceAttrib(class TOpenFontFaceAttrib &)const 
	?GetFontById@CFontStore@@QAEHAAPAVCFont@@VTUid@@ABVTAlgStyle@@@Z @ 32 NONAME ; public: int __thiscall CFontStore::GetFontById(class CFont * &,class TUid,class TAlgStyle const &)
	?GetFontMetrics@CBitmapFont@@QBEXAAVTOpenFontMetrics@@@Z @ 33 NONAME ; public: void __thiscall CBitmapFont::GetFontMetrics(class TOpenFontMetrics &)const 
	?GetNearestFontHelper@COpenFontFile@@QBEHABVTOpenFontSpec@@HHAAHAAV2@@Z @ 34 NONAME ; public: int __thiscall COpenFontFile::GetNearestFontHelper(class TOpenFontSpec const &,int,int,int &,class TOpenFontSpec &)const 
	?GetNearestFontInPixels@CFontStore@@QAEHAAPAVCFont@@ABVTFontSpec@@@Z @ 35 NONAME ; public: int __thiscall CFontStore::GetNearestFontInPixels(class CFont * &,class TFontSpec const &)
	?GetNearestFontInPixels@CFontStore@@QAEHAAPAVCFont@@ABVTOpenFontSpec@@@Z @ 36 NONAME ; public: int __thiscall CFontStore::GetNearestFontInPixels(class CFont * &,class TOpenFontSpec const &)
	?GetNearestFontInTwips@CFontStore@@QAEHAAPAVCFont@@ABVTOpenFontSpec@@@Z @ 37 NONAME ; public: int __thiscall CFontStore::GetNearestFontInTwips(class CFont * &,class TOpenFontSpec const &)
	?GetNearestFontInTwips@CFontStore@@UAEHAAPAVCFont@@ABVTFontSpec@@@Z @ 38 NONAME ; public: virtual int __thiscall CFontStore::GetNearestFontInTwips(class CFont * &,class TFontSpec const &)
	?GetTCharacterMetrics@TOpenFontCharMetrics@@QBEHAAVTCharacterMetrics@@@Z @ 39 NONAME ; public: int __thiscall TOpenFontCharMetrics::GetTCharacterMetrics(class TCharacterMetrics &)const 
	?GetTFontSpec@TOpenFontSpec@@QBEXAAVTFontSpec@@@Z @ 40 NONAME ; public: void __thiscall TOpenFontSpec::GetTFontSpec(class TFontSpec &)const 
	?HasCharacterL@CBitmapFont@@QBEHH@Z @ 41 NONAME ; public: int __thiscall CBitmapFont::HasCharacterL(int)const 
	?HeightFactor@TAlgStyle@@QBEHXZ @ 42 NONAME ; public: int __thiscall TAlgStyle::HeightFactor(void)const 
	?DoHeightInPixels@CBitmapFont@@EBEHXZ @ 43 NONAME ; int CBitmapFont::DoHeightInPixels(void) const
	?InstallRasterizerL@CFontStore@@QAEXPAVCOpenFontRasterizer@@@Z @ 44 NONAME ; public: void __thiscall CFontStore::InstallRasterizerL(class COpenFontRasterizer *)
	?IsBold@TAlgStyle@@QBEHXZ @ 45 NONAME ; public: int __thiscall TAlgStyle::IsBold(void)const 
	?IsItalic@TAlgStyle@@QBEHXZ @ 46 NONAME ; public: int __thiscall TAlgStyle::IsItalic(void)const 
	?IsMono@TAlgStyle@@QBEHXZ @ 47 NONAME ; public: int __thiscall TAlgStyle::IsMono(void)const 
	?DoMaxCharWidthInPixels@CBitmapFont@@EBEHXZ @ 48 NONAME ; int CBitmapFont::DoMaxCharWidthInPixels(void) const
	?DoMaxNormalCharWidthInPixels@CBitmapFont@@EBEHXZ @ 49 NONAME ; int CBitmapFont::DoMaxNormalCharWidthInPixels(void) const
	?New@TOpenFontGlyphData@@SAPAV1@PAVRHeap@@H@Z @ 50 NONAME ; public: static class TOpenFontGlyphData * __cdecl TOpenFontGlyphData::New(class RHeap *,int)
	?NewL@CBitmapFont@@CAPAV1@PAVRHeap@@ABVTFontSpec@@ABVTAlgStyle@@PAVCFontBitmap@@@Z @ 51 NONAME ABSENT ; private: static class CBitmapFont * __cdecl CBitmapFont::NewL(class RHeap *,class TFontSpec const &,class TAlgStyle const &,class CFontBitmap *)
	?NewL@CFontStore@@SAPAV1@PAVRHeap@@@Z @ 52 NONAME ; public: static class CFontStore * __cdecl CFontStore::NewL(class RHeap *)
	?NumTypefaces@CFontStore@@UBEHXZ @ 53 NONAME ; public: virtual int __thiscall CFontStore::NumTypefaces(void)const 
	?Rasterize@CBitmapFont@@QBEHHHPAVTOpenFontGlyphData@@@Z @ 54 NONAME ; public: int __thiscall CBitmapFont::Rasterize(int,int,class TOpenFontGlyphData *)const 
	?RemoveFile@CFontStore@@QAEXVTUid@@@Z @ 55 NONAME ; public: void __thiscall CFontStore::RemoveFile(class TUid)
	?ExtendedInterface@COpenFont@@UAEXVTUid@@AAPAX@Z @ 56 NONAME ; void COpenFont::ExtendedInterface(class TUid, void * &)
	?ExtendedInterface@COpenFontFile@@UAEXVTUid@@AAPAX@Z @ 57 NONAME ; void COpenFontFile::ExtendedInterface(class TUid, void * &)
	?Reserved@COpenFontRasterizer@@UAEXXZ @ 58 NONAME ABSENT ; public: virtual void __thiscall COpenFontRasterizer::Reserved(void)
	?SetAttrib@TOpenFontSpec@@QAEXABVTOpenFontFaceAttribBase@@@Z @ 59 NONAME ; public: void __thiscall TOpenFontSpec::SetAttrib(class TOpenFontFaceAttribBase const &)
	?SetHeightFactor@TAlgStyle@@QAEXH@Z @ 60 NONAME ; public: void __thiscall TAlgStyle::SetHeightFactor(int)
	?SetIsBold@TAlgStyle@@QAEXH@Z @ 61 NONAME ; public: void __thiscall TAlgStyle::SetIsBold(int)
	?SetIsItalic@TAlgStyle@@QAEXH@Z @ 62 NONAME ; public: void __thiscall TAlgStyle::SetIsItalic(int)
	?SetIsMono@TAlgStyle@@QAEXH@Z @ 63 NONAME ; public: void __thiscall TAlgStyle::SetIsMono(int)
	?SetWidthFactor@TAlgStyle@@QAEXH@Z @ 64 NONAME ; public: void __thiscall TAlgStyle::SetWidthFactor(int)
	?DoTextCount@CBitmapFont@@EBEHABVTDesC16@@H@Z @ 65 NONAME ; int CBitmapFont::DoTextCount(class TDesC16 const &, int) const
	?DoTextCount@CBitmapFont@@EBEHABVTDesC16@@HAAH@Z @ 66 NONAME ; int CBitmapFont::DoTextCount(class TDesC16 const &, int, int &) const
	?DoTextWidthInPixels@CBitmapFont@@EBEHABVTDesC16@@@Z @ 67 NONAME ; int CBitmapFont::DoTextWidthInPixels(class TDesC16 const &) const
	?DoTypeUid@CBitmapFont@@EBE?AVTUid@@XZ @ 68 NONAME ; class TUid CBitmapFont::DoTypeUid(void) const
	?TypefaceSupport@CFontStore@@UBEXAAVTTypefaceSupport@@H@Z @ 69 NONAME ; public: virtual void __thiscall CFontStore::TypefaceSupport(class TTypefaceSupport &,int)const 
	?WidthFactor@TAlgStyle@@QBEHXZ @ 70 NONAME ; public: int __thiscall TAlgStyle::WidthFactor(void)const 
	?CharacterNeedsToBeRasterized@CBitmapFont@@QBEHHH@Z @ 71 NONAME ; public: int __thiscall CBitmapFont::CharacterNeedsToBeRasterized(int,int)const 
	?GetNearestFontHelperOld@COpenFontFile@@IBEHABVTOpenFontSpec@@HHAAHAAV2@@Z @ 72 NONAME ; protected: int __thiscall COpenFontFile::GetNearestFontHelperOld(class TOpenFontSpec const &,int,int,int &,class TOpenFontSpec &)const 
	?DoExtendedFunction@CBitmapFont@@EBEHVTUid@@PAX@Z @ 73 NONAME ; int CBitmapFont::DoExtendedFunction(class TUid, void *) const
	?GetNearestFontToDesignHeightInPixels@CFontStore@@QAEHAAPAVCFont@@ABVTFontSpec@@@Z @ 74 NONAME ; int CFontStore::GetNearestFontToDesignHeightInPixels(class CFont * &, class TFontSpec const &)
	?GetNearestFontToDesignHeightInPixels@CFontStore@@QAEHAAPAVCFont@@ABVTOpenFontSpec@@@Z @ 75 NONAME ; int CFontStore::GetNearestFontToDesignHeightInPixels(class CFont * &, class TOpenFontSpec const &)
	?GetNearestFontToDesignHeightInTwips@CFontStore@@QAEHAAPAVCFont@@ABVTOpenFontSpec@@@Z @ 76 NONAME ; int CFontStore::GetNearestFontToDesignHeightInTwips(class CFont * &, class TOpenFontSpec const &)
	?GetNearestFontToDesignHeightInTwips@CFontStore@@UAEHAAPAVCFont@@ABVTFontSpec@@@Z @ 77 NONAME ; int CFontStore::GetNearestFontToDesignHeightInTwips(class CFont * &, class TFontSpec const &)
	?GetNearestFontToMaxHeightInPixels@CFontStore@@QAEHAAPAVCFont@@ABVTFontSpec@@H@Z @ 78 NONAME ; int CFontStore::GetNearestFontToMaxHeightInPixels(class CFont * &, class TFontSpec const &, int)
	?GetNearestFontToMaxHeightInPixels@CFontStore@@QAEHAAPAVCFont@@ABVTOpenFontSpec@@H@Z @ 79 NONAME ; int CFontStore::GetNearestFontToMaxHeightInPixels(class CFont * &, class TOpenFontSpec const &, int)
	?GetNearestFontToMaxHeightInTwips@CFontStore@@QAEHAAPAVCFont@@ABVTOpenFontSpec@@H@Z @ 80 NONAME ; int CFontStore::GetNearestFontToMaxHeightInTwips(class CFont * &, class TOpenFontSpec const &, int)
	?GetNearestFontToMaxHeightInTwips@CFontStore@@UAEHAAPAVCFont@@ABVTFontSpec@@H@Z @ 81 NONAME ; int CFontStore::GetNearestFontToMaxHeightInTwips(class CFont * &, class TFontSpec const &, int)
	?IsEffectOn@TOpenFontSpec@@QBEHW4TEffect@FontEffect@@@Z @ 82 NONAME ; int TOpenFontSpec::IsEffectOn(enum FontEffect::TEffect) const
	?SetEffects@TOpenFontSpec@@QAEXW4TEffect@FontEffect@@H@Z @ 83 NONAME ; void TOpenFontSpec::SetEffects(enum FontEffect::TEffect, int)
	?ScriptTypeForMetrics@TOpenFontSpec@@QBEHXZ @ 84 NONAME ; int TOpenFontSpec::ScriptTypeForMetrics(void) const
	?SetScriptTypeForMetrics@TOpenFontSpec@@QAEXW4TLanguage@@@Z @ 85 NONAME ; void TOpenFontSpec::SetScriptTypeForMetrics(enum TLanguage)
	?OperatorEquality@TOpenFontSpec@@ABEHABV1@@Z @ 86 NONAME ; int TOpenFontSpec::OperatorEquality(class TOpenFontSpec const &) const
	?DoEffects@TOpenFontSpec@@ABEKXZ @ 87 NONAME ; unsigned long TOpenFontSpec::DoEffects(void) const
	?DoSetEffects@TOpenFontSpec@@AAEXK@Z @ 88 NONAME ; void TOpenFontSpec::DoSetEffects(unsigned long)
	?DeleteShape@CBitmapFont@@QAEXHPAVTShapeHeader@@@Z @ 89 NONAME ; void CBitmapFont::DeleteShape(int, class TShapeHeader *)
	?ShapeTextL@CBitmapFont@@QAEPAVTShapeHeader@@ABVTDesC16@@HABVTShapeMessageParameters@@@Z @ 90 NONAME ; class TShapeHeader * CBitmapFont::ShapeTextL(class TDesC16 const &, int, class TShapeMessageParameters const &)
	?InstallShaperFactoryL@CFontStore@@QAEXPAVCShaperFactory@@@Z @ 91 NONAME ; void CFontStore::InstallShaperFactoryL(class CShaperFactory *)
	??0CShaper@@QAE@XZ @ 92 NONAME ; CShaper::CShaper(void)
	??1CShaper@@UAE@XZ @ 93 NONAME ; CShaper::~CShaper(void)
	?ExtendedInterface@CShaper@@UAEPAXVTUid@@@Z @ 94 NONAME ; void * CShaper::ExtendedInterface(class TUid)
	??1CLinkedTypefaceElement@@UAE@XZ @ 95 NONAME ABSENT ; CLinkedTypefaceElement::~CLinkedTypefaceElement(void)
	??1CLinkedTypefaceSpecification@@UAE@XZ @ 96 NONAME ; CLinkedTypefaceSpecification::~CLinkedTypefaceSpecification(void)
	?AddTypeface@CLinkedTypefaceSpecification@@QAEHABVTDesC16@@HW4TVerticalPositioning@1@ABVTRangeMappingParameters@1@@Z @ 97 NONAME ABSENT ; int CLinkedTypefaceSpecification::AddTypeface(class TDesC16 const &, int, enum CLinkedTypefaceSpecification::TVerticalPositioning, class CLinkedTypefaceSpecification::TRangeMappingParameters const &)
	?AddTypeface@CLinkedTypefaceSpecification@@QAEHABVTDesC16@@HW4TVerticalPositioning@1@H@Z @ 98 NONAME ABSENT ; int CLinkedTypefaceSpecification::AddTypeface(class TDesC16 const &, int, enum CLinkedTypefaceSpecification::TVerticalPositioning, int)
	?ConstructL@CLinkedTypefaceElement@@AAEXABVTDesC16@@W4TVerticalPositioning@CLinkedTypefaceSpecification@@@Z @ 99 NONAME ABSENT ; void CLinkedTypefaceElement::ConstructL(class TDesC16 const &, enum CLinkedTypefaceSpecification::TVerticalPositioning)
	?CreateLinkedTypeface@CFontStore@@QAEHABVTLinkedTypefaceSpecArgs@@HAAH@Z @ 100 NONAME ABSENT ; int CFontStore::CreateLinkedTypeface(class TLinkedTypefaceSpecArgs const &, int, int &)
	?FontWithCharacter@CBitmapFont@@QBEPAV1@HAAPAVCLinkedFontInformation@@HH@Z @ 101 NONAME ABSENT ; class CBitmapFont * CBitmapFont::FontWithCharacter(int, class CLinkedFontInformation * &, int, int) const
	?IsLinkedFont@CBitmapFont@@QBEHXZ @ 102 NONAME ABSENT ; int CBitmapFont::IsLinkedFont(void) const
	?LinkedFontInformation@CBitmapFont@@QBEPAVCLinkedFontInformation@@XZ @ 103 NONAME ABSENT ; class CLinkedFontInformation * CBitmapFont::LinkedFontInformation(void) const
	?Name@CLinkedTypefaceElement@@QBEAAVTDesC16@@XZ @ 104 NONAME ABSENT ; class TDesC16 & CLinkedTypefaceElement::Name(void) const
	?Name@CLinkedTypefaceSpecification@@QBEAAVTDesC16@@XZ @ 105 NONAME ABSENT ; class TDesC16 & CLinkedTypefaceSpecification::Name(void) const
	?NewL@CLinkedTypefaceElement@@SAPAV1@ABVTDesC16@@W4TVerticalPositioning@CLinkedTypefaceSpecification@@@Z @ 106 NONAME ABSENT ; class CLinkedTypefaceElement * CLinkedTypefaceElement::NewL(class TDesC16 const &, enum CLinkedTypefaceSpecification::TVerticalPositioning)
	?NewL@CLinkedTypefaceSpecification@@SAPAV1@ABVTDesC16@@@Z @ 107 NONAME ABSENT ; class CLinkedTypefaceSpecification * CLinkedTypefaceSpecification::NewL(class TDesC16 const &)
	?NewLC@CLinkedTypefaceSpecification@@SAPAV1@ABVTDesC16@@@Z @ 108 NONAME ; class CLinkedTypefaceSpecification * CLinkedTypefaceSpecification::NewLC(class TDesC16 const &)
	?NextFontClientSpace@CBitmapFont@@QBEPAV1@XZ @ 109 NONAME ABSENT ; class CBitmapFont * CBitmapFont::NextFontClientSpace(void) const
	?NumberOfTypefaces@CLinkedTypefaceSpecification@@QBEHXZ @ 110 NONAME ABSENT ; int CLinkedTypefaceSpecification::NumberOfTypefaces(void) const
	?Range@CLinkedTypefaceElement@@QBEXAAH0@Z @ 111 NONAME ABSENT ; void CLinkedTypefaceElement::Range(int &, int &) const
	?RemoveLinkedFont@CFontStore@@QAEXPAVCBitmapFont@@@Z @ 112 NONAME ABSENT ; void CFontStore::RemoveLinkedFont(class CBitmapFont *)
	?SetRange@CLinkedTypefaceElement@@QAEXHH@Z @ 113 NONAME ABSENT ; void CLinkedTypefaceElement::SetRange(int, int)
	?SetSizeAdjustmentFactor@CLinkedTypefaceElement@@QAEXH@Z @ 114 NONAME ABSENT ; void CLinkedTypefaceElement::SetSizeAdjustmentFactor(int)
	?SizeAdjustmentFactor@CLinkedTypefaceElement@@QBEHXZ @ 115 NONAME ABSENT ; int CLinkedTypefaceElement::SizeAdjustmentFactor(void) const
	?TypeFace@CLinkedTypefaceSpecification@@QBEPAVCLinkedTypefaceElement@@H@Z @ 116 NONAME ABSENT ; class CLinkedTypefaceElement * CLinkedTypefaceSpecification::TypeFace(int) const
	?TypefaceType@CLinkedTypefaceElement@@QBE?AW4TLinkedTypefaceType@1@XZ @ 117 NONAME ABSENT ; enum CLinkedTypefaceElement::TLinkedTypefaceType CLinkedTypefaceElement::TypefaceType(void) const
	?VerticalPositioning@CLinkedTypefaceElement@@QBE?AW4TVerticalPositioning@CLinkedTypefaceSpecification@@XZ @ 118 NONAME ABSENT ; enum CLinkedTypefaceSpecification::TVerticalPositioning CLinkedTypefaceElement::VerticalPositioning(void) const
	?IsValidLinkedFontSpecification@CFontStore@@QAEHH@Z @ 119 NONAME ABSENT ; int CFontStore::IsValidLinkedFontSpecification(int)
	?UniqueFontId@CBitmapFont@@QAEKXZ @ 120 NONAME ; unsigned long CBitmapFont::UniqueFontId(void)
	??1CLinkedTypefaceElementSpec@@UAE@XZ @ 121 NONAME ; CLinkedTypefaceElementSpec::~CLinkedTypefaceElementSpec(void)
	??1COpenFontLinkedTypefaceElementSpec@@UAE@XZ @ 122 NONAME ; COpenFontLinkedTypefaceElementSpec::~COpenFontLinkedTypefaceElementSpec(void)
	??1COpenFontLinkedTypefaceSpecification@@UAE@XZ @ 123 NONAME ; COpenFontLinkedTypefaceSpecification::~COpenFontLinkedTypefaceSpecification(void)
	??4TLinkedTypefaceSpecificationArgs@@QAEXABVCLinkedTypefaceSpecification@@@Z @ 124 NONAME ; void TLinkedTypefaceSpecificationArgs::operator=(class CLinkedTypefaceSpecification const &)
	??4TLinkedTypefaceSpecificationArgs@@QAEXABVCOpenFontLinkedTypefaceSpecification@@@Z @ 125 NONAME ; void TLinkedTypefaceSpecificationArgs::operator=(class COpenFontLinkedTypefaceSpecification const &)
	?AddLinkedTypefaceGroupL@CLinkedTypefaceSpecification@@QAEXAAVCLinkedTypefaceGroup@@@Z @ 126 NONAME ; void CLinkedTypefaceSpecification::AddLinkedTypefaceGroupL(class CLinkedTypefaceGroup &)
	?AddLinkedTypefaceGroupL@COpenFontLinkedTypefaceSpecification@@QAEXAAVCLinkedTypefaceGroup@@@Z @ 127 NONAME ; void COpenFontLinkedTypefaceSpecification::AddLinkedTypefaceGroupL(class CLinkedTypefaceGroup &)
	?AddTypefaceAtBackL@CLinkedTypefaceSpecification@@QAEXAAVCLinkedTypefaceElementSpec@@@Z @ 128 NONAME ; void CLinkedTypefaceSpecification::AddTypefaceAtBackL(class CLinkedTypefaceElementSpec &)
	?AddTypefaceAtBackL@COpenFontLinkedTypefaceSpecification@@QAEXAAVCOpenFontLinkedTypefaceElementSpec@@@Z @ 129 NONAME ; void COpenFontLinkedTypefaceSpecification::AddTypefaceAtBackL(class COpenFontLinkedTypefaceElementSpec &)
	?AddTypefaceAtIndexL@CLinkedTypefaceSpecification@@QAEXAAVCLinkedTypefaceElementSpec@@H@Z @ 130 NONAME ; void CLinkedTypefaceSpecification::AddTypefaceAtIndexL(class CLinkedTypefaceElementSpec &, int)
	?AddTypefaceAtIndexL@COpenFontLinkedTypefaceSpecification@@QAEXAAVCOpenFontLinkedTypefaceElementSpec@@H@Z @ 131 NONAME ; void COpenFontLinkedTypefaceSpecification::AddTypefaceAtIndexL(class COpenFontLinkedTypefaceElementSpec &, int)
	?AntiAliasingThreshold@CLinkedTypefaceGroup@@QBEHXZ @ 132 NONAME ABSENT ; int CLinkedTypefaceGroup::AntiAliasingThreshold(void) const
	?BaselineCorrection@TOpenFontCharMetrics@@QBEHXZ @ 133 NONAME ABSENT ; int TOpenFontCharMetrics::BaselineCorrection(void) const
	?BaselineShift@CLinkedTypefaceGroup@@QBE?AW4TBaselineShift@1@XZ @ 134 NONAME ; enum CLinkedTypefaceGroup::TBaselineShift CLinkedTypefaceGroup::BaselineShift(void) const
	?BoldnessPercentage@CLinkedTypefaceGroup@@QBEHXZ @ 135 NONAME ; int CLinkedTypefaceGroup::BoldnessPercentage(void) const
	?Canonical@CLinkedTypefaceElementSpec@@QBEHXZ @ 136 NONAME ; int CLinkedTypefaceElementSpec::Canonical(void) const
	?Canonical@COpenFontLinkedTypefaceElementSpec@@QBEHXZ @ 137 NONAME ; int COpenFontLinkedTypefaceElementSpec::Canonical(void) const
	?CanonicalIndex@CLinkedTypefaceSpecification@@QAEHXZ @ 138 NONAME ; int CLinkedTypefaceSpecification::CanonicalIndex(void)
	?CanonicalIndex@COpenFontLinkedTypefaceSpecification@@QBEHXZ @ 139 NONAME ; int COpenFontLinkedTypefaceSpecification::CanonicalIndex(void) const
	?Clear@CLinkedTypefaceSpecification@@QAEXXZ @ 140 NONAME ; void CLinkedTypefaceSpecification::Clear(void)
	?CreateLinkedTypeface@CFontStore@@QAEHABVTLinkedTypefaceSpecificationArgs@@HAAH@Z @ 141 NONAME ; int CFontStore::CreateLinkedTypeface(class TLinkedTypefaceSpecificationArgs const &, int, int &)
	?ElementName@CLinkedTypefaceElementSpec@@QBE?AVTPtrC16@@XZ @ 142 NONAME ; class TPtrC16 CLinkedTypefaceElementSpec::ElementName(void) const
	?ElementName@COpenFontLinkedTypefaceElementSpec@@QBE?AVTPtrC16@@XZ @ 143 NONAME ; class TPtrC16 COpenFontLinkedTypefaceElementSpec::ElementName(void) const
	?ExtendedInterface@COpenFontRasterizer@@UAEXVTUid@@AAPAX@Z @ 144 NONAME ; void COpenFontRasterizer::ExtendedInterface(class TUid, void * &)
	?FetchLinkedTypefaceSpecificationL@CLinkedTypefaceSpecification@@QAEXAAVCFbsTypefaceStore@@@Z @ 145 NONAME ; void CLinkedTypefaceSpecification::FetchLinkedTypefaceSpecificationL(class CFbsTypefaceStore &)
	?FileName@COpenFontLinkedTypefaceElementSpec@@QBE?AVTPtrC16@@XZ @ 146 NONAME ; class TPtrC16 COpenFontLinkedTypefaceElementSpec::FileName(void) const
	?GetLinkedTypefaceL@CFontStore@@QAEXAAVTLinkedTypefaceSpecificationArgs@@@Z @ 147 NONAME ; void CFontStore::GetLinkedTypefaceL(class TLinkedTypefaceSpecificationArgs &)
	?GlyphType@TOpenFontCharMetrics@@QBE?AW4TGlyphBitmapType@@XZ @ 148 NONAME ; enum TGlyphBitmapType TOpenFontCharMetrics::GlyphType(void) const
	?Group@CLinkedTypefaceSpecification@@QBEPAVCLinkedTypefaceGroup@@H@Z @ 149 NONAME ; class CLinkedTypefaceGroup * CLinkedTypefaceSpecification::Group(int) const
	?Group@COpenFontLinkedTypefaceSpecification@@QBEPBVCLinkedTypefaceGroup@@H@Z @ 150 NONAME ; class CLinkedTypefaceGroup const * COpenFontLinkedTypefaceSpecification::Group(int) const
	?GroupById@CLinkedTypefaceSpecification@@QBEPAVCLinkedTypefaceGroup@@H@Z @ 151 NONAME ; class CLinkedTypefaceGroup * CLinkedTypefaceSpecification::GroupById(int) const
	?GroupById@COpenFontLinkedTypefaceSpecification@@QBEPAVCLinkedTypefaceGroup@@H@Z @ 152 NONAME ; class CLinkedTypefaceGroup * COpenFontLinkedTypefaceSpecification::GroupById(int) const
	?GroupCount@CLinkedTypefaceSpecification@@QBEHXZ @ 153 NONAME ; int CLinkedTypefaceSpecification::GroupCount(void) const
	?GroupCount@COpenFontLinkedTypefaceSpecification@@QBEHXZ @ 154 NONAME ; int COpenFontLinkedTypefaceSpecification::GroupCount(void) const
	?GroupId@CLinkedTypefaceElementSpec@@QBEHXZ @ 155 NONAME ; int CLinkedTypefaceElementSpec::GroupId(void) const
	?GroupId@CLinkedTypefaceGroup@@QBEHXZ @ 156 NONAME ; int CLinkedTypefaceGroup::GroupId(void) const
	?GroupId@COpenFontLinkedTypefaceElementSpec@@QBEHXZ @ 157 NONAME ; int COpenFontLinkedTypefaceElementSpec::GroupId(void) const
	?ItalicAngle@CLinkedTypefaceGroup@@QBEHXZ @ 158 NONAME ; int CLinkedTypefaceGroup::ItalicAngle(void) const
	?Name@CLinkedTypefaceSpecification@@QBE?AVTPtrC16@@XZ @ 159 NONAME ; class TPtrC16 CLinkedTypefaceSpecification::Name(void) const
	?Name@COpenFontLinkedTypefaceSpecification@@QBE?AVTPtrC16@@XZ @ 160 NONAME ; class TPtrC16 COpenFontLinkedTypefaceSpecification::Name(void) const
	?NewLC@CLinkedTypefaceElementSpec@@SAPAV1@ABVTDesC16@@H@Z @ 161 NONAME ; class CLinkedTypefaceElementSpec * CLinkedTypefaceElementSpec::NewLC(class TDesC16 const &, int)
	?NewLC@CLinkedTypefaceGroup@@SAPAV1@H@Z @ 162 NONAME ; class CLinkedTypefaceGroup * CLinkedTypefaceGroup::NewLC(int)
	?NewLC@COpenFontLinkedTypefaceElementSpec@@SAPAV1@ABVTDesC16@@H@Z @ 163 NONAME ; class COpenFontLinkedTypefaceElementSpec * COpenFontLinkedTypefaceElementSpec::NewLC(class TDesC16 const &, int)
	?NewLC@COpenFontLinkedTypefaceSpecification@@SAPAV1@ABVTDesC16@@@Z @ 164 NONAME ; class COpenFontLinkedTypefaceSpecification * COpenFontLinkedTypefaceSpecification::NewLC(class TDesC16 const &)
	?NewLC@COpenFontLinkedTypefaceSpecification@@SAPAV1@ABVTLinkedTypefaceSpecificationArgs@@@Z @ 165 NONAME ; class COpenFontLinkedTypefaceSpecification * COpenFontLinkedTypefaceSpecification::NewLC(class TLinkedTypefaceSpecificationArgs const &)
	?RegisterLinkedTypefaceL@CLinkedTypefaceSpecification@@QAEXAAVCFbsTypefaceStore@@@Z @ 166 NONAME ; void CLinkedTypefaceSpecification::RegisterLinkedTypefaceL(class CFbsTypefaceStore &)
	?RemoveLinkedTypefaceGroup@CLinkedTypefaceSpecification@@QAEHH@Z @ 167 NONAME ; int CLinkedTypefaceSpecification::RemoveLinkedTypefaceGroup(int)
	?RemoveLinkedTypefaceGroup@COpenFontLinkedTypefaceSpecification@@QAEHH@Z @ 168 NONAME ; int COpenFontLinkedTypefaceSpecification::RemoveLinkedTypefaceGroup(int)
	?RemoveTypeface@CLinkedTypefaceSpecification@@QAEHH@Z @ 169 NONAME ; int CLinkedTypefaceSpecification::RemoveTypeface(int)
	?RemoveTypeface@COpenFontLinkedTypefaceSpecification@@QAEHH@Z @ 170 NONAME ; int COpenFontLinkedTypefaceSpecification::RemoveTypeface(int)
	?ScalingOption@CLinkedTypefaceGroup@@QBE?AW4TScalingOption@1@XZ @ 171 NONAME ; enum CLinkedTypefaceGroup::TScalingOption CLinkedTypefaceGroup::ScalingOption(void) const
	?SetAntiAliasingThreshold@CLinkedTypefaceGroup@@QAEXH@Z @ 172 NONAME ABSENT ; void CLinkedTypefaceGroup::SetAntiAliasingThreshold(int)
	?SetBaselineCorrection@TOpenFontCharMetrics@@QAEXH@Z @ 173 NONAME ABSENT ; void TOpenFontCharMetrics::SetBaselineCorrection(int)
	?SetBaselineShift@CLinkedTypefaceGroup@@QAEXW4TBaselineShift@1@@Z @ 174 NONAME ; void CLinkedTypefaceGroup::SetBaselineShift(enum CLinkedTypefaceGroup::TBaselineShift)
	?SetBoldnessPercentage@CLinkedTypefaceGroup@@QAEXH@Z @ 175 NONAME ; void CLinkedTypefaceGroup::SetBoldnessPercentage(int)
	?SetCanonical@CLinkedTypefaceElementSpec@@QAEXH@Z @ 176 NONAME ; void CLinkedTypefaceElementSpec::SetCanonical(int)
	?SetCanonical@COpenFontLinkedTypefaceElementSpec@@QAEXH@Z @ 177 NONAME ; void COpenFontLinkedTypefaceElementSpec::SetCanonical(int)
	?SetFileNameL@COpenFontLinkedTypefaceElementSpec@@QAEXABVTDesC16@@@Z @ 178 NONAME ; void COpenFontLinkedTypefaceElementSpec::SetFileNameL(class TDesC16 const &)
	?SetGlyphType@TOpenFontCharMetrics@@QAEXW4TGlyphBitmapType@@@Z @ 179 NONAME ; void TOpenFontCharMetrics::SetGlyphType(enum TGlyphBitmapType)
	?SetItalicAngle@CLinkedTypefaceGroup@@QAEXH@Z @ 180 NONAME ; void CLinkedTypefaceGroup::SetItalicAngle(int)
	?SetScalingOption@CLinkedTypefaceGroup@@QAEXW4TScalingOption@1@@Z @ 181 NONAME ; void CLinkedTypefaceGroup::SetScalingOption(enum CLinkedTypefaceGroup::TScalingOption)
	?Typeface@CLinkedTypefaceSpecification@@QBEPAVCLinkedTypefaceElementSpec@@H@Z @ 182 NONAME ; class CLinkedTypefaceElementSpec * CLinkedTypefaceSpecification::Typeface(int) const
	?Typeface@COpenFontLinkedTypefaceSpecification@@QBEPAVCOpenFontLinkedTypefaceElementSpec@@H@Z @ 183 NONAME ; class COpenFontLinkedTypefaceElementSpec * COpenFontLinkedTypefaceSpecification::Typeface(int) const
	?TypefaceCount@CLinkedTypefaceSpecification@@QBEHXZ @ 184 NONAME ; int CLinkedTypefaceSpecification::TypefaceCount(void) const
	?TypefaceCount@COpenFontLinkedTypefaceSpecification@@QBEHXZ @ 185 NONAME ; int COpenFontLinkedTypefaceSpecification::TypefaceCount(void) const
	?HaveTypefaceFamilyName@CFontStore@@QAEHABVTDesC16@@@Z @ 186 NONAME ; int CFontStore::HaveTypefaceFamilyName(class TDesC16 const &)
	?SetBaselineCorrection@TOpenFontMetrics@@QAEXH@Z @ 187 NONAME ; void TOpenFontMetrics::SetBaselineCorrection(int)
	?BaselineCorrection@TOpenFontMetrics@@QAEHXZ @ 188 NONAME ; int TOpenFontMetrics::BaselineCorrection(void)
	?UpdateLinkedTypefaceL@CLinkedTypefaceSpecification@@QAEXAAVCFbsTypefaceStore@@@Z @ 189 NONAME ; void CLinkedTypefaceSpecification::UpdateLinkedTypefaceL(class CFbsTypefaceStore &)
	?LoadFontsAtStartupL@CFontStore@@QAEXXZ @ 190 NONAME ; void CFontStore::LoadFontsAtBootL(void)
	?UpdateLinkedTypefaceL@CFontStore@@QAEXABVTLinkedTypefaceSpecificationArgs@@@Z @ 191 NONAME ; void CFontStore::UpdateLinkedTypefaceL(class TLinkedTypefaceSpecificationArgs const &)
	?KLinkedFontDrive@@3CB @ 192 NONAME ; signed char const KLinkedFontDrive
	?GetFontFilePath@CFontStore@@QBEHABVTDesC16@@AAV?$TBuf@$0BAA@@@@Z @ 193 NONAME ; int CFontStore::GetFontFilePath(class TDesC16 const &, class TBuf<256> &) const
	?ReleaseGlyphOutlines@CBitmapFont@@QAEXHPBIHH@Z @ 194 NONAME ; void CBitmapFont::ReleaseGlyphOutlines(int, unsigned int const *, int, int)
	?GetGlyphOutline@CBitmapFont@@QAEHIHAAPAXAAHH@Z @ 195 NONAME ; int CBitmapFont::GetGlyphOutline(unsigned int, int, void * &, int &, int)
	?KFontTable_GlyphOutline_CacheMaxMem@@3KB @ 196 NONAME ; unsigned long const KFontTable_GlyphOutline_CacheMaxMem
	?CleanupCacheOnFbsSessionTermination@CFontStore@@QAEXH@Z @ 197 NONAME ; void CFontStore::CleanupCacheOnFbsSessionTermination(int)
	?GetFontTable@CBitmapFont@@QAEHKAAPAXAAHH@Z @ 198 NONAME ; int CBitmapFont::GetFontTable(unsigned long, void * &, int &, int)
	?ReleaseFontTable@CBitmapFont@@QAEXKH@Z @ 199 NONAME ; void CBitmapFont::ReleaseFontTable(unsigned long, int)

