EXPORTS
	_Z10StartSch32v @ 1 NONAME
	_Z12RunSchedulerv @ 2 NONAME
	_ZN10RScheduler12EditScheduleEiRK13CArrayFixFlatI18TScheduleEntryInfoE @ 3 NONAME
	_ZN10RScheduler12GetScheduleLEiR14TScheduleStateR13CArrayFixFlatI18TScheduleEntryInfoERS2_I9TTaskInfoER5TTime @ 4 NONAME
	_ZN10RScheduler12GetTaskInfoLEiR9TTaskInfoR6TPtr16R17TSchedulerItemRefR5TTime @ 5 NONAME
	_ZN10RScheduler12GetTaskRefsLER13CArrayFixFlatI17TSchedulerItemRefE15TScheduleFilter11TTaskFilter @ 6 NONAME
	_ZN10RScheduler12ScheduleTaskER9TTaskInfoR7HBufC16R17TSchedulerItemRefRK13CArrayFixFlatI18TScheduleEntryInfoE @ 7 NONAME
	_ZN10RScheduler12ScheduleTaskER9TTaskInfoR7HBufC16i @ 8 NONAME
	_ZN10RScheduler12__DbgMarkEndEi @ 9 NONAME
	_ZN10RScheduler13__DbgFailNextEi @ 10 NONAME
	_ZN10RScheduler13__DbgMarkHeapEv @ 11 NONAME
	_ZN10RScheduler13__FaultServerEv @ 12 NONAME
	_ZN10RScheduler14__DbgCheckHeapEi @ 13 NONAME
	_ZN10RScheduler14__DbgResetHeapEv @ 14 NONAME
	_ZN10RScheduler15GetTaskDataSizeEiRi @ 15 NONAME
	_ZN10RScheduler16GetScheduleRefsLER13CArrayFixFlatI17TSchedulerItemRefE15TScheduleFilter @ 16 NONAME
	_ZN10RScheduler24CreatePersistentScheduleER17TSchedulerItemRefRK13CArrayFixFlatI18TScheduleEntryInfoE @ 17 NONAME
	_ZN10RScheduler7ConnectEv @ 18 NONAME
	_ZN10RScheduler8RegisterERK4TBufILi256EEi @ 19 NONAME
	_ZN10RSchedulerC1Ev @ 20 NONAME
	_ZN10RSchedulerC2Ev @ 21 NONAME
	_ZN14CScheduledTask5NewLCER11RReadStream @ 22 NONAME
	_ZNK14CScheduledTask12ScheduleTypeEv @ 23 NONAME
	_ZN10RScheduler24CreatePersistentScheduleER17TSchedulerItemRefRK13CArrayFixFlatI23TTaskSchedulerConditionERK5TTime @ 24 NONAME
	_ZN9TTaskInfo12InternalizeLER11RReadStream @ 25 NONAME
	_ZN9TTaskInfoC1EiR4TBufILi128EEii @ 26 NONAME
	_ZN9TTaskInfoC1Ev @ 27 NONAME
	_ZN9TTaskInfoC2EiR4TBufILi128EEii @ 28 NONAME
	_ZN9TTaskInfoC2Ev @ 29 NONAME
	_ZN9TTaskInfoaSERKS_ @ 30 NONAME
	_ZNK10RScheduler10DeleteTaskEi @ 31 NONAME
	_ZNK10RScheduler14DeleteScheduleEi @ 32 NONAME
	_ZNK10RScheduler14EnableScheduleEi @ 33 NONAME
	_ZNK10RScheduler15DisableScheduleEi @ 34 NONAME
	_ZNK10RScheduler7VersionEv @ 35 NONAME
	_ZNK14CScheduledTask10ValidUntilEv @ 36 NONAME
	_ZNK14CScheduledTask4DataEv @ 37 NONAME
	_ZNK14CScheduledTask4InfoEv @ 38 NONAME
	_ZNK9TTaskInfo12ExternalizeLER12RWriteStream @ 39 NONAME
	_ZN10RScheduler12EditScheduleEiRK13CArrayFixFlatI23TTaskSchedulerConditionERK5TTime @ 40 NONAME
	_ZN10RScheduler12GetScheduleLEiR14TScheduleStateR13CArrayFixFlatI23TTaskSchedulerConditionER5TTimeRS2_I9TTaskInfoE @ 41 NONAME
	_ZN10RScheduler12ScheduleTaskER9TTaskInfoR7HBufC16R17TSchedulerItemRefRK13CArrayFixFlatI23TTaskSchedulerConditionERK5TTime @ 42 NONAME
	_ZN10RScheduler16GetScheduleTypeLEiR13TScheduleType @ 43 NONAME
	_ZTI10CSchServer @ 44 NONAME ABSENT ; #<TI>#
	_ZTI11CSchSession @ 45 NONAME ABSENT ; #<TI>#
	_ZTI12CClientProxy @ 46 NONAME ABSENT ; #<TI>#
	_ZTI13CTaskExecutor @ 47 NONAME ABSENT ; #<TI>#
	_ZTI14CSchLogManager @ 48 NONAME ABSENT ; #<TI>#
	_ZTI14CScheduleTimer @ 49 NONAME ABSENT ; #<TI>#
	_ZTI14CScheduledTask @ 50 NONAME ; #<TI>#
	_ZTI14CTaskScheduler @ 51 NONAME ABSENT ; #<TI>#
	_ZTI16TKeyArrayMapping @ 52 NONAME ABSENT ; #<TI>#
	_ZTI17CConditionManager @ 53 NONAME ABSENT ; #<TI>#
	_ZTI17CPropertyNotifier @ 54 NONAME ABSENT ; #<TI>#
	_ZTI17CSchBackupManager @ 55 NONAME ABSENT ; #<TI>#
	_ZTI19TScheduleEntryDaily @ 56 NONAME ABSENT ; #<TI>#
	_ZTI20TScheduleEntryHourly @ 57 NONAME ABSENT ; #<TI>#
	_ZTI20TScheduleEntryYearly @ 58 NONAME ABSENT ; #<TI>#
	_ZTI21TScheduleEntryMonthly @ 59 NONAME ABSENT ; #<TI>#
	_ZTI24CScheduleCriteriaManager @ 60 NONAME ABSENT ; #<TI>#
	_ZTI9CSchedule @ 61 NONAME ABSENT ; #<TI>#
	_ZTIN15CSchClientIndex17CSchClientMappletE @ 62 NONAME ABSENT ; #<TI>#
	_ZTIN15CSchClientIndex20CSchClientDictionaryE @ 63 NONAME ABSENT ; #<TI>#
	_ZTIN17CSchScheduleIndex22CSchScheduleDictionaryE @ 64 NONAME ABSENT ; #<TI>#
	_ZTV10CSchServer @ 65 NONAME ABSENT ; #<VT>#
	_ZTV11CSchSession @ 66 NONAME ABSENT ; #<VT>#
	_ZTV12CClientProxy @ 67 NONAME ABSENT ; #<VT>#
	_ZTV13CTaskExecutor @ 68 NONAME ABSENT ; #<VT>#
	_ZTV14CSchLogManager @ 69 NONAME ABSENT ; #<VT>#
	_ZTV14CScheduleTimer @ 70 NONAME ABSENT ; #<VT>#
	_ZTV14CScheduledTask @ 71 NONAME ; #<VT>#
	_ZTV14CTaskScheduler @ 72 NONAME ABSENT ; #<VT>#
	_ZTV16TKeyArrayMapping @ 73 NONAME ABSENT ; #<VT>#
	_ZTV17CConditionManager @ 74 NONAME ABSENT ; #<VT>#
	_ZTV17CPropertyNotifier @ 75 NONAME ABSENT ; #<VT>#
	_ZTV17CSchBackupManager @ 76 NONAME ABSENT ; #<VT>#
	_ZTV19TScheduleEntryDaily @ 77 NONAME ABSENT ; #<VT>#
	_ZTV20TScheduleEntryHourly @ 78 NONAME ABSENT ; #<VT>#
	_ZTV20TScheduleEntryYearly @ 79 NONAME ABSENT ; #<VT>#
	_ZTV21TScheduleEntryMonthly @ 80 NONAME ABSENT ; #<VT>#
	_ZTV24CScheduleCriteriaManager @ 81 NONAME ABSENT ; #<VT>#
	_ZTV9CSchedule @ 82 NONAME ABSENT ; #<VT>#
	_ZTVN15CSchClientIndex17CSchClientMappletE @ 83 NONAME ABSENT ; #<VT>#
	_ZTVN15CSchClientIndex20CSchClientDictionaryE @ 84 NONAME ABSENT ; #<VT>#
	_ZTVN17CSchScheduleIndex22CSchScheduleDictionaryE @ 85 NONAME ABSENT ; #<VT>#
	_ZNK14CScheduledTask12SecurityInfoEv @ 86 NONAME
	_ZN18TScheduledTaskFile13FsHandleIndexEv @ 87 NONAME
	_ZN18TScheduledTaskFile15FileHandleIndexEv @ 88 NONAME
	_ZN7TTsTime10GetUtcTimeEv @ 89 NONAME
	_ZN7TTsTime10SetUtcTimeERK5TTime @ 90 NONAME
	_ZN7TTsTime12GetLocalTimeEv @ 91 NONAME
	_ZN7TTsTime12SetLocalTimeERK5TTime @ 92 NONAME
	_ZN7TTsTimeC1ERK5TTimei @ 93 NONAME
	_ZN7TTsTimeC1Ev @ 94 NONAME
	_ZN7TTsTimeC2ERK5TTimei @ 95 NONAME
	_ZN7TTsTimeC2Ev @ 96 NONAME
	_ZNK7TTsTime5IsUtcEv @ 97 NONAME
	_ZNK7TTsTime10GetUtcTimeEv @ 98 NONAME
	_ZNK7TTsTime12GetLocalTimeEv @ 99 NONAME
	_ZN10RScheduler12EditScheduleEiRK13CArrayFixFlatI19TScheduleEntryInfo2E @ 100 NONAME
	_ZN10RScheduler12EditScheduleEiRK13CArrayFixFlatI23TTaskSchedulerConditionERK7TTsTime @ 101 NONAME
	_ZN10RScheduler12GetScheduleLEiR15TScheduleState2R13CArrayFixFlatI19TScheduleEntryInfo2ERS2_I9TTaskInfoER7TTsTime @ 102 NONAME
	_ZN10RScheduler12GetScheduleLEiR15TScheduleState2R13CArrayFixFlatI23TTaskSchedulerConditionER7TTsTimeRS2_I9TTaskInfoE @ 103 NONAME
	_ZN10RScheduler12GetTaskInfoLEiR9TTaskInfoR6TPtr16R17TSchedulerItemRefR7TTsTime @ 104 NONAME
	_ZN10RScheduler12ScheduleTaskER9TTaskInfoR7HBufC16R17TSchedulerItemRefRK13CArrayFixFlatI19TScheduleEntryInfo2E @ 105 NONAME
	_ZN10RScheduler12ScheduleTaskER9TTaskInfoR7HBufC16R17TSchedulerItemRefRK13CArrayFixFlatI23TTaskSchedulerConditionERK7TTsTime @ 106 NONAME
	_ZN10RScheduler24CreatePersistentScheduleER17TSchedulerItemRefRK13CArrayFixFlatI19TScheduleEntryInfo2E @ 107 NONAME
	_ZN10RScheduler24CreatePersistentScheduleER17TSchedulerItemRefRK13CArrayFixFlatI23TTaskSchedulerConditionERK7TTsTime @ 108 NONAME
	_ZN15TScheduleState210SetDueTimeERK7TTsTime @ 109 NONAME
	_ZN15TScheduleState210SetEnabledEi @ 110 NONAME
	_ZN15TScheduleState211SetPersistsEi @ 111 NONAME
	_ZN15TScheduleState27SetNameERK4TBufILi128EE @ 112 NONAME
	_ZN15TScheduleState2C1ERK4TBufILi128EERK7TTsTimeii @ 113 NONAME
	_ZN15TScheduleState2C1ERKS_ @ 114 NONAME
	_ZN15TScheduleState2C1Ev @ 115 NONAME
	_ZN15TScheduleState2C2ERK4TBufILi128EERK7TTsTimeii @ 116 NONAME
	_ZN15TScheduleState2C2ERKS_ @ 117 NONAME
	_ZN15TScheduleState2C2Ev @ 118 NONAME
	_ZN15TScheduleState2aSERKS_ @ 119 NONAME
	_ZN19TScheduleEntryInfo211SetIntervalEi @ 120 NONAME
	_ZN19TScheduleEntryInfo212SetStartTimeERK7TTsTime @ 121 NONAME
	_ZN19TScheduleEntryInfo215SetIntervalTypeE13TIntervalType @ 122 NONAME
	_ZN19TScheduleEntryInfo217SetValidityPeriodE20TTimeIntervalMinutes @ 123 NONAME
	_ZN19TScheduleEntryInfo2C1ERK7TTsTime13TIntervalTypei20TTimeIntervalMinutes @ 124 NONAME
	_ZN19TScheduleEntryInfo2C1ERKS_ @ 125 NONAME
	_ZN19TScheduleEntryInfo2C1Ev @ 126 NONAME
	_ZN19TScheduleEntryInfo2C2ERK7TTsTime13TIntervalTypei20TTimeIntervalMinutes @ 127 NONAME
	_ZN19TScheduleEntryInfo2C2ERKS_ @ 128 NONAME
	_ZN19TScheduleEntryInfo2C2Ev @ 129 NONAME
	_ZNK15TScheduleState24NameEv @ 130 NONAME
	_ZNK15TScheduleState27DueTimeEv @ 131 NONAME
	_ZNK15TScheduleState27EnabledEv @ 132 NONAME
	_ZNK15TScheduleState28PersistsEv @ 133 NONAME
	_ZNK19TScheduleEntryInfo212IntervalTypeEv @ 134 NONAME
	_ZNK19TScheduleEntryInfo214ValidityPeriodEv @ 135 NONAME
	_ZNK19TScheduleEntryInfo28IntervalEv @ 136 NONAME
	_ZNK19TScheduleEntryInfo29StartTimeEv @ 137 NONAME
	_ZN7TTsTimeaSERKS_ @ 138 NONAME
	_ZN19TScheduleEntryInfo2aSERKS_ @ 139 NONAME
	_ZN7TTsTimeC1ERKS_ @ 140 NONAME
	_ZN7TTsTimeC2ERKS_ @ 141 NONAME

