EXPORTS
	_ZN12CCTTokenType4NewLE4TUid3RFs @ 1 NONAME
	_ZN12CCTTokenType4NewLERK16CCTTokenTypeInfo3RFs @ 2 NONAME
	_ZN16CCTTokenTypeInfo5ListLER14RCPointerArrayIS_E @ 3 NONAME
	_ZN16CCTTokenTypeInfo5ListLER14RCPointerArrayIS_ERK18MCTTokenTypeFilter @ 4 NONAME
	_ZN28TCTFindTokenTypesByInterfaceC1E6TArrayI4TUidE @ 5 NONAME
	_ZN28TCTFindTokenTypesByInterfaceC2E6TArrayI4TUidE @ 6 NONAME
	_ZN40TCTFindTokenTypesByInterfaceAndAttributeC1E6TArrayI4TUidES0_I21TCTTokenTypeAttributeE @ 7 NONAME
	_ZN40TCTFindTokenTypesByInterfaceAndAttributeC2E6TArrayI4TUidES0_I21TCTTokenTypeAttributeE @ 8 NONAME
	_ZNK16CCTTokenTypeInfo10AttributesEv @ 9 NONAME
	_ZNK16CCTTokenTypeInfo10InterfacesEv @ 10 NONAME
	_ZNK16CCTTokenTypeInfo4TypeEv @ 11 NONAME
	_ZNK16CCTTokenTypeInfo5LabelEv @ 12 NONAME
	_ZNK16TCTAllTokenTypes6AcceptERK16CCTTokenTypeInfo @ 13 NONAME
	_ZTI16TCTAllTokenTypes @ 14 NONAME ; #<TI>#
	_ZTI28TCTFindTokenTypesByInterface @ 15 NONAME ; #<TI>#
	_ZTI40TCTFindTokenTypesByInterfaceAndAttribute @ 16 NONAME ; #<TI>#
	_ZTV16TCTAllTokenTypes @ 17 NONAME ; #<VT>#
	_ZTV28TCTFindTokenTypesByInterface @ 18 NONAME ; #<VT>#
	_ZTV40TCTFindTokenTypesByInterfaceAndAttribute @ 19 NONAME ; #<VT>#
	_ZTI16CCTTokenTypeInfo @ 20 NONAME ; #<TI>#
	_ZTV16CCTTokenTypeInfo @ 21 NONAME ; #<VT>#

