EXPORTS
	_Z20KeyUsagePKCS15ToX50915TKeyUsagePKCS15 @ 1 NONAME
	_Z26KeyUsageX509ToPKCS15Public13TKeyUsageX509 @ 2 NONAME
	_Z27KeyUsageX509ToPKCS15Private13TKeyUsageX509 @ 3 NONAME
	_ZN10CCTKeyInfo4NewLE5TBuf8ILi20EE15TKeyUsagePKCS15jP23MCTAuthenticationObjectP7HBufC16R8MCTTokeniRK15TSecurityPolicySB_N12CKeyInfoBase13EKeyAlgorithmEii5TTimeSE_P6HBufC8 @ 4 NONAME
	_ZN10CCTKeyInfo4NewLER11RReadStreamR8MCTToken @ 5 NONAME
	_ZN11CCTCertInfo4NewLER11RReadStreamR8MCTToken @ 6 NONAME
	_ZN11CCTCertInfo4NewLERK7TDesC1618TCertificateFormat21TCertificateOwnerTypeiPK5TBuf8ILi20EES8_R8MCTTokeni @ 7 NONAME
	_ZN11CCTCertInfo4NewLERK7TDesC1618TCertificateFormat21TCertificateOwnerTypeiPK5TBuf8ILi20EES8_R8MCTTokeniiPK6TDesC8 @ 8 NONAME
	_ZN11CCTCertInfo4NewLERKS_ @ 9 NONAME
	_ZN11CCTCertInfo5NewLCER11RReadStreamR8MCTToken @ 10 NONAME
	_ZN11CCTCertInfo5NewLCERK7TDesC1618TCertificateFormat21TCertificateOwnerTypeiPK5TBuf8ILi20EES8_R8MCTTokeni @ 11 NONAME
	_ZN11CCTCertInfo5NewLCERK7TDesC1618TCertificateFormat21TCertificateOwnerTypeiPK5TBuf8ILi20EES8_R8MCTTokeniiPK6TDesC8 @ 12 NONAME
	_ZN11CCTCertInfo5NewLCERKS_ @ 13 NONAME
	_ZN11CCTCertInfoD0Ev @ 14 NONAME
	_ZN11CCTCertInfoD1Ev @ 15 NONAME
	_ZN11CCTCertInfoD2Ev @ 16 NONAME
	_ZN12CCTTokenType10ConstructLE4TUidRK7TDesC163RFs @ 17 NONAME
	_ZN12CCTTokenType17IncReferenceCountEv @ 18 NONAME
	_ZN12CCTTokenType7ReleaseEv @ 19 NONAME
	_ZN12CCTTokenTypeC2Ev @ 20 NONAME
	_ZN12CCTTokenTypeD0Ev @ 21 NONAME
	_ZN12CCTTokenTypeD1Ev @ 22 NONAME
	_ZN12CCTTokenTypeD2Ev @ 23 NONAME
	_ZN12CKeyInfoBase10ConstructLER11RReadStream @ 24 NONAME
	_ZN12CKeyInfoBase10ConstructLEv @ 25 NONAME
	_ZN12CKeyInfoBaseC1E5TBuf8ILi20EE15TKeyUsagePKCS15jP7HBufC16iRK15TSecurityPolicyS7_NS_13EKeyAlgorithmEii5TTimeS9_P6HBufC8 @ 26 NONAME
	_ZN12CKeyInfoBaseC1Ev @ 27 NONAME
	_ZN12CKeyInfoBaseC2E5TBuf8ILi20EE15TKeyUsagePKCS15jP7HBufC16iRK15TSecurityPolicyS7_NS_13EKeyAlgorithmEii5TTimeS9_P6HBufC8 @ 28 NONAME
	_ZN12CKeyInfoBaseC2Ev @ 29 NONAME
	_ZN12CKeyInfoBaseD0Ev @ 30 NONAME
	_ZN12CKeyInfoBaseD1Ev @ 31 NONAME
	_ZN12CKeyInfoBaseD2Ev @ 32 NONAME
	_ZN14MCTTokenObject11AddTokenRefEv @ 33 NONAME
	_ZN14MCTTokenObject7ReleaseEv @ 34 NONAME
	_ZN14MCTTokenObject9DoReleaseEv @ 35 NONAME
	_ZN14MCTTokenObjectC2ER8MCTToken @ 36 NONAME
	_ZN14TCTTokenHandleC1E4TUidi @ 37 NONAME
	_ZN14TCTTokenHandleC1ERKS_ @ 38 NONAME
	_ZN14TCTTokenHandleC1Ev @ 39 NONAME
	_ZN14TCTTokenHandleC2E4TUidi @ 40 NONAME
	_ZN14TCTTokenHandleC2ERKS_ @ 41 NONAME
	_ZN14TCTTokenHandleC2Ev @ 42 NONAME
	_ZN17MCTTokenInterface7ReleaseEv @ 43 NONAME
	_ZN17MCTTokenInterface9DoReleaseEv @ 44 NONAME
	_ZN19TCertificateAppInfo12InternalizeLER11RReadStream @ 45 NONAME
	_ZN19TCertificateAppInfoC1ERK4TUidRK4TBufILi128EE @ 46 NONAME
	_ZN19TCertificateAppInfoC1Ev @ 47 NONAME
	_ZN19TCertificateAppInfoC2ERK4TUidRK4TBufILi128EE @ 48 NONAME
	_ZN19TCertificateAppInfoC2Ev @ 49 NONAME
	_ZN19TCertificateAppInfoaSERKS_ @ 50 NONAME
	_ZN20CCertAttributeFilter11SetKeyUsageE13TKeyUsageX509 @ 51 NONAME
	_ZN20CCertAttributeFilter12SetOwnerTypeE21TCertificateOwnerType @ 52 NONAME
	_ZN20CCertAttributeFilter14SetIssuerKeyIdERK5TBuf8ILi20EE @ 53 NONAME
	_ZN20CCertAttributeFilter15SetSubjectKeyIdERK5TBuf8ILi20EE @ 54 NONAME
	_ZN20CCertAttributeFilter4NewLEv @ 55 NONAME
	_ZN20CCertAttributeFilter5NewLCEv @ 56 NONAME
	_ZN20CCertAttributeFilter6SetUidE4TUid @ 57 NONAME
	_ZN20CCertAttributeFilter8SetLabelERK4TBufILi64EE @ 58 NONAME
	_ZN20CCertAttributeFilter9SetFormatE18TCertificateFormat @ 59 NONAME
	_ZN20TCTTokenObjectHandleC1E14TCTTokenHandlei @ 60 NONAME
	_ZN20TCTTokenObjectHandleC1ERKS_ @ 61 NONAME
	_ZN20TCTTokenObjectHandleC1Ev @ 62 NONAME
	_ZN20TCTTokenObjectHandleC2E14TCTTokenHandlei @ 63 NONAME
	_ZN20TCTTokenObjectHandleC2ERKS_ @ 64 NONAME
	_ZN20TCTTokenObjectHandleC2Ev @ 65 NONAME
	_ZN21SecurityDialogFactory7CreateLEv @ 66 NONAME
	_ZN21TCTKeyAttributeFilterC1Ev @ 67 NONAME
	_ZN21TCTKeyAttributeFilterC2Ev @ 68 NONAME
	_ZN25CCTTokenTypeDeleteHandlerD0Ev @ 69 NONAME
	_ZN25CCTTokenTypeDeleteHandlerD1Ev @ 70 NONAME
	_ZN25CCTTokenTypeDeleteHandlerD2Ev @ 71 NONAME
	_ZN8CTLogger12UpdateIndentEi @ 72 NONAME
	_ZN8CTLogger3LogEPv11TRefByValueIK7TDesC16Ez @ 73 NONAME
	_ZN8MCTToken12CancelNotifyEv @ 74 NONAME
	_ZN8MCTToken12GetInterfaceE4TUidRP17MCTTokenInterfaceR14TRequestStatus @ 75 NONAME
	_ZN8MCTToken15NotifyOnRemovalER14TRequestStatus @ 76 NONAME
	_ZN8MCTToken18CancelGetInterfaceEv @ 77 NONAME
	_ZN8MCTToken7ReleaseEv @ 78 NONAME
	_ZN8MCTToken9DoReleaseEv @ 79 NONAME
	_ZN9MCertInfo12InternalizeLER11RReadStream @ 80 NONAME
	_ZN9MCertInfoC1ERK7TDesC1618TCertificateFormat21TCertificateOwnerTypeiPK5TBuf8ILi20EES8_ii @ 81 NONAME
	_ZN9MCertInfoC1ERKS_ @ 82 NONAME
	_ZN9MCertInfoC1Ev @ 83 NONAME
	_ZN9MCertInfoC2ERK7TDesC1618TCertificateFormat21TCertificateOwnerTypeiPK5TBuf8ILi20EES8_ii @ 84 NONAME
	_ZN9MCertInfoC2ERKS_ @ 85 NONAME
	_ZN9MCertInfoC2Ev @ 86 NONAME
	_ZN9MCertInfoD1Ev @ 87 NONAME
	_ZN9MCertInfoD2Ev @ 88 NONAME
	_ZNK11CCTCertInfo10IssuerHashEv @ 89 NONAME
	_ZNK11CCTCertInfo11IsDeletableEv @ 90 NONAME
	_ZNK11CCTCertInfo11IssuerKeyIdEv @ 91 NONAME
	_ZNK11CCTCertInfo12SubjectKeyIdEv @ 92 NONAME
	_ZNK11CCTCertInfo17CertificateFormatEv @ 93 NONAME
	_ZNK11CCTCertInfo20CertificateOwnerTypeEv @ 94 NONAME
	_ZNK11CCTCertInfo4SizeEv @ 95 NONAME
	_ZNK11CCTCertInfo6HandleEv @ 96 NONAME
	_ZNK11CCTCertInfoeqERKS_ @ 97 NONAME
	_ZNK12CCTTokenType4TypeEv @ 98 NONAME
	_ZNK12CCTTokenType5LabelEv @ 99 NONAME
	_ZNK12CKeyInfoBase12ExternalizeLER12RWriteStream @ 100 NONAME
	_ZNK14TCTTokenHandleeqERKS_ @ 101 NONAME
	_ZNK19TCertificateAppInfo12ExternalizeLER12RWriteStream @ 102 NONAME
	_ZNK19TCertificateAppInfo2IdEv @ 103 NONAME
	_ZNK19TCertificateAppInfo4NameEv @ 104 NONAME
	_ZNK20TCTTokenObjectHandleeqERKS_ @ 105 NONAME
	_ZNK9MCertInfo12ExternalizeLER12RWriteStream @ 106 NONAME
	_ZTI10CCTKeyInfo @ 107 NONAME ; #<TI>#
	_ZTI11CCTCertInfo @ 108 NONAME ; #<TI>#
	_ZTI12CCTTokenType @ 109 NONAME ; #<TI>#
	_ZTI12CKeyInfoBase @ 110 NONAME ; #<TI>#
	_ZTI14MCTTokenObject @ 111 NONAME ; #<TI>#
	_ZTI17MCTTokenInterface @ 112 NONAME ; #<TI>#
	_ZTI25CCTTokenTypeDeleteHandler @ 113 NONAME ; #<TI>#
	_ZTI8MCTToken @ 114 NONAME ; #<TI>#
	_ZTV10CCTKeyInfo @ 115 NONAME ; #<VT>#
	_ZTV11CCTCertInfo @ 116 NONAME ; #<VT>#
	_ZTV12CCTTokenType @ 117 NONAME ; #<VT>#
	_ZTV12CKeyInfoBase @ 118 NONAME ; #<VT>#
	_ZTV14MCTTokenObject @ 119 NONAME ; #<VT>#
	_ZTV17MCTTokenInterface @ 120 NONAME ; #<VT>#
	_ZTV25CCTTokenTypeDeleteHandler @ 121 NONAME ; #<VT>#
	_ZTV8MCTToken @ 122 NONAME ; #<VT>#
	_ZThn4_N11CCTCertInfoD0Ev @ 123 NONAME ; #<thunk>#
	_ZThn4_N11CCTCertInfoD1Ev @ 124 NONAME ; #<thunk>#
	_ZThn4_N12CCTTokenType7ReleaseEv @ 125 NONAME ; #<thunk>#
	_ZThn4_NK11CCTCertInfo6HandleEv @ 126 NONAME ; #<thunk>#
	_ZThn4_NK12CCTTokenType4TypeEv @ 127 NONAME ; #<thunk>#
	_ZThn4_NK12CCTTokenType5LabelEv @ 128 NONAME ; #<thunk>#
	_ZN9MCertInfo10ConstructLEPK6TDesC8 @ 129 NONAME
	_ZN20CCertAttributeFilter4NewLER11RReadStream @ 130 NONAME
	_ZNK20CCertAttributeFilter12ExternalizeLER12RWriteStream @ 131 NONAME
	_ZN11CCTCertInfo16SetCertificateIdEi @ 132 NONAME
	_ZN33CServerAuthenticationFailureInput13FailureReasonEv @ 133 NONAME
	_ZN33CServerAuthenticationFailureInput13GetServerNameER6TPtrC8 @ 134 NONAME
	_ZN33CServerAuthenticationFailureInput14GetEncodedCertER6TPtrC8 @ 135 NONAME
	_ZN33CServerAuthenticationFailureInput4NewLERK6TDesC8i @ 136 NONAME
	_ZN33CServerAuthenticationFailureInput5NewLCERK6TDesC8i @ 137 NONAME
	_ZNK33CServerAuthenticationFailureInput11PackBufferLEv @ 138 NONAME
	_ZTI33CServerAuthenticationFailureInput @ 139 NONAME ; #<TI>#
	_ZTV33CServerAuthenticationFailureInput @ 140 NONAME ; #<VT>#

