EXPORTS
	_ZN11CAuthority813SetComponentLERK6TDesC819TAuthorityComponent @ 1 NONAME
	_ZN11CAuthority816RemoveComponentLE19TAuthorityComponent @ 2 NONAME
	_ZN11CAuthority822SetAndEscapeComponentLERK6TDesC819TAuthorityComponent @ 3 NONAME
	_ZN11CAuthority84NewLERK12TAuthorityC8 @ 4 NONAME
	_ZN11CAuthority84NewLEv @ 5 NONAME
	_ZN11CAuthority85NewLCERK12TAuthorityC8 @ 6 NONAME
	_ZN11CAuthority85NewLCEv @ 7 NONAME
	_ZN11CAuthority8D0Ev @ 8 NONAME
	_ZN11CAuthority8D1Ev @ 9 NONAME
	_ZN11CAuthority8D2Ev @ 10 NONAME
	_ZN11EscapeUtils13EscapeDecodeLERK6TDesC8 @ 11 NONAME
	_ZN11EscapeUtils13EscapeDecodeLERK7TDesC16 @ 12 NONAME
	_ZN11EscapeUtils13EscapeEncodeLERK6TDesC8NS_11TEscapeModeE @ 13 NONAME
	_ZN11EscapeUtils13EscapeEncodeLERK6TDesC8S2_ @ 14 NONAME
	_ZN11EscapeUtils13EscapeEncodeLERK7TDesC16NS_11TEscapeModeE @ 15 NONAME
	_ZN11EscapeUtils13EscapeEncodeLERK7TDesC16S2_ @ 16 NONAME
	_ZN11EscapeUtils14IsEscapeTripleERK6TDesC8Ri @ 17 NONAME
	_ZN11EscapeUtils14IsEscapeTripleERK7TDesC16Ri @ 18 NONAME
	_ZN11EscapeUtils14IsExcludedCharE5TChar @ 19 NONAME
	_ZN11EscapeUtils25ConvertFromUnicodeToUtf8LERK7TDesC16 @ 20 NONAME
	_ZN11EscapeUtils25ConvertToUnicodeFromUtf8LERK6TDesC8 @ 21 NONAME
	_ZN11TUriParser85ParseERK6TDesC8 @ 22 NONAME
	_ZN11TUriParser8C1Ev @ 23 NONAME
	_ZN11TUriParser8C2Ev @ 24 NONAME
	_ZN12CAuthority1613SetComponentLERK7TDesC1619TAuthorityComponent @ 25 NONAME
	_ZN12CAuthority1616RemoveComponentLE19TAuthorityComponent @ 26 NONAME
	_ZN12CAuthority1622SetAndEscapeComponentLERK7TDesC1619TAuthorityComponent @ 27 NONAME
	_ZN12CAuthority164NewLERK13TAuthorityC16 @ 28 NONAME
	_ZN12CAuthority164NewLEv @ 29 NONAME
	_ZN12CAuthority165NewLCERK13TAuthorityC16 @ 30 NONAME
	_ZN12CAuthority165NewLCEv @ 31 NONAME
	_ZN12CAuthority16D0Ev @ 32 NONAME
	_ZN12CAuthority16D1Ev @ 33 NONAME
	_ZN12CAuthority16D2Ev @ 34 NONAME
	_ZN12TAuthorityC8C1Ev @ 35 NONAME
	_ZN12TAuthorityC8C2Ev @ 36 NONAME
	_ZN12TUriParser165ParseERK7TDesC16 @ 37 NONAME
	_ZN12TUriParser16C1Ev @ 38 NONAME
	_ZN12TUriParser16C2Ev @ 39 NONAME
	_ZN13TAuthorityC16C1Ev @ 40 NONAME
	_ZN13TAuthorityC16C2Ev @ 41 NONAME
	_ZN13TInternetDate17InternetDateTimeLENS_19TInternetDateFormatE @ 42 NONAME
	_ZN13TInternetDate8DateTimeEv @ 43 NONAME
	_ZN13TInternetDate8SetDateLERK6TDesC8 @ 44 NONAME
	_ZN15CDelimitedPath818PushAndEscapeBackLERK6TDesC8 @ 45 NONAME
	_ZN15CDelimitedPath819PushAndEscapeFrontLERK6TDesC8 @ 46 NONAME
	_ZN15CDelimitedPath823InsertAndEscapeCurrentLERK6TDesC8 @ 47 NONAME
	_ZN15CDelimitedPath84NewLERK6TDesC8 @ 48 NONAME
	_ZN15CDelimitedPath85NewLCERK6TDesC8 @ 49 NONAME
	_ZN15CDelimitedPath8D0Ev @ 50 NONAME
	_ZN15CDelimitedPath8D1Ev @ 51 NONAME
	_ZN15CDelimitedPath8D2Ev @ 52 NONAME
	_ZN16CDelimitedPath1618PushAndEscapeBackLERK7TDesC16 @ 53 NONAME
	_ZN16CDelimitedPath1619PushAndEscapeFrontLERK7TDesC16 @ 54 NONAME
	_ZN16CDelimitedPath1623InsertAndEscapeCurrentLERK7TDesC16 @ 55 NONAME
	_ZN16CDelimitedPath164NewLERK7TDesC16 @ 56 NONAME
	_ZN16CDelimitedPath165NewLCERK7TDesC16 @ 57 NONAME
	_ZN16CDelimitedPath16D0Ev @ 58 NONAME
	_ZN16CDelimitedPath16D1Ev @ 59 NONAME
	_ZN16CDelimitedPath16D2Ev @ 60 NONAME
	_ZN16CDelimitedQuery818PushAndEscapeBackLERK6TDesC8 @ 61 NONAME
	_ZN16CDelimitedQuery819PushAndEscapeFrontLERK6TDesC8 @ 62 NONAME
	_ZN16CDelimitedQuery823InsertAndEscapeCurrentLERK6TDesC8 @ 63 NONAME
	_ZN16CDelimitedQuery84NewLERK6TDesC8 @ 64 NONAME
	_ZN16CDelimitedQuery85NewLCERK6TDesC8 @ 65 NONAME
	_ZN16CDelimitedQuery8D0Ev @ 66 NONAME
	_ZN16CDelimitedQuery8D1Ev @ 67 NONAME
	_ZN16CDelimitedQuery8D2Ev @ 68 NONAME
	_ZN17CDelimitedQuery1618PushAndEscapeBackLERK7TDesC16 @ 69 NONAME
	_ZN17CDelimitedQuery1619PushAndEscapeFrontLERK7TDesC16 @ 70 NONAME
	_ZN17CDelimitedQuery1623InsertAndEscapeCurrentLERK7TDesC16 @ 71 NONAME
	_ZN17CDelimitedQuery164NewLERK7TDesC16 @ 72 NONAME
	_ZN17CDelimitedQuery165NewLCERK7TDesC16 @ 73 NONAME
	_ZN17CDelimitedQuery16D0Ev @ 74 NONAME
	_ZN17CDelimitedQuery16D1Ev @ 75 NONAME
	_ZN17CDelimitedQuery16D2Ev @ 76 NONAME
	_ZN17CWspHeaderEncoder10EndHeaderLEv @ 77 NONAME
	_ZN17CWspHeaderEncoder11AddIntegerLEj @ 78 NONAME
	_ZN17CWspHeaderEncoder11AddLongIntLEm @ 79 NONAME
	_ZN17CWspHeaderEncoder11AddUintVarLEj @ 80 NONAME
	_ZN17CWspHeaderEncoder12AddShortIntLEh @ 81 NONAME
	_ZN17CWspHeaderEncoder12StartHeaderLE8RStringF @ 82 NONAME
	_ZN17CWspHeaderEncoder12StartHeaderLERK6TDesC8 @ 83 NONAME
	_ZN17CWspHeaderEncoder12StartHeaderLEh @ 84 NONAME
	_ZN17CWspHeaderEncoder13AddTokenTextLERK6TDesC8 @ 85 NONAME
	_ZN17CWspHeaderEncoder14AddTextStringLERK6TDesC8 @ 86 NONAME
	_ZN17CWspHeaderEncoder14AddTextStringLERK7RString @ 87 NONAME
	_ZN17CWspHeaderEncoder15AddShortLengthLEh @ 88 NONAME
	_ZN17CWspHeaderEncoder15EndValueLengthLEv @ 89 NONAME
	_ZN17CWspHeaderEncoder17StartValueLengthLEv @ 90 NONAME
	_ZN17CWspHeaderEncoder4NewLEv @ 91 NONAME
	_ZN17CWspHeaderEncoder5NewLCEv @ 92 NONAME
	_ZN17CWspHeaderEncoder8AddDataLERK6TDesC8 @ 93 NONAME
	_ZN17CWspHeaderEncoder8AddDateLE9TDateTime @ 94 NONAME
	_ZN17CWspHeaderEncoder9AddTokenLEh @ 95 NONAME
	_ZN17CWspHeaderEncoderD0Ev @ 96 NONAME
	_ZN17CWspHeaderEncoderD1Ev @ 97 NONAME
	_ZN17CWspHeaderEncoderD2Ev @ 98 NONAME
	_ZN17InetProtTextUtils16RemoveWhiteSpaceER6TPtrC8NS_11TRemoveModeE @ 99 NONAME
	_ZN17InetProtTextUtils16RemoveWhiteSpaceER7TPtrC16NS_11TRemoveModeE @ 100 NONAME
	_ZN17InetProtTextUtils20ExtractQuotedStringLER6TPtrC8S1_ @ 101 NONAME
	_ZN17InetProtTextUtils20ExtractQuotedStringLER7TPtrC16S1_ @ 102 NONAME
	_ZN17InetProtTextUtils22ConvertDescriptorToHexERK6TDesC8Ri @ 103 NONAME
	_ZN17InetProtTextUtils22ConvertDescriptorToHexERK7TDesC16Ri @ 104 NONAME
	_ZN17InetProtTextUtils22ConvertDescriptorToIntERK6TDesC8Ri @ 105 NONAME
	_ZN17InetProtTextUtils22ConvertDescriptorToIntERK7TDesC16Ri @ 106 NONAME
	_ZN17InetProtTextUtils23ConvertHexToDescriptorLEiRP6HBufC8 @ 107 NONAME
	_ZN17InetProtTextUtils23ConvertHexToDescriptorLEiRP7HBufC16 @ 108 NONAME
	_ZN17InetProtTextUtils23ConvertIntToDescriptorLEiRP6HBufC8 @ 109 NONAME
	_ZN17InetProtTextUtils23ConvertIntToDescriptorLEiRP7HBufC16 @ 110 NONAME
	_ZN17InetProtTextUtils24ExtractNextTokenFromListER6TPtrC8S1_5TChar @ 111 NONAME
	_ZN17InetProtTextUtils24ExtractNextTokenFromListER6TPtrC8S1_RK6TDesC8 @ 112 NONAME
	_ZN17InetProtTextUtils24ExtractNextTokenFromListER7TPtrC16S1_5TChar @ 113 NONAME
	_ZN17InetProtTextUtils24ExtractNextTokenFromListER7TPtrC16S1_RK7TDesC16 @ 114 NONAME
	_ZN17TAuthorityParser85ParseERK6TDesC8 @ 115 NONAME
	_ZN17TAuthorityParser8C1Ev @ 116 NONAME
	_ZN17TAuthorityParser8C2Ev @ 117 NONAME
	_ZN18TAuthorityParser165ParseERK7TDesC16 @ 118 NONAME
	_ZN18TAuthorityParser16C1Ev @ 119 NONAME
	_ZN18TAuthorityParser16C2Ev @ 120 NONAME
	_ZN19CDelimitedDataBase810PushFrontLERK6TDesC8 @ 121 NONAME
	_ZN19CDelimitedDataBase812ParseReverseEv @ 122 NONAME
	_ZN19CDelimitedDataBase812SetDelimiterE5TChar @ 123 NONAME
	_ZN19CDelimitedDataBase814InsertCurrentLERK6TDesC8 @ 124 NONAME
	_ZN19CDelimitedDataBase814RemoveCurrentLEv @ 125 NONAME
	_ZN19CDelimitedDataBase817AddBackDelimiterLEv @ 126 NONAME
	_ZN19CDelimitedDataBase818AddFrontDelimiterLEv @ 127 NONAME
	_ZN19CDelimitedDataBase818TrimBackDelimiterLEv @ 128 NONAME
	_ZN19CDelimitedDataBase819TrimFrontDelimiterLEv @ 129 NONAME
	_ZN19CDelimitedDataBase85ParseEv @ 130 NONAME
	_ZN19CDelimitedDataBase88PopBackLEv @ 131 NONAME
	_ZN19CDelimitedDataBase89PopFrontLEv @ 132 NONAME
	_ZN19CDelimitedDataBase89PushBackLERK6TDesC8 @ 133 NONAME
	_ZN19CDelimitedDataBase8D0Ev @ 134 NONAME
	_ZN19CDelimitedDataBase8D1Ev @ 135 NONAME
	_ZN19CDelimitedDataBase8D2Ev @ 136 NONAME
	_ZN19TWspHeaderSegmenter5NextLER9TWspField @ 137 NONAME
	_ZN20CDelimitedDataBase1610PushFrontLERK7TDesC16 @ 138 NONAME
	_ZN20CDelimitedDataBase1612ParseReverseEv @ 139 NONAME
	_ZN20CDelimitedDataBase1612SetDelimiterE5TChar @ 140 NONAME
	_ZN20CDelimitedDataBase1614InsertCurrentLERK7TDesC16 @ 141 NONAME
	_ZN20CDelimitedDataBase1614RemoveCurrentLEv @ 142 NONAME
	_ZN20CDelimitedDataBase1617AddBackDelimiterLEv @ 143 NONAME
	_ZN20CDelimitedDataBase1618AddFrontDelimiterLEv @ 144 NONAME
	_ZN20CDelimitedDataBase1618TrimBackDelimiterLEv @ 145 NONAME
	_ZN20CDelimitedDataBase1619TrimFrontDelimiterLEv @ 146 NONAME
	_ZN20CDelimitedDataBase165ParseEv @ 147 NONAME
	_ZN20CDelimitedDataBase168PopBackLEv @ 148 NONAME
	_ZN20CDelimitedDataBase169PopFrontLEv @ 149 NONAME
	_ZN20CDelimitedDataBase169PushBackLERK7TDesC16 @ 150 NONAME
	_ZN20CDelimitedDataBase16D0Ev @ 151 NONAME
	_ZN20CDelimitedDataBase16D1Ev @ 152 NONAME
	_ZN20CDelimitedDataBase16D2Ev @ 153 NONAME
	_ZN20TWspPrimitiveDecoder4DateER9TDateTime @ 154 NONAME
	_ZN20TWspPrimitiveDecoder6StringER6TPtrC8 @ 155 NONAME
	_ZN20TWspPrimitiveDecoder7IntegerERm @ 156 NONAME
	_ZN20TWspPrimitiveDecoder7LongIntERm @ 157 NONAME
	_ZN20TWspPrimitiveDecoder7UintVarERm @ 158 NONAME
	_ZN20TWspPrimitiveDecoder7Val7BitERh @ 159 NONAME
	_ZN20TWspPrimitiveDecoder8VersionLE11RStringPoolR8RStringF @ 160 NONAME
	_ZN20TWspPrimitiveDecoder9LengthValERi @ 161 NONAME
	_ZN20TWspPrimitiveEncoder11TextStringLE7RString @ 162 NONAME
	_ZN20TWspPrimitiveEncoder11TextStringLERK6TDesC8 @ 163 NONAME
	_ZN20TWspPrimitiveEncoder5DateLE9TDateTime @ 164 NONAME
	_ZN20TWspPrimitiveEncoder8LongIntLEm @ 165 NONAME
	_ZN20TWspPrimitiveEncoder8ShortIntEh @ 166 NONAME
	_ZN20TWspPrimitiveEncoder8UintVarLEm @ 167 NONAME
	_ZN21TDelimitedParserBase812ParseReverseERK6TDesC8 @ 168 NONAME
	_ZN21TDelimitedParserBase812SetDelimiterE5TChar @ 169 NONAME
	_ZN21TDelimitedParserBase85ParseERK6TDesC8 @ 170 NONAME
	_ZN21TDelimitedParserBase8C1Ev @ 171 NONAME
	_ZN21TDelimitedParserBase8C2Ev @ 172 NONAME
	_ZN21TDelimitedPathParser812ParseReverseERK6TDesC8 @ 173 NONAME
	_ZN21TDelimitedPathParser85ParseERK6TDesC8 @ 174 NONAME
	_ZN21TDelimitedPathParser8C1Ev @ 175 NONAME
	_ZN21TDelimitedPathParser8C2Ev @ 176 NONAME
	_ZN22CDelimitedPathSegment818PushAndEscapeBackLERK6TDesC8 @ 177 NONAME
	_ZN22CDelimitedPathSegment819PushAndEscapeFrontLERK6TDesC8 @ 178 NONAME
	_ZN22CDelimitedPathSegment823InsertAndEscapeCurrentLERK6TDesC8 @ 179 NONAME
	_ZN22CDelimitedPathSegment84NewLERK6TDesC8 @ 180 NONAME
	_ZN22CDelimitedPathSegment85NewLCERK6TDesC8 @ 181 NONAME
	_ZN22CDelimitedPathSegment8D0Ev @ 182 NONAME
	_ZN22CDelimitedPathSegment8D1Ev @ 183 NONAME
	_ZN22CDelimitedPathSegment8D2Ev @ 184 NONAME
	_ZN22TDelimitedParserBase1612ParseReverseERK7TDesC16 @ 185 NONAME
	_ZN22TDelimitedParserBase1612SetDelimiterE5TChar @ 186 NONAME
	_ZN22TDelimitedParserBase165ParseERK7TDesC16 @ 187 NONAME
	_ZN22TDelimitedParserBase16C1Ev @ 188 NONAME
	_ZN22TDelimitedParserBase16C2Ev @ 189 NONAME
	_ZN22TDelimitedPathParser1612ParseReverseERK7TDesC16 @ 190 NONAME
	_ZN22TDelimitedPathParser165ParseERK7TDesC16 @ 191 NONAME
	_ZN22TDelimitedPathParser16C1Ev @ 192 NONAME
	_ZN22TDelimitedPathParser16C2Ev @ 193 NONAME
	_ZN22TDelimitedQueryParser812ParseReverseERK6TDesC8 @ 194 NONAME
	_ZN22TDelimitedQueryParser85ParseERK6TDesC8 @ 195 NONAME
	_ZN22TDelimitedQueryParser8C1Ev @ 196 NONAME
	_ZN22TDelimitedQueryParser8C2Ev @ 197 NONAME
	_ZN23CDelimitedPathSegment1618PushAndEscapeBackLERK7TDesC16 @ 198 NONAME
	_ZN23CDelimitedPathSegment1619PushAndEscapeFrontLERK7TDesC16 @ 199 NONAME
	_ZN23CDelimitedPathSegment1623InsertAndEscapeCurrentLERK7TDesC16 @ 200 NONAME
	_ZN23CDelimitedPathSegment164NewLERK7TDesC16 @ 201 NONAME
	_ZN23CDelimitedPathSegment165NewLCERK7TDesC16 @ 202 NONAME
	_ZN23CDelimitedPathSegment16D0Ev @ 203 NONAME
	_ZN23CDelimitedPathSegment16D1Ev @ 204 NONAME
	_ZN23CDelimitedPathSegment16D2Ev @ 205 NONAME
	_ZN23TDelimitedQueryParser1612ParseReverseERK7TDesC16 @ 206 NONAME
	_ZN23TDelimitedQueryParser165ParseERK7TDesC16 @ 207 NONAME
	_ZN23TDelimitedQueryParser16C1Ev @ 208 NONAME
	_ZN23TDelimitedQueryParser16C2Ev @ 209 NONAME
	_ZN28TDelimitedPathSegmentParser812ParseReverseERK6TDesC8 @ 210 NONAME
	_ZN28TDelimitedPathSegmentParser85ParseERK6TDesC8 @ 211 NONAME
	_ZN28TDelimitedPathSegmentParser8C1Ev @ 212 NONAME
	_ZN28TDelimitedPathSegmentParser8C2Ev @ 213 NONAME
	_ZN29TDelimitedPathSegmentParser1612ParseReverseERK7TDesC16 @ 214 NONAME
	_ZN29TDelimitedPathSegmentParser165ParseERK7TDesC16 @ 215 NONAME
	_ZN29TDelimitedPathSegmentParser16C1Ev @ 216 NONAME
	_ZN29TDelimitedPathSegmentParser16C2Ev @ 217 NONAME
	_ZN5CUri813SetComponentLERK6TDesC813TUriComponent @ 218 NONAME
	_ZN5CUri816RemoveComponentLE13TUriComponent @ 219 NONAME
	_ZN5CUri84NewLERK6TUriC8 @ 220 NONAME
	_ZN5CUri84NewLEv @ 221 NONAME
	_ZN5CUri85NewLCERK6TUriC8 @ 222 NONAME
	_ZN5CUri85NewLCEv @ 223 NONAME
	_ZN5CUri88ResolveLERK6TUriC8S2_ @ 224 NONAME
	_ZN5CUri8D0Ev @ 225 NONAME
	_ZN5CUri8D1Ev @ 226 NONAME
	_ZN5CUri8D2Ev @ 227 NONAME
	_ZN6CUri1613SetComponentLERK7TDesC1613TUriComponent @ 228 NONAME
	_ZN6CUri1616RemoveComponentLE13TUriComponent @ 229 NONAME
	_ZN6CUri164NewLERK7TUriC16 @ 230 NONAME
	_ZN6CUri164NewLEv @ 231 NONAME
	_ZN6CUri165NewLCERK7TUriC16 @ 232 NONAME
	_ZN6CUri165NewLCEv @ 233 NONAME
	_ZN6CUri168ResolveLERK7TUriC16S2_ @ 234 NONAME
	_ZN6CUri16D0Ev @ 235 NONAME
	_ZN6CUri16D1Ev @ 236 NONAME
	_ZN6CUri16D2Ev @ 237 NONAME
	_ZN6TUriC8C1Ev @ 238 NONAME
	_ZN6TUriC8C2Ev @ 239 NONAME
	_ZN7TUriC16C1Ev @ 240 NONAME
	_ZN7TUriC16C2Ev @ 241 NONAME
	_ZN8UriUtils15HasInvalidCharsERK6TDesC8 @ 242 NONAME
	_ZN8UriUtils15HasInvalidCharsERK7TDesC16 @ 243 NONAME
	_ZN8UriUtils21ConvertToDisplayFormLERK6TUriC8 @ 244 NONAME
	_ZN8UriUtils22ConvertToInternetFormLERK7TUriC16 @ 245 NONAME
	_ZN8UriUtils8HostTypeERK6TDesC8 @ 246 NONAME
	_ZN8UriUtils8HostTypeERK7TDesC16 @ 247 NONAME
	_ZNK11CAuthority89AuthorityEv @ 248 NONAME
	_ZNK12CAuthority169AuthorityEv @ 249 NONAME
	_ZNK12TAuthorityC812AuthorityDesEv @ 250 NONAME
	_ZNK12TAuthorityC87CompareERKS_19TAuthorityComponent @ 251 NONAME
	_ZNK12TAuthorityC87ExtractE19TAuthorityComponent @ 252 NONAME
	_ZNK12TAuthorityC89IsPresentE19TAuthorityComponent @ 253 NONAME
	_ZNK13TAuthorityC1612AuthorityDesEv @ 254 NONAME
	_ZNK13TAuthorityC167CompareERKS_19TAuthorityComponent @ 255 NONAME
	_ZNK13TAuthorityC167ExtractE19TAuthorityComponent @ 256 NONAME
	_ZNK13TAuthorityC169IsPresentE19TAuthorityComponent @ 257 NONAME
	_ZNK19CDelimitedDataBase86ParserEv @ 258 NONAME
	_ZNK20CDelimitedDataBase166ParserEv @ 259 NONAME
	_ZNK20TWspPrimitiveDecoder7VarTypeEv @ 260 NONAME
	_ZNK21TDelimitedParserBase813BackDelimiterEv @ 261 NONAME
	_ZNK21TDelimitedParserBase814FrontDelimiterEv @ 262 NONAME
	_ZNK21TDelimitedParserBase83DecEv @ 263 NONAME
	_ZNK21TDelimitedParserBase83DesEv @ 264 NONAME
	_ZNK21TDelimitedParserBase83EosEv @ 265 NONAME
	_ZNK21TDelimitedParserBase83IncEv @ 266 NONAME
	_ZNK21TDelimitedParserBase84PeekER6TPtrC8 @ 267 NONAME
	_ZNK21TDelimitedParserBase87GetNextER6TPtrC8 @ 268 NONAME
	_ZNK21TDelimitedParserBase89RemainderER6TPtrC8 @ 269 NONAME
	_ZNK22TDelimitedParserBase1613BackDelimiterEv @ 270 NONAME
	_ZNK22TDelimitedParserBase1614FrontDelimiterEv @ 271 NONAME
	_ZNK22TDelimitedParserBase163DecEv @ 272 NONAME
	_ZNK22TDelimitedParserBase163DesEv @ 273 NONAME
	_ZNK22TDelimitedParserBase163EosEv @ 274 NONAME
	_ZNK22TDelimitedParserBase163IncEv @ 275 NONAME
	_ZNK22TDelimitedParserBase164PeekER7TPtrC16 @ 276 NONAME
	_ZNK22TDelimitedParserBase167GetNextER7TPtrC16 @ 277 NONAME
	_ZNK22TDelimitedParserBase169RemainderER7TPtrC16 @ 278 NONAME
	_ZNK5CUri83UriEv @ 279 NONAME
	_ZNK6CUri163UriEv @ 280 NONAME
	_ZNK6TUriC813IsSchemeValidEv @ 281 NONAME
	_ZNK6TUriC818UriWithoutFragmentER6TPtrC8 @ 282 NONAME
	_ZNK6TUriC86UriDesEv @ 283 NONAME
	_ZNK6TUriC87CompareERKS_13TUriComponent @ 284 NONAME
	_ZNK6TUriC87ExtractE13TUriComponent @ 285 NONAME
	_ZNK6TUriC89IsPresentE13TUriComponent @ 286 NONAME
	_ZNK7TUriC1613IsSchemeValidEv @ 287 NONAME
	_ZNK7TUriC1618UriWithoutFragmentER7TPtrC16 @ 288 NONAME
	_ZNK7TUriC166UriDesEv @ 289 NONAME
	_ZNK7TUriC167CompareERKS_13TUriComponent @ 290 NONAME
	_ZNK7TUriC167ExtractE13TUriComponent @ 291 NONAME
	_ZNK7TUriC169IsPresentE13TUriComponent @ 292 NONAME
	_ZTI17CWspHeaderEncoder @ 293 NONAME ; #<TI>#
	_ZTI19CDelimitedDataBase8 @ 294 NONAME ; #<TI>#
	_ZTI20CDelimitedDataBase16 @ 295 NONAME ; #<TI>#
	_ZTV17CWspHeaderEncoder @ 296 NONAME ; #<VT>#
	_ZTV19CDelimitedDataBase8 @ 297 NONAME ; #<VT>#
	_ZTV20CDelimitedDataBase16 @ 298 NONAME ; #<VT>#
	_ZTI11CAuthority8 @ 299 NONAME ; #<TI>#
	_ZTI12CAuthority16 @ 300 NONAME ; #<TI>#
	_ZTI15CDelimitedPath8 @ 301 NONAME ; #<TI>#
	_ZTI16CDelimitedPath16 @ 302 NONAME ; #<TI>#
	_ZTI16CDelimitedQuery8 @ 303 NONAME ; #<TI>#
	_ZTI17CDelimitedQuery16 @ 304 NONAME ; #<TI>#
	_ZTI22CDelimitedPathSegment8 @ 305 NONAME ; #<TI>#
	_ZTI23CDelimitedPathSegment16 @ 306 NONAME ; #<TI>#
	_ZTI5CUri8 @ 307 NONAME ; #<TI>#
	_ZTI6CUri16 @ 308 NONAME ; #<TI>#
	_ZTV11CAuthority8 @ 309 NONAME ; #<VT>#
	_ZTV12CAuthority16 @ 310 NONAME ; #<VT>#
	_ZTV15CDelimitedPath8 @ 311 NONAME ; #<VT>#
	_ZTV16CDelimitedPath16 @ 312 NONAME ; #<VT>#
	_ZTV16CDelimitedQuery8 @ 313 NONAME ; #<VT>#
	_ZTV17CDelimitedQuery16 @ 314 NONAME ; #<VT>#
	_ZTV22CDelimitedPathSegment8 @ 315 NONAME ; #<VT>#
	_ZTV23CDelimitedPathSegment16 @ 316 NONAME ; #<VT>#
	_ZTV5CUri8 @ 317 NONAME ; #<VT>#
	_ZTV6CUri16 @ 318 NONAME ; #<VT>#
	_ZNK21TDelimitedParserBase85ResetEv @ 319 NONAME
	_ZNK22TDelimitedParserBase165ResetEv @ 320 NONAME
	_ZNK6TUriC810EquivalentERKS_ @ 321 NONAME
	_ZNK6TUriC88ValidateEv @ 322 NONAME
	_ZNK7TUriC1610EquivalentERKS_ @ 323 NONAME
	_ZNK7TUriC168ValidateEv @ 324 NONAME
	_ZTI13TValidatorSip @ 325 NONAME ; #<TI>#
	_ZTI6TEquiv @ 326 NONAME ; #<TI>#
	_ZTI9TEquivSip @ 327 NONAME ; #<TI>#
	_ZTV13TValidatorSip @ 328 NONAME ; #<VT>#
	_ZTV6TEquiv @ 329 NONAME ; #<VT>#
	_ZTV9TEquivSip @ 330 NONAME ; #<VT>#
	_ZN5CUri814CreateFileUriLERK7TDesC16j @ 331 NONAME
	_ZN5CUri821CreatePrivateFileUriLERK7TDesC1612TDriveNumberi @ 332 NONAME
	_ZN6CUri1614CreateFileUriLERK7TDesC16j @ 333 NONAME
	_ZN6CUri1621CreatePrivateFileUriLERK7TDesC1612TDriveNumberi @ 334 NONAME
	_ZNK6TUriC812GetFileNameLEv @ 335 NONAME
	_ZNK7TUriC1612GetFileNameLEv @ 336 NONAME
	_ZN15CAuthentication12SetPasswordLERK6TDesC8 @ 337 NONAME
	_ZN15CAuthentication4NewLERK6TDesC8S2_NS_7TMethodE @ 338 NONAME
	_ZN15CAuthentication4NewLERK6TUriC8NS_7TMethodE @ 339 NONAME
	_ZN15CAuthentication8SetNameLERK6TDesC8 @ 340 NONAME
	_ZN15CAuthentication9SetMethodENS_7TMethodE @ 341 NONAME
	_ZN15CAuthenticationD0Ev @ 342 NONAME
	_ZN15CAuthenticationD1Ev @ 343 NONAME
	_ZN15CAuthenticationD2Ev @ 344 NONAME
	_ZNK15CAuthentication4NameEv @ 345 NONAME
	_ZNK15CAuthentication6MethodEv @ 346 NONAME
	_ZNK15CAuthentication8PasswordEv @ 347 NONAME
	_ZTI15CAuthentication @ 348 NONAME ; #<TI>#
	_ZTV15CAuthentication @ 349 NONAME ; #<VT>#
	_ZN19CDelimitedDataBase810ConstructLERK6TDesC8 @ 350 NONAME
	_ZN19CDelimitedDataBase8C1Ev @ 351 NONAME
	_ZN19CDelimitedDataBase8C2Ev @ 352 NONAME
	_ZN20CDelimitedDataBase1610ConstructLERK7TDesC16 @ 353 NONAME
	_ZN20CDelimitedDataBase16C1Ev @ 354 NONAME
	_ZN20CDelimitedDataBase16C2Ev @ 355 NONAME
	_ZNK6TUriC812GetFileNameLE12TUriFileName @ 356 NONAME
	_ZNK7TUriC1612GetFileNameLE12TUriFileName @ 357 NONAME
	_ZNK12TAuthorityC812DisplayFormLE19TAuthorityComponent @ 358 NONAME
	_ZNK13TAuthorityC1612DisplayFormLE19TAuthorityComponent @ 359 NONAME
	_ZN8UriUtils10CreateUriLERK7TDesC16 @ 360 NONAME
	_ZN8UriUtils16CreateAuthorityLERK7TDesC16 @ 361 NONAME
	_ZNK6TUriC812DisplayFormLE13TUriComponent @ 362 NONAME
	_ZNK7TUriC1612DisplayFormLE13TUriComponent @ 363 NONAME
	_ZN17InetProtTextUtils20ExtractIntegerValueLER6TPtrC8Rii @ 364 NONAME
	_ZN17InetProtTextUtils20ExtractIntegerValueLER7TPtrC16Rii @ 365 NONAME ABSENT
	_ZN11EscapeUtils21SpecificEscapeEncodeLERK6TDesC8S2_ @ 366 NONAME
	_ZN7TBase646EncodeERK6TDesC8R5TDes8 @ 367 NONAME
	_ZN7TBase64C1Ev @ 368 NONAME
	_ZN7TBase64C2Ev @ 369 NONAME
	_ZN11EscapeUtils39DummyForwardingFunctionForCompatibilityERK6TDesC8S2_ @ 370 NONAME
	_ZTI13TValidatorTel @ 371 NONAME
	_ZTV13TValidatorTel @ 372 NONAME
	_ZTI13CSIPUriParser @ 373 NONAME
	_ZTI17CGenericUriParser @ 374 NONAME
	_ZTV13CSIPUriParser @ 375 NONAME
	_ZTV17CGenericUriParser @ 376 NONAME
	_ZN7TBase646DecodeERK6TDesC8R5TDes8 @ 377 NONAME
	_ZN8UriUtils13NormaliseUriLERK6TUriC8 @ 378 NONAME
	_ZN7TBase6414PortableEncodeERK6TDesC8R5TDes8i @ 379 NONAME

