Certificate:
    Data:
        Version: 1 (0x0)
        Serial Number: 1 (0x1)
        Signature Algorithm: sha1WithRSAEncryption
        Issuer: O=Symbian Software Ltd, CN=OCSPSigningRoot-RSA
        Validity
            Not Before: Mar  2 13:55:05 2004 GMT
            Not After : Feb 28 13:55:05 2014 GMT
        Subject: O=Symbian Software Ltd, CN=Signer-OCSPR
        Subject Public Key Info:
            Public Key Algorithm: rsaEncryption
            RSA Public Key: (1024 bit)
                Modulus (1024 bit):
                    00:dc:14:d3:36:b2:2a:94:35:e4:04:3e:c3:e8:5b:
                    ee:93:85:c7:2d:ba:fb:6c:27:eb:01:3c:af:f3:c9:
                    e4:9d:1b:ad:0e:c1:3b:f8:7d:ed:f4:c9:e0:d3:15:
                    e8:d8:76:2f:a4:50:8a:a5:5f:2a:74:bb:38:b8:fd:
                    49:ac:7f:60:2b:d8:0d:c9:93:5f:4f:18:20:5d:54:
                    9e:16:b3:8d:80:6e:38:d9:d0:fb:34:9a:1d:a0:4d:
                    03:6e:29:cb:02:f9:b6:79:17:7e:98:d3:c7:c8:29:
                    af:22:24:fa:06:7c:d6:f0:0c:e1:4d:c8:c9:79:91:
                    4b:2d:2d:5a:63:36:0e:d4:0b
                Exponent: 65537 (0x10001)
    Signature Algorithm: sha1WithRSAEncryption
        0e:d3:58:f1:bb:c9:7c:13:37:37:42:a0:11:56:f6:d3:92:c2:
        a6:54:1c:d8:32:cf:01:f9:65:25:4b:ef:65:75:4e:f6:19:bd:
        ec:32:4f:8f:92:5e:ff:75:cc:d8:74:c1:50:52:f2:d6:b3:a7:
        cc:2b:41:3f:59:4a:ff:2d:34:d6:69:69:61:79:f5:4b:d1:d1:
        95:bd:10:fc:e4:94:8f:9d:ba:50:53:39:9a:bd:15:4b:6b:53:
        3a:ae:d4:14:4b:41:7c:8d:61:d0:77:ba:38:00:5b:18:5e:9f:
        c7:4e:e0:a2:e5:1e:03:57:16:8f:5b:e3:d6:db:56:08:6f:06:
        1e:8f
-----BEGIN CERTIFICATE-----
MIIB4jCCAUsCAQEwDQYJKoZIhvcNAQEFBQAwPTEdMBsGA1UEChMUU3ltYmlhbiBT
b2Z0d2FyZSBMdGQxHDAaBgNVBAMTE09DU1BTaWduaW5nUm9vdC1SU0EwHhcNMDQw
MzAyMTM1NTA1WhcNMTQwMjI4MTM1NTA1WjA2MR0wGwYDVQQKExRTeW1iaWFuIFNv
ZnR3YXJlIEx0ZDEVMBMGA1UEAxMMU2lnbmVyLU9DU1BSMIGfMA0GCSqGSIb3DQEB
AQUAA4GNADCBiQKBgQDcFNM2siqUNeQEPsPoW+6ThcctuvtsJ+sBPK/zyeSdG60O
wTv4fe30yeDTFejYdi+kUIqlXyp0uzi4/Umsf2Ar2A3Jk19PGCBdVJ4Ws42AbjjZ
0Ps0mh2gTQNuKcsC+bZ5F36Y08fIKa8iJPoGfNbwDOFNyMl5kUstLVpjNg7UCwID
AQABMA0GCSqGSIb3DQEBBQUAA4GBAA7TWPG7yXwTNzdCoBFW9tOSwqZUHNgyzwH5
ZSVL72V1TvYZvewyT4+SXv91zNh0wVBS8tazp8wrQT9ZSv8tNNZpaWF59UvR0ZW9
EPzklI+dulBTOZq9FUtrUzqu1BRLQXyNYdB3ujgAWxhen8dO4KLlHgNXFo9b49bb
VghvBh6P
-----END CERTIFICATE-----
