EXPORTS
	??0?$codecvt_byname@DDU_mb_state_t@@@std@@QAE@PBDI@Z @ 1 NONAME ; std::codecvt_byname<char, char, struct _mb_state_t>::codecvt_byname<char, char, struct _mb_state_t>(char const *, unsigned int)
	??0?$codecvt_byname@_WDU_mb_state_t@@@std@@QAE@PBDIPAU_Locale_name_hint@@@Z @ 2 NONAME ; std::codecvt_byname<wchar_t, char, struct _mb_state_t>::codecvt_byname<wchar_t, char, struct _mb_state_t>(char const *, unsigned int, struct _Locale_name_hint *)
	??0?$collate_byname@D@std@@QAE@PBDIPAU_Locale_name_hint@@@Z @ 3 NONAME ; std::collate_byname<char>::collate_byname<char>(char const *, unsigned int, struct _Locale_name_hint *)
	??0?$collate_byname@_W@std@@QAE@PBDIPAU_Locale_name_hint@@@Z @ 4 NONAME ; std::collate_byname<wchar_t>::collate_byname<wchar_t>(char const *, unsigned int, struct _Locale_name_hint *)
	??0?$ctype@D@std@@QAE@PBW4mask@ctype_base@1@_NI@Z @ 5 NONAME ; std::ctype<char>::ctype<char>(enum std::ctype_base::mask const *, bool, unsigned int)
	??0?$ctype@_W@std@@QAE@I@Z @ 6 NONAME ; std::ctype<wchar_t>::ctype<wchar_t>(unsigned int)
	??0?$ctype_byname@D@std@@QAE@PBDIPAU_Locale_name_hint@@@Z @ 7 NONAME ; std::ctype_byname<char>::ctype_byname<char>(char const *, unsigned int, struct _Locale_name_hint *)
	??0?$ctype_byname@_W@std@@QAE@PBDIPAU_Locale_name_hint@@@Z @ 8 NONAME ; std::ctype_byname<wchar_t>::ctype_byname<wchar_t>(char const *, unsigned int, struct _Locale_name_hint *)
	??0?$messages@D@std@@AAE@PAV_Messages@stlp_priv@@@Z @ 9 NONAME ; std::messages<char>::messages<char>(class stlp_priv::_Messages *)
	??0?$messages@D@std@@IAE@IPAU_Locale_messages@@@Z @ 10 NONAME ; std::messages<char>::messages<char>(unsigned int, struct _Locale_messages *)
	??0?$messages@D@std@@QAE@I@Z @ 11 NONAME ; std::messages<char>::messages<char>(unsigned int)
	??0?$messages@_W@std@@AAE@PAV_Messages@stlp_priv@@@Z @ 12 NONAME ; std::messages<wchar_t>::messages<wchar_t>(class stlp_priv::_Messages *)
	??0?$messages@_W@std@@IAE@IPAU_Locale_messages@@@Z @ 13 NONAME ; std::messages<wchar_t>::messages<wchar_t>(unsigned int, struct _Locale_messages *)
	??0?$messages@_W@std@@QAE@I@Z @ 14 NONAME ; std::messages<wchar_t>::messages<wchar_t>(unsigned int)
	??0?$messages_byname@D@std@@QAE@PBDIPAU_Locale_name_hint@@@Z @ 15 NONAME ; std::messages_byname<char>::messages_byname<char>(char const *, unsigned int, struct _Locale_name_hint *)
	??0?$messages_byname@_W@std@@QAE@PBDIPAU_Locale_name_hint@@@Z @ 16 NONAME ; std::messages_byname<wchar_t>::messages_byname<wchar_t>(char const *, unsigned int, struct _Locale_name_hint *)
	??0?$moneypunct@D$00@std@@QAE@I@Z @ 17 NONAME ; std::moneypunct<char, 1>::moneypunct<char, 1>(unsigned int)
	??0?$moneypunct@D$0A@@std@@QAE@I@Z @ 18 NONAME ; std::moneypunct<char, 0>::moneypunct<char, 0>(unsigned int)
	??0?$moneypunct@_W$00@std@@QAE@I@Z @ 19 NONAME ; std::moneypunct<wchar_t, 1>::moneypunct<wchar_t, 1>(unsigned int)
	??0?$moneypunct@_W$0A@@std@@QAE@I@Z @ 20 NONAME ; std::moneypunct<wchar_t, 0>::moneypunct<wchar_t, 0>(unsigned int)
	??0?$moneypunct_byname@D$00@std@@QAE@PBDIPAU_Locale_name_hint@@@Z @ 21 NONAME ; std::moneypunct_byname<char, 1>::moneypunct_byname<char, 1>(char const *, unsigned int, struct _Locale_name_hint *)
	??0?$moneypunct_byname@D$0A@@std@@QAE@PBDIPAU_Locale_name_hint@@@Z @ 22 NONAME ; std::moneypunct_byname<char, 0>::moneypunct_byname<char, 0>(char const *, unsigned int, struct _Locale_name_hint *)
	??0?$moneypunct_byname@_W$00@std@@QAE@PBDIPAU_Locale_name_hint@@@Z @ 23 NONAME ; std::moneypunct_byname<wchar_t, 1>::moneypunct_byname<wchar_t, 1>(char const *, unsigned int, struct _Locale_name_hint *)
	??0?$moneypunct_byname@_W$0A@@std@@QAE@PBDIPAU_Locale_name_hint@@@Z @ 24 NONAME ; std::moneypunct_byname<wchar_t, 0>::moneypunct_byname<wchar_t, 0>(char const *, unsigned int, struct _Locale_name_hint *)
	??0?$numpunct_byname@D@std@@QAE@PBDIPAU_Locale_name_hint@@@Z @ 25 NONAME ; std::numpunct_byname<char>::numpunct_byname<char>(char const *, unsigned int, struct _Locale_name_hint *)
	??0?$numpunct_byname@_W@std@@QAE@PBDIPAU_Locale_name_hint@@@Z @ 26 NONAME ; std::numpunct_byname<wchar_t>::numpunct_byname<wchar_t>(char const *, unsigned int, struct _Locale_name_hint *)
	??0Init@ios_base@std@@QAE@XZ @ 27 NONAME ; std::ios_base::Init::Init(void)
	??0_Filebuf_base@std@@QAE@XZ @ 28 NONAME ; std::_Filebuf_base::_Filebuf_base(void)
	??0_Libcpp_wsd@@QAE@XZ @ 29 NONAME ; _Libcpp_wsd::_Libcpp_wsd(void)
	??0__Named_exception@std@@QAE@ABV?$basic_string@DV?$char_traits@D@std@@V?$allocator@D@2@@1@@Z @ 30 NONAME ; std::__Named_exception::__Named_exception(class std::basic_string<char, class std::char_traits<char>, class std::allocator<char> > const &)
	??0failure@ios_base@std@@QAE@ABV?$basic_string@DV?$char_traits@D@std@@V?$allocator@D@2@@2@@Z @ 31 NONAME ; std::ios_base::failure::failure(class std::basic_string<char, class std::char_traits<char>, class std::allocator<char> > const &)
	??0ios_base@std@@IAE@XZ @ 32 NONAME ; std::ios_base::ios_base(void)
	??0istrstream@std@@QAE@IPAD@Z @ 33 NONAME ; std::istrstream::istrstream(unsigned int, char *)
	??0istrstream@std@@QAE@IPAD_J@Z @ 34 NONAME ; std::istrstream::istrstream(unsigned int, char *, long long)
	??0istrstream@std@@QAE@IPBD@Z @ 35 NONAME ; std::istrstream::istrstream(unsigned int, char const *)
	??0istrstream@std@@QAE@IPBD_J@Z @ 36 NONAME ; std::istrstream::istrstream(unsigned int, char const *, long long)
	??0locale@std@@QAE@ABV01@0H@Z @ 37 NONAME ; std::locale::locale(class std::locale const &, class std::locale const &, int)
	??0locale@std@@QAE@ABV01@@Z @ 38 NONAME ; std::locale::locale(class std::locale const &)
	??0locale@std@@QAE@ABV01@PBDH@Z @ 39 NONAME ; std::locale::locale(class std::locale const &, char const *, int)
	??0locale@std@@QAE@PBD@Z @ 40 NONAME ; std::locale::locale(char const *)
	??0locale@std@@QAE@XZ @ 41 NONAME ; std::locale::locale(void)
	??0ostrstream@std@@QAE@I@Z @ 42 NONAME ; std::ostrstream::ostrstream(unsigned int)
	??0ostrstream@std@@QAE@IPADHH@Z @ 43 NONAME ; std::ostrstream::ostrstream(unsigned int, char *, int, int)
	??0strstream@std@@QAE@I@Z @ 44 NONAME ; std::strstream::strstream(unsigned int)
	??0strstream@std@@QAE@IPADHH@Z @ 45 NONAME ; std::strstream::strstream(unsigned int, char *, int, int)
	??0strstreambuf@std@@QAE@P6APAXI@ZP6AXPAX@Z@Z @ 46 NONAME ; std::strstreambuf::strstreambuf(void * (*)(unsigned int), void (*)(void *))
	??0strstreambuf@std@@QAE@PAC_J0@Z @ 47 NONAME ; std::strstreambuf::strstreambuf(signed char *, long long, signed char *)
	??0strstreambuf@std@@QAE@PAD_J0@Z @ 48 NONAME ; std::strstreambuf::strstreambuf(char *, long long, char *)
	??0strstreambuf@std@@QAE@PAE_J0@Z @ 49 NONAME ; std::strstreambuf::strstreambuf(unsigned char *, long long, unsigned char *)
	??0strstreambuf@std@@QAE@PBC_J@Z @ 50 NONAME ; std::strstreambuf::strstreambuf(signed char const *, long long)
	??0strstreambuf@std@@QAE@PBD_J@Z @ 51 NONAME ; std::strstreambuf::strstreambuf(char const *, long long)
	??0strstreambuf@std@@QAE@PBE_J@Z @ 52 NONAME ; std::strstreambuf::strstreambuf(unsigned char const *, long long)
	??0strstreambuf@std@@QAE@_J@Z @ 53 NONAME ; std::strstreambuf::strstreambuf(long long)
	??1?$codecvt@DDU_mb_state_t@@@std@@MAE@XZ @ 54 NONAME ; std::codecvt<char, char, struct _mb_state_t>::~codecvt<char, char, struct _mb_state_t>(void)
	??1?$codecvt@_WDU_mb_state_t@@@std@@MAE@XZ @ 55 NONAME ; std::codecvt<wchar_t, char, struct _mb_state_t>::~codecvt<wchar_t, char, struct _mb_state_t>(void)
	??1?$codecvt_byname@DDU_mb_state_t@@@std@@UAE@XZ @ 56 NONAME ; std::codecvt_byname<char, char, struct _mb_state_t>::~codecvt_byname<char, char, struct _mb_state_t>(void)
	??1?$codecvt_byname@_WDU_mb_state_t@@@std@@MAE@XZ @ 57 NONAME ; std::codecvt_byname<wchar_t, char, struct _mb_state_t>::~codecvt_byname<wchar_t, char, struct _mb_state_t>(void)
	??1?$collate@D@std@@MAE@XZ @ 58 NONAME ; std::collate<char>::~collate<char>(void)
	??1?$collate@_W@std@@MAE@XZ @ 59 NONAME ; std::collate<wchar_t>::~collate<wchar_t>(void)
	??1?$collate_byname@D@std@@MAE@XZ @ 60 NONAME ; std::collate_byname<char>::~collate_byname<char>(void)
	??1?$collate_byname@_W@std@@MAE@XZ @ 61 NONAME ; std::collate_byname<wchar_t>::~collate_byname<wchar_t>(void)
	??1?$ctype@D@std@@MAE@XZ @ 62 NONAME ; std::ctype<char>::~ctype<char>(void)
	??1?$ctype@_W@std@@MAE@XZ @ 63 NONAME ; std::ctype<wchar_t>::~ctype<wchar_t>(void)
	??1?$ctype_byname@D@std@@UAE@XZ @ 64 NONAME ; std::ctype_byname<char>::~ctype_byname<char>(void)
	??1?$ctype_byname@_W@std@@MAE@XZ @ 65 NONAME ; std::ctype_byname<wchar_t>::~ctype_byname<wchar_t>(void)
	??1?$messages@D@std@@MAE@XZ @ 66 NONAME ; std::messages<char>::~messages<char>(void)
	??1?$messages@_W@std@@MAE@XZ @ 67 NONAME ; std::messages<wchar_t>::~messages<wchar_t>(void)
	??1?$messages_byname@D@std@@MAE@XZ @ 68 NONAME ; std::messages_byname<char>::~messages_byname<char>(void)
	??1?$messages_byname@_W@std@@MAE@XZ @ 69 NONAME ; std::messages_byname<wchar_t>::~messages_byname<wchar_t>(void)
	??1?$moneypunct@D$00@std@@MAE@XZ @ 70 NONAME ; std::moneypunct<char, 1>::~moneypunct<char, 1>(void)
	??1?$moneypunct@D$0A@@std@@MAE@XZ @ 71 NONAME ; std::moneypunct<char, 0>::~moneypunct<char, 0>(void)
	??1?$moneypunct@_W$00@std@@MAE@XZ @ 72 NONAME ; std::moneypunct<wchar_t, 1>::~moneypunct<wchar_t, 1>(void)
	??1?$moneypunct@_W$0A@@std@@MAE@XZ @ 73 NONAME ; std::moneypunct<wchar_t, 0>::~moneypunct<wchar_t, 0>(void)
	??1?$moneypunct_byname@D$00@std@@MAE@XZ @ 74 NONAME ; std::moneypunct_byname<char, 1>::~moneypunct_byname<char, 1>(void)
	??1?$moneypunct_byname@D$0A@@std@@MAE@XZ @ 75 NONAME ; std::moneypunct_byname<char, 0>::~moneypunct_byname<char, 0>(void)
	??1?$moneypunct_byname@_W$00@std@@MAE@XZ @ 76 NONAME ; std::moneypunct_byname<wchar_t, 1>::~moneypunct_byname<wchar_t, 1>(void)
	??1?$moneypunct_byname@_W$0A@@std@@MAE@XZ @ 77 NONAME ; std::moneypunct_byname<wchar_t, 0>::~moneypunct_byname<wchar_t, 0>(void)
	??1?$numpunct@D@std@@MAE@XZ @ 78 NONAME ; std::numpunct<char>::~numpunct<char>(void)
	??1?$numpunct@_W@std@@MAE@XZ @ 79 NONAME ; std::numpunct<wchar_t>::~numpunct<wchar_t>(void)
	??1?$numpunct_byname@D@std@@MAE@XZ @ 80 NONAME ; std::numpunct_byname<char>::~numpunct_byname<char>(void)
	??1?$numpunct_byname@_W@std@@MAE@XZ @ 81 NONAME ; std::numpunct_byname<wchar_t>::~numpunct_byname<wchar_t>(void)
	??1Init@ios_base@std@@QAE@XZ @ 82 NONAME ; std::ios_base::Init::~Init(void)
	??1_Libcpp_wsd@@QAE@XZ @ 83 NONAME ; _Libcpp_wsd::~_Libcpp_wsd(void)
	??1__Named_exception@std@@UAE@XZ @ 84 NONAME ; std::__Named_exception::~__Named_exception(void)
	??1domain_error@std@@UAE@XZ @ 85 NONAME ; std::domain_error::~domain_error(void)
	??1facet@locale@std@@MAE@XZ @ 86 NONAME ; std::locale::facet::~facet(void)
	??1failure@ios_base@std@@UAE@XZ @ 87 NONAME ; std::ios_base::failure::~failure(void)
	??1invalid_argument@std@@UAE@XZ @ 88 NONAME ; std::invalid_argument::~invalid_argument(void)
	??1ios_base@std@@UAE@XZ @ 89 NONAME ; std::ios_base::~ios_base(void)
	??1istrstream@std@@UAE@XZ @ 90 NONAME ; std::istrstream::~istrstream(void)
	??1length_error@std@@UAE@XZ @ 91 NONAME ; std::length_error::~length_error(void)
	??1locale@std@@QAE@XZ @ 92 NONAME ; std::locale::~locale(void)
	??1logic_error@std@@UAE@XZ @ 93 NONAME ; std::logic_error::~logic_error(void)
	??1ostrstream@std@@UAE@XZ @ 94 NONAME ; std::ostrstream::~ostrstream(void)
	??1out_of_range@std@@UAE@XZ @ 95 NONAME ; std::out_of_range::~out_of_range(void)
	??1overflow_error@std@@UAE@XZ @ 96 NONAME ; std::overflow_error::~overflow_error(void)
	??1range_error@std@@UAE@XZ @ 97 NONAME ; std::range_error::~range_error(void)
	??1runtime_error@std@@UAE@XZ @ 98 NONAME ; std::runtime_error::~runtime_error(void)
	??1strstream@std@@UAE@XZ @ 99 NONAME ; std::strstream::~strstream(void)
	??1strstreambuf@std@@UAE@XZ @ 100 NONAME ; std::strstreambuf::~strstreambuf(void)
	??1underflow_error@std@@UAE@XZ @ 101 NONAME ; std::underflow_error::~underflow_error(void)
	??2@YAPAXI@Z @ 102 NONAME ; void * operator new(unsigned int)
	??2@YAPAXIABUnothrow_t@std@@@Z @ 103 NONAME ; void * operator new(unsigned int, struct std::nothrow_t const &)
	??2@YAPAXII@Z @ 104 NONAME ; void * operator new(unsigned int, unsigned int)
	??3@YAXPAX@Z @ 105 NONAME ; void operator delete(void *)
	??3@YAXPAXABUnothrow_t@std@@@Z @ 106 NONAME ; void operator delete(void *, struct std::nothrow_t const &)
	??3@YAXPAXI@Z @ 107 NONAME ; void operator delete(void *, unsigned int)
	??4locale@std@@QAEABV01@ABV01@@Z @ 108 NONAME ; class std::locale const & std::locale::operator=(class std::locale const &)
	??5std@@YAAAV?$basic_istream@DV?$char_traits@D@std@@@0@AAV10@AAU?$complex@M@0@@Z @ 109 NONAME ; class std::basic_istream<char, class std::char_traits<char> > & std::operator>>(class std::basic_istream<char, class std::char_traits<char> > &, struct std::complex<float> &)
	??5std@@YAAAV?$basic_istream@DV?$char_traits@D@std@@@0@AAV10@AAU?$complex@N@0@@Z @ 110 NONAME ; class std::basic_istream<char, class std::char_traits<char> > & std::operator>>(class std::basic_istream<char, class std::char_traits<char> > &, struct std::complex<double> &)
	??5std@@YAAAV?$basic_istream@DV?$char_traits@D@std@@@0@AAV10@AAU?$complex@O@0@@Z @ 111 NONAME ; class std::basic_istream<char, class std::char_traits<char> > & std::operator>>(class std::basic_istream<char, class std::char_traits<char> > &, struct std::complex<long double> &)
	??6std@@YAAAV?$basic_ostream@DV?$char_traits@D@std@@@0@AAV10@ABU?$complex@M@0@@Z @ 112 NONAME ; class std::basic_ostream<char, class std::char_traits<char> > & std::operator<<(class std::basic_ostream<char, class std::char_traits<char> > &, struct std::complex<float> const &)
	??6std@@YAAAV?$basic_ostream@DV?$char_traits@D@std@@@0@AAV10@ABU?$complex@N@0@@Z @ 113 NONAME ; class std::basic_ostream<char, class std::char_traits<char> > & std::operator<<(class std::basic_ostream<char, class std::char_traits<char> > &, struct std::complex<double> const &)
	??6std@@YAAAV?$basic_ostream@DV?$char_traits@D@std@@@0@AAV10@ABU?$complex@O@0@@Z @ 114 NONAME ; class std::basic_ostream<char, class std::char_traits<char> > & std::operator<<(class std::basic_ostream<char, class std::char_traits<char> > &, struct std::complex<long double> const &)
	??8locale@std@@QBE_NABV01@@Z @ 115 NONAME ; bool std::locale::operator==(class std::locale const &) const
	??9locale@std@@QBE_NABV01@@Z @ 116 NONAME ; bool std::locale::operator!=(class std::locale const &) const
	??_U@YAPAXI@Z @ 117 NONAME ; void * operator new[](unsigned int)
	??_U@YAPAXIUnothrow_t@std@@@Z @ 118 NONAME ; void * operator new[](unsigned int, struct std::nothrow_t)
	??_V@YAXPAX@Z @ 119 NONAME ; void operator delete[](void *)
	??_V@YAXPAXABUnothrow_t@std@@@Z @ 120 NONAME ; void operator delete[](void *, struct std::nothrow_t const &)
	?CleanupWSD@@YAXXZ @ 121 NONAME ; void CleanupWSD(void)
	?GetFacetLocaleId@?$codecvt@DDU_mb_state_t@@@std@@SAAAVid@locale@2@XZ @ 122 NONAME ; class std::locale::id & std::codecvt<char, char, struct _mb_state_t>::GetFacetLocaleId(void)
	?GetFacetLocaleId@?$codecvt@_WDU_mb_state_t@@@std@@SAAAVid@locale@2@XZ @ 123 NONAME ; class std::locale::id & std::codecvt<wchar_t, char, struct _mb_state_t>::GetFacetLocaleId(void)
	?GetFacetLocaleId@?$collate@D@std@@SAAAVid@locale@2@XZ @ 124 NONAME ; class std::locale::id & std::collate<char>::GetFacetLocaleId(void)
	?GetFacetLocaleId@?$collate@_W@std@@SAAAVid@locale@2@XZ @ 125 NONAME ; class std::locale::id & std::collate<wchar_t>::GetFacetLocaleId(void)
	?GetFacetLocaleId@?$ctype@D@std@@SAAAVid@locale@2@XZ @ 126 NONAME ; class std::locale::id & std::ctype<char>::GetFacetLocaleId(void)
	?GetFacetLocaleId@?$ctype@_W@std@@SAAAVid@locale@2@XZ @ 127 NONAME ; class std::locale::id & std::ctype<wchar_t>::GetFacetLocaleId(void)
	?GetFacetLocaleId@?$messages@D@std@@SAAAVid@locale@2@XZ @ 128 NONAME ; class std::locale::id & std::messages<char>::GetFacetLocaleId(void)
	?GetFacetLocaleId@?$messages@_W@std@@SAAAVid@locale@2@XZ @ 129 NONAME ; class std::locale::id & std::messages<wchar_t>::GetFacetLocaleId(void)
	?GetFacetLocaleId@?$money_get@DV?$istreambuf_iterator@DV?$char_traits@D@std@@@std@@@std@@SAAAVid@locale@2@XZ @ 130 NONAME ; class std::locale::id & std::money_get<char, class std::istreambuf_iterator<char, class std::char_traits<char> > >::GetFacetLocaleId(void)
	?GetFacetLocaleId@?$money_get@_WV?$istreambuf_iterator@_WV?$char_traits@_W@std@@@std@@@std@@SAAAVid@locale@2@XZ @ 131 NONAME ; class std::locale::id & std::money_get<wchar_t, class std::istreambuf_iterator<wchar_t, class std::char_traits<wchar_t> > >::GetFacetLocaleId(void)
	?GetFacetLocaleId@?$money_put@DV?$ostreambuf_iterator@DV?$char_traits@D@std@@@std@@@std@@SAAAVid@locale@2@XZ @ 132 NONAME ; class std::locale::id & std::money_put<char, class std::ostreambuf_iterator<char, class std::char_traits<char> > >::GetFacetLocaleId(void)
	?GetFacetLocaleId@?$money_put@_WV?$ostreambuf_iterator@_WV?$char_traits@_W@std@@@std@@@std@@SAAAVid@locale@2@XZ @ 133 NONAME ; class std::locale::id & std::money_put<wchar_t, class std::ostreambuf_iterator<wchar_t, class std::char_traits<wchar_t> > >::GetFacetLocaleId(void)
	?GetFacetLocaleId@?$moneypunct@D$00@std@@SAAAVid@locale@2@XZ @ 134 NONAME ; class std::locale::id & std::moneypunct<char, 1>::GetFacetLocaleId(void)
	?GetFacetLocaleId@?$moneypunct@D$0A@@std@@SAAAVid@locale@2@XZ @ 135 NONAME ; class std::locale::id & std::moneypunct<char, 0>::GetFacetLocaleId(void)
	?GetFacetLocaleId@?$moneypunct@_W$00@std@@SAAAVid@locale@2@XZ @ 136 NONAME ; class std::locale::id & std::moneypunct<wchar_t, 1>::GetFacetLocaleId(void)
	?GetFacetLocaleId@?$moneypunct@_W$0A@@std@@SAAAVid@locale@2@XZ @ 137 NONAME ; class std::locale::id & std::moneypunct<wchar_t, 0>::GetFacetLocaleId(void)
	?GetFacetLocaleId@?$num_get@DV?$istreambuf_iterator@DV?$char_traits@D@std@@@std@@@std@@SAAAVid@locale@2@XZ @ 138 NONAME ; class std::locale::id & std::num_get<char, class std::istreambuf_iterator<char, class std::char_traits<char> > >::GetFacetLocaleId(void)
	?GetFacetLocaleId@?$num_get@_WV?$istreambuf_iterator@_WV?$char_traits@_W@std@@@std@@@std@@SAAAVid@locale@2@XZ @ 139 NONAME ; class std::locale::id & std::num_get<wchar_t, class std::istreambuf_iterator<wchar_t, class std::char_traits<wchar_t> > >::GetFacetLocaleId(void)
	?GetFacetLocaleId@?$num_put@DV?$ostreambuf_iterator@DV?$char_traits@D@std@@@std@@@std@@SAAAVid@locale@2@XZ @ 140 NONAME ; class std::locale::id & std::num_put<char, class std::ostreambuf_iterator<char, class std::char_traits<char> > >::GetFacetLocaleId(void)
	?GetFacetLocaleId@?$num_put@_WV?$ostreambuf_iterator@_WV?$char_traits@_W@std@@@std@@@std@@SAAAVid@locale@2@XZ @ 141 NONAME ; class std::locale::id & std::num_put<wchar_t, class std::ostreambuf_iterator<wchar_t, class std::char_traits<wchar_t> > >::GetFacetLocaleId(void)
	?GetFacetLocaleId@?$numpunct@D@std@@SAAAVid@locale@2@XZ @ 142 NONAME ; class std::locale::id & std::numpunct<char>::GetFacetLocaleId(void)
	?GetFacetLocaleId@?$numpunct@_W@std@@SAAAVid@locale@2@XZ @ 143 NONAME ; class std::locale::id & std::numpunct<wchar_t>::GetFacetLocaleId(void)
	?GetFacetLocaleId@?$time_get@DV?$istreambuf_iterator@DV?$char_traits@D@std@@@std@@@std@@SAAAVid@locale@2@XZ @ 144 NONAME ; class std::locale::id & std::time_get<char, class std::istreambuf_iterator<char, class std::char_traits<char> > >::GetFacetLocaleId(void)
	?GetFacetLocaleId@?$time_get@_WV?$istreambuf_iterator@_WV?$char_traits@_W@std@@@std@@@std@@SAAAVid@locale@2@XZ @ 145 NONAME ; class std::locale::id & std::time_get<wchar_t, class std::istreambuf_iterator<wchar_t, class std::char_traits<wchar_t> > >::GetFacetLocaleId(void)
	?GetFacetLocaleId@?$time_put@DV?$ostreambuf_iterator@DV?$char_traits@D@std@@@std@@@std@@SAAAVid@locale@2@XZ @ 146 NONAME ; class std::locale::id & std::time_put<char, class std::ostreambuf_iterator<char, class std::char_traits<char> > >::GetFacetLocaleId(void)
	?GetFacetLocaleId@?$time_put@_WV?$ostreambuf_iterator@_WV?$char_traits@_W@std@@@std@@@std@@SAAAVid@locale@2@XZ @ 147 NONAME ; class std::locale::id & std::time_put<wchar_t, class std::ostreambuf_iterator<wchar_t, class std::char_traits<wchar_t> > >::GetFacetLocaleId(void)
	?TranslateCppExceptionToSymError@@YAHABVexception@std@@@Z @ 148 NONAME ; int TranslateCppExceptionToSymError(class std::exception const &)
	?TranslateSymErrorToCppException@@YAXH@Z @ 149 NONAME ; void TranslateSymErrorToCppException(int)
	?WSDAlloc@@YAPAXI@Z @ 150 NONAME ; void * WSDAlloc(unsigned int)
	?WSDFree@@YAHPAX@Z @ 151 NONAME ; int WSDFree(void *)
	?_Init_timeinfo@stlp_priv@@YAXAAV_Time_Info@1@@Z @ 152 NONAME ; void stlp_priv::_Init_timeinfo(class stlp_priv::_Time_Info &)
	?_Init_timeinfo@stlp_priv@@YAXAAV_Time_Info@1@PAU_Locale_time@@@Z @ 153 NONAME ; void stlp_priv::_Init_timeinfo(class stlp_priv::_Time_Info &, struct _Locale_time *)
	?_Initialize_get_float@stlp_priv@@YAXABV?$ctype@_W@std@@AA_W111PA_W@Z @ 154 NONAME ; void stlp_priv::_Initialize_get_float(class std::ctype<wchar_t> const &, wchar_t &, wchar_t &, wchar_t &, wchar_t &, wchar_t *)
	?_M_allocate@__node_alloc@std@@CAPAXAAI@Z @ 155 NONAME ; void * std::__node_alloc::_M_allocate(unsigned int &)
	?_M_close@_Filebuf_base@std@@QAE_NXZ @ 156 NONAME ; bool std::_Filebuf_base::_M_close(void)
	?_M_copy_state@ios_base@std@@IAEXABV12@@Z @ 157 NONAME ; void std::ios_base::_M_copy_state(class std::ios_base const &)
	?_M_deallocate@__node_alloc@std@@CAXPAXI@Z @ 158 NONAME ; void std::__node_alloc::_M_deallocate(void *, unsigned int)
	?_M_doit@?$_Underflow@DV?$char_traits@D@std@@@std@@SAHPAV?$basic_filebuf@DV?$char_traits@D@std@@@2@@Z @ 159 NONAME ; int std::_Underflow<char, class std::char_traits<char> >::_M_doit(class std::basic_filebuf<char, class std::char_traits<char> > *)
	?_M_file_size@_Filebuf_base@std@@QAE_JXZ @ 160 NONAME ; long long std::_Filebuf_base::_M_file_size(void)
	?_M_get_facet@locale@std@@QBEPAVfacet@12@ABVid@12@@Z @ 161 NONAME ; class std::locale::facet * std::locale::_M_get_facet(class std::locale::id const &) const
	?_M_insert@locale@std@@IAEXPAVfacet@12@AAVid@12@@Z @ 162 NONAME ; void std::locale::_M_insert(class std::locale::facet *, class std::locale::id &)
	?_M_invoke_callbacks@ios_base@std@@IAEXW4event@12@@Z @ 163 NONAME ; void std::ios_base::_M_invoke_callbacks(enum std::ios_base::event)
	?_M_mmap@_Filebuf_base@std@@QAEPAX_J0@Z @ 164 NONAME ; void * std::_Filebuf_base::_M_mmap(long long, long long)
	?_M_open@_Filebuf_base@std@@QAE_NHH@Z @ 165 NONAME ; bool std::_Filebuf_base::_M_open(int, int)
	?_M_open@_Filebuf_base@std@@QAE_NPBDH@Z @ 166 NONAME ; bool std::_Filebuf_base::_M_open(char const *, int)
	?_M_open@_Filebuf_base@std@@QAE_NPBDHJ@Z @ 167 NONAME ; bool std::_Filebuf_base::_M_open(char const *, int, long)
	?_M_read@_Filebuf_base@std@@QAEHPADH@Z @ 168 NONAME ; int std::_Filebuf_base::_M_read(char *, int)
	?_M_seek@_Filebuf_base@std@@QAE_J_JH@Z @ 169 NONAME ; long long std::_Filebuf_base::_M_seek(long long, int)
	?_M_throw_failure@ios_base@std@@IAEXXZ @ 170 NONAME ; void std::ios_base::_M_throw_failure(void)
	?_M_throw_runtime_error@locale@std@@SAXPBD@Z @ 171 NONAME ; void std::locale::_M_throw_runtime_error(char const *)
	?_M_unmap@_Filebuf_base@std@@QAEXPAX_J@Z @ 172 NONAME ; void std::_Filebuf_base::_M_unmap(void *, long long)
	?_M_use_facet@locale@std@@QBEPAVfacet@12@ABVid@12@@Z @ 173 NONAME ; class std::locale::facet * std::locale::_M_use_facet(class std::locale::id const &) const
	?_M_write@_Filebuf_base@std@@QAE_NPADH@Z @ 174 NONAME ; bool std::_Filebuf_base::_M_write(char *, int)
	?_S_count@_Bs_G@stlp_priv@@SAIPBE0@Z @ 175 NONAME ; unsigned int stlp_priv::_Bs_G::_S_count(unsigned char const *, unsigned char const *)
	?_S_first_one@_Bs_G@stlp_priv@@SAEE@Z @ 176 NONAME ; unsigned char stlp_priv::_Bs_G::_S_first_one(unsigned char)
	?__acquire_time@stlp_priv@@YAPAU_Locale_time@@PBDPAU_Locale_name_hint@@@Z @ 177 NONAME ; struct _Locale_time * stlp_priv::__acquire_time(char const *, struct _Locale_name_hint *)
	?__convert_float_buffer@stlp_priv@@YAXABU?$__basic_iostring@D@1@AAU?$__basic_iostring@_W@1@ABV?$ctype@_W@std@@_W_N@Z @ 178 NONAME ; void stlp_priv::__convert_float_buffer(struct stlp_priv::__basic_iostring<char> const &, struct stlp_priv::__basic_iostring<wchar_t> &, class std::ctype<wchar_t> const &, wchar_t, bool)
	?__digit_val_table@stlp_priv@@YAEI@Z @ 179 NONAME ; unsigned char stlp_priv::__digit_val_table(unsigned int)
	?__get_date_order@stlp_priv@@YA?AW4dateorder@time_base@std@@PAU_Locale_time@@@Z @ 180 NONAME ; enum std::time_base::dateorder stlp_priv::__get_date_order(struct _Locale_time *)
	?__get_fdigit@stlp_priv@@YA_NAA_WPB_W@Z @ 181 NONAME ; bool stlp_priv::__get_fdigit(wchar_t &, wchar_t const *)
	?__get_fdigit_or_sep@stlp_priv@@YA_NAA_W_WPB_W@Z @ 182 NONAME ; bool stlp_priv::__get_fdigit_or_sep(wchar_t &, wchar_t, wchar_t const *)
	?__get_floor_digits@stlp_priv@@YAXAAU?$__basic_iostring@D@1@O@Z @ 183 NONAME ; void stlp_priv::__get_floor_digits(struct stlp_priv::__basic_iostring<char> &, long double)
	?__hex_char_table_hi@stlp_priv@@YAPBDXZ @ 184 NONAME ; char const * stlp_priv::__hex_char_table_hi(void)
	?__hex_char_table_lo@stlp_priv@@YAPBDXZ @ 185 NONAME ; char const * stlp_priv::__hex_char_table_lo(void)
	?__insert_grouping@stlp_priv@@YAHPAD0ABV?$basic_string@DV?$char_traits@D@std@@V?$allocator@D@2@@std@@DDDH@Z @ 186 NONAME ; int stlp_priv::__insert_grouping(char *, char *, class std::basic_string<char, class std::char_traits<char>, class std::allocator<char> > const &, char, char, char, int)
	?__insert_grouping@stlp_priv@@YAHPA_W0ABV?$basic_string@DV?$char_traits@D@std@@V?$allocator@D@2@@std@@_W22H@Z @ 187 NONAME ; int stlp_priv::__insert_grouping(wchar_t *, wchar_t *, class std::basic_string<char, class std::char_traits<char>, class std::allocator<char> > const &, wchar_t, wchar_t, wchar_t, int)
	?__insert_grouping@stlp_priv@@YAXAAU?$__basic_iostring@D@1@IABV?$basic_string@DV?$char_traits@D@std@@V?$allocator@D@2@@std@@DDDH@Z @ 188 NONAME ; void stlp_priv::__insert_grouping(struct stlp_priv::__basic_iostring<char> &, unsigned int, class std::basic_string<char, class std::char_traits<char>, class std::allocator<char> > const &, char, char, char, int)
	?__insert_grouping@stlp_priv@@YAXAAU?$__basic_iostring@_W@1@IABV?$basic_string@DV?$char_traits@D@std@@V?$allocator@D@2@@std@@_W22H@Z @ 189 NONAME ; void stlp_priv::__insert_grouping(struct stlp_priv::__basic_iostring<wchar_t> &, unsigned int, class std::basic_string<char, class std::char_traits<char>, class std::allocator<char> > const &, wchar_t, wchar_t, wchar_t, int)
	?__narrow_atoms@stlp_priv@@YAPBDXZ @ 190 NONAME ; char const * stlp_priv::__narrow_atoms(void)
	?__release_time@stlp_priv@@YAXPAU_Locale_time@@@Z @ 191 NONAME ; void stlp_priv::__release_time(struct _Locale_time *)
	?__stl_throw_invalid_argument@std@@YAXPBD@Z @ 192 NONAME ; void std::__stl_throw_invalid_argument(char const *)
	?__stl_throw_length_error@std@@YAXPBD@Z @ 193 NONAME ; void std::__stl_throw_length_error(char const *)
	?__stl_throw_out_of_range@std@@YAXPBD@Z @ 194 NONAME ; void std::__stl_throw_out_of_range(char const *)
	?__stl_throw_overflow_error@std@@YAXPBD@Z @ 195 NONAME ; void std::__stl_throw_overflow_error(char const *)
	?__stl_throw_range_error@std@@YAXPBD@Z @ 196 NONAME ; void std::__stl_throw_range_error(char const *)
	?__stl_throw_runtime_error@std@@YAXPBD@Z @ 197 NONAME ; void std::__stl_throw_runtime_error(char const *)
	?__string_to_float@stlp_priv@@YAXABU?$__basic_iostring@D@1@AAM@Z @ 198 NONAME ; void stlp_priv::__string_to_float(struct stlp_priv::__basic_iostring<char> const &, float &)
	?__string_to_float@stlp_priv@@YAXABU?$__basic_iostring@D@1@AAN@Z @ 199 NONAME ; void stlp_priv::__string_to_float(struct stlp_priv::__basic_iostring<char> const &, double &)
	?__string_to_float@stlp_priv@@YAXABU?$__basic_iostring@D@1@AAO@Z @ 200 NONAME ; void stlp_priv::__string_to_float(struct stlp_priv::__basic_iostring<char> const &, long double &)
	?__valid_grouping@stlp_priv@@YA_NPBD000@Z @ 201 NONAME ; bool stlp_priv::__valid_grouping(char const *, char const *, char const *, char const *)
	?__write_float@stlp_priv@@YAIAAU?$__basic_iostring@D@1@HHN@Z @ 202 NONAME ; unsigned int stlp_priv::__write_float(struct stlp_priv::__basic_iostring<char> &, int, int, double)
	?__write_float@stlp_priv@@YAIAAU?$__basic_iostring@D@1@HHO@Z @ 203 NONAME ; unsigned int stlp_priv::__write_float(struct stlp_priv::__basic_iostring<char> &, int, int, long double)
	?__write_formatted_time@stlp_priv@@YAPADPADIDDABV_Time_Info@1@PBUtm@@@Z @ 204 NONAME ; char * stlp_priv::__write_formatted_time(char *, unsigned int, char, char, class stlp_priv::_Time_Info const &, struct tm const *)
	?_copy_Nameless_Locale_impl@std@@YAPAV_Locale_impl@1@PAV21@@Z @ 205 NONAME ; class std::_Locale_impl * std::_copy_Nameless_Locale_impl(class std::_Locale_impl *)
	?_div@?$complex@M@std@@SAXABM000AAM1@Z @ 206 NONAME ; void std::complex<float>::_div(float const &, float const &, float const &, float const &, float &, float &)
	?_div@?$complex@M@std@@SAXABM00AAM1@Z @ 207 NONAME ; void std::complex<float>::_div(float const &, float const &, float const &, float &, float &)
	?_div@?$complex@N@std@@SAXABN000AAN1@Z @ 208 NONAME ; void std::complex<double>::_div(double const &, double const &, double const &, double const &, double &, double &)
	?_div@?$complex@N@std@@SAXABN00AAN1@Z @ 209 NONAME ; void std::complex<double>::_div(double const &, double const &, double const &, double &, double &)
	?_div@?$complex@O@std@@SAXABO000AAO1@Z @ 210 NONAME ; void std::complex<long double>::_div(long double const &, long double const &, long double const &, long double const &, long double &, long double &)
	?_div@?$complex@O@std@@SAXABO00AAO1@Z @ 211 NONAME ; void std::complex<long double>::_div(long double const &, long double const &, long double const &, long double &, long double &)
	?_get_Locale_impl@std@@YAPAV_Locale_impl@1@PAV21@@Z @ 212 NONAME ; class std::_Locale_impl * std::_get_Locale_impl(class std::_Locale_impl *)
	?abs@?$@M@std@@YAMABU?$complex@M@1@@Z @ 213 NONAME ; float std::abs<float>(struct std::complex<float> const &)
	?abs@?$@N@std@@YANABU?$complex@N@1@@Z @ 214 NONAME ; double std::abs<double>(struct std::complex<double> const &)
	?abs@?$@O@std@@YAOABU?$complex@O@1@@Z @ 215 NONAME ; long double std::abs<long double>(struct std::complex<long double> const &)
	?arg@?$@M@std@@YAMABU?$complex@M@1@@Z @ 216 NONAME ; float std::arg<float>(struct std::complex<float> const &)
	?arg@?$@N@std@@YANABU?$complex@N@1@@Z @ 217 NONAME ; double std::arg<double>(struct std::complex<double> const &)
	?arg@?$@O@std@@YAOABU?$complex@O@1@@Z @ 218 NONAME ; long double std::arg<long double>(struct std::complex<long double> const &)
	?classic@locale@std@@SAABV12@XZ @ 219 NONAME ; class std::locale const & std::locale::classic(void)
	?classic_table@?$ctype@D@std@@KAPBW4mask@ctype_base@2@XZ @ 220 NONAME ; enum std::ctype_base::mask const * std::ctype<char>::classic_table(void)
	?cos@std@@YA?AU?$complex@M@1@ABU21@@Z @ 221 NONAME ; struct std::complex<float> std::cos(struct std::complex<float> const &)
	?cos@std@@YA?AU?$complex@N@1@ABU21@@Z @ 222 NONAME ; struct std::complex<double> std::cos(struct std::complex<double> const &)
	?cos@std@@YA?AU?$complex@O@1@ABU21@@Z @ 223 NONAME ; struct std::complex<long double> std::cos(struct std::complex<long double> const &)
	?cosh@std@@YA?AU?$complex@M@1@ABU21@@Z @ 224 NONAME ; struct std::complex<float> std::cosh(struct std::complex<float> const &)
	?cosh@std@@YA?AU?$complex@N@1@ABU21@@Z @ 225 NONAME ; struct std::complex<double> std::cosh(struct std::complex<double> const &)
	?cosh@std@@YA?AU?$complex@O@1@ABU21@@Z @ 226 NONAME ; struct std::complex<long double> std::cosh(struct std::complex<long double> const &)
	?do_always_noconv@?$codecvt@DDU_mb_state_t@@@std@@MBE_NXZ @ 227 NONAME ; bool std::codecvt<char, char, struct _mb_state_t>::do_always_noconv(void) const
	?do_always_noconv@?$codecvt@_WDU_mb_state_t@@@std@@MBE_NXZ @ 228 NONAME ; bool std::codecvt<wchar_t, char, struct _mb_state_t>::do_always_noconv(void) const
	?do_always_noconv@?$codecvt_byname@_WDU_mb_state_t@@@std@@MBE_NXZ @ 229 NONAME ; bool std::codecvt_byname<wchar_t, char, struct _mb_state_t>::do_always_noconv(void) const
	?do_close@?$messages@D@std@@MBEXH@Z @ 230 NONAME ; void std::messages<char>::do_close(int) const
	?do_close@?$messages@_W@std@@MBEXH@Z @ 231 NONAME ; void std::messages<wchar_t>::do_close(int) const
	?do_close@_Messages@stlp_priv@@UBEXH@Z @ 232 NONAME ; void stlp_priv::_Messages::do_close(int) const
	?do_compare@?$collate@D@std@@MBEHPBD000@Z @ 233 NONAME ; int std::collate<char>::do_compare(char const *, char const *, char const *, char const *) const
	?do_compare@?$collate@_W@std@@MBEHPB_W000@Z @ 234 NONAME ; int std::collate<wchar_t>::do_compare(wchar_t const *, wchar_t const *, wchar_t const *, wchar_t const *) const
	?do_compare@?$collate_byname@D@std@@MBEHPBD000@Z @ 235 NONAME ; int std::collate_byname<char>::do_compare(char const *, char const *, char const *, char const *) const
	?do_compare@?$collate_byname@_W@std@@MBEHPB_W000@Z @ 236 NONAME ; int std::collate_byname<wchar_t>::do_compare(wchar_t const *, wchar_t const *, wchar_t const *, wchar_t const *) const
	?do_curr_symbol@?$moneypunct@D$00@std@@MBE?AV?$basic_string@DV?$char_traits@D@std@@V?$allocator@D@2@@2@XZ @ 237 NONAME ; class std::basic_string<char, class std::char_traits<char>, class std::allocator<char> > std::moneypunct<char, 1>::do_curr_symbol(void) const
	?do_curr_symbol@?$moneypunct@D$0A@@std@@MBE?AV?$basic_string@DV?$char_traits@D@std@@V?$allocator@D@2@@2@XZ @ 238 NONAME ; class std::basic_string<char, class std::char_traits<char>, class std::allocator<char> > std::moneypunct<char, 0>::do_curr_symbol(void) const
	?do_curr_symbol@?$moneypunct@_W$00@std@@MBE?AV?$basic_string@_WV?$char_traits@_W@std@@V?$allocator@_W@2@@2@XZ @ 239 NONAME ; class std::basic_string<wchar_t, class std::char_traits<wchar_t>, class std::allocator<wchar_t> > std::moneypunct<wchar_t, 1>::do_curr_symbol(void) const
	?do_curr_symbol@?$moneypunct@_W$0A@@std@@MBE?AV?$basic_string@_WV?$char_traits@_W@std@@V?$allocator@_W@2@@2@XZ @ 240 NONAME ; class std::basic_string<wchar_t, class std::char_traits<wchar_t>, class std::allocator<wchar_t> > std::moneypunct<wchar_t, 0>::do_curr_symbol(void) const
	?do_curr_symbol@?$moneypunct_byname@D$00@std@@MBE?AV?$basic_string@DV?$char_traits@D@std@@V?$allocator@D@2@@2@XZ @ 241 NONAME ; class std::basic_string<char, class std::char_traits<char>, class std::allocator<char> > std::moneypunct_byname<char, 1>::do_curr_symbol(void) const
	?do_curr_symbol@?$moneypunct_byname@D$0A@@std@@MBE?AV?$basic_string@DV?$char_traits@D@std@@V?$allocator@D@2@@2@XZ @ 242 NONAME ; class std::basic_string<char, class std::char_traits<char>, class std::allocator<char> > std::moneypunct_byname<char, 0>::do_curr_symbol(void) const
	?do_curr_symbol@?$moneypunct_byname@_W$00@std@@MBE?AV?$basic_string@_WV?$char_traits@_W@std@@V?$allocator@_W@2@@2@XZ @ 243 NONAME ; class std::basic_string<wchar_t, class std::char_traits<wchar_t>, class std::allocator<wchar_t> > std::moneypunct_byname<wchar_t, 1>::do_curr_symbol(void) const
	?do_curr_symbol@?$moneypunct_byname@_W$0A@@std@@MBE?AV?$basic_string@_WV?$char_traits@_W@std@@V?$allocator@_W@2@@2@XZ @ 244 NONAME ; class std::basic_string<wchar_t, class std::char_traits<wchar_t>, class std::allocator<wchar_t> > std::moneypunct_byname<wchar_t, 0>::do_curr_symbol(void) const
	?do_decimal_point@?$moneypunct@D$00@std@@MBEDXZ @ 245 NONAME ; char std::moneypunct<char, 1>::do_decimal_point(void) const
	?do_decimal_point@?$moneypunct@D$0A@@std@@MBEDXZ @ 246 NONAME ; char std::moneypunct<char, 0>::do_decimal_point(void) const
	?do_decimal_point@?$moneypunct@_W$00@std@@MBE_WXZ @ 247 NONAME ; wchar_t std::moneypunct<wchar_t, 1>::do_decimal_point(void) const
	?do_decimal_point@?$moneypunct@_W$0A@@std@@MBE_WXZ @ 248 NONAME ; wchar_t std::moneypunct<wchar_t, 0>::do_decimal_point(void) const
	?do_decimal_point@?$moneypunct_byname@D$00@std@@MBEDXZ @ 249 NONAME ; char std::moneypunct_byname<char, 1>::do_decimal_point(void) const
	?do_decimal_point@?$moneypunct_byname@D$0A@@std@@MBEDXZ @ 250 NONAME ; char std::moneypunct_byname<char, 0>::do_decimal_point(void) const
	?do_decimal_point@?$moneypunct_byname@_W$00@std@@MBE_WXZ @ 251 NONAME ; wchar_t std::moneypunct_byname<wchar_t, 1>::do_decimal_point(void) const
	?do_decimal_point@?$moneypunct_byname@_W$0A@@std@@MBE_WXZ @ 252 NONAME ; wchar_t std::moneypunct_byname<wchar_t, 0>::do_decimal_point(void) const
	?do_decimal_point@?$numpunct@D@std@@MBEDXZ @ 253 NONAME ; char std::numpunct<char>::do_decimal_point(void) const
	?do_decimal_point@?$numpunct@_W@std@@MBE_WXZ @ 254 NONAME ; wchar_t std::numpunct<wchar_t>::do_decimal_point(void) const
	?do_decimal_point@?$numpunct_byname@D@std@@MBEDXZ @ 255 NONAME ; char std::numpunct_byname<char>::do_decimal_point(void) const
	?do_decimal_point@?$numpunct_byname@_W@std@@MBE_WXZ @ 256 NONAME ; wchar_t std::numpunct_byname<wchar_t>::do_decimal_point(void) const
	?do_encoding@?$codecvt@DDU_mb_state_t@@@std@@MBEHXZ @ 257 NONAME ; int std::codecvt<char, char, struct _mb_state_t>::do_encoding(void) const
	?do_encoding@?$codecvt@_WDU_mb_state_t@@@std@@MBEHXZ @ 258 NONAME ; int std::codecvt<wchar_t, char, struct _mb_state_t>::do_encoding(void) const
	?do_encoding@?$codecvt_byname@_WDU_mb_state_t@@@std@@MBEHXZ @ 259 NONAME ; int std::codecvt_byname<wchar_t, char, struct _mb_state_t>::do_encoding(void) const
	?do_falsename@?$numpunct@D@std@@MBE?AV?$basic_string@DV?$char_traits@D@std@@V?$allocator@D@2@@2@XZ @ 260 NONAME ; class std::basic_string<char, class std::char_traits<char>, class std::allocator<char> > std::numpunct<char>::do_falsename(void) const
	?do_falsename@?$numpunct@_W@std@@MBE?AV?$basic_string@_WV?$char_traits@_W@std@@V?$allocator@_W@2@@2@XZ @ 261 NONAME ; class std::basic_string<wchar_t, class std::char_traits<wchar_t>, class std::allocator<wchar_t> > std::numpunct<wchar_t>::do_falsename(void) const
	?do_frac_digits@?$moneypunct@D$00@std@@MBEHXZ @ 262 NONAME ; int std::moneypunct<char, 1>::do_frac_digits(void) const
	?do_frac_digits@?$moneypunct@D$0A@@std@@MBEHXZ @ 263 NONAME ; int std::moneypunct<char, 0>::do_frac_digits(void) const
	?do_frac_digits@?$moneypunct@_W$00@std@@MBEHXZ @ 264 NONAME ; int std::moneypunct<wchar_t, 1>::do_frac_digits(void) const
	?do_frac_digits@?$moneypunct@_W$0A@@std@@MBEHXZ @ 265 NONAME ; int std::moneypunct<wchar_t, 0>::do_frac_digits(void) const
	?do_frac_digits@?$moneypunct_byname@D$00@std@@MBEHXZ @ 266 NONAME ; int std::moneypunct_byname<char, 1>::do_frac_digits(void) const
	?do_frac_digits@?$moneypunct_byname@D$0A@@std@@MBEHXZ @ 267 NONAME ; int std::moneypunct_byname<char, 0>::do_frac_digits(void) const
	?do_frac_digits@?$moneypunct_byname@_W$00@std@@MBEHXZ @ 268 NONAME ; int std::moneypunct_byname<wchar_t, 1>::do_frac_digits(void) const
	?do_frac_digits@?$moneypunct_byname@_W$0A@@std@@MBEHXZ @ 269 NONAME ; int std::moneypunct_byname<wchar_t, 0>::do_frac_digits(void) const
	?do_get@?$messages@D@std@@MBE?AV?$basic_string@DV?$char_traits@D@std@@V?$allocator@D@2@@2@HHHABV32@@Z @ 270 NONAME ; class std::basic_string<char, class std::char_traits<char>, class std::allocator<char> > std::messages<char>::do_get(int, int, int, class std::basic_string<char, class std::char_traits<char>, class std::allocator<char> > const &) const
	?do_get@?$messages@_W@std@@MBE?AV?$basic_string@_WV?$char_traits@_W@std@@V?$allocator@_W@2@@2@HHHABV32@@Z @ 271 NONAME ; class std::basic_string<wchar_t, class std::char_traits<wchar_t>, class std::allocator<wchar_t> > std::messages<wchar_t>::do_get(int, int, int, class std::basic_string<wchar_t, class std::char_traits<wchar_t>, class std::allocator<wchar_t> > const &) const
	?do_get@_Messages@stlp_priv@@UBE?AV?$basic_string@DV?$char_traits@D@std@@V?$allocator@D@2@@std@@HHHABV34@@Z @ 272 NONAME ; class std::basic_string<char, class std::char_traits<char>, class std::allocator<char> > stlp_priv::_Messages::do_get(int, int, int, class std::basic_string<char, class std::char_traits<char>, class std::allocator<char> > const &) const
	?do_grouping@?$moneypunct@D$00@std@@MBE?AV?$basic_string@DV?$char_traits@D@std@@V?$allocator@D@2@@2@XZ @ 273 NONAME ; class std::basic_string<char, class std::char_traits<char>, class std::allocator<char> > std::moneypunct<char, 1>::do_grouping(void) const
	?do_grouping@?$moneypunct@D$0A@@std@@MBE?AV?$basic_string@DV?$char_traits@D@std@@V?$allocator@D@2@@2@XZ @ 274 NONAME ; class std::basic_string<char, class std::char_traits<char>, class std::allocator<char> > std::moneypunct<char, 0>::do_grouping(void) const
	?do_grouping@?$moneypunct@_W$00@std@@MBE?AV?$basic_string@DV?$char_traits@D@std@@V?$allocator@D@2@@2@XZ @ 275 NONAME ; class std::basic_string<char, class std::char_traits<char>, class std::allocator<char> > std::moneypunct<wchar_t, 1>::do_grouping(void) const
	?do_grouping@?$moneypunct@_W$0A@@std@@MBE?AV?$basic_string@DV?$char_traits@D@std@@V?$allocator@D@2@@2@XZ @ 276 NONAME ; class std::basic_string<char, class std::char_traits<char>, class std::allocator<char> > std::moneypunct<wchar_t, 0>::do_grouping(void) const
	?do_grouping@?$moneypunct_byname@D$00@std@@MBE?AV?$basic_string@DV?$char_traits@D@std@@V?$allocator@D@2@@2@XZ @ 277 NONAME ; class std::basic_string<char, class std::char_traits<char>, class std::allocator<char> > std::moneypunct_byname<char, 1>::do_grouping(void) const
	?do_grouping@?$moneypunct_byname@D$0A@@std@@MBE?AV?$basic_string@DV?$char_traits@D@std@@V?$allocator@D@2@@2@XZ @ 278 NONAME ; class std::basic_string<char, class std::char_traits<char>, class std::allocator<char> > std::moneypunct_byname<char, 0>::do_grouping(void) const
	?do_grouping@?$moneypunct_byname@_W$00@std@@MBE?AV?$basic_string@DV?$char_traits@D@std@@V?$allocator@D@2@@2@XZ @ 279 NONAME ; class std::basic_string<char, class std::char_traits<char>, class std::allocator<char> > std::moneypunct_byname<wchar_t, 1>::do_grouping(void) const
	?do_grouping@?$moneypunct_byname@_W$0A@@std@@MBE?AV?$basic_string@DV?$char_traits@D@std@@V?$allocator@D@2@@2@XZ @ 280 NONAME ; class std::basic_string<char, class std::char_traits<char>, class std::allocator<char> > std::moneypunct_byname<wchar_t, 0>::do_grouping(void) const
	?do_grouping@?$numpunct@D@std@@MBE?AV?$basic_string@DV?$char_traits@D@std@@V?$allocator@D@2@@2@XZ @ 281 NONAME ; class std::basic_string<char, class std::char_traits<char>, class std::allocator<char> > std::numpunct<char>::do_grouping(void) const
	?do_grouping@?$numpunct@_W@std@@MBE?AV?$basic_string@DV?$char_traits@D@std@@V?$allocator@D@2@@2@XZ @ 282 NONAME ; class std::basic_string<char, class std::char_traits<char>, class std::allocator<char> > std::numpunct<wchar_t>::do_grouping(void) const
	?do_grouping@?$numpunct_byname@D@std@@MBE?AV?$basic_string@DV?$char_traits@D@std@@V?$allocator@D@2@@2@XZ @ 283 NONAME ; class std::basic_string<char, class std::char_traits<char>, class std::allocator<char> > std::numpunct_byname<char>::do_grouping(void) const
	?do_grouping@?$numpunct_byname@_W@std@@MBE?AV?$basic_string@DV?$char_traits@D@std@@V?$allocator@D@2@@2@XZ @ 284 NONAME ; class std::basic_string<char, class std::char_traits<char>, class std::allocator<char> > std::numpunct_byname<wchar_t>::do_grouping(void) const
	?do_hash@?$collate@D@std@@MBEJPBD0@Z @ 285 NONAME ; long std::collate<char>::do_hash(char const *, char const *) const
	?do_hash@?$collate@_W@std@@MBEJPB_W0@Z @ 286 NONAME ; long std::collate<wchar_t>::do_hash(wchar_t const *, wchar_t const *) const
	?do_in@?$codecvt@DDU_mb_state_t@@@std@@MBE?AW4result@codecvt_base@2@AAU_mb_state_t@@PBD1AAPBDPAD3AAPAD@Z @ 287 NONAME ; enum std::codecvt_base::result std::codecvt<char, char, struct _mb_state_t>::do_in(struct _mb_state_t &, char const *, char const *, char const * &, char *, char *, char * &) const
	?do_in@?$codecvt@_WDU_mb_state_t@@@std@@MBE?AW4result@codecvt_base@2@AAU_mb_state_t@@PBD1AAPBDPA_W3AAPA_W@Z @ 288 NONAME ; enum std::codecvt_base::result std::codecvt<wchar_t, char, struct _mb_state_t>::do_in(struct _mb_state_t &, char const *, char const *, char const * &, wchar_t *, wchar_t *, wchar_t * &) const
	?do_in@?$codecvt_byname@_WDU_mb_state_t@@@std@@MBE?AW4result@codecvt_base@2@AAU_mb_state_t@@PBD1AAPBDPA_W3AAPA_W@Z @ 289 NONAME ; enum std::codecvt_base::result std::codecvt_byname<wchar_t, char, struct _mb_state_t>::do_in(struct _mb_state_t &, char const *, char const *, char const * &, wchar_t *, wchar_t *, wchar_t * &) const
	?do_is@?$ctype@_W@std@@MBEPB_WPB_W0PAW4mask@ctype_base@2@@Z @ 290 NONAME ; wchar_t const * std::ctype<wchar_t>::do_is(wchar_t const *, wchar_t const *, enum std::ctype_base::mask *) const
	?do_is@?$ctype@_W@std@@MBE_NW4mask@ctype_base@2@_W@Z @ 291 NONAME ; bool std::ctype<wchar_t>::do_is(enum std::ctype_base::mask, wchar_t) const
	?do_is@?$ctype_byname@_W@std@@MBEPB_WPB_W0PAW4mask@ctype_base@2@@Z @ 292 NONAME ; wchar_t const * std::ctype_byname<wchar_t>::do_is(wchar_t const *, wchar_t const *, enum std::ctype_base::mask *) const
	?do_is@?$ctype_byname@_W@std@@MBE_NW4mask@ctype_base@2@_W@Z @ 293 NONAME ; bool std::ctype_byname<wchar_t>::do_is(enum std::ctype_base::mask, wchar_t) const
	?do_length@?$codecvt@DDU_mb_state_t@@@std@@MBEHABU_mb_state_t@@PBD1I@Z @ 294 NONAME ; int std::codecvt<char, char, struct _mb_state_t>::do_length(struct _mb_state_t const &, char const *, char const *, unsigned int) const
	?do_length@?$codecvt@_WDU_mb_state_t@@@std@@MBEHABU_mb_state_t@@PBD1I@Z @ 295 NONAME ; int std::codecvt<wchar_t, char, struct _mb_state_t>::do_length(struct _mb_state_t const &, char const *, char const *, unsigned int) const
	?do_length@?$codecvt_byname@_WDU_mb_state_t@@@std@@MBEHABU_mb_state_t@@PBD1I@Z @ 296 NONAME ; int std::codecvt_byname<wchar_t, char, struct _mb_state_t>::do_length(struct _mb_state_t const &, char const *, char const *, unsigned int) const
	?do_max_length@?$codecvt@DDU_mb_state_t@@@std@@MBEHXZ @ 297 NONAME ; int std::codecvt<char, char, struct _mb_state_t>::do_max_length(void) const
	?do_max_length@?$codecvt@_WDU_mb_state_t@@@std@@MBEHXZ @ 298 NONAME ; int std::codecvt<wchar_t, char, struct _mb_state_t>::do_max_length(void) const
	?do_max_length@?$codecvt_byname@_WDU_mb_state_t@@@std@@MBEHXZ @ 299 NONAME ; int std::codecvt_byname<wchar_t, char, struct _mb_state_t>::do_max_length(void) const
	?do_narrow@?$ctype@D@std@@MBEDDD@Z @ 300 NONAME ; char std::ctype<char>::do_narrow(char, char) const
	?do_narrow@?$ctype@D@std@@MBEPBDPBD0DPAD@Z @ 301 NONAME ; char const * std::ctype<char>::do_narrow(char const *, char const *, char, char *) const
	?do_narrow@?$ctype@_W@std@@MBED_WD@Z @ 302 NONAME ; char std::ctype<wchar_t>::do_narrow(wchar_t, char) const
	?do_narrow@?$ctype@_W@std@@MBEPB_WPB_W0DPAD@Z @ 303 NONAME ; wchar_t const * std::ctype<wchar_t>::do_narrow(wchar_t const *, wchar_t const *, char, char *) const
	?do_neg_format@?$moneypunct@D$00@std@@MBE?AUpattern@money_base@2@XZ @ 304 NONAME ; struct std::money_base::pattern std::moneypunct<char, 1>::do_neg_format(void) const
	?do_neg_format@?$moneypunct@D$0A@@std@@MBE?AUpattern@money_base@2@XZ @ 305 NONAME ; struct std::money_base::pattern std::moneypunct<char, 0>::do_neg_format(void) const
	?do_neg_format@?$moneypunct@_W$00@std@@MBE?AUpattern@money_base@2@XZ @ 306 NONAME ; struct std::money_base::pattern std::moneypunct<wchar_t, 1>::do_neg_format(void) const
	?do_neg_format@?$moneypunct@_W$0A@@std@@MBE?AUpattern@money_base@2@XZ @ 307 NONAME ; struct std::money_base::pattern std::moneypunct<wchar_t, 0>::do_neg_format(void) const
	?do_negative_sign@?$moneypunct@D$00@std@@MBE?AV?$basic_string@DV?$char_traits@D@std@@V?$allocator@D@2@@2@XZ @ 308 NONAME ; class std::basic_string<char, class std::char_traits<char>, class std::allocator<char> > std::moneypunct<char, 1>::do_negative_sign(void) const
	?do_negative_sign@?$moneypunct@D$0A@@std@@MBE?AV?$basic_string@DV?$char_traits@D@std@@V?$allocator@D@2@@2@XZ @ 309 NONAME ; class std::basic_string<char, class std::char_traits<char>, class std::allocator<char> > std::moneypunct<char, 0>::do_negative_sign(void) const
	?do_negative_sign@?$moneypunct@_W$00@std@@MBE?AV?$basic_string@_WV?$char_traits@_W@std@@V?$allocator@_W@2@@2@XZ @ 310 NONAME ; class std::basic_string<wchar_t, class std::char_traits<wchar_t>, class std::allocator<wchar_t> > std::moneypunct<wchar_t, 1>::do_negative_sign(void) const
	?do_negative_sign@?$moneypunct@_W$0A@@std@@MBE?AV?$basic_string@_WV?$char_traits@_W@std@@V?$allocator@_W@2@@2@XZ @ 311 NONAME ; class std::basic_string<wchar_t, class std::char_traits<wchar_t>, class std::allocator<wchar_t> > std::moneypunct<wchar_t, 0>::do_negative_sign(void) const
	?do_negative_sign@?$moneypunct_byname@D$00@std@@MBE?AV?$basic_string@DV?$char_traits@D@std@@V?$allocator@D@2@@2@XZ @ 312 NONAME ; class std::basic_string<char, class std::char_traits<char>, class std::allocator<char> > std::moneypunct_byname<char, 1>::do_negative_sign(void) const
	?do_negative_sign@?$moneypunct_byname@D$0A@@std@@MBE?AV?$basic_string@DV?$char_traits@D@std@@V?$allocator@D@2@@2@XZ @ 313 NONAME ; class std::basic_string<char, class std::char_traits<char>, class std::allocator<char> > std::moneypunct_byname<char, 0>::do_negative_sign(void) const
	?do_negative_sign@?$moneypunct_byname@_W$00@std@@MBE?AV?$basic_string@_WV?$char_traits@_W@std@@V?$allocator@_W@2@@2@XZ @ 314 NONAME ; class std::basic_string<wchar_t, class std::char_traits<wchar_t>, class std::allocator<wchar_t> > std::moneypunct_byname<wchar_t, 1>::do_negative_sign(void) const
	?do_negative_sign@?$moneypunct_byname@_W$0A@@std@@MBE?AV?$basic_string@_WV?$char_traits@_W@std@@V?$allocator@_W@2@@2@XZ @ 315 NONAME ; class std::basic_string<wchar_t, class std::char_traits<wchar_t>, class std::allocator<wchar_t> > std::moneypunct_byname<wchar_t, 0>::do_negative_sign(void) const
	?do_open@?$messages@D@std@@MBEHABV?$basic_string@DV?$char_traits@D@std@@V?$allocator@D@2@@2@ABVlocale@2@@Z @ 316 NONAME ; int std::messages<char>::do_open(class std::basic_string<char, class std::char_traits<char>, class std::allocator<char> > const &, class std::locale const &) const
	?do_open@?$messages@_W@std@@MBEHABV?$basic_string@DV?$char_traits@D@std@@V?$allocator@D@2@@2@ABVlocale@2@@Z @ 317 NONAME ; int std::messages<wchar_t>::do_open(class std::basic_string<char, class std::char_traits<char>, class std::allocator<char> > const &, class std::locale const &) const
	?do_open@_Messages@stlp_priv@@UBEHABV?$basic_string@DV?$char_traits@D@std@@V?$allocator@D@2@@std@@ABVlocale@4@@Z @ 318 NONAME ; int stlp_priv::_Messages::do_open(class std::basic_string<char, class std::char_traits<char>, class std::allocator<char> > const &, class std::locale const &) const
	?do_out@?$codecvt@DDU_mb_state_t@@@std@@MBE?AW4result@codecvt_base@2@AAU_mb_state_t@@PBD1AAPBDPAD3AAPAD@Z @ 319 NONAME ; enum std::codecvt_base::result std::codecvt<char, char, struct _mb_state_t>::do_out(struct _mb_state_t &, char const *, char const *, char const * &, char *, char *, char * &) const
	?do_out@?$codecvt@_WDU_mb_state_t@@@std@@MBE?AW4result@codecvt_base@2@AAU_mb_state_t@@PB_W1AAPB_WPAD3AAPAD@Z @ 320 NONAME ; enum std::codecvt_base::result std::codecvt<wchar_t, char, struct _mb_state_t>::do_out(struct _mb_state_t &, wchar_t const *, wchar_t const *, wchar_t const * &, char *, char *, char * &) const
	?do_out@?$codecvt_byname@_WDU_mb_state_t@@@std@@MBE?AW4result@codecvt_base@2@AAU_mb_state_t@@PB_W1AAPB_WPAD3AAPAD@Z @ 321 NONAME ; enum std::codecvt_base::result std::codecvt_byname<wchar_t, char, struct _mb_state_t>::do_out(struct _mb_state_t &, wchar_t const *, wchar_t const *, wchar_t const * &, char *, char *, char * &) const
	?do_pos_format@?$moneypunct@D$00@std@@MBE?AUpattern@money_base@2@XZ @ 322 NONAME ; struct std::money_base::pattern std::moneypunct<char, 1>::do_pos_format(void) const
	?do_pos_format@?$moneypunct@D$0A@@std@@MBE?AUpattern@money_base@2@XZ @ 323 NONAME ; struct std::money_base::pattern std::moneypunct<char, 0>::do_pos_format(void) const
	?do_pos_format@?$moneypunct@_W$00@std@@MBE?AUpattern@money_base@2@XZ @ 324 NONAME ; struct std::money_base::pattern std::moneypunct<wchar_t, 1>::do_pos_format(void) const
	?do_pos_format@?$moneypunct@_W$0A@@std@@MBE?AUpattern@money_base@2@XZ @ 325 NONAME ; struct std::money_base::pattern std::moneypunct<wchar_t, 0>::do_pos_format(void) const
	?do_positive_sign@?$moneypunct@D$00@std@@MBE?AV?$basic_string@DV?$char_traits@D@std@@V?$allocator@D@2@@2@XZ @ 326 NONAME ; class std::basic_string<char, class std::char_traits<char>, class std::allocator<char> > std::moneypunct<char, 1>::do_positive_sign(void) const
	?do_positive_sign@?$moneypunct@D$0A@@std@@MBE?AV?$basic_string@DV?$char_traits@D@std@@V?$allocator@D@2@@2@XZ @ 327 NONAME ; class std::basic_string<char, class std::char_traits<char>, class std::allocator<char> > std::moneypunct<char, 0>::do_positive_sign(void) const
	?do_positive_sign@?$moneypunct@_W$00@std@@MBE?AV?$basic_string@_WV?$char_traits@_W@std@@V?$allocator@_W@2@@2@XZ @ 328 NONAME ; class std::basic_string<wchar_t, class std::char_traits<wchar_t>, class std::allocator<wchar_t> > std::moneypunct<wchar_t, 1>::do_positive_sign(void) const
	?do_positive_sign@?$moneypunct@_W$0A@@std@@MBE?AV?$basic_string@_WV?$char_traits@_W@std@@V?$allocator@_W@2@@2@XZ @ 329 NONAME ; class std::basic_string<wchar_t, class std::char_traits<wchar_t>, class std::allocator<wchar_t> > std::moneypunct<wchar_t, 0>::do_positive_sign(void) const
	?do_positive_sign@?$moneypunct_byname@D$00@std@@MBE?AV?$basic_string@DV?$char_traits@D@std@@V?$allocator@D@2@@2@XZ @ 330 NONAME ; class std::basic_string<char, class std::char_traits<char>, class std::allocator<char> > std::moneypunct_byname<char, 1>::do_positive_sign(void) const
	?do_positive_sign@?$moneypunct_byname@D$0A@@std@@MBE?AV?$basic_string@DV?$char_traits@D@std@@V?$allocator@D@2@@2@XZ @ 331 NONAME ; class std::basic_string<char, class std::char_traits<char>, class std::allocator<char> > std::moneypunct_byname<char, 0>::do_positive_sign(void) const
	?do_positive_sign@?$moneypunct_byname@_W$00@std@@MBE?AV?$basic_string@_WV?$char_traits@_W@std@@V?$allocator@_W@2@@2@XZ @ 332 NONAME ; class std::basic_string<wchar_t, class std::char_traits<wchar_t>, class std::allocator<wchar_t> > std::moneypunct_byname<wchar_t, 1>::do_positive_sign(void) const
	?do_positive_sign@?$moneypunct_byname@_W$0A@@std@@MBE?AV?$basic_string@_WV?$char_traits@_W@std@@V?$allocator@_W@2@@2@XZ @ 333 NONAME ; class std::basic_string<wchar_t, class std::char_traits<wchar_t>, class std::allocator<wchar_t> > std::moneypunct_byname<wchar_t, 0>::do_positive_sign(void) const
	?do_scan_is@?$ctype@_W@std@@MBEPB_WW4mask@ctype_base@2@PB_W1@Z @ 334 NONAME ; wchar_t const * std::ctype<wchar_t>::do_scan_is(enum std::ctype_base::mask, wchar_t const *, wchar_t const *) const
	?do_scan_is@?$ctype_byname@_W@std@@MBEPB_WW4mask@ctype_base@2@PB_W1@Z @ 335 NONAME ; wchar_t const * std::ctype_byname<wchar_t>::do_scan_is(enum std::ctype_base::mask, wchar_t const *, wchar_t const *) const
	?do_scan_not@?$ctype@_W@std@@MBEPB_WW4mask@ctype_base@2@PB_W1@Z @ 336 NONAME ; wchar_t const * std::ctype<wchar_t>::do_scan_not(enum std::ctype_base::mask, wchar_t const *, wchar_t const *) const
	?do_scan_not@?$ctype_byname@_W@std@@MBEPB_WW4mask@ctype_base@2@PB_W1@Z @ 337 NONAME ; wchar_t const * std::ctype_byname<wchar_t>::do_scan_not(enum std::ctype_base::mask, wchar_t const *, wchar_t const *) const
	?do_thousands_sep@?$moneypunct@D$00@std@@MBEDXZ @ 338 NONAME ; char std::moneypunct<char, 1>::do_thousands_sep(void) const
	?do_thousands_sep@?$moneypunct@D$0A@@std@@MBEDXZ @ 339 NONAME ; char std::moneypunct<char, 0>::do_thousands_sep(void) const
	?do_thousands_sep@?$moneypunct@_W$00@std@@MBE_WXZ @ 340 NONAME ; wchar_t std::moneypunct<wchar_t, 1>::do_thousands_sep(void) const
	?do_thousands_sep@?$moneypunct@_W$0A@@std@@MBE_WXZ @ 341 NONAME ; wchar_t std::moneypunct<wchar_t, 0>::do_thousands_sep(void) const
	?do_thousands_sep@?$moneypunct_byname@D$00@std@@MBEDXZ @ 342 NONAME ; char std::moneypunct_byname<char, 1>::do_thousands_sep(void) const
	?do_thousands_sep@?$moneypunct_byname@D$0A@@std@@MBEDXZ @ 343 NONAME ; char std::moneypunct_byname<char, 0>::do_thousands_sep(void) const
	?do_thousands_sep@?$moneypunct_byname@_W$00@std@@MBE_WXZ @ 344 NONAME ; wchar_t std::moneypunct_byname<wchar_t, 1>::do_thousands_sep(void) const
	?do_thousands_sep@?$moneypunct_byname@_W$0A@@std@@MBE_WXZ @ 345 NONAME ; wchar_t std::moneypunct_byname<wchar_t, 0>::do_thousands_sep(void) const
	?do_thousands_sep@?$numpunct@D@std@@MBEDXZ @ 346 NONAME ; char std::numpunct<char>::do_thousands_sep(void) const
	?do_thousands_sep@?$numpunct@_W@std@@MBE_WXZ @ 347 NONAME ; wchar_t std::numpunct<wchar_t>::do_thousands_sep(void) const
	?do_thousands_sep@?$numpunct_byname@D@std@@MBEDXZ @ 348 NONAME ; char std::numpunct_byname<char>::do_thousands_sep(void) const
	?do_thousands_sep@?$numpunct_byname@_W@std@@MBE_WXZ @ 349 NONAME ; wchar_t std::numpunct_byname<wchar_t>::do_thousands_sep(void) const
	?do_tolower@?$ctype@D@std@@MBEDD@Z @ 350 NONAME ; char std::ctype<char>::do_tolower(char) const
	?do_tolower@?$ctype@D@std@@MBEPBDPADPBD@Z @ 351 NONAME ; char const * std::ctype<char>::do_tolower(char *, char const *) const
	?do_tolower@?$ctype@_W@std@@MBEPB_WPA_WPB_W@Z @ 352 NONAME ; wchar_t const * std::ctype<wchar_t>::do_tolower(wchar_t *, wchar_t const *) const
	?do_tolower@?$ctype@_W@std@@MBE_W_W@Z @ 353 NONAME ; wchar_t std::ctype<wchar_t>::do_tolower(wchar_t) const
	?do_tolower@?$ctype_byname@D@std@@UBEDD@Z @ 354 NONAME ; char std::ctype_byname<char>::do_tolower(char) const
	?do_tolower@?$ctype_byname@D@std@@UBEPBDPADPBD@Z @ 355 NONAME ; char const * std::ctype_byname<char>::do_tolower(char *, char const *) const
	?do_tolower@?$ctype_byname@_W@std@@MBEPB_WPA_WPB_W@Z @ 356 NONAME ; wchar_t const * std::ctype_byname<wchar_t>::do_tolower(wchar_t *, wchar_t const *) const
	?do_tolower@?$ctype_byname@_W@std@@MBE_W_W@Z @ 357 NONAME ; wchar_t std::ctype_byname<wchar_t>::do_tolower(wchar_t) const
	?do_toupper@?$ctype@D@std@@MBEDD@Z @ 358 NONAME ; char std::ctype<char>::do_toupper(char) const
	?do_toupper@?$ctype@D@std@@MBEPBDPADPBD@Z @ 359 NONAME ; char const * std::ctype<char>::do_toupper(char *, char const *) const
	?do_toupper@?$ctype@_W@std@@MBEPB_WPA_WPB_W@Z @ 360 NONAME ; wchar_t const * std::ctype<wchar_t>::do_toupper(wchar_t *, wchar_t const *) const
	?do_toupper@?$ctype@_W@std@@MBE_W_W@Z @ 361 NONAME ; wchar_t std::ctype<wchar_t>::do_toupper(wchar_t) const
	?do_toupper@?$ctype_byname@D@std@@UBEDD@Z @ 362 NONAME ; char std::ctype_byname<char>::do_toupper(char) const
	?do_toupper@?$ctype_byname@D@std@@UBEPBDPADPBD@Z @ 363 NONAME ; char const * std::ctype_byname<char>::do_toupper(char *, char const *) const
	?do_toupper@?$ctype_byname@_W@std@@MBEPB_WPA_WPB_W@Z @ 364 NONAME ; wchar_t const * std::ctype_byname<wchar_t>::do_toupper(wchar_t *, wchar_t const *) const
	?do_toupper@?$ctype_byname@_W@std@@MBE_W_W@Z @ 365 NONAME ; wchar_t std::ctype_byname<wchar_t>::do_toupper(wchar_t) const
	?do_transform@?$collate@D@std@@MBE?AV?$basic_string@DV?$char_traits@D@std@@V?$allocator@D@2@@2@PBD0@Z @ 366 NONAME ; class std::basic_string<char, class std::char_traits<char>, class std::allocator<char> > std::collate<char>::do_transform(char const *, char const *) const
	?do_transform@?$collate@_W@std@@MBE?AV?$basic_string@_WV?$char_traits@_W@std@@V?$allocator@_W@2@@2@PB_W0@Z @ 367 NONAME ; class std::basic_string<wchar_t, class std::char_traits<wchar_t>, class std::allocator<wchar_t> > std::collate<wchar_t>::do_transform(wchar_t const *, wchar_t const *) const
	?do_transform@?$collate_byname@D@std@@MBE?AV?$basic_string@DV?$char_traits@D@std@@V?$allocator@D@2@@2@PBD0@Z @ 368 NONAME ; class std::basic_string<char, class std::char_traits<char>, class std::allocator<char> > std::collate_byname<char>::do_transform(char const *, char const *) const
	?do_transform@?$collate_byname@_W@std@@MBE?AV?$basic_string@_WV?$char_traits@_W@std@@V?$allocator@_W@2@@2@PB_W0@Z @ 369 NONAME ; class std::basic_string<wchar_t, class std::char_traits<wchar_t>, class std::allocator<wchar_t> > std::collate_byname<wchar_t>::do_transform(wchar_t const *, wchar_t const *) const
	?do_truename@?$numpunct@D@std@@MBE?AV?$basic_string@DV?$char_traits@D@std@@V?$allocator@D@2@@2@XZ @ 370 NONAME ; class std::basic_string<char, class std::char_traits<char>, class std::allocator<char> > std::numpunct<char>::do_truename(void) const
	?do_truename@?$numpunct@_W@std@@MBE?AV?$basic_string@_WV?$char_traits@_W@std@@V?$allocator@_W@2@@2@XZ @ 371 NONAME ; class std::basic_string<wchar_t, class std::char_traits<wchar_t>, class std::allocator<wchar_t> > std::numpunct<wchar_t>::do_truename(void) const
	?do_unshift@?$codecvt@DDU_mb_state_t@@@std@@MBE?AW4result@codecvt_base@2@AAU_mb_state_t@@PAD1AAPAD@Z @ 372 NONAME ; enum std::codecvt_base::result std::codecvt<char, char, struct _mb_state_t>::do_unshift(struct _mb_state_t &, char *, char *, char * &) const
	?do_unshift@?$codecvt@_WDU_mb_state_t@@@std@@MBE?AW4result@codecvt_base@2@AAU_mb_state_t@@PAD1AAPAD@Z @ 373 NONAME ; enum std::codecvt_base::result std::codecvt<wchar_t, char, struct _mb_state_t>::do_unshift(struct _mb_state_t &, char *, char *, char * &) const
	?do_unshift@?$codecvt_byname@_WDU_mb_state_t@@@std@@MBE?AW4result@codecvt_base@2@AAU_mb_state_t@@PAD1AAPAD@Z @ 374 NONAME ; enum std::codecvt_base::result std::codecvt_byname<wchar_t, char, struct _mb_state_t>::do_unshift(struct _mb_state_t &, char *, char *, char * &) const
	?do_widen@?$ctype@D@std@@MBEDD@Z @ 375 NONAME ; char std::ctype<char>::do_widen(char) const
	?do_widen@?$ctype@D@std@@MBEPBDPBD0PAD@Z @ 376 NONAME ; char const * std::ctype<char>::do_widen(char const *, char const *, char *) const
	?do_widen@?$ctype@_W@std@@MBEPBDPBD0PA_W@Z @ 377 NONAME ; char const * std::ctype<wchar_t>::do_widen(char const *, char const *, wchar_t *) const
	?do_widen@?$ctype@_W@std@@MBE_WD@Z @ 378 NONAME ; wchar_t std::ctype<wchar_t>::do_widen(char) const
	?exp@std@@YA?AU?$complex@M@1@ABU21@@Z @ 379 NONAME ; struct std::complex<float> std::exp(struct std::complex<float> const &)
	?exp@std@@YA?AU?$complex@N@1@ABU21@@Z @ 380 NONAME ; struct std::complex<double> std::exp(struct std::complex<double> const &)
	?exp@std@@YA?AU?$complex@O@1@ABU21@@Z @ 381 NONAME ; struct std::complex<long double> std::exp(struct std::complex<long double> const &)
	?exp_get_threads_0_S_swap_lock@@YAAAU_STLP_mutex_base@std@@XZ @ 382 NONAME ; struct std::_STLP_mutex_base & exp_get_threads_0_S_swap_lock(void)
	?exp_get_threads_S_swap_lock@@YAAAU_STLP_mutex_base@std@@XZ @ 383 NONAME ; struct std::_STLP_mutex_base & exp_get_threads_S_swap_lock(void)
	?freeze@ostrstream@std@@QAEX_N@Z @ 384 NONAME ; void std::ostrstream::freeze(bool)
	?freeze@strstream@std@@QAEX_N@Z @ 385 NONAME ; void std::strstream::freeze(bool)
	?freeze@strstreambuf@std@@QAEX_N@Z @ 386 NONAME ; void std::strstreambuf::freeze(bool)
	?get_cerr@std@@YAAAV?$basic_ostream@DV?$char_traits@D@std@@@1@XZ @ 387 NONAME ; class std::basic_ostream<char, class std::char_traits<char> > & std::get_cerr(void)
	?get_cin@std@@YAAAV?$basic_istream@DV?$char_traits@D@std@@@1@XZ @ 388 NONAME ; class std::basic_istream<char, class std::char_traits<char> > & std::get_cin(void)
	?get_clog@std@@YAAAV?$basic_ostream@DV?$char_traits@D@std@@@1@XZ @ 389 NONAME ; class std::basic_ostream<char, class std::char_traits<char> > & std::get_clog(void)
	?get_cout@std@@YAAAV?$basic_ostream@DV?$char_traits@D@std@@@1@XZ @ 390 NONAME ; class std::basic_ostream<char, class std::char_traits<char> > & std::get_cout(void)
	?get_fstream_Filebuf_Base_GetPageSize@@YAAAIXZ @ 391 NONAME ; unsigned int & get_fstream_Filebuf_Base_GetPageSize(void)
	?get_libcpp_wsd@@YAAAV_Libcpp_wsd@@XZ @ 392 NONAME ; class _Libcpp_wsd & get_libcpp_wsd(void)
	?get_oom_handler@__malloc_alloc_impl@std@@CAAAP6AXXZXZ @ 393 NONAME ; void (*)(void) & std::__malloc_alloc_impl::get_oom_handler(void)
	?get_wcerr@std@@YAAAV?$basic_ostream@_WV?$char_traits@_W@std@@@1@XZ @ 394 NONAME ; class std::basic_ostream<wchar_t, class std::char_traits<wchar_t> > & std::get_wcerr(void)
	?get_wcin@std@@YAAAV?$basic_istream@_WV?$char_traits@_W@std@@@1@XZ @ 395 NONAME ; class std::basic_istream<wchar_t, class std::char_traits<wchar_t> > & std::get_wcin(void)
	?get_wclog@std@@YAAAV?$basic_ostream@_WV?$char_traits@_W@std@@@1@XZ @ 396 NONAME ; class std::basic_ostream<wchar_t, class std::char_traits<wchar_t> > & std::get_wclog(void)
	?get_wcout@std@@YAAAV?$basic_ostream@_WV?$char_traits@_W@std@@@1@XZ @ 397 NONAME ; class std::basic_ostream<wchar_t, class std::char_traits<wchar_t> > & std::get_wcout(void)
	?global@locale@std@@SA?AV12@ABV12@@Z @ 398 NONAME ; class std::locale std::locale::global(class std::locale const &)
	?imbue@ios_base@std@@QAE?AVlocale@2@ABV32@@Z @ 399 NONAME ; class std::locale std::ios_base::imbue(class std::locale const &)
	?iword@ios_base@std@@QAEAAJH@Z @ 400 NONAME ; long & std::ios_base::iword(int)
	?log10@std@@YA?AU?$complex@M@1@ABU21@@Z @ 401 NONAME ; struct std::complex<float> std::log10(struct std::complex<float> const &)
	?log10@std@@YA?AU?$complex@N@1@ABU21@@Z @ 402 NONAME ; struct std::complex<double> std::log10(struct std::complex<double> const &)
	?log10@std@@YA?AU?$complex@O@1@ABU21@@Z @ 403 NONAME ; struct std::complex<long double> std::log10(struct std::complex<long double> const &)
	?log@std@@YA?AU?$complex@M@1@ABU21@@Z @ 404 NONAME ; struct std::complex<float> std::log(struct std::complex<float> const &)
	?log@std@@YA?AU?$complex@N@1@ABU21@@Z @ 405 NONAME ; struct std::complex<double> std::log(struct std::complex<double> const &)
	?log@std@@YA?AU?$complex@O@1@ABU21@@Z @ 406 NONAME ; struct std::complex<long double> std::log(struct std::complex<long double> const &)
	?name@locale@std@@QBE?AV?$basic_string@DV?$char_traits@D@std@@V?$allocator@D@2@@2@XZ @ 407 NONAME ; class std::basic_string<char, class std::char_traits<char>, class std::allocator<char> > std::locale::name(void) const
	?overflow@strstreambuf@std@@MAEHH@Z @ 408 NONAME ; int std::strstreambuf::overflow(int)
	?pbackfail@strstreambuf@std@@MAEHH@Z @ 409 NONAME ; int std::strstreambuf::pbackfail(int)
	?pcount@ostrstream@std@@QBEHXZ @ 410 NONAME ; int std::ostrstream::pcount(void) const
	?pcount@strstream@std@@QBEHXZ @ 411 NONAME ; int std::strstream::pcount(void) const
	?pcount@strstreambuf@std@@QBEHXZ @ 412 NONAME ; int std::strstreambuf::pcount(void) const
	?polar@?$@M@std@@YA?AU?$complex@M@1@ABM0@Z @ 413 NONAME ; struct std::complex<float> std::polar<float>(float const &, float const &)
	?polar@?$@N@std@@YA?AU?$complex@N@1@ABN0@Z @ 414 NONAME ; struct std::complex<double> std::polar<double>(double const &, double const &)
	?polar@?$@O@std@@YA?AU?$complex@O@1@ABO0@Z @ 415 NONAME ; struct std::complex<long double> std::polar<long double>(long double const &, long double const &)
	?pow@std@@YA?AU?$complex@M@1@ABMABU21@@Z @ 416 NONAME ; struct std::complex<float> std::pow(float const &, struct std::complex<float> const &)
	?pow@std@@YA?AU?$complex@M@1@ABU21@0@Z @ 417 NONAME ; struct std::complex<float> std::pow(struct std::complex<float> const &, struct std::complex<float> const &)
	?pow@std@@YA?AU?$complex@M@1@ABU21@ABM@Z @ 418 NONAME ; struct std::complex<float> std::pow(struct std::complex<float> const &, float const &)
	?pow@std@@YA?AU?$complex@M@1@ABU21@H@Z @ 419 NONAME ; struct std::complex<float> std::pow(struct std::complex<float> const &, int)
	?pow@std@@YA?AU?$complex@N@1@ABNABU21@@Z @ 420 NONAME ; struct std::complex<double> std::pow(double const &, struct std::complex<double> const &)
	?pow@std@@YA?AU?$complex@N@1@ABU21@0@Z @ 421 NONAME ; struct std::complex<double> std::pow(struct std::complex<double> const &, struct std::complex<double> const &)
	?pow@std@@YA?AU?$complex@N@1@ABU21@ABN@Z @ 422 NONAME ; struct std::complex<double> std::pow(struct std::complex<double> const &, double const &)
	?pow@std@@YA?AU?$complex@N@1@ABU21@H@Z @ 423 NONAME ; struct std::complex<double> std::pow(struct std::complex<double> const &, int)
	?pow@std@@YA?AU?$complex@O@1@ABOABU21@@Z @ 424 NONAME ; struct std::complex<long double> std::pow(long double const &, struct std::complex<long double> const &)
	?pow@std@@YA?AU?$complex@O@1@ABU21@0@Z @ 425 NONAME ; struct std::complex<long double> std::pow(struct std::complex<long double> const &, struct std::complex<long double> const &)
	?pow@std@@YA?AU?$complex@O@1@ABU21@ABO@Z @ 426 NONAME ; struct std::complex<long double> std::pow(struct std::complex<long double> const &, long double const &)
	?pow@std@@YA?AU?$complex@O@1@ABU21@H@Z @ 427 NONAME ; struct std::complex<long double> std::pow(struct std::complex<long double> const &, int)
	?pword@ios_base@std@@QAEAAPAXH@Z @ 428 NONAME ; void * & std::ios_base::pword(int)
	?rdbuf@istrstream@std@@QBEPAVstrstreambuf@2@XZ @ 429 NONAME ; class std::strstreambuf * std::istrstream::rdbuf(void) const
	?rdbuf@ostrstream@std@@QBEPAVstrstreambuf@2@XZ @ 430 NONAME ; class std::strstreambuf * std::ostrstream::rdbuf(void) const
	?rdbuf@strstream@std@@QBEPAVstrstreambuf@2@XZ @ 431 NONAME ; class std::strstreambuf * std::strstream::rdbuf(void) const
	?register_callback@ios_base@std@@QAEXP6AXW4event@12@AAV12@H@ZH@Z @ 432 NONAME ; void std::ios_base::register_callback(void (*)(enum std::ios_base::event, class std::ios_base &, int), int)
	?scan_is@?$ctype@D@std@@QBEPBDW4mask@ctype_base@2@PBD1@Z @ 433 NONAME ; char const * std::ctype<char>::scan_is(enum std::ctype_base::mask, char const *, char const *) const
	?scan_not@?$ctype@D@std@@QBEPBDW4mask@ctype_base@2@PBD1@Z @ 434 NONAME ; char const * std::ctype<char>::scan_not(enum std::ctype_base::mask, char const *, char const *) const
	?seekoff@strstreambuf@std@@MAE?AV?$fpos@U_mb_state_t@@@2@_JHH@Z @ 435 NONAME ; class std::fpos<struct _mb_state_t> std::strstreambuf::seekoff(long long, int, int)
	?seekpos@strstreambuf@std@@MAE?AV?$fpos@U_mb_state_t@@@2@V32@H@Z @ 436 NONAME ; class std::fpos<struct _mb_state_t> std::strstreambuf::seekpos(class std::fpos<struct _mb_state_t>, int)
	?set_new_handler@std@@YAP6AXXZP6AXXZ@Z @ 437 NONAME ; void (*)(void) std::set_new_handler(void (*)(void))
	?setbuf@strstreambuf@std@@MAEPAV?$basic_streambuf@DV?$char_traits@D@std@@@2@PAD_J@Z @ 438 NONAME ; class std::basic_streambuf<char, class std::char_traits<char> > * std::strstreambuf::setbuf(char *, long long)
	?sin@std@@YA?AU?$complex@M@1@ABU21@@Z @ 439 NONAME ; struct std::complex<float> std::sin(struct std::complex<float> const &)
	?sin@std@@YA?AU?$complex@N@1@ABU21@@Z @ 440 NONAME ; struct std::complex<double> std::sin(struct std::complex<double> const &)
	?sin@std@@YA?AU?$complex@O@1@ABU21@@Z @ 441 NONAME ; struct std::complex<long double> std::sin(struct std::complex<long double> const &)
	?sinh@std@@YA?AU?$complex@M@1@ABU21@@Z @ 442 NONAME ; struct std::complex<float> std::sinh(struct std::complex<float> const &)
	?sinh@std@@YA?AU?$complex@N@1@ABU21@@Z @ 443 NONAME ; struct std::complex<double> std::sinh(struct std::complex<double> const &)
	?sinh@std@@YA?AU?$complex@O@1@ABU21@@Z @ 444 NONAME ; struct std::complex<long double> std::sinh(struct std::complex<long double> const &)
	?sqrt@std@@YA?AU?$complex@M@1@ABU21@@Z @ 445 NONAME ; struct std::complex<float> std::sqrt(struct std::complex<float> const &)
	?sqrt@std@@YA?AU?$complex@N@1@ABU21@@Z @ 446 NONAME ; struct std::complex<double> std::sqrt(struct std::complex<double> const &)
	?sqrt@std@@YA?AU?$complex@O@1@ABU21@@Z @ 447 NONAME ; struct std::complex<long double> std::sqrt(struct std::complex<long double> const &)
	?str@istrstream@std@@QAEPADXZ @ 448 NONAME ; char * std::istrstream::str(void)
	?str@ostrstream@std@@QAEPADXZ @ 449 NONAME ; char * std::ostrstream::str(void)
	?str@strstream@std@@QAEPADXZ @ 450 NONAME ; char * std::strstream::str(void)
	?str@strstreambuf@std@@QAEPADXZ @ 451 NONAME ; char * std::strstreambuf::str(void)
	?sync_with_stdio@ios_base@std@@SA_N_N@Z @ 452 NONAME ; bool std::ios_base::sync_with_stdio(bool)
	?tan@std@@YA?AU?$complex@M@1@ABU21@@Z @ 453 NONAME ; struct std::complex<float> std::tan(struct std::complex<float> const &)
	?tan@std@@YA?AU?$complex@N@1@ABU21@@Z @ 454 NONAME ; struct std::complex<double> std::tan(struct std::complex<double> const &)
	?tan@std@@YA?AU?$complex@O@1@ABU21@@Z @ 455 NONAME ; struct std::complex<long double> std::tan(struct std::complex<long double> const &)
	?tanh@std@@YA?AU?$complex@M@1@ABU21@@Z @ 456 NONAME ; struct std::complex<float> std::tanh(struct std::complex<float> const &)
	?tanh@std@@YA?AU?$complex@N@1@ABU21@@Z @ 457 NONAME ; struct std::complex<double> std::tanh(struct std::complex<double> const &)
	?tanh@std@@YA?AU?$complex@O@1@ABU21@@Z @ 458 NONAME ; struct std::complex<long double> std::tanh(struct std::complex<long double> const &)
	?underflow@strstreambuf@std@@MAEHXZ @ 459 NONAME ; int std::strstreambuf::underflow(void)
	?what@__Named_exception@std@@UBEPBDXZ @ 460 NONAME ; char const * std::__Named_exception::what(void) const
	?xalloc@ios_base@std@@SAHXZ @ 461 NONAME ; int std::ios_base::xalloc(void)
	?nothrow@std@@3Unothrow_t@1@B @ 462 NONAME ; struct std::nothrow_t const std::nothrow
	?backend_allocate@@YAPAXI@Z @ 463 NONAME ; void * backend_allocate(unsigned int)
	?backend_free@@YAXPAX@Z @ 464 NONAME ; void backend_free(void *)

