EXPORTS
	_Z14CloseStdLibCppv @ 1 NONAME
	_ZN4_SgI16stdio_istreambuf9showmanycEv @ 2 NONAME
	_ZN4_SgI16stdio_ostreambuf9showmanycEv @ 3 NONAME
	_ZNKSbIwSt11char_traitsIwESaIwEE12find_last_ofEPKwjj @ 4 NONAME
	_ZNKSbIwSt11char_traitsIwESaIwEE13find_first_ofEPKwjj @ 5 NONAME
	_ZNKSbIwSt11char_traitsIwESaIwEE16find_last_not_ofEPKwjj @ 6 NONAME
	_ZNKSbIwSt11char_traitsIwESaIwEE16find_last_not_ofEwj @ 7 NONAME
	_ZNKSbIwSt11char_traitsIwESaIwEE17find_first_not_ofEPKwjj @ 8 NONAME
	_ZNKSbIwSt11char_traitsIwESaIwEE17find_first_not_ofEwj @ 9 NONAME
	_ZNKSbIwSt11char_traitsIwESaIwEE4findEPKwjj @ 10 NONAME
	_ZNKSbIwSt11char_traitsIwESaIwEE4findEwj @ 11 NONAME
	_ZNKSbIwSt11char_traitsIwESaIwEE5rfindEPKwjj @ 12 NONAME
	_ZNKSbIwSt11char_traitsIwESaIwEE5rfindEwj @ 13 NONAME
	_ZNKSs12find_last_ofEPKcjj @ 14 NONAME
	_ZNKSs13find_first_ofEPKcjj @ 15 NONAME
	_ZNKSs16find_last_not_ofEPKcjj @ 16 NONAME
	_ZNKSs16find_last_not_ofEcj @ 17 NONAME
	_ZNKSs17find_first_not_ofEPKcjj @ 18 NONAME
	_ZNKSs17find_first_not_ofEcj @ 19 NONAME
	_ZNKSs4findEPKcjj @ 20 NONAME
	_ZNKSs4findEcj @ 21 NONAME
	_ZNKSs5rfindEPKcjj @ 22 NONAME
	_ZNKSs5rfindEcj @ 23 NONAME
	_ZNKSt10istrstream5rdbufEv @ 24 NONAME
	_ZNKSt10moneypunctIcLb0EE16do_thousands_sepEv @ 25 NONAME
	_ZNKSt10moneypunctIcLb1EE16do_thousands_sepEv @ 26 NONAME
	_ZNKSt10moneypunctIwLb0EE16do_thousands_sepEv @ 27 NONAME
	_ZNKSt10moneypunctIwLb1EE16do_thousands_sepEv @ 28 NONAME
	_ZNKSt10ostrstream5rdbufEv @ 29 NONAME
	_ZNKSt10ostrstream6pcountEv @ 30 NONAME
	_ZNKSt12strstreambuf6pcountEv @ 31 NONAME
	_ZNKSt13bad_exception4whatEv @ 32 NONAME
	_ZNKSt15numpunct_bynameIcE16do_thousands_sepEv @ 33 NONAME
	_ZNKSt15numpunct_bynameIwE16do_thousands_sepEv @ 34 NONAME
	_ZNKSt17__Named_exception4whatEv @ 35 NONAME
	_ZNKSt17moneypunct_bynameIcLb0EE16do_thousands_sepEv @ 36 NONAME
	_ZNKSt17moneypunct_bynameIcLb1EE16do_thousands_sepEv @ 37 NONAME
	_ZNKSt17moneypunct_bynameIwLb0EE16do_thousands_sepEv @ 38 NONAME
	_ZNKSt17moneypunct_bynameIwLb1EE16do_thousands_sepEv @ 39 NONAME
	_ZNKSt5ctypeIcE10do_tolowerEPcPKc @ 40 NONAME
	_ZNKSt5ctypeIcE10do_tolowerEc @ 41 NONAME
	_ZNKSt5ctypeIcE10do_toupperEPcPKc @ 42 NONAME
	_ZNKSt5ctypeIcE10do_toupperEc @ 43 NONAME
	_ZNKSt5ctypeIcE7scan_isENSt10ctype_base4maskEPKcS4_ @ 44 NONAME
	_ZNKSt5ctypeIcE8do_widenEPKcS2_Pc @ 45 NONAME
	_ZNKSt5ctypeIcE8do_widenEc @ 46 NONAME
	_ZNKSt5ctypeIcE8scan_notENSt10ctype_base4maskEPKcS4_ @ 47 NONAME
	_ZNKSt5ctypeIcE9do_narrowEPKcS2_cPc @ 48 NONAME
	_ZNKSt5ctypeIcE9do_narrowEcc @ 49 NONAME
	_ZNKSt5ctypeIwE10do_scan_isENSt10ctype_base4maskEPKwS4_ @ 50 NONAME
	_ZNKSt5ctypeIwE10do_tolowerEPwPKw @ 51 NONAME
	_ZNKSt5ctypeIwE10do_tolowerEw @ 52 NONAME
	_ZNKSt5ctypeIwE10do_toupperEPwPKw @ 53 NONAME
	_ZNKSt5ctypeIwE10do_toupperEw @ 54 NONAME
	_ZNKSt5ctypeIwE11do_scan_notENSt10ctype_base4maskEPKwS4_ @ 55 NONAME
	_ZNKSt5ctypeIwE5do_isENSt10ctype_base4maskEw @ 56 NONAME
	_ZNKSt5ctypeIwE5do_isEPKwS2_PNSt10ctype_base4maskE @ 57 NONAME
	_ZNKSt5ctypeIwE8do_widenEPKcS2_Pw @ 58 NONAME
	_ZNKSt5ctypeIwE8do_widenEc @ 59 NONAME
	_ZNKSt5ctypeIwE9do_narrowEPKwS2_cPc @ 60 NONAME
	_ZNKSt5ctypeIwE9do_narrowEwc @ 61 NONAME
	_ZNKSt6locale12_M_get_facetERKNS_2idE @ 62 NONAME
	_ZNKSt6locale12_M_use_facetERKNS_2idE @ 63 NONAME
	_ZNKSt6locale4nameEv @ 64 NONAME
	_ZNKSt6localeeqERKS_ @ 65 NONAME
	_ZNKSt6localeneERKS_ @ 66 NONAME
	_ZNKSt8ios_base6getlocEv @ 67 NONAME
	_ZNKSt8numpunctIcE11do_groupingEv @ 68 NONAME
	_ZNKSt8numpunctIcE11do_truenameEv @ 69 NONAME
	_ZNKSt8numpunctIcE12do_falsenameEv @ 70 NONAME
	_ZNKSt8numpunctIcE16do_decimal_pointEv @ 71 NONAME
	_ZNKSt8numpunctIcE16do_thousands_sepEv @ 72 NONAME
	_ZNKSt8numpunctIwE11do_groupingEv @ 73 NONAME
	_ZNKSt8numpunctIwE11do_truenameEv @ 74 NONAME
	_ZNKSt8numpunctIwE12do_falsenameEv @ 75 NONAME
	_ZNKSt8numpunctIwE16do_decimal_pointEv @ 76 NONAME
	_ZNKSt8numpunctIwE16do_thousands_sepEv @ 77 NONAME
	_ZNKSt9exception4whatEv @ 78 NONAME
	_ZNKSt9strstream5rdbufEv @ 79 NONAME
	_ZNKSt9strstream6pcountEv @ 80 NONAME
	_ZNSbIwSt11char_traitsIwESaIwEE6appendEjw @ 81 NONAME
	_ZNSbIwSt11char_traitsIwESaIwEE6assignEjw @ 82 NONAME
	_ZNSbIwSt11char_traitsIwESaIwEE6insertEPwjw @ 83 NONAME
	_ZNSbIwSt11char_traitsIwESaIwEE7replaceEPwS3_jw @ 84 NONAME
	_ZNSbIwSt11char_traitsIwESaIwEE7reserveEj @ 85 NONAME
	_ZNSbIwSt11char_traitsIwESaIwEEC1EPKwRKS1_ @ 86 NONAME
	_ZNSbIwSt11char_traitsIwESaIwEEC1ERKS2_ @ 87 NONAME
	_ZNSbIwSt11char_traitsIwESaIwEEC1Ev @ 88 NONAME
	_ZNSbIwSt11char_traitsIwESaIwEEC2EPKwRKS1_ @ 89 NONAME
	_ZNSbIwSt11char_traitsIwESaIwEEC2ERKS2_ @ 90 NONAME
	_ZNSbIwSt11char_traitsIwESaIwEEC2Ev @ 91 NONAME
	_ZNSdC1EPSt15basic_streambufIcSt11char_traitsIcEE @ 92 NONAME
	_ZNSdC2EPSt15basic_streambufIcSt11char_traitsIcEE @ 93 NONAME
	_ZNSdD0Ev @ 94 NONAME
	_ZNSdD1Ev @ 95 NONAME
	_ZNSdD2Ev @ 96 NONAME
	_ZNSdD9Ev @ 97 NONAME ABSENT
	_ZNSiC1EPSt15basic_streambufIcSt11char_traitsIcEE @ 98 NONAME
	_ZNSiC2EPSt15basic_streambufIcSt11char_traitsIcEE @ 99 NONAME
	_ZNSiD0Ev @ 100 NONAME
	_ZNSiD1Ev @ 101 NONAME
	_ZNSiD2Ev @ 102 NONAME
	_ZNSiD9Ev @ 103 NONAME ABSENT
	_ZNSo3putEc @ 104 NONAME
	_ZNSo5writeEPKci @ 105 NONAME
	_ZNSoC1EPSt15basic_streambufIcSt11char_traitsIcEE @ 106 NONAME
	_ZNSoC2EPSt15basic_streambufIcSt11char_traitsIcEE @ 107 NONAME
	_ZNSoD0Ev @ 108 NONAME
	_ZNSoD1Ev @ 109 NONAME
	_ZNSoD2Ev @ 110 NONAME
	_ZNSoD9Ev @ 111 NONAME ABSENT
	_ZNSolsEPSt15basic_streambufIcSt11char_traitsIcEE @ 112 NONAME
	_ZNSs6appendEjc @ 113 NONAME
	_ZNSs6assignEjc @ 114 NONAME
	_ZNSs6insertEPcjc @ 115 NONAME
	_ZNSs7replaceEPcS_jc @ 116 NONAME
	_ZNSs7reserveEj @ 117 NONAME
	_ZNSsC1EPKcRKSaIcE @ 118 NONAME
	_ZNSsC1ERKSs @ 119 NONAME
	_ZNSsC1Ev @ 120 NONAME
	_ZNSsC2EPKcRKSaIcE @ 121 NONAME
	_ZNSsC2ERKSs @ 122 NONAME
	_ZNSsC2Ev @ 123 NONAME
	_ZNSt10_UnderflowIcSt11char_traitsIcEE7_M_doitEPSt13basic_filebufIcS1_E @ 124 NONAME
	_ZNSt10istrstream3strEv @ 125 NONAME
	_ZNSt10istrstreamC1EPKc @ 126 NONAME
	_ZNSt10istrstreamC1EPKci @ 127 NONAME
	_ZNSt10istrstreamC1EPc @ 128 NONAME
	_ZNSt10istrstreamC1EPci @ 129 NONAME
	_ZNSt10istrstreamC2EPKc @ 130 NONAME
	_ZNSt10istrstreamC2EPKci @ 131 NONAME
	_ZNSt10istrstreamC2EPc @ 132 NONAME
	_ZNSt10istrstreamC2EPci @ 133 NONAME
	_ZNSt10moneypunctIcLb0EE16GetFacetLocaleIdEv @ 134 NONAME
	_ZNSt10moneypunctIcLb1EE16GetFacetLocaleIdEv @ 135 NONAME
	_ZNSt10moneypunctIwLb0EE16GetFacetLocaleIdEv @ 136 NONAME
	_ZNSt10moneypunctIwLb1EE16GetFacetLocaleIdEv @ 137 NONAME
	_ZNSt10ostrstream3strEv @ 138 NONAME
	_ZNSt10ostrstream6freezeEb @ 139 NONAME
	_ZNSt10ostrstreamC1EPcii @ 140 NONAME
	_ZNSt10ostrstreamC1Ev @ 141 NONAME
	_ZNSt10ostrstreamC2EPcii @ 142 NONAME
	_ZNSt10ostrstreamC2Ev @ 143 NONAME
	_ZNSt11logic_errorC1ERKSs @ 144 NONAME
	_ZNSt11logic_errorC2ERKSs @ 145 NONAME
	_ZNSt11logic_errorD0Ev @ 146 NONAME
	_ZNSt11logic_errorD1Ev @ 147 NONAME
	_ZNSt11logic_errorD2Ev @ 148 NONAME
	_ZNSt11range_errorC1ERKSs @ 149 NONAME
	_ZNSt11range_errorC2ERKSs @ 150 NONAME
	_ZNSt11range_errorD0Ev @ 151 NONAME
	_ZNSt11range_errorD1Ev @ 152 NONAME
	_ZNSt11range_errorD2Ev @ 153 NONAME
	_ZNSt12domain_errorC1ERKSs @ 154 NONAME
	_ZNSt12domain_errorC2ERKSs @ 155 NONAME
	_ZNSt12domain_errorD0Ev @ 156 NONAME
	_ZNSt12domain_errorD1Ev @ 157 NONAME
	_ZNSt12domain_errorD2Ev @ 158 NONAME
	_ZNSt12length_errorC1ERKSs @ 159 NONAME
	_ZNSt12length_errorC2ERKSs @ 160 NONAME
	_ZNSt12length_errorD0Ev @ 161 NONAME
	_ZNSt12length_errorD1Ev @ 162 NONAME
	_ZNSt12length_errorD2Ev @ 163 NONAME
	_ZNSt12out_of_rangeC1ERKSs @ 164 NONAME
	_ZNSt12out_of_rangeC2ERKSs @ 165 NONAME
	_ZNSt12out_of_rangeD0Ev @ 166 NONAME
	_ZNSt12out_of_rangeD1Ev @ 167 NONAME
	_ZNSt12out_of_rangeD2Ev @ 168 NONAME
	_ZNSt12strstreambuf3strEv @ 169 NONAME
	_ZNSt12strstreambuf6freezeEb @ 170 NONAME
	_ZNSt12strstreambuf7seekoffElii @ 171 NONAME
	_ZNSt12strstreambuf7seekposESt4fposI11_mb_state_tEi @ 172 NONAME
	_ZNSt12strstreambuf8overflowEi @ 173 NONAME
	_ZNSt12strstreambuf9pbackfailEi @ 174 NONAME
	_ZNSt12strstreambuf9underflowEv @ 175 NONAME
	_ZNSt12strstreambufC1EPFPvjEPFvS0_E @ 176 NONAME
	_ZNSt12strstreambufC1EPKai @ 177 NONAME
	_ZNSt12strstreambufC1EPKci @ 178 NONAME
	_ZNSt12strstreambufC1EPKhi @ 179 NONAME
	_ZNSt12strstreambufC1EPaiS0_ @ 180 NONAME
	_ZNSt12strstreambufC1EPciS0_ @ 181 NONAME
	_ZNSt12strstreambufC1EPhiS0_ @ 182 NONAME
	_ZNSt12strstreambufC1Ei @ 183 NONAME
	_ZNSt12strstreambufC2EPFPvjEPFvS0_E @ 184 NONAME
	_ZNSt12strstreambufC2EPKai @ 185 NONAME
	_ZNSt12strstreambufC2EPKci @ 186 NONAME
	_ZNSt12strstreambufC2EPKhi @ 187 NONAME
	_ZNSt12strstreambufC2EPaiS0_ @ 188 NONAME
	_ZNSt12strstreambufC2EPciS0_ @ 189 NONAME
	_ZNSt12strstreambufC2EPhiS0_ @ 190 NONAME
	_ZNSt12strstreambufC2Ei @ 191 NONAME
	_ZNSt13_Filebuf_base12_M_file_sizeEv @ 192 NONAME
	_ZNSt13_Filebuf_base7_M_mmapEll @ 193 NONAME
	_ZNSt13_Filebuf_base7_M_openEPKci @ 194 NONAME
	_ZNSt13_Filebuf_base7_M_openEPKcil @ 195 NONAME
	_ZNSt13_Filebuf_base7_M_readEPci @ 196 NONAME
	_ZNSt13_Filebuf_base7_M_seekEli @ 197 NONAME
	_ZNSt13_Filebuf_base8_M_closeEv @ 198 NONAME
	_ZNSt13_Filebuf_base8_M_unmapEPvl @ 199 NONAME
	_ZNSt13_Filebuf_base8_M_writeEPci @ 200 NONAME
	_ZNSt13_Filebuf_baseC1Ev @ 201 NONAME
	_ZNSt13_Filebuf_baseC2Ev @ 202 NONAME
	_ZNSt13bad_exceptionC1Ev @ 203 NONAME
	_ZNSt13bad_exceptionC2Ev @ 204 NONAME
	_ZNSt13bad_exceptionD0Ev @ 205 NONAME
	_ZNSt13bad_exceptionD1Ev @ 206 NONAME
	_ZNSt13bad_exceptionD2Ev @ 207 NONAME
	_ZNSt13basic_fstreamIcSt11char_traitsIcEEC1Ev @ 208 NONAME
	_ZNSt13basic_fstreamIcSt11char_traitsIcEEC2Ev @ 209 NONAME
	_ZNSt13basic_fstreamIcSt11char_traitsIcEED0Ev @ 210 NONAME
	_ZNSt13basic_fstreamIcSt11char_traitsIcEED1Ev @ 211 NONAME
	_ZNSt13basic_fstreamIcSt11char_traitsIcEED2Ev @ 212 NONAME
	_ZNSt13basic_fstreamIcSt11char_traitsIcEED9Ev @ 213 NONAME ABSENT
	_ZNSt13basic_fstreamIwSt11char_traitsIwEEC1Ev @ 214 NONAME
	_ZNSt13basic_fstreamIwSt11char_traitsIwEEC2Ev @ 215 NONAME
	_ZNSt13basic_fstreamIwSt11char_traitsIwEED0Ev @ 216 NONAME
	_ZNSt13basic_fstreamIwSt11char_traitsIwEED1Ev @ 217 NONAME
	_ZNSt13basic_fstreamIwSt11char_traitsIwEED2Ev @ 218 NONAME
	_ZNSt13basic_fstreamIwSt11char_traitsIwEED9Ev @ 219 NONAME ABSENT
	_ZNSt13basic_istreamIwSt11char_traitsIwEEC1EPSt15basic_streambufIwS1_E @ 220 NONAME
	_ZNSt13basic_istreamIwSt11char_traitsIwEEC2EPSt15basic_streambufIwS1_E @ 221 NONAME
	_ZNSt13basic_istreamIwSt11char_traitsIwEED0Ev @ 222 NONAME
	_ZNSt13basic_istreamIwSt11char_traitsIwEED1Ev @ 223 NONAME
	_ZNSt13basic_istreamIwSt11char_traitsIwEED2Ev @ 224 NONAME
	_ZNSt13basic_istreamIwSt11char_traitsIwEED9Ev @ 225 NONAME ABSENT
	_ZNSt13basic_ostreamIwSt11char_traitsIwEE3putEw @ 226 NONAME
	_ZNSt13basic_ostreamIwSt11char_traitsIwEE5writeEPKwi @ 227 NONAME
	_ZNSt13basic_ostreamIwSt11char_traitsIwEEC1EPSt15basic_streambufIwS1_E @ 228 NONAME
	_ZNSt13basic_ostreamIwSt11char_traitsIwEEC2EPSt15basic_streambufIwS1_E @ 229 NONAME
	_ZNSt13basic_ostreamIwSt11char_traitsIwEED0Ev @ 230 NONAME
	_ZNSt13basic_ostreamIwSt11char_traitsIwEED1Ev @ 231 NONAME
	_ZNSt13basic_ostreamIwSt11char_traitsIwEED2Ev @ 232 NONAME
	_ZNSt13basic_ostreamIwSt11char_traitsIwEED9Ev @ 233 NONAME ABSENT
	_ZNSt13basic_ostreamIwSt11char_traitsIwEElsEPSt15basic_streambufIwS1_E @ 234 NONAME
	_ZNSt13runtime_errorC1ERKSs @ 235 NONAME
	_ZNSt13runtime_errorC2ERKSs @ 236 NONAME
	_ZNSt13runtime_errorD0Ev @ 237 NONAME
	_ZNSt13runtime_errorD1Ev @ 238 NONAME
	_ZNSt13runtime_errorD2Ev @ 239 NONAME
	_ZNSt14basic_iostreamIwSt11char_traitsIwEEC1EPSt15basic_streambufIwS1_E @ 240 NONAME
	_ZNSt14basic_iostreamIwSt11char_traitsIwEEC2EPSt15basic_streambufIwS1_E @ 241 NONAME
	_ZNSt14basic_iostreamIwSt11char_traitsIwEED0Ev @ 242 NONAME
	_ZNSt14basic_iostreamIwSt11char_traitsIwEED1Ev @ 243 NONAME
	_ZNSt14basic_iostreamIwSt11char_traitsIwEED2Ev @ 244 NONAME
	_ZNSt14basic_iostreamIwSt11char_traitsIwEED9Ev @ 245 NONAME ABSENT
	_ZNSt14overflow_errorC1ERKSs @ 246 NONAME
	_ZNSt14overflow_errorC2ERKSs @ 247 NONAME
	_ZNSt14overflow_errorD0Ev @ 248 NONAME
	_ZNSt14overflow_errorD1Ev @ 249 NONAME
	_ZNSt14overflow_errorD2Ev @ 250 NONAME
	_ZNSt15basic_streambufIcSt11char_traitsIcEE10_M_xsputncEci @ 251 NONAME
	_ZNSt15basic_streambufIcSt11char_traitsIcEE13_M_snextc_auxEv @ 252 NONAME
	_ZNSt15basic_streambufIcSt11char_traitsIcEE4syncEv @ 253 NONAME
	_ZNSt15basic_streambufIcSt11char_traitsIcEE5imbueERKSt6locale @ 254 NONAME
	_ZNSt15basic_streambufIcSt11char_traitsIcEE5uflowEv @ 255 NONAME
	_ZNSt15basic_streambufIcSt11char_traitsIcEE6setbufEPci @ 256 NONAME
	_ZNSt15basic_streambufIcSt11char_traitsIcEE6xsgetnEPci @ 257 NONAME
	_ZNSt15basic_streambufIcSt11char_traitsIcEE6xsputnEPKci @ 258 NONAME
	_ZNSt15basic_streambufIcSt11char_traitsIcEE7seekoffElii @ 259 NONAME
	_ZNSt15basic_streambufIcSt11char_traitsIcEE7seekposESt4fposI11_mb_state_tEi @ 260 NONAME
	_ZNSt15basic_streambufIcSt11char_traitsIcEE8overflowEi @ 261 NONAME
	_ZNSt15basic_streambufIcSt11char_traitsIcEE8pubimbueERKSt6locale @ 262 NONAME
	_ZNSt15basic_streambufIcSt11char_traitsIcEE9pbackfailEi @ 263 NONAME
	_ZNSt15basic_streambufIcSt11char_traitsIcEE9showmanycEv @ 264 NONAME
	_ZNSt15basic_streambufIcSt11char_traitsIcEE9underflowEv @ 265 NONAME
	_ZNSt15basic_streambufIcSt11char_traitsIcEEC1EP7__sFILES4_ @ 266 NONAME
	_ZNSt15basic_streambufIcSt11char_traitsIcEEC1Ev @ 267 NONAME
	_ZNSt15basic_streambufIcSt11char_traitsIcEEC2EP7__sFILES4_ @ 268 NONAME
	_ZNSt15basic_streambufIcSt11char_traitsIcEEC2Ev @ 269 NONAME
	_ZNSt15basic_streambufIcSt11char_traitsIcEED0Ev @ 270 NONAME
	_ZNSt15basic_streambufIcSt11char_traitsIcEED1Ev @ 271 NONAME
	_ZNSt15basic_streambufIcSt11char_traitsIcEED2Ev @ 272 NONAME
	_ZNSt15basic_streambufIwSt11char_traitsIwEE10_M_xsputncEwi @ 273 NONAME
	_ZNSt15basic_streambufIwSt11char_traitsIwEE13_M_snextc_auxEv @ 274 NONAME
	_ZNSt15basic_streambufIwSt11char_traitsIwEE4syncEv @ 275 NONAME
	_ZNSt15basic_streambufIwSt11char_traitsIwEE5imbueERKSt6locale @ 276 NONAME
	_ZNSt15basic_streambufIwSt11char_traitsIwEE5uflowEv @ 277 NONAME
	_ZNSt15basic_streambufIwSt11char_traitsIwEE6setbufEPwi @ 278 NONAME
	_ZNSt15basic_streambufIwSt11char_traitsIwEE6xsgetnEPwi @ 279 NONAME
	_ZNSt15basic_streambufIwSt11char_traitsIwEE6xsputnEPKwi @ 280 NONAME
	_ZNSt15basic_streambufIwSt11char_traitsIwEE7seekoffElii @ 281 NONAME
	_ZNSt15basic_streambufIwSt11char_traitsIwEE7seekposESt4fposI11_mb_state_tEi @ 282 NONAME
	_ZNSt15basic_streambufIwSt11char_traitsIwEE8overflowEi @ 283 NONAME
	_ZNSt15basic_streambufIwSt11char_traitsIwEE8pubimbueERKSt6locale @ 284 NONAME
	_ZNSt15basic_streambufIwSt11char_traitsIwEE9pbackfailEi @ 285 NONAME
	_ZNSt15basic_streambufIwSt11char_traitsIwEE9showmanycEv @ 286 NONAME
	_ZNSt15basic_streambufIwSt11char_traitsIwEE9underflowEv @ 287 NONAME
	_ZNSt15basic_streambufIwSt11char_traitsIwEEC1Ev @ 288 NONAME
	_ZNSt15basic_streambufIwSt11char_traitsIwEEC2Ev @ 289 NONAME
	_ZNSt15basic_streambufIwSt11char_traitsIwEED0Ev @ 290 NONAME
	_ZNSt15basic_streambufIwSt11char_traitsIwEED1Ev @ 291 NONAME
	_ZNSt15basic_streambufIwSt11char_traitsIwEED2Ev @ 292 NONAME
	_ZNSt15basic_stringbufIcSt11char_traitsIcESaIcEE3strERKSs @ 293 NONAME
	_ZNSt15basic_stringbufIcSt11char_traitsIcESaIcEE5uflowEv @ 294 NONAME
	_ZNSt15basic_stringbufIcSt11char_traitsIcESaIcEE6setbufEPci @ 295 NONAME
	_ZNSt15basic_stringbufIcSt11char_traitsIcESaIcEE6xsputnEPKci @ 296 NONAME
	_ZNSt15basic_stringbufIcSt11char_traitsIcESaIcEE7seekoffElii @ 297 NONAME
	_ZNSt15basic_stringbufIcSt11char_traitsIcESaIcEE7seekposESt4fposI11_mb_state_tEi @ 298 NONAME
	_ZNSt15basic_stringbufIcSt11char_traitsIcESaIcEE8overflowEi @ 299 NONAME
	_ZNSt15basic_stringbufIcSt11char_traitsIcESaIcEE9pbackfailEi @ 300 NONAME
	_ZNSt15basic_stringbufIcSt11char_traitsIcESaIcEE9underflowEv @ 301 NONAME
	_ZNSt15basic_stringbufIcSt11char_traitsIcESaIcEEC1ERKSsi @ 302 NONAME
	_ZNSt15basic_stringbufIcSt11char_traitsIcESaIcEEC1Ei @ 303 NONAME
	_ZNSt15basic_stringbufIcSt11char_traitsIcESaIcEEC2ERKSsi @ 304 NONAME
	_ZNSt15basic_stringbufIcSt11char_traitsIcESaIcEEC2Ei @ 305 NONAME
	_ZNSt15basic_stringbufIcSt11char_traitsIcESaIcEED0Ev @ 306 NONAME
	_ZNSt15basic_stringbufIcSt11char_traitsIcESaIcEED1Ev @ 307 NONAME
	_ZNSt15basic_stringbufIcSt11char_traitsIcESaIcEED2Ev @ 308 NONAME
	_ZNSt15basic_stringbufIwSt11char_traitsIwESaIwEE3strERKSbIwS1_S2_E @ 309 NONAME
	_ZNSt15basic_stringbufIwSt11char_traitsIwESaIwEE5uflowEv @ 310 NONAME
	_ZNSt15basic_stringbufIwSt11char_traitsIwESaIwEE6setbufEPwi @ 311 NONAME
	_ZNSt15basic_stringbufIwSt11char_traitsIwESaIwEE6xsputnEPKwi @ 312 NONAME
	_ZNSt15basic_stringbufIwSt11char_traitsIwESaIwEE7seekoffElii @ 313 NONAME
	_ZNSt15basic_stringbufIwSt11char_traitsIwESaIwEE7seekposESt4fposI11_mb_state_tEi @ 314 NONAME
	_ZNSt15basic_stringbufIwSt11char_traitsIwESaIwEE8overflowEi @ 315 NONAME
	_ZNSt15basic_stringbufIwSt11char_traitsIwESaIwEE9pbackfailEi @ 316 NONAME
	_ZNSt15basic_stringbufIwSt11char_traitsIwESaIwEE9underflowEv @ 317 NONAME
	_ZNSt15basic_stringbufIwSt11char_traitsIwESaIwEEC1ERKSbIwS1_S2_Ei @ 318 NONAME
	_ZNSt15basic_stringbufIwSt11char_traitsIwESaIwEEC1Ei @ 319 NONAME
	_ZNSt15basic_stringbufIwSt11char_traitsIwESaIwEEC2ERKSbIwS1_S2_Ei @ 320 NONAME
	_ZNSt15basic_stringbufIwSt11char_traitsIwESaIwEEC2Ei @ 321 NONAME
	_ZNSt15basic_stringbufIwSt11char_traitsIwESaIwEED0Ev @ 322 NONAME
	_ZNSt15basic_stringbufIwSt11char_traitsIwESaIwEED1Ev @ 323 NONAME
	_ZNSt15basic_stringbufIwSt11char_traitsIwESaIwEED2Ev @ 324 NONAME
	_ZNSt15underflow_errorC1ERKSs @ 325 NONAME
	_ZNSt15underflow_errorC2ERKSs @ 326 NONAME
	_ZNSt15underflow_errorD0Ev @ 327 NONAME
	_ZNSt15underflow_errorD1Ev @ 328 NONAME
	_ZNSt15underflow_errorD2Ev @ 329 NONAME
	_ZNSt16invalid_argumentC1ERKSs @ 330 NONAME
	_ZNSt16invalid_argumentC2ERKSs @ 331 NONAME
	_ZNSt16invalid_argumentD0Ev @ 332 NONAME
	_ZNSt16invalid_argumentD1Ev @ 333 NONAME
	_ZNSt16invalid_argumentD2Ev @ 334 NONAME
	_ZNSt17__Named_exceptionC1ERKSs @ 335 NONAME
	_ZNSt17__Named_exceptionC2ERKSs @ 336 NONAME
	_ZNSt17__Named_exceptionD0Ev @ 337 NONAME
	_ZNSt17__Named_exceptionD1Ev @ 338 NONAME
	_ZNSt17__Named_exceptionD2Ev @ 339 NONAME
	_ZNSt18basic_stringstreamIcSt11char_traitsIcESaIcEEC1ERKSsi @ 340 NONAME
	_ZNSt18basic_stringstreamIcSt11char_traitsIcESaIcEEC1Ei @ 341 NONAME
	_ZNSt18basic_stringstreamIcSt11char_traitsIcESaIcEEC2ERKSsi @ 342 NONAME
	_ZNSt18basic_stringstreamIcSt11char_traitsIcESaIcEEC2Ei @ 343 NONAME
	_ZNSt18basic_stringstreamIwSt11char_traitsIwESaIwEEC1ERKSbIwS1_S2_Ei @ 344 NONAME
	_ZNSt18basic_stringstreamIwSt11char_traitsIwESaIwEEC1Ei @ 345 NONAME
	_ZNSt18basic_stringstreamIwSt11char_traitsIwESaIwEEC2ERKSbIwS1_S2_Ei @ 346 NONAME
	_ZNSt18basic_stringstreamIwSt11char_traitsIwESaIwEEC2Ei @ 347 NONAME
	_ZNSt5ctypeIcE16GetFacetLocaleIdEv @ 348 NONAME
	_ZNSt5ctypeIcEC1EPKNSt10ctype_base4maskEbj @ 349 NONAME
	_ZNSt5ctypeIcEC2EPKNSt10ctype_base4maskEbj @ 350 NONAME
	_ZNSt5ctypeIcED0Ev @ 351 NONAME
	_ZNSt5ctypeIcED1Ev @ 352 NONAME
	_ZNSt5ctypeIcED2Ev @ 353 NONAME
	_ZNSt5ctypeIwE16GetFacetLocaleIdEv @ 354 NONAME
	_ZNSt5ctypeIwED0Ev @ 355 NONAME
	_ZNSt5ctypeIwED1Ev @ 356 NONAME
	_ZNSt5ctypeIwED2Ev @ 357 NONAME
	_ZNSt6locale22_M_throw_runtime_errorEPKc @ 358 NONAME
	_ZNSt6locale5facetD0Ev @ 359 NONAME
	_ZNSt6locale5facetD1Ev @ 360 NONAME
	_ZNSt6locale5facetD2Ev @ 361 NONAME
	_ZNSt6locale6globalERKS_ @ 362 NONAME
	_ZNSt6locale7classicEv @ 363 NONAME
	_ZNSt6locale9_M_insertEPNS_5facetERNS_2idE @ 364 NONAME
	_ZNSt6localeC1EPKc @ 365 NONAME
	_ZNSt6localeC1EPSt12_Locale_impl @ 366 NONAME
	_ZNSt6localeC1EPSt12_Locale_implb @ 367 NONAME
	_ZNSt6localeC1ERKS_ @ 368 NONAME
	_ZNSt6localeC1ERKS_PKci @ 369 NONAME
	_ZNSt6localeC1ERKS_S1_i @ 370 NONAME
	_ZNSt6localeC1Ev @ 371 NONAME
	_ZNSt6localeC2EPKc @ 372 NONAME
	_ZNSt6localeC2EPSt12_Locale_impl @ 373 NONAME
	_ZNSt6localeC2EPSt12_Locale_implb @ 374 NONAME
	_ZNSt6localeC2ERKS_ @ 375 NONAME
	_ZNSt6localeC2ERKS_PKci @ 376 NONAME
	_ZNSt6localeC2ERKS_S1_i @ 377 NONAME
	_ZNSt6localeC2Ev @ 378 NONAME
	_ZNSt6localeD1Ev @ 379 NONAME
	_ZNSt6localeD2Ev @ 380 NONAME
	_ZNSt6localeaSERKS_ @ 381 NONAME
	_ZNSt7codecvtIcc11_mb_state_tE16GetFacetLocaleIdEv @ 382 NONAME
	_ZNSt7codecvtIwc11_mb_state_tE16GetFacetLocaleIdEv @ 383 NONAME
	_ZNSt7collateIcE16GetFacetLocaleIdEv @ 384 NONAME
	_ZNSt7collateIwE16GetFacetLocaleIdEv @ 385 NONAME
	_ZNSt7num_getIcPKcE16GetFacetLocaleIdEPS1_ @ 386 NONAME
	_ZNSt7num_getIcPKcE16GetFacetLocaleIdEv @ 387 NONAME
	_ZNSt7num_getIcSt19istreambuf_iteratorIcSt11char_traitsIcEEE16GetFacetLocaleIdEPS3_ @ 388 NONAME
	_ZNSt7num_getIcSt19istreambuf_iteratorIcSt11char_traitsIcEEE16GetFacetLocaleIdEv @ 389 NONAME
	_ZNSt7num_getIwPKwE16GetFacetLocaleIdEPS1_ @ 390 NONAME
	_ZNSt7num_getIwPKwE16GetFacetLocaleIdEv @ 391 NONAME
	_ZNSt7num_getIwSt19istreambuf_iteratorIwSt11char_traitsIwEEE16GetFacetLocaleIdEPS3_ @ 392 NONAME
	_ZNSt7num_getIwSt19istreambuf_iteratorIwSt11char_traitsIwEEE16GetFacetLocaleIdEv @ 393 NONAME
	_ZNSt7num_putIcPcE16GetFacetLocaleIdEPS0_ @ 394 NONAME
	_ZNSt7num_putIcPcE16GetFacetLocaleIdEv @ 395 NONAME
	_ZNSt7num_putIcSt19ostreambuf_iteratorIcSt11char_traitsIcEEE16GetFacetLocaleIdEPS3_ @ 396 NONAME
	_ZNSt7num_putIcSt19ostreambuf_iteratorIcSt11char_traitsIcEEE16GetFacetLocaleIdEv @ 397 NONAME
	_ZNSt7num_putIcSt20back_insert_iteratorISsEE16GetFacetLocaleIdEPS1_ @ 398 NONAME
	_ZNSt7num_putIcSt20back_insert_iteratorISsEE16GetFacetLocaleIdEv @ 399 NONAME
	_ZNSt7num_putIwPwE16GetFacetLocaleIdEPS0_ @ 400 NONAME
	_ZNSt7num_putIwPwE16GetFacetLocaleIdEv @ 401 NONAME
	_ZNSt7num_putIwSt19ostreambuf_iteratorIwSt11char_traitsIwEEE16GetFacetLocaleIdEPS3_ @ 402 NONAME
	_ZNSt7num_putIwSt19ostreambuf_iteratorIwSt11char_traitsIwEEE16GetFacetLocaleIdEv @ 403 NONAME
	_ZNSt8ios_base13_M_copy_stateERKS_ @ 404 NONAME
	_ZNSt8ios_base15sync_with_stdioEb @ 405 NONAME
	_ZNSt8ios_base16_M_throw_failureEv @ 406 NONAME
	_ZNSt8ios_base17register_callbackEPFvNS_5eventERS_iEi @ 407 NONAME
	_ZNSt8ios_base19_M_invoke_callbacksENS_5eventE @ 408 NONAME
	_ZNSt8ios_base4InitC1Ev @ 409 NONAME
	_ZNSt8ios_base4InitC2Ev @ 410 NONAME
	_ZNSt8ios_base4InitD1Ev @ 411 NONAME
	_ZNSt8ios_base4InitD2Ev @ 412 NONAME
	_ZNSt8ios_base5imbueERKSt6locale @ 413 NONAME
	_ZNSt8ios_base6xallocEv @ 414 NONAME
	_ZNSt8ios_base9_Loc_initC1Ev @ 415 NONAME
	_ZNSt8ios_base9_Loc_initC2Ev @ 416 NONAME
	_ZNSt8ios_base9_Loc_initD1Ev @ 417 NONAME
	_ZNSt8ios_base9_Loc_initD2Ev @ 418 NONAME
	_ZNSt8ios_baseC1Ev @ 419 NONAME
	_ZNSt8ios_baseC2Ev @ 420 NONAME
	_ZNSt8ios_baseD0Ev @ 421 NONAME
	_ZNSt8ios_baseD1Ev @ 422 NONAME
	_ZNSt8ios_baseD2Ev @ 423 NONAME
	_ZNSt8messagesIcE16GetFacetLocaleIdEv @ 424 NONAME
	_ZNSt8messagesIwE16GetFacetLocaleIdEv @ 425 NONAME
	_ZNSt8numpunctIcE16GetFacetLocaleIdEv @ 426 NONAME
	_ZNSt8numpunctIcE22GetNumPunct_M_truenameEv @ 427 NONAME
	_ZNSt8numpunctIcE23GetNumPunct_M_falsenameEv @ 428 NONAME
	_ZNSt8numpunctIwE16GetFacetLocaleIdEv @ 429 NONAME
	_ZNSt8numpunctIwE28GetNumPunct_M_Wchar_truenameEv @ 430 NONAME
	_ZNSt8numpunctIwE29GetNumPunct_M_Wchar_falsenameEv @ 431 NONAME
	_ZNSt8time_getIcPKcE16GetFacetLocaleIdEPS1_ @ 432 NONAME
	_ZNSt8time_getIcPKcE16GetFacetLocaleIdEv @ 433 NONAME
	_ZNSt8time_getIcSt19istreambuf_iteratorIcSt11char_traitsIcEEE16GetFacetLocaleIdEPS3_ @ 434 NONAME
	_ZNSt8time_getIcSt19istreambuf_iteratorIcSt11char_traitsIcEEE16GetFacetLocaleIdEv @ 435 NONAME
	_ZNSt8time_getIwPKwE16GetFacetLocaleIdEPS1_ @ 436 NONAME
	_ZNSt8time_getIwPKwE16GetFacetLocaleIdEv @ 437 NONAME
	_ZNSt8time_getIwSt19istreambuf_iteratorIwSt11char_traitsIwEEE16GetFacetLocaleIdEPS3_ @ 438 NONAME
	_ZNSt8time_getIwSt19istreambuf_iteratorIwSt11char_traitsIwEEE16GetFacetLocaleIdEv @ 439 NONAME
	_ZNSt8time_putIcPcE16GetFacetLocaleIdEPS0_ @ 440 NONAME
	_ZNSt8time_putIcPcE16GetFacetLocaleIdEv @ 441 NONAME
	_ZNSt8time_putIcSt19ostreambuf_iteratorIcSt11char_traitsIcEEE16GetFacetLocaleIdEPS3_ @ 442 NONAME
	_ZNSt8time_putIcSt19ostreambuf_iteratorIcSt11char_traitsIcEEE16GetFacetLocaleIdEv @ 443 NONAME
	_ZNSt8time_putIwPwE16GetFacetLocaleIdEPS0_ @ 444 NONAME
	_ZNSt8time_putIwPwE16GetFacetLocaleIdEv @ 445 NONAME
	_ZNSt8time_putIwSt19ostreambuf_iteratorIwSt11char_traitsIwEEE16GetFacetLocaleIdEPS3_ @ 446 NONAME
	_ZNSt8time_putIwSt19ostreambuf_iteratorIwSt11char_traitsIwEEE16GetFacetLocaleIdEv @ 447 NONAME
	_ZSt15set_new_handlerPFvvE @ 448 NONAME
	_ZNSt12strstreambuf6setbufEPci @ 449 NONAME
	_ZNSt9exceptionC1Ev @ 450 NONAME
	_ZNSt9exceptionC2Ev @ 451 NONAME
	_ZNSt9exceptionD0Ev @ 452 NONAME
	_ZNSt9exceptionD1Ev @ 453 NONAME
	_ZNSt9exceptionD2Ev @ 454 NONAME
	_ZNSt9money_getIcPKcE16GetFacetLocaleIdEPS1_ @ 455 NONAME
	_ZNSt9money_getIcPKcE16GetFacetLocaleIdEv @ 456 NONAME
	_ZNSt9money_getIcSt19istreambuf_iteratorIcSt11char_traitsIcEEE16GetFacetLocaleIdEPS3_ @ 457 NONAME
	_ZNSt9money_getIcSt19istreambuf_iteratorIcSt11char_traitsIcEEE16GetFacetLocaleIdEv @ 458 NONAME
	_ZNSt9money_getIwPKwE16GetFacetLocaleIdEPS1_ @ 459 NONAME
	_ZNSt9money_getIwPKwE16GetFacetLocaleIdEv @ 460 NONAME
	_ZNSt9money_getIwSt19istreambuf_iteratorIwSt11char_traitsIwEEE16GetFacetLocaleIdEPS3_ @ 461 NONAME
	_ZNSt9money_getIwSt19istreambuf_iteratorIwSt11char_traitsIwEEE16GetFacetLocaleIdEv @ 462 NONAME
	_ZNSt9money_putIcPcE16GetFacetLocaleIdEPS0_ @ 463 NONAME
	_ZNSt9money_putIcPcE16GetFacetLocaleIdEv @ 464 NONAME
	_ZNSt9money_putIcSt19ostreambuf_iteratorIcSt11char_traitsIcEEE16GetFacetLocaleIdEPS3_ @ 465 NONAME
	_ZNSt9money_putIcSt19ostreambuf_iteratorIcSt11char_traitsIcEEE16GetFacetLocaleIdEv @ 466 NONAME
	_ZNSt9money_putIwPwE16GetFacetLocaleIdEPS0_ @ 467 NONAME
	_ZNSt9money_putIwPwE16GetFacetLocaleIdEv @ 468 NONAME
	_ZNSt9money_putIwSt19ostreambuf_iteratorIwSt11char_traitsIwEEE16GetFacetLocaleIdEPS3_ @ 469 NONAME
	_ZNSt9money_putIwSt19ostreambuf_iteratorIwSt11char_traitsIwEEE16GetFacetLocaleIdEv @ 470 NONAME
	_ZNSt9strstream3strEv @ 471 NONAME
	_ZNSt9strstream6freezeEb @ 472 NONAME
	_ZNSt9strstreamC1EPcii @ 473 NONAME
	_ZNSt9strstreamC1Ev @ 474 NONAME
	_ZNSt9strstreamC2EPcii @ 475 NONAME
	_ZNSt9strstreamC2Ev @ 476 NONAME
	_ZSt10_M_put_numIcSt11char_traitsIcElERSt13basic_ostreamIT_T0_ES6_T1_ @ 477 NONAME ABSENT
	_ZSt10_M_put_numIcSt11char_traitsIcEmERSt13basic_ostreamIT_T0_ES6_T1_ @ 478 NONAME ABSENT
	_ZSt10_M_put_numIcSt11char_traitsIcExERSt13basic_ostreamIT_T0_ES6_T1_ @ 479 NONAME ABSENT
	_ZSt10_M_put_numIcSt11char_traitsIcEyERSt13basic_ostreamIT_T0_ES6_T1_ @ 480 NONAME ABSENT
	_ZSt12GetCinStreamv @ 481 NONAME
	_ZSt13GetCErrStreamv @ 482 NONAME
	_ZSt13GetClogStreamv @ 483 NONAME
	_ZSt13GetCoutStreamv @ 484 NONAME
	_ZSt13GetWCinStreamv @ 485 NONAME
	_ZSt13LibStdCppInitv @ 486 NONAME
	_ZSt13__write_floatRSsiid @ 487 NONAME
	_ZSt14GetWCErrStreamv @ 488 NONAME
	_ZSt14GetWClogStreamv @ 489 NONAME
	_ZSt14GetWCoutStreamv @ 490 NONAME
	_ZSt14__get_c_stringRKSs @ 491 NONAME
	_ZSt15__write_integerPcil @ 492 NONAME
	_ZSt17__insert_groupingPcS_RKSsccci @ 493 NONAME
	_ZSt17__insert_groupingPwS_RKSswwwi @ 494 NONAME
	_ZSt19get_locale_id_S_maxv @ 495 NONAME
	_ZSt21__adjust_float_bufferPcS_c @ 496 NONAME
	_ZSt21get_hex_char_table_hiv @ 497 NONAME
	_ZSt21get_hex_char_table_lov @ 498 NONAME
	_ZSt22__convert_float_bufferPKcS0_PwRKSt5ctypeIwEw @ 499 NONAME
	_ZSt23__stl_throw_range_errorPKc @ 500 NONAME
	_ZSt24__stl_throw_length_errorPKc @ 501 NONAME
	_ZSt24__stl_throw_out_of_rangePKc @ 502 NONAME
	_ZSt26__stl_throw_overflow_errorPKc @ 503 NONAME
	_ZSt28__stl_throw_invalid_argumentPKc @ 504 NONAME
	_ZSt36get_fstream_Filebuf_Base_GetPageSizev @ 505 NONAME
	_ZSt6abs_tpIdET_RKSt7complexIS0_E @ 506 NONAME
	_ZSt6abs_tpIfET_RKSt7complexIS0_E @ 507 NONAME
	_ZSt6arg_tpIdET_RKSt7complexIS0_E @ 508 NONAME
	_ZSt6arg_tpIfET_RKSt7complexIS0_E @ 509 NONAME
	_ZSt3cosRKSt7complexIdE @ 510 NONAME
	_ZSt3cosRKSt7complexIfE @ 511 NONAME
	_ZSt3expRKSt7complexIdE @ 512 NONAME
	_ZSt3expRKSt7complexIfE @ 513 NONAME
	_ZSt3logRKSt7complexIdE @ 514 NONAME
	_ZSt3logRKSt7complexIfE @ 515 NONAME
	_ZSt3powRKSt7complexIdERKd @ 516 NONAME
	_ZSt3powRKSt7complexIdES2_ @ 517 NONAME
	_ZSt3powRKSt7complexIdEi @ 518 NONAME
	_ZSt3powRKSt7complexIeERKe @ 519 NONAME
	_ZSt3powRKSt7complexIeES2_ @ 520 NONAME
	_ZSt3powRKSt7complexIeEi @ 521 NONAME
	_ZSt3powRKSt7complexIfERKf @ 522 NONAME
	_ZSt3powRKSt7complexIfES2_ @ 523 NONAME
	_ZSt3powRKSt7complexIfEi @ 524 NONAME
	_ZSt3powRKdRKSt7complexIdE @ 525 NONAME
	_ZSt3powRKeRKSt7complexIeE @ 526 NONAME
	_ZSt3powRKfRKSt7complexIfE @ 527 NONAME
	_ZSt3sinRKSt7complexIdE @ 528 NONAME
	_ZSt3sinRKSt7complexIfE @ 529 NONAME
	_ZSt3tanRKSt7complexIdE @ 530 NONAME
	_ZSt3tanRKSt7complexIfE @ 531 NONAME
	_ZSt4coshRKSt7complexIdE @ 532 NONAME
	_ZSt4coshRKSt7complexIfE @ 533 NONAME
	_ZSt4sinhRKSt7complexIdE @ 534 NONAME
	_ZSt4sinhRKSt7complexIfE @ 535 NONAME
	_ZSt4tanhRKSt7complexIdE @ 536 NONAME
	_ZSt4tanhRKSt7complexIfE @ 537 NONAME
	_ZSt5log10RKSt7complexIdE @ 538 NONAME
	_ZSt5log10RKSt7complexIfE @ 539 NONAME
	_ZSt8polar_tpIdESt7complexIT_ERKS1_S4_ @ 540 NONAME
	_ZSt8polar_tpIfESt7complexIT_ERKS1_S4_ @ 541 NONAME
	_ZStlsRSoRKSt7complexIdE @ 542 NONAME
	_ZStlsRSoRKSt7complexIfE @ 543 NONAME
	_ZStrsRSiRSt7complexIdE @ 544 NONAME
	_ZStrsRSiRSt7complexIfE @ 545 NONAME
	_ZTIN4_SgI16stdio_istreambufE @ 546 NONAME ; #<TI>#
	_ZTIN4_SgI16stdio_ostreambufE @ 547 NONAME ; #<TI>#
	_ZTIN4_SgI20stdio_streambuf_baseE @ 548 NONAME ; #<TI>#
	_ZTINSt6locale5facetE @ 549 NONAME ; #<TI>#
	_ZTINSt8ios_base7failureE @ 550 NONAME ; #<TI>#
	_ZTISd @ 551 NONAME ; #<TI>#
	_ZTISi @ 552 NONAME ; #<TI>#
	_ZTISo @ 553 NONAME ; #<TI>#
	_ZTISt11logic_error @ 554 NONAME ; #<TI>#
	_ZTISt11range_error @ 555 NONAME ; #<TI>#
	_ZTISt12_Locale_impl @ 556 NONAME ; #<TI>#
	_ZTISt12ctype_bynameIcE @ 557 NONAME ; #<TI>#
	_ZTISt12ctype_bynameIwE @ 558 NONAME ; #<TI>#
	_ZTISt12domain_error @ 559 NONAME ; #<TI>#
	_ZTISt12length_error @ 560 NONAME ; #<TI>#
	_ZTISt12out_of_range @ 561 NONAME ; #<TI>#
	_ZTISt13bad_exception @ 562 NONAME ; #<TI>#
	_ZTISt13basic_filebufIcSt11char_traitsIcEE @ 563 NONAME ; #<TI>#
	_ZTISt13basic_filebufIwSt11char_traitsIwEE @ 564 NONAME ; #<TI>#
	_ZTISt13basic_fstreamIcSt11char_traitsIcEE @ 565 NONAME ; #<TI>#
	_ZTISt13basic_fstreamIwSt11char_traitsIwEE @ 566 NONAME ; #<TI>#
	_ZTISt13basic_istreamIwSt11char_traitsIwEE @ 567 NONAME ; #<TI>#
	_ZTISt13basic_ostreamIwSt11char_traitsIwEE @ 568 NONAME ; #<TI>#
	_ZTISt13runtime_error @ 569 NONAME ; #<TI>#
	_ZTISt14_Messages_impl @ 570 NONAME ; #<TI>#
	_ZTISt14basic_iostreamIwSt11char_traitsIwEE @ 571 NONAME ; #<TI>#
	_ZTISt14codecvt_bynameIcc11_mb_state_tE @ 572 NONAME ; #<TI>#
	_ZTISt14codecvt_bynameIwc11_mb_state_tE @ 573 NONAME ; #<TI>#
	_ZTISt14collate_bynameIcE @ 574 NONAME ; #<TI>#
	_ZTISt14collate_bynameIwE @ 575 NONAME ; #<TI>#
	_ZTISt14overflow_error @ 576 NONAME ; #<TI>#
	_ZTISt15basic_streambufIcSt11char_traitsIcEE @ 577 NONAME ; #<TI>#
	_ZTISt15basic_streambufIwSt11char_traitsIwEE @ 578 NONAME ; #<TI>#
	_ZTISt15messages_bynameIcE @ 579 NONAME ; #<TI>#
	_ZTISt15messages_bynameIwE @ 580 NONAME ; #<TI>#
	_ZTISt15numpunct_bynameIcE @ 581 NONAME ; #<TI>#
	_ZTISt15numpunct_bynameIwE @ 582 NONAME ; #<TI>#
	_ZTISt15underflow_error @ 583 NONAME ; #<TI>#
	_ZTISt16invalid_argument @ 584 NONAME ; #<TI>#
	_ZTISt17__Named_exception @ 585 NONAME ; #<TI>#
	_ZTISt17moneypunct_bynameIcLb0EE @ 586 NONAME ; #<TI>#
	_ZTISt17moneypunct_bynameIcLb1EE @ 587 NONAME ; #<TI>#
	_ZTISt17moneypunct_bynameIwLb0EE @ 588 NONAME ; #<TI>#
	_ZTISt17moneypunct_bynameIwLb1EE @ 589 NONAME ; #<TI>#
	_ZTISt5ctypeIcE @ 590 NONAME ; #<TI>#
	_ZTISt5ctypeIwE @ 591 NONAME ; #<TI>#
	_ZTISt7_Locale @ 592 NONAME ; #<TI>#
	_ZTISt7num_putIcPcE @ 593 NONAME ; #<TI>#
	_ZTISt7num_putIcSt19ostreambuf_iteratorIcSt11char_traitsIcEEE @ 594 NONAME ; #<TI>#
	_ZTISt7num_putIcSt20back_insert_iteratorISsEE @ 595 NONAME ; #<TI>#
	_ZTISt7num_putIwPwE @ 596 NONAME ; #<TI>#
	_ZTISt7num_putIwSt19ostreambuf_iteratorIwSt11char_traitsIwEEE @ 597 NONAME ; #<TI>#
	_ZTISt8ios_base @ 598 NONAME ; #<TI>#
	_ZTISt8numpunctIcE @ 599 NONAME ; #<TI>#
	_ZTISt8numpunctIwE @ 600 NONAME ; #<TI>#
	_ZTISt8time_getIcPKcE @ 601 NONAME ; #<TI>#
	_ZTISt8time_getIcSt19istreambuf_iteratorIcSt11char_traitsIcEEE @ 602 NONAME ; #<TI>#
	_ZTISt8time_getIwPKwE @ 603 NONAME ; #<TI>#
	_ZTISt8time_getIwSt19istreambuf_iteratorIwSt11char_traitsIwEEE @ 604 NONAME ; #<TI>#
	_ZTISt8time_putIcPcE @ 605 NONAME ; #<TI>#
	_ZTISt8time_putIcSt19ostreambuf_iteratorIcSt11char_traitsIcEEE @ 606 NONAME ; #<TI>#
	_ZTISt8time_putIwPwE @ 607 NONAME ; #<TI>#
	_ZTISt8time_putIwSt19ostreambuf_iteratorIwSt11char_traitsIwEEE @ 608 NONAME ; #<TI>#
	_ZTISt9_Messages @ 609 NONAME ; #<TI>#
	_ZTISt9exception @ 610 NONAME ; #<TI>#
	_ZTISt9money_getIcPKcE @ 611 NONAME ; #<TI>#
	_ZTISt9money_getIcSt19istreambuf_iteratorIcSt11char_traitsIcEEE @ 612 NONAME ; #<TI>#
	_ZTISt9money_getIwPKwE @ 613 NONAME ; #<TI>#
	_ZTISt9money_getIwSt19istreambuf_iteratorIwSt11char_traitsIwEEE @ 614 NONAME ; #<TI>#
	_ZTISt9money_putIcPcE @ 615 NONAME ; #<TI>#
	_ZTISt9money_putIcSt19ostreambuf_iteratorIcSt11char_traitsIcEEE @ 616 NONAME ; #<TI>#
	_ZTISt9money_putIwPwE @ 617 NONAME ; #<TI>#
	_ZTISt9money_putIwSt19ostreambuf_iteratorIwSt11char_traitsIwEEE @ 618 NONAME ; #<TI>#
	_ZTVN4_SgI16stdio_istreambufE @ 619 NONAME ; #<VT>#
	_ZTVN4_SgI16stdio_ostreambufE @ 620 NONAME ; #<VT>#
	_ZTVN4_SgI20stdio_streambuf_baseE @ 621 NONAME ; #<VT>#
	_ZTVNSt6locale5facetE @ 622 NONAME ; #<VT>#
	_ZTVNSt8ios_base7failureE @ 623 NONAME ; #<VT>#
	_ZTVSd @ 624 NONAME ; #<VT>#
	_ZTVSi @ 625 NONAME ; #<VT>#
	_ZTVSo @ 626 NONAME ; #<VT>#
	_ZTVSt11logic_error @ 627 NONAME ; #<VT>#
	_ZTVSt11range_error @ 628 NONAME ; #<VT>#
	_ZTVSt12_Locale_impl @ 629 NONAME ; #<VT>#
	_ZTVSt12ctype_bynameIcE @ 630 NONAME ; #<VT>#
	_ZTVSt12ctype_bynameIwE @ 631 NONAME ; #<VT>#
	_ZTVSt12domain_error @ 632 NONAME ; #<VT>#
	_ZTVSt12length_error @ 633 NONAME ; #<VT>#
	_ZTVSt12out_of_range @ 634 NONAME ; #<VT>#
	_ZTVSt13bad_exception @ 635 NONAME ; #<VT>#
	_ZTVSt13basic_filebufIcSt11char_traitsIcEE @ 636 NONAME ; #<VT>#
	_ZTVSt13basic_filebufIwSt11char_traitsIwEE @ 637 NONAME ; #<VT>#
	_ZTVSt13basic_fstreamIcSt11char_traitsIcEE @ 638 NONAME ; #<VT>#
	_ZTVSt13basic_fstreamIwSt11char_traitsIwEE @ 639 NONAME ; #<VT>#
	_ZTVSt13basic_istreamIwSt11char_traitsIwEE @ 640 NONAME ; #<VT>#
	_ZTVSt13basic_ostreamIwSt11char_traitsIwEE @ 641 NONAME ; #<VT>#
	_ZTVSt13runtime_error @ 642 NONAME ; #<VT>#
	_ZTVSt14_Messages_impl @ 643 NONAME ; #<VT>#
	_ZTVSt14basic_iostreamIwSt11char_traitsIwEE @ 644 NONAME ; #<VT>#
	_ZTVSt14codecvt_bynameIcc11_mb_state_tE @ 645 NONAME ; #<VT>#
	_ZTVSt14codecvt_bynameIwc11_mb_state_tE @ 646 NONAME ; #<VT>#
	_ZTVSt14collate_bynameIcE @ 647 NONAME ; #<VT>#
	_ZTVSt14collate_bynameIwE @ 648 NONAME ; #<VT>#
	_ZTVSt14overflow_error @ 649 NONAME ; #<VT>#
	_ZTVSt15basic_streambufIcSt11char_traitsIcEE @ 650 NONAME ; #<VT>#
	_ZTVSt15basic_streambufIwSt11char_traitsIwEE @ 651 NONAME ; #<VT>#
	_ZTVSt15messages_bynameIcE @ 652 NONAME ; #<VT>#
	_ZTVSt15messages_bynameIwE @ 653 NONAME ; #<VT>#
	_ZTVSt15numpunct_bynameIcE @ 654 NONAME ; #<VT>#
	_ZTVSt15numpunct_bynameIwE @ 655 NONAME ; #<VT>#
	_ZTVSt15underflow_error @ 656 NONAME ; #<VT>#
	_ZTVSt16invalid_argument @ 657 NONAME ; #<VT>#
	_ZTVSt17__Named_exception @ 658 NONAME ; #<VT>#
	_ZTVSt17moneypunct_bynameIcLb0EE @ 659 NONAME ; #<VT>#
	_ZTVSt17moneypunct_bynameIcLb1EE @ 660 NONAME ; #<VT>#
	_ZTVSt17moneypunct_bynameIwLb0EE @ 661 NONAME ; #<VT>#
	_ZTVSt17moneypunct_bynameIwLb1EE @ 662 NONAME ; #<VT>#
	_ZTVSt5ctypeIcE @ 663 NONAME ; #<VT>#
	_ZTVSt5ctypeIwE @ 664 NONAME ; #<VT>#
	_ZTVSt7_Locale @ 665 NONAME ; #<VT>#
	_ZTVSt7num_putIcPcE @ 666 NONAME ; #<VT>#
	_ZTVSt7num_putIcSt19ostreambuf_iteratorIcSt11char_traitsIcEEE @ 667 NONAME ; #<VT>#
	_ZTVSt7num_putIcSt20back_insert_iteratorISsEE @ 668 NONAME ; #<VT>#
	_ZTVSt7num_putIwPwE @ 669 NONAME ; #<VT>#
	_ZTVSt7num_putIwSt19ostreambuf_iteratorIwSt11char_traitsIwEEE @ 670 NONAME ; #<VT>#
	_ZTVSt8ios_base @ 671 NONAME ; #<VT>#
	_ZTVSt8numpunctIcE @ 672 NONAME ; #<VT>#
	_ZTVSt8numpunctIwE @ 673 NONAME ; #<VT>#
	_ZTVSt8time_getIcPKcE @ 674 NONAME ; #<VT>#
	_ZTVSt8time_getIcSt19istreambuf_iteratorIcSt11char_traitsIcEEE @ 675 NONAME ; #<VT>#
	_ZTVSt8time_getIwPKwE @ 676 NONAME ; #<VT>#
	_ZTVSt8time_getIwSt19istreambuf_iteratorIwSt11char_traitsIwEEE @ 677 NONAME ; #<VT>#
	_ZTVSt8time_putIcPcE @ 678 NONAME ; #<VT>#
	_ZTVSt8time_putIcSt19ostreambuf_iteratorIcSt11char_traitsIcEEE @ 679 NONAME ; #<VT>#
	_ZTVSt8time_putIwPwE @ 680 NONAME ; #<VT>#
	_ZTVSt8time_putIwSt19ostreambuf_iteratorIwSt11char_traitsIwEEE @ 681 NONAME ; #<VT>#
	_ZTVSt9_Messages @ 682 NONAME ; #<VT>#
	_ZTVSt9exception @ 683 NONAME ; #<VT>#
	_ZTVSt9money_getIcPKcE @ 684 NONAME ; #<VT>#
	_ZTVSt9money_getIcSt19istreambuf_iteratorIcSt11char_traitsIcEEE @ 685 NONAME ; #<VT>#
	_ZTVSt9money_getIwPKwE @ 686 NONAME ; #<VT>#
	_ZTVSt9money_getIwSt19istreambuf_iteratorIwSt11char_traitsIwEEE @ 687 NONAME ; #<VT>#
	_ZTVSt9money_putIcPcE @ 688 NONAME ; #<VT>#
	_ZTVSt9money_putIcSt19ostreambuf_iteratorIcSt11char_traitsIcEEE @ 689 NONAME ; #<VT>#
	_ZTVSt9money_putIwPwE @ 690 NONAME ; #<VT>#
	_ZTVSt9money_putIwSt19ostreambuf_iteratorIwSt11char_traitsIwEEE @ 691 NONAME ; #<VT>#
	_ZThn8_NSdD0Ev @ 692 NONAME ; #<thunk>#
	_ZThn8_NSdD1Ev @ 693 NONAME ; #<thunk>#
	_ZThn8_NSdD9Ev @ 694 NONAME ABSENT ; #<thunk>#
	_ZThn8_NSt13basic_fstreamIcSt11char_traitsIcEED0Ev @ 695 NONAME ; #<thunk>#
	_ZThn8_NSt13basic_fstreamIcSt11char_traitsIcEED1Ev @ 696 NONAME ; #<thunk>#
	_ZThn8_NSt13basic_fstreamIcSt11char_traitsIcEED9Ev @ 697 NONAME ABSENT ; #<thunk>#
	_ZThn8_NSt13basic_fstreamIwSt11char_traitsIwEED0Ev @ 698 NONAME ; #<thunk>#
	_ZThn8_NSt13basic_fstreamIwSt11char_traitsIwEED1Ev @ 699 NONAME ; #<thunk>#
	_ZThn8_NSt13basic_fstreamIwSt11char_traitsIwEED9Ev @ 700 NONAME ABSENT ; #<thunk>#
	_ZThn8_NSt14basic_iostreamIwSt11char_traitsIwEED0Ev @ 701 NONAME ; #<thunk>#
	_ZThn8_NSt14basic_iostreamIwSt11char_traitsIwEED1Ev @ 702 NONAME ; #<thunk>#
	_ZThn8_NSt14basic_iostreamIwSt11char_traitsIwEED9Ev @ 703 NONAME ABSENT ; #<thunk>#
	_ZNSt9_MessagesC1Ev @ 704 NONAME
	_ZNSt9_MessagesC2Ev @ 705 NONAME
	_ZNSt9_MessagesD0Ev @ 706 NONAME
	_ZNSt9_MessagesD1Ev @ 707 NONAME
	_ZNSt9_MessagesD2Ev @ 708 NONAME
	_ZNSt12ctype_bynameIcEC1EPKcj @ 709 NONAME
	_ZNSt12ctype_bynameIcEC2EPKcj @ 710 NONAME
	_ZNSt12ctype_bynameIwEC1EPKcj @ 711 NONAME
	_ZNSt12ctype_bynameIwEC2EPKcj @ 712 NONAME
	_ZNSt14codecvt_bynameIcc11_mb_state_tEC1EPKcj @ 713 NONAME
	_ZNSt14codecvt_bynameIcc11_mb_state_tEC2EPKcj @ 714 NONAME
	_ZNSt14codecvt_bynameIwc11_mb_state_tEC1EPKcj @ 715 NONAME
	_ZNSt14codecvt_bynameIwc11_mb_state_tEC2EPKcj @ 716 NONAME
	_ZNSt14collate_bynameIcEC1EPKcj @ 717 NONAME
	_ZNSt14collate_bynameIcEC2EPKcj @ 718 NONAME
	_ZNSt14collate_bynameIwEC1EPKcj @ 719 NONAME
	_ZNSt14collate_bynameIwEC2EPKcj @ 720 NONAME
	_ZNSt15numpunct_bynameIcEC1EPKcj @ 721 NONAME
	_ZNSt15numpunct_bynameIcEC2EPKcj @ 722 NONAME
	_ZNSt15numpunct_bynameIwEC1EPKcj @ 723 NONAME
	_ZNSt15numpunct_bynameIwEC2EPKcj @ 724 NONAME
	_ZNSt17moneypunct_bynameIcLb0EEC1EPKcj @ 725 NONAME
	_ZNSt17moneypunct_bynameIcLb0EEC2EPKcj @ 726 NONAME
	_ZNSt17moneypunct_bynameIcLb1EEC1EPKcj @ 727 NONAME
	_ZNSt17moneypunct_bynameIcLb1EEC2EPKcj @ 728 NONAME
	_ZNSt17moneypunct_bynameIwLb0EEC1EPKcj @ 729 NONAME
	_ZNSt17moneypunct_bynameIwLb0EEC2EPKcj @ 730 NONAME
	_ZNSt17moneypunct_bynameIwLb1EEC1EPKcj @ 731 NONAME
	_ZNSt17moneypunct_bynameIwLb1EEC2EPKcj @ 732 NONAME
	_ZSt14_Init_timeinfoRSt10_Time_Info @ 733 NONAME
	_ZSt14_Init_timeinfoRSt10_Time_InfoP12_Locale_time @ 734 NONAME
	_ZSt14__acquire_timePKc @ 735 NONAME
	_ZSt14__release_timeP12_Locale_time @ 736 NONAME
	_ZSt16__get_date_orderP12_Locale_time @ 737 NONAME
	_ZSt16__valid_groupingPKcS0_S0_S0_ @ 738 NONAME
	_ZSt18__get_narrow_atomsv @ 739 NONAME
	_ZSt21__get_digit_val_tablev @ 740 NONAME
	_ZSt22__write_formatted_timePcccRKSt10_Time_InfoPK2tm @ 741 NONAME
	_ZNKSt10moneypunctIcLb0EE11do_groupingEv @ 742 NONAME
	_ZNKSt10moneypunctIcLb0EE13do_neg_formatEv @ 743 NONAME
	_ZNKSt10moneypunctIcLb0EE13do_pos_formatEv @ 744 NONAME
	_ZNKSt10moneypunctIcLb0EE14do_curr_symbolEv @ 745 NONAME
	_ZNKSt10moneypunctIcLb0EE14do_frac_digitsEv @ 746 NONAME
	_ZNKSt10moneypunctIcLb0EE16do_decimal_pointEv @ 747 NONAME
	_ZNKSt10moneypunctIcLb0EE16do_negative_signEv @ 748 NONAME
	_ZNKSt10moneypunctIcLb0EE16do_positive_signEv @ 749 NONAME
	_ZNKSt10moneypunctIcLb1EE11do_groupingEv @ 750 NONAME
	_ZNKSt10moneypunctIcLb1EE13do_neg_formatEv @ 751 NONAME
	_ZNKSt10moneypunctIcLb1EE13do_pos_formatEv @ 752 NONAME
	_ZNKSt10moneypunctIcLb1EE14do_curr_symbolEv @ 753 NONAME
	_ZNKSt10moneypunctIcLb1EE14do_frac_digitsEv @ 754 NONAME
	_ZNKSt10moneypunctIcLb1EE16do_decimal_pointEv @ 755 NONAME
	_ZNKSt10moneypunctIcLb1EE16do_negative_signEv @ 756 NONAME
	_ZNKSt10moneypunctIcLb1EE16do_positive_signEv @ 757 NONAME
	_ZNKSt10moneypunctIwLb0EE11do_groupingEv @ 758 NONAME
	_ZNKSt10moneypunctIwLb0EE13do_neg_formatEv @ 759 NONAME
	_ZNKSt10moneypunctIwLb0EE13do_pos_formatEv @ 760 NONAME
	_ZNKSt10moneypunctIwLb0EE14do_curr_symbolEv @ 761 NONAME
	_ZNKSt10moneypunctIwLb0EE14do_frac_digitsEv @ 762 NONAME
	_ZNKSt10moneypunctIwLb0EE16do_decimal_pointEv @ 763 NONAME
	_ZNKSt10moneypunctIwLb0EE16do_negative_signEv @ 764 NONAME
	_ZNKSt10moneypunctIwLb0EE16do_positive_signEv @ 765 NONAME
	_ZNKSt10moneypunctIwLb1EE11do_groupingEv @ 766 NONAME
	_ZNKSt10moneypunctIwLb1EE13do_neg_formatEv @ 767 NONAME
	_ZNKSt10moneypunctIwLb1EE13do_pos_formatEv @ 768 NONAME
	_ZNKSt10moneypunctIwLb1EE14do_curr_symbolEv @ 769 NONAME
	_ZNKSt10moneypunctIwLb1EE14do_frac_digitsEv @ 770 NONAME
	_ZNKSt10moneypunctIwLb1EE16do_decimal_pointEv @ 771 NONAME
	_ZNKSt10moneypunctIwLb1EE16do_negative_signEv @ 772 NONAME
	_ZNKSt10moneypunctIwLb1EE16do_positive_signEv @ 773 NONAME
	_ZNKSt12ctype_bynameIcE10do_tolowerEPcPKc @ 774 NONAME
	_ZNKSt12ctype_bynameIcE10do_tolowerEc @ 775 NONAME
	_ZNKSt12ctype_bynameIcE10do_toupperEPcPKc @ 776 NONAME
	_ZNKSt12ctype_bynameIcE10do_toupperEc @ 777 NONAME
	_ZNKSt12ctype_bynameIwE10do_scan_isENSt10ctype_base4maskEPKwS4_ @ 778 NONAME
	_ZNKSt12ctype_bynameIwE10do_tolowerEPwPKw @ 779 NONAME
	_ZNKSt12ctype_bynameIwE10do_tolowerEw @ 780 NONAME
	_ZNKSt12ctype_bynameIwE10do_toupperEPwPKw @ 781 NONAME
	_ZNKSt12ctype_bynameIwE10do_toupperEw @ 782 NONAME
	_ZNKSt12ctype_bynameIwE11do_scan_notENSt10ctype_base4maskEPKwS4_ @ 783 NONAME
	_ZNKSt12ctype_bynameIwE5do_isENSt10ctype_base4maskEw @ 784 NONAME
	_ZNKSt12ctype_bynameIwE5do_isEPKwS2_PNSt10ctype_base4maskE @ 785 NONAME
	_ZNKSt14codecvt_bynameIwc11_mb_state_tE10do_unshiftERS0_PcS3_RS3_ @ 786 NONAME
	_ZNKSt14codecvt_bynameIwc11_mb_state_tE11do_encodingEv @ 787 NONAME
	_ZNKSt14codecvt_bynameIwc11_mb_state_tE13do_max_lengthEv @ 788 NONAME
	_ZNKSt14codecvt_bynameIwc11_mb_state_tE16do_always_noconvEv @ 789 NONAME
	_ZNKSt14codecvt_bynameIwc11_mb_state_tE5do_inERS0_PKcS4_RS4_PwS6_RS6_ @ 790 NONAME
	_ZNKSt14codecvt_bynameIwc11_mb_state_tE6do_outERS0_PKwS4_RS4_PcS6_RS6_ @ 791 NONAME
	_ZNKSt14codecvt_bynameIwc11_mb_state_tE9do_lengthERKS0_PKcS5_j @ 792 NONAME
	_ZNKSt14collate_bynameIcE10do_compareEPKcS2_S2_S2_ @ 793 NONAME
	_ZNKSt14collate_bynameIcE12do_transformEPKcS2_ @ 794 NONAME
	_ZNKSt14collate_bynameIwE10do_compareEPKwS2_S2_S2_ @ 795 NONAME
	_ZNKSt14collate_bynameIwE12do_transformEPKwS2_ @ 796 NONAME
	_ZNKSt15numpunct_bynameIcE11do_groupingEv @ 797 NONAME
	_ZNKSt15numpunct_bynameIcE16do_decimal_pointEv @ 798 NONAME
	_ZNKSt15numpunct_bynameIwE11do_groupingEv @ 799 NONAME
	_ZNKSt15numpunct_bynameIwE16do_decimal_pointEv @ 800 NONAME
	_ZNKSt17moneypunct_bynameIcLb0EE11do_groupingEv @ 801 NONAME
	_ZNKSt17moneypunct_bynameIcLb0EE14do_curr_symbolEv @ 802 NONAME
	_ZNKSt17moneypunct_bynameIcLb0EE14do_frac_digitsEv @ 803 NONAME
	_ZNKSt17moneypunct_bynameIcLb0EE16do_decimal_pointEv @ 804 NONAME
	_ZNKSt17moneypunct_bynameIcLb0EE16do_negative_signEv @ 805 NONAME
	_ZNKSt17moneypunct_bynameIcLb0EE16do_positive_signEv @ 806 NONAME
	_ZNKSt17moneypunct_bynameIcLb1EE11do_groupingEv @ 807 NONAME
	_ZNKSt17moneypunct_bynameIcLb1EE14do_curr_symbolEv @ 808 NONAME
	_ZNKSt17moneypunct_bynameIcLb1EE14do_frac_digitsEv @ 809 NONAME
	_ZNKSt17moneypunct_bynameIcLb1EE16do_decimal_pointEv @ 810 NONAME
	_ZNKSt17moneypunct_bynameIcLb1EE16do_negative_signEv @ 811 NONAME
	_ZNKSt17moneypunct_bynameIcLb1EE16do_positive_signEv @ 812 NONAME
	_ZNKSt17moneypunct_bynameIwLb0EE11do_groupingEv @ 813 NONAME
	_ZNKSt17moneypunct_bynameIwLb0EE14do_curr_symbolEv @ 814 NONAME
	_ZNKSt17moneypunct_bynameIwLb0EE14do_frac_digitsEv @ 815 NONAME
	_ZNKSt17moneypunct_bynameIwLb0EE16do_decimal_pointEv @ 816 NONAME
	_ZNKSt17moneypunct_bynameIwLb0EE16do_negative_signEv @ 817 NONAME
	_ZNKSt17moneypunct_bynameIwLb0EE16do_positive_signEv @ 818 NONAME
	_ZNKSt17moneypunct_bynameIwLb1EE11do_groupingEv @ 819 NONAME
	_ZNKSt17moneypunct_bynameIwLb1EE14do_curr_symbolEv @ 820 NONAME
	_ZNKSt17moneypunct_bynameIwLb1EE14do_frac_digitsEv @ 821 NONAME
	_ZNKSt17moneypunct_bynameIwLb1EE16do_decimal_pointEv @ 822 NONAME
	_ZNKSt17moneypunct_bynameIwLb1EE16do_negative_signEv @ 823 NONAME
	_ZNKSt17moneypunct_bynameIwLb1EE16do_positive_signEv @ 824 NONAME
	_ZNKSt7codecvtIcc11_mb_state_tE10do_unshiftERS0_PcS3_RS3_ @ 825 NONAME
	_ZNKSt7codecvtIcc11_mb_state_tE11do_encodingEv @ 826 NONAME
	_ZNKSt7codecvtIcc11_mb_state_tE13do_max_lengthEv @ 827 NONAME
	_ZNKSt7codecvtIcc11_mb_state_tE16do_always_noconvEv @ 828 NONAME
	_ZNKSt7codecvtIcc11_mb_state_tE5do_inERS0_PKcS4_RS4_PcS6_RS6_ @ 829 NONAME
	_ZNKSt7codecvtIcc11_mb_state_tE6do_outERS0_PKcS4_RS4_PcS6_RS6_ @ 830 NONAME
	_ZNKSt7codecvtIcc11_mb_state_tE9do_lengthERKS0_PKcS5_j @ 831 NONAME
	_ZNKSt7codecvtIwc11_mb_state_tE10do_unshiftERS0_PcS3_RS3_ @ 832 NONAME
	_ZNKSt7codecvtIwc11_mb_state_tE11do_encodingEv @ 833 NONAME
	_ZNKSt7codecvtIwc11_mb_state_tE13do_max_lengthEv @ 834 NONAME
	_ZNKSt7codecvtIwc11_mb_state_tE16do_always_noconvEv @ 835 NONAME
	_ZNKSt7codecvtIwc11_mb_state_tE5do_inERS0_PKcS4_RS4_PwS6_RS6_ @ 836 NONAME
	_ZNKSt7codecvtIwc11_mb_state_tE6do_outERS0_PKwS4_RS4_PcS6_RS6_ @ 837 NONAME
	_ZNKSt7codecvtIwc11_mb_state_tE9do_lengthERKS0_PKcS5_j @ 838 NONAME
	_ZNKSt7collateIcE10do_compareEPKcS2_S2_S2_ @ 839 NONAME
	_ZNKSt7collateIcE12do_transformEPKcS2_ @ 840 NONAME
	_ZNKSt7collateIcE7do_hashEPKcS2_ @ 841 NONAME
	_ZNKSt7collateIwE10do_compareEPKwS2_S2_S2_ @ 842 NONAME
	_ZNKSt7collateIwE12do_transformEPKwS2_ @ 843 NONAME
	_ZNKSt7collateIwE7do_hashEPKwS2_ @ 844 NONAME
	_ZNKSt8messagesIcE6do_getEiiiRKSs @ 845 NONAME
	_ZNKSt8messagesIcE7do_openERKSsRKSt6locale @ 846 NONAME
	_ZNKSt8messagesIcE8do_closeEi @ 847 NONAME
	_ZNKSt8messagesIwE6do_getEiiiRKSbIwSt11char_traitsIwESaIwEE @ 848 NONAME
	_ZNKSt8messagesIwE7do_openERKSsRKSt6locale @ 849 NONAME
	_ZNKSt8messagesIwE8do_closeEi @ 850 NONAME
	_ZNKSt9_Messages7do_openERKSsRKSt6locale @ 851 NONAME
	_ZNSt10moneypunctIcLb0EEC1Ej @ 852 NONAME
	_ZNSt10moneypunctIcLb0EEC2Ej @ 853 NONAME
	_ZNSt10moneypunctIcLb0EED0Ev @ 854 NONAME
	_ZNSt10moneypunctIcLb0EED1Ev @ 855 NONAME
	_ZNSt10moneypunctIcLb0EED2Ev @ 856 NONAME
	_ZNSt10moneypunctIcLb1EEC1Ej @ 857 NONAME
	_ZNSt10moneypunctIcLb1EEC2Ej @ 858 NONAME
	_ZNSt10moneypunctIcLb1EED0Ev @ 859 NONAME
	_ZNSt10moneypunctIcLb1EED1Ev @ 860 NONAME
	_ZNSt10moneypunctIcLb1EED2Ev @ 861 NONAME
	_ZNSt10moneypunctIwLb0EEC1Ej @ 862 NONAME
	_ZNSt10moneypunctIwLb0EEC2Ej @ 863 NONAME
	_ZNSt10moneypunctIwLb0EED0Ev @ 864 NONAME
	_ZNSt10moneypunctIwLb0EED1Ev @ 865 NONAME
	_ZNSt10moneypunctIwLb0EED2Ev @ 866 NONAME
	_ZNSt10moneypunctIwLb1EEC1Ej @ 867 NONAME
	_ZNSt10moneypunctIwLb1EEC2Ej @ 868 NONAME
	_ZNSt10moneypunctIwLb1EED0Ev @ 869 NONAME
	_ZNSt10moneypunctIwLb1EED1Ev @ 870 NONAME
	_ZNSt10moneypunctIwLb1EED2Ev @ 871 NONAME
	_ZNSt12ctype_bynameIcED0Ev @ 872 NONAME
	_ZNSt12ctype_bynameIcED1Ev @ 873 NONAME
	_ZNSt12ctype_bynameIcED2Ev @ 874 NONAME
	_ZNSt12ctype_bynameIwED0Ev @ 875 NONAME
	_ZNSt12ctype_bynameIwED1Ev @ 876 NONAME
	_ZNSt12ctype_bynameIwED2Ev @ 877 NONAME
	_ZNSt14codecvt_bynameIcc11_mb_state_tED0Ev @ 878 NONAME
	_ZNSt14codecvt_bynameIcc11_mb_state_tED1Ev @ 879 NONAME
	_ZNSt14codecvt_bynameIcc11_mb_state_tED2Ev @ 880 NONAME
	_ZNSt14codecvt_bynameIwc11_mb_state_tED0Ev @ 881 NONAME
	_ZNSt14codecvt_bynameIwc11_mb_state_tED1Ev @ 882 NONAME
	_ZNSt14codecvt_bynameIwc11_mb_state_tED2Ev @ 883 NONAME
	_ZNSt14collate_bynameIcED0Ev @ 884 NONAME
	_ZNSt14collate_bynameIcED1Ev @ 885 NONAME
	_ZNSt14collate_bynameIcED2Ev @ 886 NONAME
	_ZNSt14collate_bynameIwED0Ev @ 887 NONAME
	_ZNSt14collate_bynameIwED1Ev @ 888 NONAME
	_ZNSt14collate_bynameIwED2Ev @ 889 NONAME
	_ZNSt15messages_bynameIcEC1EPKcj @ 890 NONAME
	_ZNSt15messages_bynameIcEC2EPKcj @ 891 NONAME
	_ZNSt15messages_bynameIcED0Ev @ 892 NONAME
	_ZNSt15messages_bynameIcED1Ev @ 893 NONAME
	_ZNSt15messages_bynameIcED2Ev @ 894 NONAME
	_ZNSt15messages_bynameIwEC1EPKcj @ 895 NONAME
	_ZNSt15messages_bynameIwEC2EPKcj @ 896 NONAME
	_ZNSt15messages_bynameIwED0Ev @ 897 NONAME
	_ZNSt15messages_bynameIwED1Ev @ 898 NONAME
	_ZNSt15messages_bynameIwED2Ev @ 899 NONAME
	_ZNSt15numpunct_bynameIcED0Ev @ 900 NONAME
	_ZNSt15numpunct_bynameIcED1Ev @ 901 NONAME
	_ZNSt15numpunct_bynameIcED2Ev @ 902 NONAME
	_ZNSt15numpunct_bynameIwED0Ev @ 903 NONAME
	_ZNSt15numpunct_bynameIwED1Ev @ 904 NONAME
	_ZNSt15numpunct_bynameIwED2Ev @ 905 NONAME
	_ZNSt17moneypunct_bynameIcLb0EED0Ev @ 906 NONAME
	_ZNSt17moneypunct_bynameIcLb0EED1Ev @ 907 NONAME
	_ZNSt17moneypunct_bynameIcLb0EED2Ev @ 908 NONAME
	_ZNSt17moneypunct_bynameIcLb1EED0Ev @ 909 NONAME
	_ZNSt17moneypunct_bynameIcLb1EED1Ev @ 910 NONAME
	_ZNSt17moneypunct_bynameIcLb1EED2Ev @ 911 NONAME
	_ZNSt17moneypunct_bynameIwLb0EED0Ev @ 912 NONAME
	_ZNSt17moneypunct_bynameIwLb0EED1Ev @ 913 NONAME
	_ZNSt17moneypunct_bynameIwLb0EED2Ev @ 914 NONAME
	_ZNSt17moneypunct_bynameIwLb1EED0Ev @ 915 NONAME
	_ZNSt17moneypunct_bynameIwLb1EED1Ev @ 916 NONAME
	_ZNSt17moneypunct_bynameIwLb1EED2Ev @ 917 NONAME
	_ZNSt7codecvtIcc11_mb_state_tED0Ev @ 918 NONAME
	_ZNSt7codecvtIcc11_mb_state_tED1Ev @ 919 NONAME
	_ZNSt7codecvtIcc11_mb_state_tED2Ev @ 920 NONAME
	_ZNSt7codecvtIwc11_mb_state_tED0Ev @ 921 NONAME
	_ZNSt7codecvtIwc11_mb_state_tED1Ev @ 922 NONAME
	_ZNSt7codecvtIwc11_mb_state_tED2Ev @ 923 NONAME
	_ZNSt7collateIcED0Ev @ 924 NONAME
	_ZNSt7collateIcED1Ev @ 925 NONAME
	_ZNSt7collateIcED2Ev @ 926 NONAME
	_ZNSt7collateIwED0Ev @ 927 NONAME
	_ZNSt7collateIwED1Ev @ 928 NONAME
	_ZNSt7collateIwED2Ev @ 929 NONAME
	_ZNSt8messagesIcEC1EPSt9_Messages @ 930 NONAME
	_ZNSt8messagesIcEC2EPSt9_Messages @ 931 NONAME
	_ZNSt8messagesIcED0Ev @ 932 NONAME
	_ZNSt8messagesIcED1Ev @ 933 NONAME
	_ZNSt8messagesIcED2Ev @ 934 NONAME
	_ZNSt8messagesIwEC1EPSt9_Messages @ 935 NONAME
	_ZNSt8messagesIwEC1Ej @ 936 NONAME
	_ZNSt8messagesIwEC1EjP16_Locale_messages @ 937 NONAME
	_ZNSt8messagesIwEC2EPSt9_Messages @ 938 NONAME
	_ZNSt8messagesIwEC2Ej @ 939 NONAME
	_ZNSt8messagesIwEC2EjP16_Locale_messages @ 940 NONAME
	_ZNSt8messagesIwED0Ev @ 941 NONAME
	_ZNSt8messagesIwED1Ev @ 942 NONAME
	_ZNSt8messagesIwED2Ev @ 943 NONAME
	_ZSt17__string_to_floatRKSsRd @ 944 NONAME
	_ZSt17__string_to_floatRKSsRf @ 945 NONAME
	_ZTISt10moneypunctIcLb0EE @ 946 NONAME ; #<TI>#
	_ZTISt10moneypunctIcLb1EE @ 947 NONAME ; #<TI>#
	_ZTISt10moneypunctIwLb0EE @ 948 NONAME ; #<TI>#
	_ZTISt10moneypunctIwLb1EE @ 949 NONAME ; #<TI>#
	_ZTISt7codecvtIcc11_mb_state_tE @ 950 NONAME ; #<TI>#
	_ZTISt7codecvtIwc11_mb_state_tE @ 951 NONAME ; #<TI>#
	_ZTISt7collateIcE @ 952 NONAME ; #<TI>#
	_ZTISt7collateIwE @ 953 NONAME ; #<TI>#
	_ZTISt7num_getIcPKcE @ 954 NONAME ; #<TI>#
	_ZTISt7num_getIcSt19istreambuf_iteratorIcSt11char_traitsIcEEE @ 955 NONAME ; #<TI>#
	_ZTISt7num_getIwPKwE @ 956 NONAME ; #<TI>#
	_ZTISt7num_getIwSt19istreambuf_iteratorIwSt11char_traitsIwEEE @ 957 NONAME ; #<TI>#
	_ZTISt8messagesIcE @ 958 NONAME ; #<TI>#
	_ZTISt8messagesIwE @ 959 NONAME ; #<TI>#
	_ZTVSt10moneypunctIcLb0EE @ 960 NONAME ; #<VT>#
	_ZTVSt10moneypunctIcLb1EE @ 961 NONAME ; #<VT>#
	_ZTVSt10moneypunctIwLb0EE @ 962 NONAME ; #<VT>#
	_ZTVSt10moneypunctIwLb1EE @ 963 NONAME ; #<VT>#
	_ZTVSt7codecvtIcc11_mb_state_tE @ 964 NONAME ; #<VT>#
	_ZTVSt7codecvtIwc11_mb_state_tE @ 965 NONAME ; #<VT>#
	_ZTVSt7collateIcE @ 966 NONAME ; #<VT>#
	_ZTVSt7collateIwE @ 967 NONAME ; #<VT>#
	_ZTVSt7num_getIcPKcE @ 968 NONAME ; #<VT>#
	_ZTVSt7num_getIcSt19istreambuf_iteratorIcSt11char_traitsIcEEE @ 969 NONAME ; #<VT>#
	_ZTVSt7num_getIwPKwE @ 970 NONAME ; #<VT>#
	_ZTVSt7num_getIwSt19istreambuf_iteratorIwSt11char_traitsIwEEE @ 971 NONAME ; #<VT>#
	_ZTVSt8messagesIcE @ 972 NONAME ; #<VT>#
	_ZTVSt8messagesIwE @ 973 NONAME ; #<VT>#
	_ZNSt8messagesIcEC1Ej @ 974 NONAME
	_ZNSt8messagesIcEC1EjP16_Locale_messages @ 975 NONAME
	_ZNSt8messagesIcEC2Ej @ 976 NONAME
	_ZNSt8messagesIcEC2EjP16_Locale_messages @ 977 NONAME
	_ZNSt5ctypeIcE13classic_tableEv @ 978 NONAME
	_ZNSt8ios_base5iwordEi @ 979 NONAME
	_ZNSt8ios_base5pwordEi @ 980 NONAME
	_ZThn8_NSt9strstreamD0Ev @ 981 NONAME ; #<thunk>#
	_ZThn8_NSt9strstreamD1Ev @ 982 NONAME ; #<thunk>#
	_ZThn8_NSt9strstreamD9Ev @ 983 NONAME ABSENT ; #<thunk>#
	_ZSt4sqrtRKSt7complexIdE @ 984 NONAME
	_ZSt4sqrtRKSt7complexIfE @ 985 NONAME
	_ZdaPv @ 986 NONAME
	_ZdaPvRKSt9nothrow_t @ 987 NONAME
	_ZdlPv @ 988 NONAME
	_ZdlPvRKSt9nothrow_t @ 989 NONAME
	_Znaj @ 990 NONAME
	_ZnajRKSt9nothrow_t @ 991 NONAME
	_Znwj @ 992 NONAME
	_ZnwjRKSt9nothrow_t @ 993 NONAME
	_ZNSt8ios_base7failureC1ERKSs @ 994 NONAME
	_ZNSt8ios_base7failureC2ERKSs @ 995 NONAME
	_ZNSt8ios_base7failureD0Ev @ 996 NONAME
	_ZNSt8ios_base7failureD1Ev @ 997 NONAME
	_ZNSt8ios_base7failureD2Ev @ 998 NONAME
	_ZNSt10istrstreamD0Ev @ 999 NONAME
	_ZNSt10istrstreamD1Ev @ 1000 NONAME
	_ZNSt10istrstreamD2Ev @ 1001 NONAME
	_ZNSt10istrstreamD9Ev @ 1002 NONAME ABSENT
	_ZNSt10ostrstreamD0Ev @ 1003 NONAME
	_ZNSt10ostrstreamD1Ev @ 1004 NONAME
	_ZNSt10ostrstreamD2Ev @ 1005 NONAME
	_ZNSt10ostrstreamD9Ev @ 1006 NONAME ABSENT
	_ZNSt7complexIdE4_divERKdS2_S2_RdS3_ @ 1007 NONAME
	_ZNSt7complexIdE4_divERKdS2_S2_S2_RdS3_ @ 1008 NONAME
	_ZNSt7complexIfE4_divERKfS2_S2_RfS3_ @ 1009 NONAME
	_ZNSt7complexIfE4_divERKfS2_S2_S2_RfS3_ @ 1010 NONAME
	_ZNSt9strstreamD0Ev @ 1011 NONAME
	_ZNSt9strstreamD1Ev @ 1012 NONAME
	_ZNSt9strstreamD2Ev @ 1013 NONAME
	_ZNSt9strstreamD9Ev @ 1014 NONAME ABSENT
	_ZTISt12strstreambuf @ 1015 NONAME ; #<TI>#
	_ZTVSt12strstreambuf @ 1016 NONAME ; #<VT>#
	_ZSt13_Locale_trueEP15_Locale_numeric @ 1017 NONAME
	_ZSt14_Locale_falseEP15_Locale_numeric @ 1018 NONAME
	_ZSt15__Locale_ctypeEP13_Locale_ctypeiNSt10ctype_base4maskE @ 1019 NONAME
	_ZSt16__acquire_ctypeEPKc @ 1020 NONAME
	_ZSt16__release_ctypeEP13_Locale_ctype @ 1021 NONAME
	_ZSt17_Locale_groupingEP15_Locale_numeric @ 1022 NONAME
	_ZSt17__Locale_tolowerEP13_Locale_ctypei @ 1023 NONAME
	_ZSt17__Locale_toupperEP13_Locale_ctypei @ 1024 NONAME
	_ZSt18__acquire_numericEPKc @ 1025 NONAME
	_ZSt18__release_numericEP15_Locale_numeric @ 1026 NONAME
	_ZSt18_get_S_lower_tablev @ 1027 NONAME
	_ZSt18_get_S_upper_tablev @ 1028 NONAME
	_ZSt18_get_classic_tablev @ 1029 NONAME
	_ZSt19__acquire_monetaryEPKc @ 1030 NONAME
	_ZSt19__release_monetaryEP16_Locale_monetary @ 1031 NONAME
	_ZSt21_Locale_mon_groupingEP16_Locale_monetary @ 1032 NONAME
	_ZSt22_Locale_decimal_pointEP15_Locale_numeric @ 1033 NONAME
	_ZSt22_Locale_negative_signEP16_Locale_monetary @ 1034 NONAME
	_ZSt22_Locale_positive_signEP16_Locale_monetary @ 1035 NONAME
	_ZSt22_Locale_thousands_sepEP15_Locale_numeric @ 1036 NONAME
	_ZSt23_Init_monetary_formatsERNSt10money_base7patternES1_ @ 1037 NONAME
	_ZSt24_Locale_int_curr_symbolEP16_Locale_monetary @ 1038 NONAME
	_ZSt24_Locale_int_frac_digitsEP16_Locale_monetary @ 1039 NONAME
	_ZSt26_Locale_mon_decimal_pointEP16_Locale_monetary @ 1040 NONAME
	_ZSt26_Locale_mon_thousands_sepEP16_Locale_monetary @ 1041 NONAME
	_ZSt28Ctype_charT_GetFacetLocaleIdPKc @ 1042 NONAME
	_ZSt31Numpunct_charT_GetFacetLocaleIdPKc @ 1043 NONAME
	_ZSt33Moneypunct_charT_GetFacetLocaleIdPKc @ 1044 NONAME
	_ZNSt7num_getIcSt19istreambuf_iteratorIcSt11char_traitsIcEEE16GetFacetLocaleIdEPPKc @ 1045 NONAME
	_ZNSt7num_getIcSt19istreambuf_iteratorIcSt11char_traitsIcEEE16GetFacetLocaleIdEPPKw @ 1046 NONAME
	_ZNSt7num_getIcSt19istreambuf_iteratorIcSt11char_traitsIcEEE16GetFacetLocaleIdEPS0_IwS1_IwEE @ 1047 NONAME
	_ZNSt7num_getIwSt19istreambuf_iteratorIwSt11char_traitsIwEEE16GetFacetLocaleIdEPPKc @ 1048 NONAME
	_ZNSt7num_getIwSt19istreambuf_iteratorIwSt11char_traitsIwEEE16GetFacetLocaleIdEPPKw @ 1049 NONAME
	_ZNSt7num_getIwSt19istreambuf_iteratorIwSt11char_traitsIwEEE16GetFacetLocaleIdEPS0_IcS1_IcEE @ 1050 NONAME
	_ZNSt7num_putIcSt19ostreambuf_iteratorIcSt11char_traitsIcEEE16GetFacetLocaleIdEPPc @ 1051 NONAME
	_ZNSt7num_putIcSt19ostreambuf_iteratorIcSt11char_traitsIcEEE16GetFacetLocaleIdEPPw @ 1052 NONAME
	_ZNSt7num_putIcSt19ostreambuf_iteratorIcSt11char_traitsIcEEE16GetFacetLocaleIdEPS0_IwS1_IwEE @ 1053 NONAME
	_ZNSt7num_putIcSt19ostreambuf_iteratorIcSt11char_traitsIcEEE16GetFacetLocaleIdEPSt20back_insert_iteratorISsE @ 1054 NONAME
	_ZNSt7num_putIwSt19ostreambuf_iteratorIwSt11char_traitsIwEEE16GetFacetLocaleIdEPPc @ 1055 NONAME
	_ZNSt7num_putIwSt19ostreambuf_iteratorIwSt11char_traitsIwEEE16GetFacetLocaleIdEPPw @ 1056 NONAME
	_ZNSt7num_putIwSt19ostreambuf_iteratorIwSt11char_traitsIwEEE16GetFacetLocaleIdEPS0_IcS1_IcEE @ 1057 NONAME
	_ZNSt7num_putIwSt19ostreambuf_iteratorIwSt11char_traitsIwEEE16GetFacetLocaleIdEPSt20back_insert_iteratorISsE @ 1058 NONAME
	_ZNSt8numpunctIcE22GetNumPunct_M_groupingEv @ 1059 NONAME ABSENT
	_ZNSt8numpunctIwE28GetNumPunct_M_Wchar_groupingEv @ 1060 NONAME ABSENT
	_ZNSt8time_getIcSt19istreambuf_iteratorIcSt11char_traitsIcEEE16GetFacetLocaleIdEPPKc @ 1061 NONAME
	_ZNSt8time_getIcSt19istreambuf_iteratorIcSt11char_traitsIcEEE16GetFacetLocaleIdEPPKw @ 1062 NONAME
	_ZNSt8time_getIcSt19istreambuf_iteratorIcSt11char_traitsIcEEE16GetFacetLocaleIdEPS0_IwS1_IwEE @ 1063 NONAME
	_ZNSt8time_getIwSt19istreambuf_iteratorIwSt11char_traitsIwEEE16GetFacetLocaleIdEPPKc @ 1064 NONAME
	_ZNSt8time_getIwSt19istreambuf_iteratorIwSt11char_traitsIwEEE16GetFacetLocaleIdEPPKw @ 1065 NONAME
	_ZNSt8time_getIwSt19istreambuf_iteratorIwSt11char_traitsIwEEE16GetFacetLocaleIdEPS0_IcS1_IcEE @ 1066 NONAME
	_ZNSt8time_putIcSt19ostreambuf_iteratorIcSt11char_traitsIcEEE16GetFacetLocaleIdEPPc @ 1067 NONAME
	_ZNSt8time_putIcSt19ostreambuf_iteratorIcSt11char_traitsIcEEE16GetFacetLocaleIdEPPw @ 1068 NONAME
	_ZNSt8time_putIcSt19ostreambuf_iteratorIcSt11char_traitsIcEEE16GetFacetLocaleIdEPS0_IwS1_IwEE @ 1069 NONAME
	_ZNSt8time_putIwSt19ostreambuf_iteratorIwSt11char_traitsIwEEE16GetFacetLocaleIdEPPc @ 1070 NONAME
	_ZNSt8time_putIwSt19ostreambuf_iteratorIwSt11char_traitsIwEEE16GetFacetLocaleIdEPPw @ 1071 NONAME
	_ZNSt8time_putIwSt19ostreambuf_iteratorIwSt11char_traitsIwEEE16GetFacetLocaleIdEPS0_IcS1_IcEE @ 1072 NONAME
	_ZNSt9money_getIcSt19istreambuf_iteratorIcSt11char_traitsIcEEE16GetFacetLocaleIdEPPKc @ 1073 NONAME
	_ZNSt9money_getIcSt19istreambuf_iteratorIcSt11char_traitsIcEEE16GetFacetLocaleIdEPPKw @ 1074 NONAME
	_ZNSt9money_getIcSt19istreambuf_iteratorIcSt11char_traitsIcEEE16GetFacetLocaleIdEPS0_IwS1_IwEE @ 1075 NONAME
	_ZNSt9money_getIwSt19istreambuf_iteratorIwSt11char_traitsIwEEE16GetFacetLocaleIdEPPKc @ 1076 NONAME
	_ZNSt9money_getIwSt19istreambuf_iteratorIwSt11char_traitsIwEEE16GetFacetLocaleIdEPPKw @ 1077 NONAME
	_ZNSt9money_getIwSt19istreambuf_iteratorIwSt11char_traitsIwEEE16GetFacetLocaleIdEPS0_IcS1_IcEE @ 1078 NONAME
	_ZNSt9money_putIcSt19ostreambuf_iteratorIcSt11char_traitsIcEEE16GetFacetLocaleIdEPPc @ 1079 NONAME
	_ZNSt9money_putIcSt19ostreambuf_iteratorIcSt11char_traitsIcEEE16GetFacetLocaleIdEPPw @ 1080 NONAME
	_ZNSt9money_putIcSt19ostreambuf_iteratorIcSt11char_traitsIcEEE16GetFacetLocaleIdEPS0_IwS1_IwEE @ 1081 NONAME
	_ZNSt9money_putIwSt19ostreambuf_iteratorIwSt11char_traitsIwEEE16GetFacetLocaleIdEPPc @ 1082 NONAME
	_ZNSt9money_putIwSt19ostreambuf_iteratorIwSt11char_traitsIwEEE16GetFacetLocaleIdEPPw @ 1083 NONAME
	_ZNSt9money_putIwSt19ostreambuf_iteratorIwSt11char_traitsIwEEE16GetFacetLocaleIdEPS0_IcS1_IcEE @ 1084 NONAME

