EXPORTS
	_ZN12REComSession10FinalCloseEv @ 1 NONAME
	_ZN12REComSession14NotifyOnChangeER14TRequestStatus @ 2 NONAME
	_ZN12REComSession20CancelNotifyOnChangeER14TRequestStatus @ 3 NONAME
	_ZN12REComSession20ListImplementationsLE4TUidR13RPointerArrayI26CImplementationInformationE @ 4 NONAME
	_ZN12REComSession20ListImplementationsLE4TUidRK19TEComResolverParamsR13RPointerArrayI26CImplementationInformationE @ 5 NONAME
	_ZN12REComSession20ListImplementationsLE4TUidRK19TEComResolverParamsS0_R13RPointerArrayI26CImplementationInformationE @ 6 NONAME
	_ZN12REComSession21CreateImplementationLE4TUidRS0_ @ 7 NONAME
	_ZN12REComSession21CreateImplementationLE4TUidRS0_Pv @ 8 NONAME
	_ZN12REComSession21CreateImplementationLE4TUidRS0_PvRK19TEComResolverParams @ 9 NONAME
	_ZN12REComSession21CreateImplementationLE4TUidRS0_PvRK19TEComResolverParamsS0_ @ 10 NONAME
	_ZN12REComSession21CreateImplementationLE4TUidRS0_RK19TEComResolverParams @ 11 NONAME
	_ZN12REComSession21CreateImplementationLE4TUidRS0_RK19TEComResolverParamsS0_ @ 12 NONAME
	_ZN12REComSession21CreateImplementationLE4TUidl @ 13 NONAME
	_ZN12REComSession21CreateImplementationLE4TUidlPv @ 14 NONAME
	_ZN12REComSession21CreateImplementationLE4TUidlPvRK19TEComResolverParams @ 15 NONAME
	_ZN12REComSession21CreateImplementationLE4TUidlPvRK19TEComResolverParamsS0_ @ 16 NONAME
	_ZN12REComSession21CreateImplementationLE4TUidlRK19TEComResolverParams @ 17 NONAME
	_ZN12REComSession21CreateImplementationLE4TUidlRK19TEComResolverParamsS0_ @ 18 NONAME
	_ZN12REComSession23DestroyedImplementationE4TUid @ 19 NONAME
	_ZN12REComSession5CloseEv @ 20 NONAME
	_ZN12REComSession5OpenLEv @ 21 NONAME
	_ZN12REComSessionC1Ev @ 22 NONAME
	_ZN12REComSessionC2Ev @ 23 NONAME
	_ZN12REComSession17SetGetParametersLERK8TIpcArgs @ 24 NONAME
	_ZN12REComSession21GetImplementationUidLE4TUid @ 25 NONAME
	_ZN12REComSession20ListImplementationsLE4TUidR6RArrayIS0_ER13RPointerArrayI26CImplementationInformationE @ 26 NONAME
	_ZN12REComSession20ListImplementationsLE4TUidR6RArrayIS0_ERK19TEComResolverParamsR13RPointerArrayI26CImplementationInformationE @ 27 NONAME
	_ZN12REComSession20ListImplementationsLE4TUidR6RArrayIS0_ERK19TEComResolverParamsS0_R13RPointerArrayI26CImplementationInformationE @ 28 NONAME
	_ZN12REComSession21CreateImplementationLE4TUidRK6RArrayIS0_ERS0_RK19TEComResolverParamsPv @ 29 NONAME
	_ZN12REComSession21CreateImplementationLE4TUidRK6RArrayIS0_ERS0_RK19TEComResolverParamsS0_Pv @ 30 NONAME
	_ZN12REComSession21CreateImplementationLE4TUidRK6RArrayIS0_ElRK19TEComResolverParamsPv @ 31 NONAME
	_ZN12REComSession21CreateImplementationLE4TUidRK6RArrayIS0_ElRK19TEComResolverParamsS0_Pv @ 32 NONAME
	_ZN12REComSession21GetExtendedInterfaceLERK4TUidS2_ @ 33 NONAME
	_ZN12REComSession23ListExtendedInterfacesLERK4TUidR6RArrayIS0_E @ 34 NONAME
	_ZN12REComSession33ManuallyReleaseExtendedInterfaceLERK4TUidS2_ @ 35 NONAME
	_ZN26CImplementationInformation25GetExtendedInterfaceListLER6RArrayI4TUidE @ 36 NONAME
	_ZN12REComSession20ListImplementationsLE4TUidR13RPointerArrayI26CImplementationInformationEi @ 37 NONAME
	_ZN12REComSession20ListImplementationsLE4TUidRK19TEComResolverParamsR13RPointerArrayI26CImplementationInformationEi @ 38 NONAME
	_ZN12REComSession20ListImplementationsLE4TUidRK19TEComResolverParamsS0_R13RPointerArrayI26CImplementationInformationEi @ 39 NONAME

