EXPORTS
	_ZN10CPlainText10ConstructLEN13CEditableText16TDocumentStorageEi @ 1 NONAME
	_ZN10CPlainText10ConstructLERK12CStreamStore9TStreamIdP17MTextFieldFactoryN13CEditableText16TDocumentStorageE @ 2 NONAME
	_ZN10CPlainText10DoPtDeleteEii @ 3 NONAME
	_ZN10CPlainText17ExtendedInterfaceERPv4TUid @ 4 NONAME
	_ZN10CPlainText10Reserved_2Ev @ 5 NONAME
	_ZN10CPlainText11DoPtInsertLEiRK7TDesC16 @ 6 NONAME
	_ZN10CPlainText11ImportTextLEiR11RReadStreamNS_17TTextOrganisationEiiPiS3_ @ 7 NONAME
	_ZN10CPlainText11ImportTextLEiR11RReadStreamRKNS_18TImportExportParamERNS_19TImportExportResultE @ 8 NONAME
	_ZN10CPlainText11RemoveFieldEi @ 9 NONAME
	_ZN10CPlainText12DoConstructLEN13CEditableText16TDocumentStorageEiP17MTextFieldFactory @ 10 NONAME
	_ZN10CPlainText12InsertFieldLEiP10CTextField4TUid @ 11 NONAME
	_ZN10CPlainText12InternalizeLER11RReadStream @ 12 NONAME
	_ZN10CPlainText12SetPageTableEP9CArrayFixIiE @ 13 NONAME
	_ZN10CPlainText12UpdateFieldLEi @ 14 NONAME
	_ZN10CPlainText15ImportTextFileLEiRK6TDes16NS_17TTextOrganisationE @ 15 NONAME
	_ZN10CPlainText15PasteFromStoreLERK12CStreamStoreRK17CStreamDictionaryi @ 16 NONAME
	_ZN10CPlainText15SetFieldFactoryEP17MTextFieldFactory @ 17 NONAME
	_ZN10CPlainText16UpdateAllFieldsLEv @ 18 NONAME
	_ZN10CPlainText18ConvertFieldToTextEi @ 19 NONAME
	_ZN10CPlainText18ExtractSelectivelyER6TDes16iij @ 20 NONAME
	_ZN10CPlainText18RestoreComponentsLERK12CStreamStore @ 21 NONAME
	_ZN10CPlainText21InternalizeFieldDataLER11RReadStream @ 22 NONAME
	_ZN10CPlainText21InternalizePlainTextLER11RReadStream @ 23 NONAME
	_ZN10CPlainText21InternalizePlainTextLER11RReadStreami @ 24 NONAME
	_ZN10CPlainText22ConvertAllFieldsToTextEv @ 25 NONAME
	_ZN10CPlainText23DoInternalizeFieldDataLER11RReadStream @ 26 NONAME
	_ZN10CPlainText23DoInternalizePlainTextLER11RReadStream @ 27 NONAME
	_ZN10CPlainText23RestoreFieldComponentsLERK12CStreamStore @ 28 NONAME
	_ZN10CPlainText4NewLEN13CEditableText16TDocumentStorageEi @ 29 NONAME
	_ZN10CPlainText4NewLERK12CStreamStore9TStreamIdP17MTextFieldFactoryN13CEditableText16TDocumentStorageE @ 30 NONAME
	_ZN10CPlainText5ResetEv @ 31 NONAME
	_ZN10CPlainText7DeleteLEii @ 32 NONAME
	_ZN10CPlainText7InsertLEiRK5TChar @ 33 NONAME
	_ZN10CPlainText7InsertLEiRK7TDesC16 @ 34 NONAME
	_ZN10CPlainText9PtInsertLEiRK7TDesC16 @ 35 NONAME
	_ZN10CPlainTextC1Ev @ 36 NONAME
	_ZN10CPlainTextC2Ev @ 37 NONAME
	_ZN10CPlainTextD0Ev @ 38 NONAME
	_ZN10CPlainTextD1Ev @ 39 NONAME
	_ZN10CPlainTextD2Ev @ 40 NONAME
	_ZN10CStyleList10ConstructLEi @ 41 NONAME
	_ZN10CStyleList12InternalizeLER11RReadStreamPK16CParaFormatLayerPK16CCharFormatLayer @ 42 NONAME
	_ZN10CStyleList16SetStyleToFollowERK19RParagraphStyleInfo @ 43 NONAME
	_ZN10CStyleList2AtEi @ 44 NONAME
	_ZN10CStyleList4NewLER11RReadStreamPK16CParaFormatLayerPK16CCharFormatLayer @ 45 NONAME
	_ZN10CStyleList4NewLEi @ 46 NONAME
	_ZN10CStyleList5ResetEv @ 47 NONAME
	_ZN10CStyleList6RemoveEP15CParagraphStyle @ 48 NONAME
	_ZN10CStyleList7AppendLEP19RParagraphStyleInfo @ 49 NONAME
	_ZN10CStyleListC1Ev @ 50 NONAME
	_ZN10CStyleListC2Ev @ 51 NONAME
	_ZN10CStyleListD0Ev @ 52 NONAME
	_ZN10CStyleListD1Ev @ 53 NONAME
	_ZN10CStyleListD2Ev @ 54 NONAME
	_ZN11CGlobalText16ApplyCharFormatLERK11TCharFormatRK15TCharFormatMaskii @ 55 NONAME
	_ZN11CGlobalText16ApplyParaFormatLEPK11CParaFormatRK15TParaFormatMaskii @ 56 NONAME
	_ZN11CGlobalText17CancelSelectLabelEv @ 57 NONAME
	_ZN11CGlobalText19SetGlobalCharFormatEPK16CCharFormatLayer @ 58 NONAME
	_ZN11CGlobalText19SetGlobalParaFormatEPK16CParaFormatLayer @ 59 NONAME
	_ZN11CGlobalText20SelectParagraphLabelEi @ 60 NONAME
	_ZN11CGlobalText4NewLEPK16CParaFormatLayerPK16CCharFormatLayerN13CEditableText16TDocumentStorageEi @ 61 NONAME
	_ZN11CGlobalText4NewLERK12CStreamStore9TStreamIdPK16CParaFormatLayerPK16CCharFormatLayerP17MTextFieldFactoryN13CEditableText16TDocumentStorageE @ 62 NONAME
	_ZN11CGlobalTextC1EPK16CParaFormatLayerPK16CCharFormatLayer @ 63 NONAME
	_ZN11CGlobalTextC1Ev @ 64 NONAME
	_ZN11CGlobalTextC2EPK16CParaFormatLayerPK16CCharFormatLayer @ 65 NONAME
	_ZN11CGlobalTextC2Ev @ 66 NONAME
	_ZN11CGlobalTextD0Ev @ 67 NONAME
	_ZN11CGlobalTextD1Ev @ 68 NONAME
	_ZN11CGlobalTextD2Ev @ 69 NONAME
	_ZN11CParaFormat14SetParaBorderLENS_15TParaBorderSideERK11TParaBorder @ 70 NONAME
	_ZN11CParaFormat16RemoveAllBordersEv @ 71 NONAME
	_ZN11CParaFormat19ResetNonDestructiveEv @ 72 NONAME
	_ZN11CParaFormat4NewLERKS_ @ 73 NONAME
	_ZN11CParaFormat4NewLEv @ 74 NONAME
	_ZN11CParaFormat5CopyLERKS_ @ 75 NONAME
	_ZN11CParaFormat5CopyLERKS_RK15TParaFormatMask @ 76 NONAME
	_ZN11CParaFormat5NewLCEv @ 77 NONAME
	_ZN11CParaFormat5ResetEv @ 78 NONAME
	_ZN11CParaFormat5StripEv @ 79 NONAME
	_ZN11CParaFormat9RemoveTabEi @ 80 NONAME
	_ZN11CParaFormat9StoreTabLERK8TTabStop @ 81 NONAME
	_ZN11CParaFormatC1Ev @ 82 NONAME
	_ZN11CParaFormatC2Ev @ 83 NONAME
	_ZN11CParaFormatD0Ev @ 84 NONAME
	_ZN11CParaFormatD1Ev @ 85 NONAME
	_ZN11CParaFormatD2Ev @ 86 NONAME
	_ZN11TCharFormatC1ERK7TDesC16i @ 87 NONAME
	_ZN11TCharFormatC1Ev @ 88 NONAME
	_ZN11TCharFormatC2ERK7TDesC16i @ 89 NONAME
	_ZN11TCharFormatC2Ev @ 90 NONAME
	_ZN11TParaBorderC1Ev @ 91 NONAME
	_ZN11TParaBorderC2Ev @ 92 NONAME
	_ZN12CFormatLayer17InternalizeChainLER11RReadStreamPKS_ @ 93 NONAME
	_ZN12CFormatLayer5ResetEv @ 94 NONAME
	_ZN12CFormatLayer7SetBaseEPKS_ @ 95 NONAME
	_ZN13CEditableText17ExtendedInterfaceERPv4TUid @ 96 NONAME
	_ZN13CEditableText13SetHasChangedEi @ 97 NONAME
	_ZN13CEditableText19CancelFepInlineEditERiS0_S0_S0_i @ 98 NONAME
	_ZN13CEditableText19StartFepInlineEditLERiS0_S0_S0_iRK7TDesC16iiR29MFepInlineTextFormatRetriever @ 99 NONAME
	_ZN13CEditableText20CommitFepInlineEditLERiS0_S0_S0_i @ 100 NONAME
	_ZN13CEditableText20UpdateFepInlineTextLERiS0_S0_S0_iRK7TDesC16 @ 101 NONAME
	_ZN13CEditableText8RestoreLERK12CStreamStore9TStreamId @ 102 NONAME
	_ZN13CEditableTextD0Ev @ 103 NONAME
	_ZN13CEditableTextD1Ev @ 104 NONAME
	_ZN13CEditableTextD2Ev @ 105 NONAME
	_ZN15CParagraphStyle4NewLERK16CParaFormatLayerRK16CCharFormatLayer @ 106 NONAME
	_ZN15CParagraphStyleD0Ev @ 107 NONAME
	_ZN15CParagraphStyleD1Ev @ 108 NONAME
	_ZN15CParagraphStyleD2Ev @ 109 NONAME
	_ZN15TCharFormatMask6SetAllEv @ 110 NONAME
	_ZN15TCharFormatMask8ClearAllEv @ 111 NONAME
	_ZN15TParaFormatMask6SetAllEv @ 112 NONAME
	_ZN15TParaFormatMask8ClearAllEv @ 113 NONAME
	_ZN16CCharFormatLayer12InternalizeLER11RReadStreamPK12CFormatLayer @ 114 NONAME
	_ZN16CCharFormatLayer4NewLER11RReadStream @ 115 NONAME
	_ZN16CCharFormatLayer4NewLERK11TCharFormatRK15TCharFormatMask @ 116 NONAME
	_ZN16CCharFormatLayer4NewLEv @ 117 NONAME
	_ZN16CCharFormatLayer4SetLERK11TCharFormatRK15TCharFormatMask @ 118 NONAME
	_ZN16CParaFormatLayer12InternalizeLER11RReadStreamPK12CFormatLayer @ 119 NONAME
	_ZN16CParaFormatLayer4NewLEPK11CParaFormatRK15TParaFormatMask @ 120 NONAME
	_ZN16CParaFormatLayer4NewLER11RReadStream @ 121 NONAME
	_ZN16CParaFormatLayer4NewLEv @ 122 NONAME
	_ZN16CParaFormatLayer4SetLEPK11CParaFormatRK15TParaFormatMask @ 123 NONAME
	_ZN17TFontPresentationC1Ev @ 124 NONAME
	_ZN17TFontPresentationC2Ev @ 125 NONAME
	_ZN19TEtextComponentInfoC1Eiii @ 126 NONAME
	_ZN19TEtextComponentInfoC1Ev @ 127 NONAME
	_ZN19TEtextComponentInfoC2Eiii @ 128 NONAME
	_ZN19TEtextComponentInfoC2Ev @ 129 NONAME
	_ZN7MLayDoc18MLayDoc_Reserved_1Ev @ 130 NONAME
	_ZN7MParser17GetRolloverFormatER11TCharFormat @ 131 NONAME
	_ZN7MParser18GetRecogniseFormatER11TCharFormat @ 132 NONAME
	_ZN7MParser18MParser_Reserved_2Ev @ 133 NONAME
	_ZN7MParser20ConfirmCursorOverTagERK9CRichTextiii @ 134 NONAME
	_ZN7TBulletC1Ev @ 135 NONAME
	_ZN7TBulletC2Ev @ 136 NONAME
	_ZN8TTabStopC1ERKS_ @ 137 NONAME
	_ZN8TTabStopC1Ev @ 138 NONAME
	_ZN8TTabStopC2ERKS_ @ 139 NONAME
	_ZN8TTabStopC2Ev @ 140 NONAME
	_ZN8TTabStopaSERKS_ @ 141 NONAME
	_ZN9CRichText10ConstructLEN13CEditableText16TDocumentStorageEiNS_9TParaTypeE @ 142 NONAME
	_ZN9CRichText10ConstructLERK12CStreamStore9TStreamIdP15MPictureFactoryP22MRichTextStoreResolverP17MTextFieldFactoryN13CEditableText16TDocumentStorageE @ 143 NONAME
	_ZN9CRichText12InternalizeLER11RReadStream @ 144 NONAME
	_ZN9CRichText12UpdateFieldLEi @ 145 NONAME
	_ZN9CRichText13SetHasChangedEi @ 146 NONAME
	_ZN9CRichText15ActivateParserLEP7MParser @ 147 NONAME
	_ZN9CRichText15DeleteParagraphEii @ 148 NONAME
	_ZN9CRichText15PasteFromStoreLERK12CStreamStoreRK17CStreamDictionaryi @ 149 NONAME
	_ZN9CRichText15PasteFromStoreLERK12CStreamStoreRK17CStreamDictionaryiN15CParagraphStyle15TStylePasteModeE @ 150 NONAME
	_ZN9CRichText15SetEditObserverEP13MEditObserver @ 151 NONAME
	_ZN9CRichText16AppendParagraphLEi @ 152 NONAME
	_ZN9CRichText16ApplyCharFormatLERK11TCharFormatRK15TCharFormatMaskii @ 153 NONAME
	_ZN9CRichText16ApplyParaFormatLEPK11CParaFormatRK15TParaFormatMaskii @ 154 NONAME
	_ZN9CRichText16DeactivateParserEP7MParser @ 155 NONAME
	_ZN9CRichText16DetachFromStoreLEN8CPicture7TDetachE @ 156 NONAME
	_ZN9CRichText16DetachFromStoreLEN8CPicture7TDetachEii @ 157 NONAME
	_ZN9CRichText17SetPictureFactoryEP15MPictureFactoryP22MRichTextStoreResolver @ 158 NONAME
	_ZN9CRichText18RestoreComponentsLERK12CStreamStore @ 159 NONAME
	_ZN9CRichText19DeleteFromParagraphEii @ 160 NONAME
	_ZN9CRichText19NotifyStyleChangedLEPK15CParagraphStyleS2_ @ 161 NONAME
	_ZN9CRichText20ApplyParagraphStyleLERK15CParagraphStyleiiNS0_19TApplyParaStyleModeE @ 162 NONAME
	_ZN9CRichText20DropPictureOwnershipEi @ 163 NONAME
	_ZN9CRichText20SetInsertCharFormatLERK11TCharFormatRK15TCharFormatMaski @ 164 NONAME
	_ZN9CRichText21InternalizeStyleDataLER11RReadStream @ 165 NONAME
	_ZN9CRichText21RestoreWithStyleListLERK12CStreamStore9TStreamIdRK10CStyleList @ 166 NONAME
	_ZN9CRichText22ActivateDefaultParserLEP7MParser @ 167 NONAME
	_ZN9CRichText22CancelInsertCharFormatEv @ 168 NONAME
	_ZN9CRichText22InternalizeMarkupDataLER11RReadStream @ 169 NONAME
	_ZN9CRichText23DelSetInsertCharFormatLEii @ 170 NONAME
	_ZN9CRichText23DoInternalizeStyleDataLER11RReadStream @ 171 NONAME
	_ZN9CRichText24DeactivateParserDefaultsEv @ 172 NONAME
	_ZN9CRichText24DoInternalizeMarkupDataLER11RReadStream @ 173 NONAME
	_ZN9CRichText25RemoveSpecificCharFormatLEii @ 174 NONAME
	_ZN9CRichText25RemoveSpecificParaFormatLEii @ 175 NONAME
	_ZN9CRichText27SetStyleListExternallyOwnedERK10CStyleList @ 176 NONAME
	_ZN9CRichText33AppendTakingSolePictureOwnershipLERKS_ @ 177 NONAME
	_ZN9CRichText4NewLEPK16CParaFormatLayerPK16CCharFormatLayerN13CEditableText16TDocumentStorageEiNS_9TParaTypeE @ 178 NONAME
	_ZN9CRichText4NewLEPK16CParaFormatLayerPK16CCharFormatLayerRK10CStyleListN13CEditableText16TDocumentStorageEiNS_9TParaTypeE @ 179 NONAME
	_ZN9CRichText4NewLERK12CStreamStore9TStreamIdPK16CParaFormatLayerPK16CCharFormatLayerP15MPictureFactoryP22MRichTextStoreResolverP17MTextFieldFactoryN13CEditableText16TDocumentStorageE @ 180 NONAME
	_ZN9CRichText4NewLERK12CStreamStore9TStreamIdPK16CParaFormatLayerPK16CCharFormatLayerP17MTextFieldFactoryN13CEditableText16TDocumentStorageE @ 181 NONAME
	_ZN9CRichText5ResetEv @ 182 NONAME
	_ZN9CRichText7DeleteLEii @ 183 NONAME
	_ZN9CRichText7InsertLEiRK14TPictureHeader @ 184 NONAME
	_ZN9CRichText7InsertLEiRK5TChar @ 185 NONAME
	_ZN9CRichText7InsertLEiRK7TDesC16 @ 186 NONAME
	_ZN9CRichText9ParseTextERiS0_i @ 187 NONAME
	_ZN9CRichText9RtInsertLEiRK7TDesC16 @ 188 NONAME
	_ZN9CRichTextC1EPK16CParaFormatLayerPK16CCharFormatLayerP10CStyleList @ 189 NONAME
	_ZN9CRichTextC2EPK16CParaFormatLayerPK16CCharFormatLayerP10CStyleList @ 190 NONAME
	_ZN9CRichTextD0Ev @ 191 NONAME
	_ZN9CRichTextD1Ev @ 192 NONAME
	_ZN9CRichTextD2Ev @ 193 NONAME
	_ZNK10CPlainText10FieldCountEv @ 194 NONAME
	_ZNK10CPlainText10FindFieldsER14TFindFieldInfoii @ 195 NONAME
	_ZNK10CPlainText10FindFieldsEi @ 196 NONAME
	_ZNK10CPlainText11ExportTextLEiR12RWriteStreamNS_17TTextOrganisationEiiiPiS3_ @ 197 NONAME
	_ZNK10CPlainText11ExportTextLEiR12RWriteStreamRKNS_18TImportExportParamERNS_19TImportExportResultE @ 198 NONAME
	_ZNK10CPlainText11GetWordInfoEiRiS0_ii @ 199 NONAME
	_ZNK10CPlainText12CopyToStoreLER12CStreamStoreR17CStreamDictionaryii @ 200 NONAME
	_ZNK10CPlainText12ExternalizeLER12RWriteStream @ 201 NONAME
	_ZNK10CPlainText13ComponentInfoEv @ 202 NONAME
	_ZNK10CPlainText13ExportAsTextLERK6TDes16NS_17TTextOrganisationEi @ 203 NONAME
	_ZNK10CPlainText13NewTextFieldLE4TUid @ 204 NONAME
	_ZNK10CPlainText14DocumentLengthEv @ 205 NONAME
	_ZNK10CPlainText14ParagraphCountEv @ 206 NONAME
	_ZNK10CPlainText16StoreComponentsLER12CStreamStoreR9CStoreMap @ 207 NONAME
	_ZNK10CPlainText16ToParagraphStartERi @ 208 NONAME
	_ZNK10CPlainText17PageContainingPosEi @ 209 NONAME
	_ZNK10CPlainText18CharPosOfParagraphERii @ 210 NONAME
	_ZNK10CPlainText18__DbgTestInvariantEv @ 211 NONAME
	_ZNK10CPlainText21ExternalizeFieldDataLER12RWriteStream @ 212 NONAME
	_ZNK10CPlainText21ExternalizePlainTextLER12RWriteStream @ 213 NONAME
	_ZNK10CPlainText21ParagraphNumberForPosERi @ 214 NONAME
	_ZNK10CPlainText21StoreFieldComponentsLER12CStreamStoreR9CStoreMap @ 215 NONAME
	_ZNK10CPlainText23DoExternalizeFieldDataLER12RWriteStream @ 216 NONAME
	_ZNK10CPlainText23DoExternalizePlainTextLER12RWriteStream @ 217 NONAME
	_ZNK10CPlainText34ExternalizePlainTextNoLengthCountLER12RWriteStream @ 218 NONAME
	_ZNK10CPlainText4ReadEi @ 219 NONAME
	_ZNK10CPlainText4ReadEii @ 220 NONAME
	_ZNK10CPlainText7ExtractER6TDes16i @ 221 NONAME
	_ZNK10CPlainText7ExtractER6TDes16ii @ 222 NONAME
	_ZNK10CPlainText9ScanParasERiRj @ 223 NONAME
	_ZNK10CPlainText9ScanWordsERiRj @ 224 NONAME
	_ZNK10CPlainText9TextFieldEi @ 225 NONAME
	_ZNK10CPlainText9WordCountEv @ 226 NONAME
	_ZNK10CStyleList10DeepCloneLEv @ 227 NONAME
	_ZNK10CStyleList10IndexByPtrEPK16CParaFormatLayer @ 228 NONAME
	_ZNK10CStyleList11IndexByNameERK7TDesC16 @ 229 NONAME
	_ZNK10CStyleList12ExternalizeLER12RWriteStream @ 230 NONAME
	_ZNK10CStyleList18__DbgTestInvariantEv @ 231 NONAME
	_ZNK10CStyleList2AtEi @ 232 NONAME
	_ZNK10CStyleList6StoreLER12CStreamStore @ 233 NONAME
	_ZNK10CStyleList9PtrByNameERK4TBufILi32EE @ 234 NONAME
	_ZNK10CStyleList9PtrByTypeE4TUid @ 235 NONAME
	_ZNK11CGlobalText13GetCharFormatER11TCharFormatR15TCharFormatMaskii @ 236 NONAME
	_ZNK11CGlobalText14GetParaFormatLEP11CParaFormatR15TParaFormatMaskiiNS0_18TParaFormatGetModeE @ 237 NONAME
	_ZNK11CGlobalText14PictureHandleLEiN7MLayDoc17TForcePictureLoadE @ 238 NONAME
	_ZNK11CGlobalText16EnquirePageBreakEii @ 239 NONAME
	_ZNK11CGlobalText16LdDocumentLengthEv @ 240 NONAME
	_ZNK11CGlobalText18LdToParagraphStartERi @ 241 NONAME
	_ZNK11CGlobalText18__DbgTestInvariantEv @ 242 NONAME
	_ZNK11CGlobalText19GetParagraphFormatLEP11CParaFormati @ 243 NONAME
	_ZNK11CGlobalText21GetPictureSizeInTwipsER5TSizei @ 244 NONAME
	_ZNK11CGlobalText8GetCharsER7TPtrC16R11TCharFormati @ 245 NONAME
	_ZNK11CParaFormat10ParaBorderENS_15TParaBorderSideE @ 246 NONAME
	_ZNK11CParaFormat13IsBorderEqualENS_15TParaBorderSideERKS_ @ 247 NONAME
	_ZNK11CParaFormat15AllBordersEqualERKS_ @ 248 NONAME
	_ZNK11CParaFormat7IsEqualERKS_ @ 249 NONAME
	_ZNK11CParaFormat7IsEqualERKS_RK15TParaFormatMask @ 250 NONAME
	_ZNK11CParaFormat7TabStopEi @ 251 NONAME
	_ZNK11CParaFormat9LocateTabEi @ 252 NONAME
	_ZNK11TCharFormat7IsEqualERKS_ @ 253 NONAME
	_ZNK11TCharFormat7IsEqualERKS_RK15TCharFormatMask @ 254 NONAME
	_ZNK11TParaBordereqERKS_ @ 255 NONAME
	_ZNK12CFormatLayer10ChainCountEv @ 256 NONAME
	_ZNK12CFormatLayer17ExternalizeChainLER12RWriteStreami @ 257 NONAME
	_ZNK12CFormatLayer18__DbgTestInvariantEv @ 258 NONAME
	_ZNK12CFormatLayer7IsEmptyEv @ 259 NONAME
	_ZNK12CFormatLayer9SenseBaseEv @ 260 NONAME
	_ZNK13CEditableText38OverrideFormatOfInlineTextIfApplicableER7TPtrC16R11TCharFormati @ 261 NONAME
	_ZNK13CEditableText6StoreLER12CStreamStore @ 262 NONAME
	_ZNK13CEditableText9ScanParasERiRj @ 263 NONAME
	_ZNK13CEditableText9ScanWordsERiRj @ 264 NONAME
	_ZNK13RFormatStream18__DbgTestInvariantEv @ 265 NONAME
	_ZNK14CRichTextIndex18__DbgTestInvariantEv @ 266 NONAME
	_ZNK15CParagraphStyle4TypeEv @ 267 NONAME
	_ZNK15CParagraphStyle8DoCloneLEv @ 268 NONAME
	_ZNK15TCharFormatMaskeqERKS_ @ 269 NONAME
	_ZNK15TParaFormatMaskeqERKS_ @ 270 NONAME
	_ZNK16CCharFormatLayer11IsIdenticalEP12CFormatLayeri @ 271 NONAME
	_ZNK16CCharFormatLayer11IsIdenticalERK11TCharFormatRK15TCharFormatMask @ 272 NONAME
	_ZNK16CCharFormatLayer12ExternalizeLER12RWriteStream @ 273 NONAME
	_ZNK16CCharFormatLayer14SenseEffectiveER11TCharFormat @ 274 NONAME
	_ZNK16CCharFormatLayer3PtrERi @ 275 NONAME
	_ZNK16CCharFormatLayer5SenseER11TCharFormatR15TCharFormatMask @ 276 NONAME
	_ZNK16CCharFormatLayer8DoCloneLEv @ 277 NONAME
	_ZNK16CParaFormatLayer11IsIdenticalEP12CFormatLayeri @ 278 NONAME
	_ZNK16CParaFormatLayer12ExternalizeLER12RWriteStream @ 279 NONAME
	_ZNK16CParaFormatLayer12IsIdenticalLEPK11CParaFormatRK15TParaFormatMask @ 280 NONAME
	_ZNK16CParaFormatLayer15SenseEffectiveLEP11CParaFormatNS0_18TParaFormatGetModeE @ 281 NONAME
	_ZNK16CParaFormatLayer3PtrERi @ 282 NONAME
	_ZNK16CParaFormatLayer4TypeEv @ 283 NONAME
	_ZNK16CParaFormatLayer6SenseLEP11CParaFormatR15TParaFormatMaskNS0_18TParaFormatGetModeE @ 284 NONAME
	_ZNK16CParaFormatLayer8DoCloneLEv @ 285 NONAME
	_ZNK17TFontPresentation7IsEqualERKS_RK15TCharFormatMask @ 286 NONAME
	_ZNK19RPhraseAttribsEntry18__DbgTestInvariantEv @ 287 NONAME
	_ZNK7MParser18ReformatOnRolloverEv @ 288 NONAME
	_ZNK7MParser19ReformatOnRecogniseEv @ 289 NONAME
	_ZNK7TBulleteqERKS_ @ 290 NONAME
	_ZNK8TTabStopeqERKS_ @ 291 NONAME
	_ZNK9CRichText12CopyToStoreLER12CStreamStoreR17CStreamDictionaryii @ 292 NONAME
	_ZNK9CRichText12ExternalizeLER12RWriteStream @ 293 NONAME
	_ZNK9CRichText12PictureCountEv @ 294 NONAME
	_ZNK9CRichText13ComponentInfoEv @ 295 NONAME
	_ZNK9CRichText13CopyToStreamLER12RWriteStreamii @ 296 NONAME
	_ZNK9CRichText13CopyToStreamLER12RWriteStreamii9TStreamId @ 297 NONAME
	_ZNK9CRichText13CursorOverTagEiRP7MParserRiS3_ @ 298 NONAME
	_ZNK9CRichText13GetCharFormatER11TCharFormatR15TCharFormatMaskii @ 299 NONAME
	_ZNK9CRichText13HasMarkupDataEv @ 300 NONAME
	_ZNK9CRichText13PictureHeaderEi @ 301 NONAME
	_ZNK9CRichText14GetParaFormatLEP11CParaFormatR15TParaFormatMaskiiNS0_18TParaFormatGetModeE @ 302 NONAME
	_ZNK9CRichText14ParagraphCountEv @ 303 NONAME
	_ZNK9CRichText14ParagraphStyleERiii @ 304 NONAME
	_ZNK9CRichText14PictureHandleLEiN7MLayDoc17TForcePictureLoadE @ 305 NONAME
	_ZNK9CRichText15CopyComponentsLER12CStreamStoreR9CStoreMapii9TStreamId @ 306 NONAME
	_ZNK9CRichText16StoreComponentsLER12CStreamStoreR9CStoreMap @ 307 NONAME
	_ZNK9CRichText17PositionOfNextTagEi @ 308 NONAME
	_ZNK9CRichText17PositionOfNextTagEiPK7MParser @ 309 NONAME
	_ZNK9CRichText17PositionOfPrevTagEi @ 310 NONAME
	_ZNK9CRichText17PositionOfPrevTagEiPK7MParser @ 311 NONAME
	_ZNK9CRichText18CharPosOfParagraphERii @ 312 NONAME
	_ZNK9CRichText18__DbgTestInvariantEv @ 313 NONAME
	_ZNK9CRichText19GetParagraphFormatLEP11CParaFormati @ 314 NONAME
	_ZNK9CRichText21ExternalizeStyleDataLER12RWriteStream @ 315 NONAME
	_ZNK9CRichText21GetPictureSizeInTwipsER5TSizei @ 316 NONAME
	_ZNK9CRichText21GetSpecificCharFormatER11TCharFormatR15TCharFormatMaski @ 317 NONAME
	_ZNK9CRichText21ParagraphNumberForPosERi @ 318 NONAME
	_ZNK9CRichText22ExternalizeMarkupDataLER12RWriteStream @ 319 NONAME
	_ZNK9CRichText22StoreMarkupComponentsLER12CStreamStoreR9CStoreMap @ 320 NONAME
	_ZNK9CRichText23DoExternalizeStyleDataLER12RWriteStream @ 321 NONAME
	_ZNK9CRichText24DoExternalizeMarkupDataLER12RWriteStream @ 322 NONAME
	_ZNK9CRichText26GetSpecificCharFormatRightER11TCharFormatR15TCharFormatMaski @ 323 NONAME
	_ZNK9CRichText27GetSpecificParagraphFormatLEP11CParaFormatR15TParaFormatMaski @ 324 NONAME
	_ZNK9CRichText8GetCharsER7TPtrC16R11TCharFormati @ 325 NONAME
	_ZTI10CPlainText @ 326 NONAME ; #<TI>#
	_ZTI10CStyleList @ 327 NONAME ; #<TI>#
	_ZTI11CGlobalText @ 328 NONAME ; #<TI>#
	_ZTI11CParaFormat @ 329 NONAME ; #<TI>#
	_ZTI13CEditableText @ 330 NONAME ; #<TI>#
	_ZTI15CParagraphStyle @ 331 NONAME ; #<TI>#
	_ZTI16CCharFormatLayer @ 332 NONAME ; #<TI>#
	_ZTI16CParaFormatLayer @ 333 NONAME ; #<TI>#
	_ZTI7MLayDoc @ 334 NONAME ; #<TI>#
	_ZTI7MParser @ 335 NONAME ; #<TI>#
	_ZTI9CRichText @ 336 NONAME ; #<TI>#
	_ZTV10CPlainText @ 337 NONAME ; #<VT>#
	_ZTV10CStyleList @ 338 NONAME ; #<VT>#
	_ZTV11CGlobalText @ 339 NONAME ; #<VT>#
	_ZTV11CParaFormat @ 340 NONAME ; #<VT>#
	_ZTV13CEditableText @ 341 NONAME ; #<VT>#
	_ZTV15CParagraphStyle @ 342 NONAME ; #<VT>#
	_ZTV16CCharFormatLayer @ 343 NONAME ; #<VT>#
	_ZTV16CParaFormatLayer @ 344 NONAME ; #<VT>#
	_ZTV7MLayDoc @ 345 NONAME ; #<VT>#
	_ZTV7MParser @ 346 NONAME ; #<VT>#
	_ZTV9CRichText @ 347 NONAME ; #<VT>#
	_ZThn32_N11CGlobalText17CancelSelectLabelEv @ 348 NONAME ; #<thunk>#
	_ZThn32_N11CGlobalText20SelectParagraphLabelEi @ 349 NONAME ; #<thunk>#
	_ZThn32_NK11CGlobalText14PictureHandleLEiN7MLayDoc17TForcePictureLoadE @ 350 NONAME ; #<thunk>#
	_ZThn32_NK11CGlobalText16EnquirePageBreakEii @ 351 NONAME ; #<thunk>#
	_ZThn32_NK11CGlobalText16LdDocumentLengthEv @ 352 NONAME ; #<thunk>#
	_ZThn32_NK11CGlobalText18LdToParagraphStartERi @ 353 NONAME ; #<thunk>#
	_ZThn32_NK11CGlobalText19GetParagraphFormatLEP11CParaFormati @ 354 NONAME ; #<thunk>#
	_ZThn32_NK11CGlobalText21GetPictureSizeInTwipsER5TSizei @ 355 NONAME ; #<thunk>#
	_ZThn32_NK11CGlobalText8GetCharsER7TPtrC16R11TCharFormati @ 356 NONAME ; #<thunk>#
	_ZThn32_NK9CRichText14PictureHandleLEiN7MLayDoc17TForcePictureLoadE @ 357 NONAME ; #<thunk>#
	_ZThn32_NK9CRichText19GetParagraphFormatLEP11CParaFormati @ 358 NONAME ; #<thunk>#
	_ZThn32_NK9CRichText21GetPictureSizeInTwipsER5TSizei @ 359 NONAME ; #<thunk>#
	_ZThn32_NK9CRichText8GetCharsER7TPtrC16R11TCharFormati @ 360 NONAME ; #<thunk>#
	_ZThn36_N11CGlobalText16ApplyCharFormatLERK11TCharFormatRK15TCharFormatMaskii @ 361 NONAME ; #<thunk>#
	_ZThn36_N11CGlobalText16ApplyParaFormatLEPK11CParaFormatRK15TParaFormatMaskii @ 362 NONAME ; #<thunk>#
	_ZThn36_N9CRichText16ApplyCharFormatLERK11TCharFormatRK15TCharFormatMaskii @ 363 NONAME ; #<thunk>#
	_ZThn36_N9CRichText16ApplyParaFormatLEPK11CParaFormatRK15TParaFormatMaskii @ 364 NONAME ; #<thunk>#
	_ZThn36_NK11CGlobalText13GetCharFormatER11TCharFormatR15TCharFormatMaskii @ 365 NONAME ; #<thunk>#
	_ZThn36_NK11CGlobalText14GetParaFormatLEP11CParaFormatR15TParaFormatMaskiiNS0_18TParaFormatGetModeE @ 366 NONAME ; #<thunk>#
	_ZThn36_NK9CRichText13GetCharFormatER11TCharFormatR15TCharFormatMaskii @ 367 NONAME ; #<thunk>#
	_ZThn36_NK9CRichText14GetParaFormatLEP11CParaFormatR15TParaFormatMaskiiNS0_18TParaFormatGetModeE @ 368 NONAME ; #<thunk>#
	_ZTI11CParserData @ 369 NONAME ABSENT ; #<TI>#
	_ZTI11CParserList @ 370 NONAME ABSENT ; #<TI>#
	_ZTI12CFormatLayer @ 371 NONAME ; #<TI>#
	_ZTI12CParaAttribs @ 372 NONAME ABSENT ; #<TI>#
	_ZTI14CPicturePhrase @ 373 NONAME ABSENT ; #<TI>#
	_ZTI14CRichTextIndex @ 374 NONAME ; #<TI>#
	_ZTI15CInlineEditData @ 375 NONAME ABSENT ; #<TI>#
	_ZTI17CRichTextStoreMapI12CParaAttribsE @ 376 NONAME ; #<TI>#
	_ZTI17CRichTextStoreMapI15CParagraphStyleE @ 377 NONAME ; #<TI>#
	_ZTI19CPlainTextConverter @ 378 NONAME ABSENT ; #<TI>#
	_ZTI25CEditableTextOptionalData @ 379 NONAME ABSENT ; #<TI>#
	_ZTV11CParserData @ 380 NONAME ABSENT ; #<VT>#
	_ZTV11CParserList @ 381 NONAME ABSENT ; #<VT>#
	_ZTV12CFormatLayer @ 382 NONAME ; #<VT>#
	_ZTV12CParaAttribs @ 383 NONAME ABSENT ; #<VT>#
	_ZTV14CPicturePhrase @ 384 NONAME ABSENT ; #<VT>#
	_ZTV14CRichTextIndex @ 385 NONAME ; #<VT>#
	_ZTV15CInlineEditData @ 386 NONAME ABSENT ; #<VT>#
	_ZTV17CRichTextStoreMapI12CParaAttribsE @ 387 NONAME ; #<VT>#
	_ZTV17CRichTextStoreMapI15CParagraphStyleE @ 388 NONAME ; #<VT>#
	_ZTV19CPlainTextConverter @ 389 NONAME ABSENT ; #<VT>#
	_ZTV25CEditableTextOptionalData @ 390 NONAME ABSENT ; #<VT>#
	_ZN9CRichText17ExtendedInterfaceERPv4TUid @ 391 NONAME
	_ZNK13CEditableText21GetLengthOfInlineTextEv @ 392 NONAME
	_ZNK13CEditableText33GetPositionOfInlineTextInDocumentEv @ 393 NONAME
	_ZNK10CPlainText12FieldFactoryEv @ 394 NONAME

