EXPORTS
	_ZN10CClipboard15NewForReadingLCER3RFs @ 1 NONAME
	_ZN10CClipboard15NewForWritingLCER3RFs @ 2 NONAME
	_ZN10CClipboard7CommitLEv @ 3 NONAME
	_ZN10CClipboardD0Ev @ 4 NONAME
	_ZN10CClipboardD1Ev @ 5 NONAME
	_ZN10CClipboardD2Ev @ 6 NONAME
	_ZN11CDummyField12InternalizeLER11RReadStream @ 7 NONAME
	_ZN11CDummyField5ValueER6TPtr16 @ 8 NONAME
	_ZN11CDummyFieldC1Ev @ 9 NONAME
	_ZN11CDummyFieldC2Ev @ 10 NONAME
	_ZN11CXzePicture12InternalizeLER11RReadStream @ 11 NONAME
	_ZN11CXzePicture4NewLE5TChar @ 12 NONAME
	_ZN11CXzePicture4NewLERK12CStreamStore9TStreamId @ 13 NONAME
	_ZN11CXzePicture8RestoreLERK12CStreamStore9TStreamId @ 14 NONAME
	_ZN11CXzePictureC1E5TChar @ 15 NONAME
	_ZN11CXzePictureC1Ev @ 16 NONAME
	_ZN11CXzePictureC2E5TChar @ 17 NONAME
	_ZN11CXzePictureC2Ev @ 18 NONAME
	_ZN11CXzePictureD0Ev @ 19 NONAME
	_ZN11CXzePictureD1Ev @ 20 NONAME
	_ZN11CXzePictureD2Ev @ 21 NONAME
	_ZN12CTestPicture4NewLEv @ 22 NONAME
	_ZN12CTestPictureC1Ev @ 23 NONAME
	_ZN12CTestPictureC2Ev @ 24 NONAME
	_ZN18MDemPictureFactoryC1Ev @ 25 NONAME
	_ZN18MDemPictureFactoryC2Ev @ 26 NONAME
	_ZN8CXzeDoor12InternalizeLER11RReadStream @ 27 NONAME
	_ZN8CXzeDoor16DetachFromStoreLEN8CPicture7TDetachE @ 28 NONAME
	_ZN8CXzeDoor4NewLE5TChari @ 29 NONAME
	_ZN8CXzeDoor4NewLERK12CStreamStore9TStreamId @ 30 NONAME
	_ZN8CXzeDoor8RestoreLERK12CStreamStore9TStreamId @ 31 NONAME
	_ZN8CXzeDoorC1E5TChari @ 32 NONAME
	_ZN8CXzeDoorC1Ei @ 33 NONAME
	_ZN8CXzeDoorC2E5TChari @ 34 NONAME
	_ZN8CXzeDoorC2Ei @ 35 NONAME
	_ZNK11CDummyField12ExternalizeLER12RWriteStream @ 36 NONAME
	_ZNK11CDummyField4TypeEv @ 37 NONAME
	_ZNK11CXzePicture12ExternalizeLER12RWriteStream @ 38 NONAME
	_ZNK11CXzePicture22GetOriginalSizeInTwipsER5TSize @ 39 NONAME
	_ZNK11CXzePicture4DrawER16CGraphicsContextRK6TPointRK5TRectP18MGraphicsDeviceMap @ 40 NONAME
	_ZNK12CTestPicture12ExternalizeLER12RWriteStream @ 41 NONAME
	_ZNK12CTestPicture22GetOriginalSizeInTwipsER5TSize @ 42 NONAME
	_ZNK12CTestPicture4DrawER16CGraphicsContextRK6TPointRK5TRectP18MGraphicsDeviceMap @ 43 NONAME
	_ZNK18MDemPictureFactory11NewPictureLER14TPictureHeaderRK12CStreamStore @ 44 NONAME
	_ZNK8CXzeDoor12ExternalizeLER12RWriteStream @ 45 NONAME
	_ZTI11CDummyField @ 46 NONAME ; #<TI>#
	_ZTI11CXzePicture @ 47 NONAME ; #<TI>#
	_ZTI12CTestPicture @ 48 NONAME ; #<TI>#
	_ZTI18MDemPictureFactory @ 49 NONAME ; #<TI>#
	_ZTI8CXzeDoor @ 50 NONAME ; #<TI>#
	_ZTV11CDummyField @ 51 NONAME ; #<VT>#
	_ZTV11CXzePicture @ 52 NONAME ; #<VT>#
	_ZTV12CTestPicture @ 53 NONAME ; #<VT>#
	_ZTV18MDemPictureFactory @ 54 NONAME ; #<VT>#
	_ZTV8CXzeDoor @ 55 NONAME ; #<VT>#
	_ZTI10CClipboard @ 56 NONAME ; #<TI>#
	_ZTV10CClipboard @ 57 NONAME ; #<VT>#
