EXPORTS
	??0RUpsManagement@UserPromptService@@QAE@XZ @ 1 NONAME ; UserPromptService::RUpsManagement::RUpsManagement(void)
	?CancelAndCloseView@RUpsManagement@UserPromptService@@QAEXXZ @ 2 NONAME ; void UserPromptService::RUpsManagement::CancelAndCloseView(void)
	?Close@RUpsManagement@UserPromptService@@QAEXXZ @ 3 NONAME ; void UserPromptService::RUpsManagement::Close(void)
	?Connect@RUpsManagement@UserPromptService@@QAEHXZ @ 4 NONAME ; int UserPromptService::RUpsManagement::Connect(void)
	?CreateView@RUpsManagement@UserPromptService@@QAEXABVCDecisionFilter@2@AAVTRequestStatus@@@Z @ 5 NONAME ; void UserPromptService::RUpsManagement::CreateView(class UserPromptService::CDecisionFilter const &, class TRequestStatus &)
	?DeleteDatabaseL@RUpsManagement@UserPromptService@@QAEXXZ @ 6 NONAME ; void UserPromptService::RUpsManagement::DeleteDatabaseL(void)
	?ExternalizeL@CDecisionFilter@UserPromptService@@QBEXAAVRWriteStream@@@Z @ 7 NONAME ; void UserPromptService::CDecisionFilter::ExternalizeL(class RWriteStream &) const
	?ExternalizeL@CDecisionRecord@UserPromptService@@QBEXAAVRWriteStream@@@Z @ 8 NONAME ; void UserPromptService::CDecisionRecord::ExternalizeL(class RWriteStream &) const
	?InternalizeL@CDecisionFilter@UserPromptService@@QAEXAAVRReadStream@@@Z @ 9 NONAME ; void UserPromptService::CDecisionFilter::InternalizeL(class RReadStream &)
	?InternalizeL@CDecisionRecord@UserPromptService@@QAEXAAVRReadStream@@@Z @ 10 NONAME ; void UserPromptService::CDecisionRecord::InternalizeL(class RReadStream &)
	?NewL@CDecisionFilter@UserPromptService@@SAPAV12@ABVTSecureId@@ABVTUid@@10ABVTDesC8@@2ABG@Z @ 11 NONAME ; class UserPromptService::CDecisionFilter * UserPromptService::CDecisionFilter::NewL(class TSecureId const &, class TUid const &, class TUid const &, class TSecureId const &, class TDesC8 const &, class TDesC8 const &, unsigned short const &)
	?NewL@CDecisionFilter@UserPromptService@@SAPAV12@XZ @ 12 NONAME ; class UserPromptService::CDecisionFilter * UserPromptService::CDecisionFilter::NewL(void)
	?NewL@CDecisionRecord@UserPromptService@@SAPAV12@ABVTSecureId@@ABVTUid@@10ABVTDesC8@@2ABVTDesC16@@EABGKABK@Z @ 13 NONAME ; class UserPromptService::CDecisionRecord * UserPromptService::CDecisionRecord::NewL(class TSecureId const &, class TUid const &, class TUid const &, class TSecureId const &, class TDesC8 const &, class TDesC8 const &, class TDesC16 const &, unsigned char, unsigned short const &, unsigned long, unsigned long const &)
	?NewLC@CDecisionFilter@UserPromptService@@SAPAV12@ABVTSecureId@@ABVTUid@@10ABVTDesC8@@2ABG@Z @ 14 NONAME ; class UserPromptService::CDecisionFilter * UserPromptService::CDecisionFilter::NewLC(class TSecureId const &, class TUid const &, class TUid const &, class TSecureId const &, class TDesC8 const &, class TDesC8 const &, unsigned short const &)	
	?NewLC@CDecisionFilter@UserPromptService@@SAPAV12@XZ @ 15 NONAME ; class UserPromptService::CDecisionFilter * UserPromptService::CDecisionFilter::NewLC(void)
	?NewLC@CDecisionRecord@UserPromptService@@SAPAV12@ABVTSecureId@@ABVTUid@@10ABVTDesC8@@2ABVTDesC16@@EABGKABK@Z @ 16 NONAME ; class UserPromptService::CDecisionRecord * UserPromptService::CDecisionRecord::NewLC(class TSecureId const &, class TUid const &, class TUid const &, class TSecureId const &, class TDesC8 const &, class TDesC8 const &, class TDesC16 const &, unsigned char, unsigned short const &, unsigned long, unsigned long const &)
	?NewLC@CDecisionRecord@UserPromptService@@SAPAV12@XZ @ 17 NONAME ; class UserPromptService::CDecisionRecord * UserPromptService::CDecisionRecord::NewLC(void)
	?NextMatchL@RUpsManagement@UserPromptService@@QAEPAVCDecisionRecord@2@XZ @ 18 NONAME ; class UserPromptService::CDecisionRecord * UserPromptService::RUpsManagement::NextMatchL(void)
	?RemoveDecisionsL@RUpsManagement@UserPromptService@@QAEXABVCDecisionFilter@2@@Z @ 19 NONAME ; void UserPromptService::RUpsManagement::RemoveDecisionsL(class UserPromptService::CDecisionFilter const &)
	?SetClientEntityL@CDecisionFilter@UserPromptService@@QAEXABVTDesC8@@W4TComparisonOp@2@@Z @ 20 NONAME ; void UserPromptService::CDecisionFilter::SetClientEntityL(class TDesC8 const &, enum UserPromptService::TComparisonOp)
	?SetClientSid@CDecisionFilter@UserPromptService@@QAEXABVTSecureId@@W4TComparisonOp@2@@Z @ 21 NONAME ; void UserPromptService::CDecisionFilter::SetClientSid(class TSecureId const &, enum UserPromptService::TComparisonOp)
	?SetEvaluatorId@CDecisionFilter@UserPromptService@@QAEXABVTUid@@W4TComparisonOp@2@@Z @ 22 NONAME ; void UserPromptService::CDecisionFilter::SetEvaluatorId(class TUid const &, enum UserPromptService::TComparisonOp)
	?SetFingerprintL@CDecisionFilter@UserPromptService@@QAEXABVTDesC8@@W4TComparisonOp@2@@Z @ 23 NONAME ; void UserPromptService::CDecisionFilter::SetFingerprintL(class TDesC8 const &, enum UserPromptService::TComparisonOp)
	?SetMajorPolicyVersion@CDecisionFilter@UserPromptService@@QAEXABGW4TComparisonOp@2@@Z @ 24 NONAME ; void UserPromptService::CDecisionFilter::SetMajorPolicyVersion(unsigned short const &, enum UserPromptService::TComparisonOp)
	?SetRecordId@CDecisionFilter@UserPromptService@@QAEXABKW4TComparisonOp@2@@Z @ 25 NONAME ; void UserPromptService::CDecisionFilter::SetRecordId(unsigned long const &, enum UserPromptService::TComparisonOp)
	?SetServerSid@CDecisionFilter@UserPromptService@@QAEXABVTSecureId@@W4TComparisonOp@2@@Z @ 26 NONAME ; void UserPromptService::CDecisionFilter::SetServerSid(class TSecureId const &, enum UserPromptService::TComparisonOp)
	?SetServiceId@CDecisionFilter@UserPromptService@@QAEXABVTUid@@W4TComparisonOp@2@@Z @ 27 NONAME ; void UserPromptService::CDecisionFilter::SetServiceId(class TUid const &, enum UserPromptService::TComparisonOp)
	?CancelUpdateDecision@RUpsManagement@UserPromptService@@QAEXXZ @ 28 NONAME ; void UserPromptService::RUpsManagement::CancelUpdateDecision(void)
	?UpdateDecision@RUpsManagement@UserPromptService@@QAEXKHAAVTRequestStatus@@@Z @ 29 NONAME ; void UserPromptService::RUpsManagement::UpdateDecision(unsigned long, int, class TRequestStatus &)
	?CancelNotifyPolicyFilesChanged@RUpsManagement@UserPromptService@@QAEXXZ @ 30 NONAME ; void UserPromptService::RUpsManagement::CancelNotifyPolicyFilesChanged(void)
	?DeleteDecisionsForExeL@RUpsManagement@UserPromptService@@QAEXABVTSecureId@@@Z @ 31 NONAME ; void UserPromptService::RUpsManagement::DeleteDecisionsForExeL(class TSecureId const &)
	?NotifyPluginsMayHaveChangedL@RUpsManagement@UserPromptService@@QAEXXZ @ 32 NONAME ; void UserPromptService::RUpsManagement::NotifyPluginsMayHaveChangedL(void)
	?NotifyPolicyFilesChanged@RUpsManagement@UserPromptService@@QAEXAAVTRequestStatus@@@Z @ 33 NONAME ; void UserPromptService::RUpsManagement::NotifyPolicyFilesChanged(class TRequestStatus &)
	?SetDescriptionL@CDecisionFilter@UserPromptService@@QAEXABVTDesC16@@W4TComparisonOp@2@@Z @ 34 NONAME ; void UserPromptService::CDecisionFilter::SetDescriptionL(class TDesC16 const &, enum UserPromptService::TComparisonOp)
	?SetEvaluatorInfo@CDecisionFilter@UserPromptService@@QAEXABKW4TComparisonOp@2@@Z @ 35 NONAME ; void UserPromptService::CDecisionFilter::SetEvaluatorInfo(unsigned long const &, enum UserPromptService::TComparisonOp)
	?SetResult@CDecisionFilter@UserPromptService@@QAEXABEW4TComparisonOp@2@@Z @ 36 NONAME ; void UserPromptService::CDecisionFilter::SetResult(unsigned char const &, enum UserPromptService::TComparisonOp)

