EXPORTS
	??0CDialogCreator@UserPromptService@@IAE@XZ @ 1 NONAME ; UserPromptService::CDialogCreator::CDialogCreator(void)
	??0CPolicyEvaluator@UserPromptService@@IAE@XZ @ 2 NONAME ; UserPromptService::CPolicyEvaluator::CPolicyEvaluator(void)
	??0TId@CPolicyList@UserPromptService@@QAE@ABVTSecureId@@ABVTUid@@@Z @ 3 NONAME ; UserPromptService::CPolicyList::TId::TId(class TSecureId const &, class TUid const &)
	??0TId@CPolicyList@UserPromptService@@QAE@XZ @ 4 NONAME ; UserPromptService::CPolicyList::TId::TId(void)
	??0TSidClasses@UserPromptService@@QAE@G@Z @ 5 NONAME ; UserPromptService::TSidClasses::TSidClasses(unsigned short)
	??1CDialogCreator@UserPromptService@@UAE@XZ @ 6 NONAME ; UserPromptService::CDialogCreator::~CDialogCreator(void)
	??1CPolicyEvaluator@UserPromptService@@UAE@XZ @ 7 NONAME ; UserPromptService::CPolicyEvaluator::~CPolicyEvaluator(void)
	??1CPromptRequest@UserPromptService@@UAE@XZ @ 8 NONAME ABSENT ; UserPromptService::CPromptRequest::~CPromptRequest(void)
	??8TId@CPolicyList@UserPromptService@@QBEHABV012@@Z @ 9 NONAME ; int UserPromptService::CPolicyList::TId::operator==(class UserPromptService::CPolicyList::TId const &) const
	?PromptRequired@CPolicy@UserPromptService@@QBEHXZ @ 10 NONAME ; int UserPromptService::CPolicy::PromptRequired(void) const
	?AppendNameToPath@TId@CPolicyList@UserPromptService@@QBEXAAVTDes16@@@Z @ 11 NONAME ; void UserPromptService::CPolicyList::TId::AppendNameToPath(class TDes16 &) const
	?ClientSid@CPromptRequest@UserPromptService@@QBEABVTSecureId@@XZ @ 12 NONAME ; class TSecureId const & UserPromptService::CPromptRequest::ClientSid(void) const
	?ClientThreadId@CPromptRequest@UserPromptService@@QBEABVTThreadId@@XZ @ 13 NONAME ; class TThreadId const & UserPromptService::CPromptRequest::ClientThreadId(void) const
	?ClientVid@CPromptRequest@UserPromptService@@QBEABVTVendorId@@XZ @ 14 NONAME ; class TVendorId const & UserPromptService::CPromptRequest::ClientVid(void) const
	?Contains@TSidClasses@UserPromptService@@QBEHABVTSecureId@@@Z @ 15 NONAME ; int UserPromptService::TSidClasses::Contains(class TSecureId const &) const
	?CreateDialogCreatorL@CPluginManager@UserPromptService@@QAEPAV?$CPlugin@VCDialogCreator@UserPromptService@@@2@ABVTUid@@@Z @ 16 NONAME ; class UserPromptService::CPlugin<class UserPromptService::CDialogCreator> * UserPromptService::CPluginManager::CreateDialogCreatorL(class TUid const &)
	?CreateEvaluatorL@CPluginManager@UserPromptService@@QAEPAV?$CPlugin@VCPolicyEvaluator@UserPromptService@@@2@ABVTUid@@@Z @ 17 NONAME ; class UserPromptService::CPlugin<class UserPromptService::CPolicyEvaluator> * UserPromptService::CPluginManager::CreateEvaluatorL(class TUid const &)
	?Default@CPolicy@UserPromptService@@QBEHXZ @ 18 NONAME ; int UserPromptService::CPolicy::Default(void) const
	?DefaultPolicyL@CPolicyReader@UserPromptService@@QAEPAVCPolicy@2@XZ @ 19 NONAME ; class UserPromptService::CPolicy * UserPromptService::CPolicyReader::DefaultPolicyL(void)
	?Description@CFingerprint@UserPromptService@@QBEABVTDesC16@@XZ @ 20 NONAME ; class TDesC16 const & UserPromptService::CFingerprint::Description(void) const
	?Destination@CPolicy@UserPromptService@@QBEABVTDesC16@@XZ @ 21 NONAME ; class TDesC16 const & UserPromptService::CPolicy::Destination(void) const
	?Destination@CPromptRequest@UserPromptService@@QBEABVTDesC16@@XZ @ 22 NONAME ; class TDesC16 const & UserPromptService::CPromptRequest::Destination(void) const
	?DialogCreator@CPolicy@UserPromptService@@QBEABVTUid@@XZ @ 23 NONAME ; class TUid const & UserPromptService::CPolicy::DialogCreator(void) const
	?Extension_@CDialogCreator@UserPromptService@@MAEHIAAPAXPAX@Z @ 24 NONAME ; int UserPromptService::CDialogCreator::Extension_(unsigned int, void * &, void *)
	?Extension_@CPolicyEvaluator@UserPromptService@@MAEHIAAPAXPAX@Z @ 25 NONAME ; int UserPromptService::CPolicyEvaluator::Extension_(unsigned int, void * &, void *)
	?Fingerprint@CFingerprint@UserPromptService@@QBEABVTDesC8@@XZ @ 26 NONAME ; class TDesC8 const & UserPromptService::CFingerprint::Fingerprint(void) const
	?Flags@CPolicy@UserPromptService@@QBEGXZ @ 27 NONAME ; unsigned short UserPromptService::CPolicy::Flags(void) const
	?ForcePromptL@CPolicyEvaluator@UserPromptService@@UAEHABVCDecisionRecord@2@AAI@Z @ 28 NONAME ; int UserPromptService::CPolicyEvaluator::ForcePromptL(class UserPromptService::CDecisionRecord const &, unsigned int &)
	?GetExtension@CDialogCreator@UserPromptService@@QAEHIAAPAXPAX@Z @ 29 NONAME ; int UserPromptService::CDialogCreator::GetExtension(unsigned int, void * &, void *)
	?GetExtension@CPolicyEvaluator@UserPromptService@@QAEHIAAPAXPAX@Z @ 30 NONAME ; int UserPromptService::CPolicyEvaluator::GetExtension(unsigned int, void * &, void *)
	?Header@CPolicyReader@UserPromptService@@QBEABVTPolicyHeader@2@XZ @ 31 NONAME ; class UserPromptService::TPolicyHeader const & UserPromptService::CPolicyReader::Header(void) const
	?Id@CPolicyList@UserPromptService@@QBEABVTId@12@XZ @ 32 NONAME ; class UserPromptService::CPolicyList::TId const & UserPromptService::CPolicyList::Id(void) const
	?IdL@TId@CPolicyList@UserPromptService@@SAXABVTDesC16@@AAV123@@Z @ 33 NONAME ; void UserPromptService::CPolicyList::TId::IdL(class TDesC16 const &, class UserPromptService::CPolicyList::TId &)
	?IsClientSidProtected@CPromptRequest@UserPromptService@@QBEHXZ @ 34 NONAME ; int UserPromptService::CPromptRequest::IsClientSidProtected(void) const
	?MajorVersion@CPolicy@UserPromptService@@QBEGXZ @ 35 NONAME ; unsigned short UserPromptService::CPolicy::MajorVersion(void) const
	?Match@CPolicyList@UserPromptService@@QBEPBVCPolicy@2@ABVCPromptRequest@2@@Z @ 36 NONAME ; class UserPromptService::CPolicy const * UserPromptService::CPolicyList::Match(class UserPromptService::CPromptRequest const &) const
	?MatchL@CPolicyCache@UserPromptService@@QAEPBVCPolicy@2@ABVCPromptRequest@2@@Z @ 37 NONAME ; class UserPromptService::CPolicy const * UserPromptService::CPolicyCache::MatchL(class UserPromptService::CPromptRequest const &)
	?Matches@CPolicy@UserPromptService@@QBEHABVTSecureId@@ABVTDesC16@@H@Z @ 38 NONAME ; int UserPromptService::CPolicy::Matches(class TSecureId const &, class TDesC16 const &, int) const
	?MinorVersion@CPolicy@UserPromptService@@QBEGXZ @ 39 NONAME ; unsigned short UserPromptService::CPolicy::MinorVersion(void) const
	?Name@CClientEntity@UserPromptService@@QBEABVTDesC8@@XZ @ 40 NONAME ; class TDesC8 const & UserPromptService::CClientEntity::Name(void) const
	?NewL@CClientEntity@UserPromptService@@SAPAV12@ABVTDesC8@@@Z @ 41 NONAME ; class UserPromptService::CClientEntity * UserPromptService::CClientEntity::NewL(class TDesC8 const &)
	?NewL@CDialogCreator@UserPromptService@@SAPAV12@ABVTUid@@@Z @ 42 NONAME ; class UserPromptService::CDialogCreator * UserPromptService::CDialogCreator::NewL(class TUid const &)
	?NewL@CFingerprint@UserPromptService@@SAPAV12@ABVTDesC8@@ABVTDesC16@@@Z @ 43 NONAME ; class UserPromptService::CFingerprint * UserPromptService::CFingerprint::NewL(class TDesC8 const &, class TDesC16 const &)
	?NewL@CPluginManager@UserPromptService@@SAPAV12@XZ @ 44 NONAME ; class UserPromptService::CPluginManager * UserPromptService::CPluginManager::NewL(void)
	?NewL@CPolicy@UserPromptService@@SAPAV12@ABVTSidClasses@2@ABV?$RArray@VTSecureId@@@@ABVTDesC16@@IABVTUid@@3GW4TSystemServerSecurity@12@GGH@Z @ 45 NONAME ; class UserPromptService::CPolicy * UserPromptService::CPolicy::NewL(class UserPromptService::TSidClasses const &, class RArray<class TSecureId> const &, class TDesC16 const &, unsigned int, class TUid const &, class TUid const &, unsigned short, enum UserPromptService::CPolicy::TSystemServerSecurity, unsigned short, unsigned short, int)
	?NewL@CPolicyCache@UserPromptService@@SAPAV12@AAVRFs@@ABVTDesC16@@@Z @ 46 NONAME ; class UserPromptService::CPolicyCache * UserPromptService::CPolicyCache::NewL(class RFs &, class TDesC16 const &)
	?NewL@CPolicyEvaluator@UserPromptService@@SAPAV12@ABVTUid@@@Z @ 47 NONAME ; class UserPromptService::CPolicyEvaluator * UserPromptService::CPolicyEvaluator::NewL(class TUid const &)
	?NewL@CPolicyList@UserPromptService@@SAPAV12@ABVTId@12@AAVCPolicyReader@2@@Z @ 48 NONAME ; class UserPromptService::CPolicyList * UserPromptService::CPolicyList::NewL(class UserPromptService::CPolicyList::TId const &, class UserPromptService::CPolicyReader &)
	?NewL@CPolicyReader@UserPromptService@@SAPAV12@AAVRFs@@ABVTDesC16@@@Z @ 49 NONAME ; class UserPromptService::CPolicyReader * UserPromptService::CPolicyReader::NewL(class RFs &, class TDesC16 const &)
	?NewL@CPromptRequest@UserPromptService@@SAPAV12@ABVTSecureId@@ABVTVendorId@@ABVTThreadId@@AAVTProcessId@@0ABVTUid@@AAVRBuf16@@AAVRBuf8@@H@Z @ 50 NONAME ; class UserPromptService::CPromptRequest * UserPromptService::CPromptRequest::NewL(class TSecureId const &, class TVendorId const &, class TThreadId const &, class TProcessId &, class TSecureId const &, class TUid const &, class RBuf16 &, class RBuf8 &, int)
	?NewLC@CClientEntity@UserPromptService@@SAPAV12@ABVTDesC8@@@Z @ 51 NONAME ; class UserPromptService::CClientEntity * UserPromptService::CClientEntity::NewLC(class TDesC8 const &)
	?NewLC@CFingerprint@UserPromptService@@SAPAV12@ABVTDesC8@@ABVTDesC16@@@Z @ 52 NONAME ; class UserPromptService::CFingerprint * UserPromptService::CFingerprint::NewLC(class TDesC8 const &, class TDesC16 const &)
	?NewLC@CPolicy@UserPromptService@@SAPAV12@ABVTSidClasses@2@ABV?$RArray@VTSecureId@@@@ABVTDesC16@@IABVTUid@@3GW4TSystemServerSecurity@12@GGH@Z @ 53 NONAME ; class UserPromptService::CPolicy * UserPromptService::CPolicy::NewLC(class UserPromptService::TSidClasses const &, class RArray<class TSecureId> const &, class TDesC16 const &, unsigned int, class TUid const &, class TUid const &, unsigned short, enum UserPromptService::CPolicy::TSystemServerSecurity, unsigned short, unsigned short, int)
	?NewLC@CPolicyList@UserPromptService@@SAPAV12@ABVTId@12@AAVCPolicyReader@2@@Z @ 54 NONAME ; class UserPromptService::CPolicyList * UserPromptService::CPolicyList::NewLC(class UserPromptService::CPolicyList::TId const &, class UserPromptService::CPolicyReader &)
	?NewLC@CPolicyReader@UserPromptService@@SAPAV12@AAVRFs@@ABVTDesC16@@@Z @ 55 NONAME ; class UserPromptService::CPolicyReader * UserPromptService::CPolicyReader::NewLC(class RFs &, class TDesC16 const &)
	?NewLC@CPromptRequest@UserPromptService@@SAPAV12@ABVTSecureId@@ABVTVendorId@@ABVTThreadId@@AAVTProcessId@@0ABVTUid@@AAVRBuf16@@AAVRBuf8@@H@Z @ 56 NONAME ; class UserPromptService::CPromptRequest * UserPromptService::CPromptRequest::NewLC(class TSecureId const &, class TVendorId const &, class TThreadId const &, class TProcessId &, class TSecureId const &, class TUid const &, class RBuf16 &, class RBuf8 &, int)
	?NextPolicyL@CPolicyReader@UserPromptService@@QAEPAVCPolicy@2@XZ @ 57 NONAME ; class UserPromptService::CPolicy * UserPromptService::CPolicyReader::NextPolicyL(void)
	?OpaqueData@CPromptRequest@UserPromptService@@QBEABVTDesC8@@XZ @ 58 NONAME ; class TDesC8 const & UserPromptService::CPromptRequest::OpaqueData(void) const
	?Options@CPolicy@UserPromptService@@QBE?AW4TOptions@12@XZ @ 59 NONAME ; enum UserPromptService::CPolicy::TOptions UserPromptService::CPolicy::Options(void) const
	?PolicyEvaluator@CPolicy@UserPromptService@@QBEABVTUid@@XZ @ 60 NONAME ; class TUid const & UserPromptService::CPolicy::PolicyEvaluator(void) const
	?ReadPolicyL@CPolicyReader@UserPromptService@@AAEPAVCPolicy@2@XZ @ 61 NONAME ABSENT ; class UserPromptService::CPolicy * UserPromptService::CPolicyReader::ReadPolicyL(void)
	?ReleasePlugin@CPluginManager@UserPromptService@@AAEXXZ @ 62 NONAME ; void UserPromptService::CPluginManager::ReleasePlugin(void)
	?SecurityResult@CPromptRequest@UserPromptService@@QBEHXZ @ 63 NONAME ; int UserPromptService::CPromptRequest::SecurityResult(void) const
	?ServerSid@CPromptRequest@UserPromptService@@QBEABVTSecureId@@XZ @ 64 NONAME ; class TSecureId const & UserPromptService::CPromptRequest::ServerSid(void) const
	?ServiceConfig@CPolicyList@UserPromptService@@QBEABUTServiceConfig@2@XZ @ 65 NONAME ; struct UserPromptService::TServiceConfig const & UserPromptService::CPolicyList::ServiceConfig(void) const
	?ServiceConfigL@CPolicyCache@UserPromptService@@QAEXABVTSecureId@@AAV?$RArray@UTServiceConfig@UserPromptService@@@@@Z @ 66 NONAME ; void UserPromptService::CPolicyCache::ServiceConfigL(class TSecureId const &, class RArray<struct UserPromptService::TServiceConfig> &)
	?ServiceId@CPromptRequest@UserPromptService@@QBEABVTUid@@XZ @ 67 NONAME ; class TUid const & UserPromptService::CPromptRequest::ServiceId(void) const
	?SidClasses@CPolicy@UserPromptService@@QBEABVTSidClasses@2@XZ @ 68 NONAME ; class UserPromptService::TSidClasses const & UserPromptService::CPolicy::SidClasses(void) const
	?SidList@CPolicy@UserPromptService@@QBEABV?$RArray@VTSecureId@@@@XZ @ 69 NONAME ; class RArray<class TSecureId> const & UserPromptService::CPolicy::SidList(void) const
	?SystemServerSecurity@CPolicy@UserPromptService@@QBE?AW4TSystemServerSecurity@12@XZ @ 70 NONAME ; enum UserPromptService::CPolicy::TSystemServerSecurity UserPromptService::CPolicy::SystemServerSecurity(void) const
	?Unload@CPluginManager@UserPromptService@@QAEXXZ @ 71 NONAME ; void UserPromptService::CPluginManager::Unload(void)
	?ClientProcessId@CPromptRequest@UserPromptService@@QBEABVTProcessId@@XZ @ 72 NONAME ; class TProcessId const & UserPromptService::CPromptRequest::ClientProcessId(void) const

