EXPORTS
	_ZN9CryptoSpi10CAsyncHash10ReplicateLEv @ 1 NONAME
	_ZN9CryptoSpi10CAsyncHash17SetOperationModeLE4TUid @ 2 NONAME
	_ZN9CryptoSpi10CAsyncHash4HashERK6TDesC8R6TPtrC8R14TRequestStatus @ 3 NONAME
	_ZN9CryptoSpi10CAsyncHash5CopyLEv @ 4 NONAME
	_ZN9CryptoSpi10CAsyncHash5FinalERK6TDesC8R6TPtrC8R14TRequestStatus @ 5 NONAME
	_ZN9CryptoSpi10CAsyncHash6CancelEv @ 6 NONAME
	_ZN9CryptoSpi10CAsyncHash6UpdateERK6TDesC8R14TRequestStatus @ 7 NONAME
	_ZN9CryptoSpi10CAsyncHash7SetKeyLERKNS_4CKeyE @ 8 NONAME
	_ZN9CryptoSpi10CAsyncHashD0Ev @ 9 NONAME
	_ZN9CryptoSpi10CAsyncHashD1Ev @ 10 NONAME
	_ZN9CryptoSpi10CAsyncHashD2Ev @ 11 NONAME
	_ZN9CryptoSpi11CCryptoBase19GetCharacteristicsLERPKv @ 12 NONAME
	_ZN9CryptoSpi11CCryptoBase27GetExtendedCharacteristicsLEv @ 13 NONAME
	_ZN9CryptoSpi11CCryptoBase5ResetEv @ 14 NONAME
	_ZN9CryptoSpi12CAsyncRandom20GenerateRandomBytesLER5TDes8R14TRequestStatus @ 15 NONAME
	_ZN9CryptoSpi12CAsyncRandomD0Ev @ 16 NONAME
	_ZN9CryptoSpi12CAsyncRandomD1Ev @ 17 NONAME
	_ZN9CryptoSpi12CAsyncRandomD2Ev @ 18 NONAME
	_ZN9CryptoSpi12CAsyncSigner5SignLERK6TDesC8RNS_13CCryptoParamsER14TRequestStatus @ 19 NONAME
	_ZN9CryptoSpi12CAsyncSigner6CancelEv @ 20 NONAME
	_ZN9CryptoSpi12CAsyncSignerD0Ev @ 21 NONAME
	_ZN9CryptoSpi12CAsyncSignerD1Ev @ 22 NONAME
	_ZN9CryptoSpi12CAsyncSignerD2Ev @ 23 NONAME
	_ZN9CryptoSpi12CCryptoParamD0Ev @ 24 NONAME
	_ZN9CryptoSpi12CCryptoParamD1Ev @ 25 NONAME
	_ZN9CryptoSpi12CCryptoParamD2Ev @ 26 NONAME
	_ZN9CryptoSpi12CHashFactory11CreateHashLERPNS_5CHashE4TUidS4_PKNS_4CKeyEPKNS_13CCryptoParamsE @ 27 NONAME
	_ZN9CryptoSpi12CHashFactory16CreateAsyncHashLERPNS_10CAsyncHashE4TUidS4_PKNS_4CKeyEPKNS_13CCryptoParamsE @ 28 NONAME
	_ZN9CryptoSpi13CCryptoParams4AddLERK6TDesC84TUid @ 29 NONAME
	_ZN9CryptoSpi13CCryptoParams4AddLERK7TDesC164TUid @ 30 NONAME
	_ZN9CryptoSpi13CCryptoParams4AddLERK8TInteger4TUid @ 31 NONAME
	_ZN9CryptoSpi13CCryptoParams4AddLEi4TUid @ 32 NONAME
	_ZN9CryptoSpi13CCryptoParams4NewLEv @ 33 NONAME
	_ZN9CryptoSpi13CCryptoParams5CopyLERKS0_ @ 34 NONAME
	_ZN9CryptoSpi13CCryptoParams5NewLCEv @ 35 NONAME
	_ZN9CryptoSpi13CCryptoParamsD0Ev @ 36 NONAME
	_ZN9CryptoSpi13CCryptoParamsD1Ev @ 37 NONAME
	_ZN9CryptoSpi13CCryptoParamsD2Ev @ 38 NONAME
	_ZN9CryptoSpi13CKeyAgreement6AgreeLERKNS_4CKeyEPKNS_13CCryptoParamsE @ 39 NONAME
	_ZN9CryptoSpi13CKeyAgreement7SetKeyLERKNS_4CKeyEPKNS_13CCryptoParamsE @ 40 NONAME
	_ZN9CryptoSpi13CKeyAgreementD0Ev @ 41 NONAME
	_ZN9CryptoSpi13CKeyAgreementD1Ev @ 42 NONAME
	_ZN9CryptoSpi13CKeyAgreementD2Ev @ 43 NONAME
	_ZN9CryptoSpi13CRuleSelector4NewLEPNS_15CSelectionRulesE @ 44 NONAME
	_ZN9CryptoSpi13CRuleSelector5NewLCEPNS_15CSelectionRulesE @ 45 NONAME
	_ZN9CryptoSpi13CRuleSelectorD0Ev @ 46 NONAME
	_ZN9CryptoSpi13CRuleSelectorD1Ev @ 47 NONAME
	_ZN9CryptoSpi13CRuleSelectorD2Ev @ 48 NONAME
	_ZN9CryptoSpi14CAsyncVerifier12InverseSignLERP6HBufC8RKNS_13CCryptoParamsER14TRequestStatus @ 49 NONAME
	_ZN9CryptoSpi14CAsyncVerifier6CancelEv @ 50 NONAME
	_ZN9CryptoSpi14CAsyncVerifier7VerifyLERK6TDesC8RKNS_13CCryptoParamsERiR14TRequestStatus @ 51 NONAME
	_ZN9CryptoSpi14CAsyncVerifierD0Ev @ 52 NONAME
	_ZN9CryptoSpi14CAsyncVerifierD1Ev @ 53 NONAME
	_ZN9CryptoSpi14CAsyncVerifierD2Ev @ 54 NONAME
	_ZN9CryptoSpi14CRandomFactory13CreateRandomLERPNS_7CRandomE4TUidPKNS_13CCryptoParamsE @ 55 NONAME
	_ZN9CryptoSpi14CRandomFactory18CreateAsyncRandomLERPNS_12CAsyncRandomE4TUidPKNS_13CCryptoParamsE @ 56 NONAME
	_ZN9CryptoSpi14CSignatureBase15SetPaddingModeLE4TUid @ 57 NONAME
	_ZN9CryptoSpi14CSignatureBase7SetKeyLERKNS_4CKeyE @ 58 NONAME
	_ZN9CryptoSpi15CCryptoIntParam4NewLEi4TUid @ 59 NONAME
	_ZN9CryptoSpi15CCryptoIntParam5NewLCEi4TUid @ 60 NONAME
	_ZN9CryptoSpi15CCryptoIntParamD0Ev @ 61 NONAME
	_ZN9CryptoSpi15CCryptoIntParamD1Ev @ 62 NONAME
	_ZN9CryptoSpi15CCryptoIntParamD2Ev @ 63 NONAME
	_ZN9CryptoSpi15CSelectionRules17AddSelectionRuleLEPNS_21CSelectionRuleContentE @ 64 NONAME
	_ZN9CryptoSpi15CSelectionRules4NewLEv @ 65 NONAME
	_ZN9CryptoSpi15CSelectionRulesD0Ev @ 66 NONAME
	_ZN9CryptoSpi15CSelectionRulesD1Ev @ 67 NONAME
	_ZN9CryptoSpi15CSelectionRulesD2Ev @ 68 NONAME
	_ZN9CryptoSpi16CSymmetricCipher13ProcessFinalLERK6TDesC8R5TDes8 @ 69 NONAME
	_ZN9CryptoSpi16CSymmetricCipher8ProcessLERK6TDesC8R5TDes8 @ 70 NONAME
	_ZN9CryptoSpi16CSymmetricCipherD0Ev @ 71 NONAME
	_ZN9CryptoSpi16CSymmetricCipherD1Ev @ 72 NONAME
	_ZN9CryptoSpi16CSymmetricCipherD2Ev @ 73 NONAME
	_ZN9CryptoSpi17CAsymmetricCipher8ProcessLERK6TDesC8R5TDes8 @ 74 NONAME
	_ZN9CryptoSpi17CAsymmetricCipherD0Ev @ 75 NONAME
	_ZN9CryptoSpi17CAsymmetricCipherD1Ev @ 76 NONAME
	_ZN9CryptoSpi17CAsymmetricCipherD2Ev @ 77 NONAME
	_ZN9CryptoSpi17CCryptoDesC8Param4NewLERK6TDesC84TUid @ 78 NONAME
	_ZN9CryptoSpi17CCryptoDesC8Param5NewLCERK6TDesC84TUid @ 79 NONAME
	_ZN9CryptoSpi17CCryptoDesC8ParamD0Ev @ 80 NONAME
	_ZN9CryptoSpi17CCryptoDesC8ParamD1Ev @ 81 NONAME
	_ZN9CryptoSpi17CCryptoDesC8ParamD2Ev @ 82 NONAME
	_ZN9CryptoSpi17CKeyPairGenerator16GenerateKeyPairLEiRKNS_13CCryptoParamsERPNS_8CKeyPairE @ 83 NONAME
	_ZN9CryptoSpi17CKeyPairGeneratorD0Ev @ 84 NONAME
	_ZN9CryptoSpi17CKeyPairGeneratorD1Ev @ 85 NONAME
	_ZN9CryptoSpi17CKeyPairGeneratorD2Ev @ 86 NONAME
	_ZN9CryptoSpi17CSignatureFactory13CreateSignerLERPNS_7CSignerE4TUidRKNS_4CKeyES4_PKNS_13CCryptoParamsE @ 87 NONAME
	_ZN9CryptoSpi17CSignatureFactory15CreateVerifierLERPNS_9CVerifierE4TUidRKNS_4CKeyES4_PKNS_13CCryptoParamsE @ 88 NONAME
	_ZN9CryptoSpi17CSignatureFactory18CreateAsyncSignerLERPNS_12CAsyncSignerE4TUidRKNS_4CKeyES4_PKNS_13CCryptoParamsE @ 89 NONAME
	_ZN9CryptoSpi17CSignatureFactory20CreateAsyncVerifierLERPNS_14CAsyncVerifierE4TUidRKNS_4CKeyES4_PKNS_13CCryptoParamsE @ 90 NONAME
	_ZN9CryptoSpi18CAsyncKeyAgreement6AgreeLERKNS_4CKeyERS1_PKNS_13CCryptoParamsER14TRequestStatus @ 91 NONAME
	_ZN9CryptoSpi18CAsyncKeyAgreement7SetKeyLERKNS_4CKeyEPKNS_13CCryptoParamsE @ 92 NONAME
	_ZN9CryptoSpi18CAsyncKeyAgreementD0Ev @ 93 NONAME
	_ZN9CryptoSpi18CAsyncKeyAgreementD1Ev @ 94 NONAME
	_ZN9CryptoSpi18CAsyncKeyAgreementD2Ev @ 95 NONAME
	_ZN9CryptoSpi18CCryptoBigIntParam4NewLERK8TInteger4TUid @ 96 NONAME
	_ZN9CryptoSpi18CCryptoBigIntParam5NewLCERK8TInteger4TUid @ 97 NONAME
	_ZN9CryptoSpi18CCryptoBigIntParamD0Ev @ 98 NONAME
	_ZN9CryptoSpi18CCryptoBigIntParamD1Ev @ 99 NONAME
	_ZN9CryptoSpi18CCryptoBigIntParamD2Ev @ 100 NONAME
	_ZN9CryptoSpi18CCryptoDesC16Param4NewLERK7TDesC164TUid @ 101 NONAME
	_ZN9CryptoSpi18CCryptoDesC16Param5NewLCERK7TDesC164TUid @ 102 NONAME
	_ZN9CryptoSpi18CCryptoDesC16ParamD0Ev @ 103 NONAME
	_ZN9CryptoSpi18CCryptoDesC16ParamD1Ev @ 104 NONAME
	_ZN9CryptoSpi18CCryptoDesC16ParamD2Ev @ 105 NONAME
	_ZN9CryptoSpi18CCryptoSpiStateApi11SetSelectorEPNS_15MPluginSelectorE @ 106 NONAME
	_ZN9CryptoSpi18CCryptoSpiStateApi13UnsetSelectorEv @ 107 NONAME
	_ZN9CryptoSpi18CCryptoSpiStateApi25EnumerateCharacteristicsLER13RPointerArrayINS_29CCharacteristicsAndPluginNameEEli @ 108 NONAME
	_ZN9CryptoSpi20CKeyAgreementFactory19CreateKeyAgreementLERPNS_13CKeyAgreementE4TUidRKNS_4CKeyEPKNS_13CCryptoParamsE @ 109 NONAME
	_ZN9CryptoSpi20CKeyAgreementFactory24CreateAsyncKeyAgreementLERPNS_18CAsyncKeyAgreementE4TUidRKNS_4CKeyEPKNS_13CCryptoParamsE @ 110 NONAME
	_ZN9CryptoSpi20CSymmetricCipherBase14SetCryptoModeLE4TUid @ 111 NONAME
	_ZN9CryptoSpi20CSymmetricCipherBase15MaxOutputLengthEi @ 112 NONAME
	_ZN9CryptoSpi20CSymmetricCipherBase15SetPaddingModeLE4TUid @ 113 NONAME
	_ZN9CryptoSpi20CSymmetricCipherBase17SetOperationModeLE4TUid @ 114 NONAME
	_ZN9CryptoSpi20CSymmetricCipherBase20MaxFinalOutputLengthEi @ 115 NONAME
	_ZN9CryptoSpi20CSymmetricCipherBase6SetIvLERK6TDesC8 @ 116 NONAME
	_ZN9CryptoSpi20CSymmetricCipherBase7KeySizeEv @ 117 NONAME
	_ZN9CryptoSpi20CSymmetricCipherBase7SetKeyLERKNS_4CKeyE @ 118 NONAME
	_ZN9CryptoSpi20CSymmetricCipherBase9BlockSizeEv @ 119 NONAME
	_ZN9CryptoSpi21CAsymmetricCipherBase14SetCryptoModeLE4TUid @ 120 NONAME
	_ZN9CryptoSpi21CAsymmetricCipherBase15SetPaddingModeLE4TUid @ 121 NONAME
	_ZN9CryptoSpi21CAsymmetricCipherBase22GetMaximumInputLengthLEv @ 122 NONAME
	_ZN9CryptoSpi21CAsymmetricCipherBase23GetMaximumOutputLengthLEv @ 123 NONAME
	_ZN9CryptoSpi21CAsymmetricCipherBase7SetKeyLERKNS_4CKeyE @ 124 NONAME
	_ZN9CryptoSpi21CAsyncSymmetricCipher13ProcessFinalLERK6TDesC8R5TDes8R14TRequestStatus @ 125 NONAME
	_ZN9CryptoSpi21CAsyncSymmetricCipher6CancelEv @ 126 NONAME
	_ZN9CryptoSpi21CAsyncSymmetricCipher8ProcessLERK6TDesC8R5TDes8R14TRequestStatus @ 127 NONAME
	_ZN9CryptoSpi21CAsyncSymmetricCipherD0Ev @ 128 NONAME
	_ZN9CryptoSpi21CAsyncSymmetricCipherD1Ev @ 129 NONAME
	_ZN9CryptoSpi21CAsyncSymmetricCipherD2Ev @ 130 NONAME
	_ZN9CryptoSpi21CSelectionRuleContent4NewLE4TUidS1_PNS_12CCryptoParamENS_13TRuleOperatorEi @ 131 NONAME
	_ZN9CryptoSpi21CSelectionRuleContentD0Ev @ 132 NONAME
	_ZN9CryptoSpi21CSelectionRuleContentD1Ev @ 133 NONAME
	_ZN9CryptoSpi21CSelectionRuleContentD2Ev @ 134 NONAME
	_ZN9CryptoSpi22CAsyncAsymmetricCipher6CancelEv @ 135 NONAME
	_ZN9CryptoSpi22CAsyncAsymmetricCipher8ProcessLERK6TDesC8R5TDes8R14TRequestStatus @ 136 NONAME
	_ZN9CryptoSpi22CAsyncAsymmetricCipherD0Ev @ 137 NONAME
	_ZN9CryptoSpi22CAsyncAsymmetricCipherD1Ev @ 138 NONAME
	_ZN9CryptoSpi22CAsyncAsymmetricCipherD2Ev @ 139 NONAME
	_ZN9CryptoSpi22CAsyncKeyPairGenerator16GenerateKeyPairLEiRKNS_13CCryptoParamsERPNS_8CKeyPairER14TRequestStatus @ 140 NONAME
	_ZN9CryptoSpi22CAsyncKeyPairGenerator6CancelEv @ 141 NONAME
	_ZN9CryptoSpi22CAsyncKeyPairGeneratorD0Ev @ 142 NONAME
	_ZN9CryptoSpi22CAsyncKeyPairGeneratorD1Ev @ 143 NONAME
	_ZN9CryptoSpi22CAsyncKeyPairGeneratorD2Ev @ 144 NONAME
	_ZN9CryptoSpi23CSymmetricCipherFactory22CreateSymmetricCipherLERPNS_16CSymmetricCipherE4TUidRKNS_4CKeyES4_S4_S4_PKNS_13CCryptoParamsE @ 145 NONAME
	_ZN9CryptoSpi23CSymmetricCipherFactory27CreateAsyncSymmetricCipherLERPNS_21CAsyncSymmetricCipherE4TUidRKNS_4CKeyES4_S4_S4_PKNS_13CCryptoParamsE @ 146 NONAME
	_ZN9CryptoSpi24CAsymmetricCipherFactory23CreateAsymmetricCipherLERPNS_17CAsymmetricCipherE4TUidRKNS_4CKeyES4_S4_PKNS_13CCryptoParamsE @ 147 NONAME
	_ZN9CryptoSpi24CAsymmetricCipherFactory28CreateAsyncAsymmetricCipherLERPNS_22CAsyncAsymmetricCipherE4TUidRKNS_4CKeyES4_S4_PKNS_13CCryptoParamsE @ 148 NONAME
	_ZN9CryptoSpi24CExtendedCharacteristics18AddCharacteristicLERK6TDesC84TUid @ 149 NONAME
	_ZN9CryptoSpi24CExtendedCharacteristics18AddCharacteristicLEi4TUid @ 150 NONAME
	_ZN9CryptoSpi24CExtendedCharacteristics4NewLEii @ 151 NONAME
	_ZN9CryptoSpi24CExtendedCharacteristicsD0Ev @ 152 NONAME
	_ZN9CryptoSpi24CExtendedCharacteristicsD1Ev @ 153 NONAME
	_ZN9CryptoSpi24CExtendedCharacteristicsD2Ev @ 154 NONAME
	_ZN9CryptoSpi24CKeyPairGeneratorFactory23CreateKeyPairGeneratorLERPNS_17CKeyPairGeneratorE4TUidPKNS_13CCryptoParamsE @ 155 NONAME
	_ZN9CryptoSpi24CKeyPairGeneratorFactory28CreateAsyncKeyPairGeneratorLERPNS_22CAsyncKeyPairGeneratorE4TUidPKNS_13CCryptoParamsE @ 156 NONAME
	_ZN9CryptoSpi4CKey4NewLERKNS_12TKeyPropertyERKNS_13CCryptoParamsE @ 157 NONAME
	_ZN9CryptoSpi4CKey4NewLERKS0_ @ 158 NONAME
	_ZN9CryptoSpi4CKey5NewLCERKNS_12TKeyPropertyERKNS_13CCryptoParamsE @ 159 NONAME
	_ZN9CryptoSpi4CKey5NewLCERKS0_ @ 160 NONAME
	_ZN9CryptoSpi4CKeyD0Ev @ 161 NONAME
	_ZN9CryptoSpi4CKeyD1Ev @ 162 NONAME
	_ZN9CryptoSpi4CKeyD2Ev @ 163 NONAME
	_ZN9CryptoSpi5CHash10ReplicateLEv @ 164 NONAME
	_ZN9CryptoSpi5CHash17SetOperationModeLE4TUid @ 165 NONAME
	_ZN9CryptoSpi5CHash4HashERK6TDesC8 @ 166 NONAME
	_ZN9CryptoSpi5CHash5CopyLEv @ 167 NONAME
	_ZN9CryptoSpi5CHash5FinalERK6TDesC8 @ 168 NONAME
	_ZN9CryptoSpi5CHash6UpdateERK6TDesC8 @ 169 NONAME
	_ZN9CryptoSpi5CHash7SetKeyLERKNS_4CKeyE @ 170 NONAME
	_ZN9CryptoSpi5CHashD0Ev @ 171 NONAME
	_ZN9CryptoSpi5CHashD1Ev @ 172 NONAME
	_ZN9CryptoSpi5CHashD2Ev @ 173 NONAME
	_ZN9CryptoSpi7CRandom20GenerateRandomBytesLER5TDes8 @ 174 NONAME
	_ZN9CryptoSpi7CRandomD0Ev @ 175 NONAME
	_ZN9CryptoSpi7CRandomD1Ev @ 176 NONAME
	_ZN9CryptoSpi7CRandomD2Ev @ 177 NONAME
	_ZN9CryptoSpi7CSigner5SignLERK6TDesC8RNS_13CCryptoParamsE @ 178 NONAME
	_ZN9CryptoSpi7CSignerD0Ev @ 179 NONAME
	_ZN9CryptoSpi7CSignerD1Ev @ 180 NONAME
	_ZN9CryptoSpi7CSignerD2Ev @ 181 NONAME
	_ZN9CryptoSpi8CKeyPair4NewLEPNS_4CKeyES2_ @ 182 NONAME
	_ZN9CryptoSpi9CVerifier12InverseSignLERP6HBufC8RKNS_13CCryptoParamsE @ 183 NONAME
	_ZN9CryptoSpi9CVerifier7VerifyLERK6TDesC8RKNS_13CCryptoParamsERi @ 184 NONAME
	_ZN9CryptoSpi9CVerifierD0Ev @ 185 NONAME
	_ZN9CryptoSpi9CVerifierD1Ev @ 186 NONAME
	_ZN9CryptoSpi9CVerifierD2Ev @ 187 NONAME
	_ZNK9CryptoSpi12CCryptoParam3UidEv @ 188 NONAME
	_ZNK9CryptoSpi12CCryptoParam4TypeEv @ 189 NONAME
	_ZNK9CryptoSpi13CCryptoParams10GetBigIntLE4TUid @ 190 NONAME
	_ZNK9CryptoSpi13CCryptoParams10GetTDesC8LE4TUid @ 191 NONAME
	_ZNK9CryptoSpi13CCryptoParams11GetTDesC16LE4TUid @ 192 NONAME
	_ZNK9CryptoSpi13CCryptoParams5CountEv @ 193 NONAME
	_ZNK9CryptoSpi13CCryptoParams8GetTIntLE4TUid @ 194 NONAME
	_ZNK9CryptoSpi13CCryptoParams9GetParamsEv @ 195 NONAME
	_ZNK9CryptoSpi13CCryptoParams9IsPresentE4TUid @ 196 NONAME
	_ZNK9CryptoSpi14CSignatureBase22GetMaximumInputLengthLEv @ 197 NONAME
	_ZNK9CryptoSpi14CSignatureBase23GetMaximumOutputLengthLEv @ 198 NONAME
	_ZNK9CryptoSpi15CCryptoIntParam5ValueEv @ 199 NONAME
	_ZNK9CryptoSpi17CCryptoDesC8Param5ValueEv @ 200 NONAME
	_ZNK9CryptoSpi18CCryptoBigIntParam5ValueEv @ 201 NONAME
	_ZNK9CryptoSpi18CCryptoDesC16Param5ValueEv @ 202 NONAME
	_ZNK9CryptoSpi20THashCharacteristics24IsOperationModeSupportedE4TUid @ 203 NONAME
	_ZNK9CryptoSpi24CExtendedCharacteristics22GetTIntCharacteristicLE4TUid @ 204 NONAME
	_ZNK9CryptoSpi24CExtendedCharacteristics24GetTDesC8CharacteristicLE4TUid @ 205 NONAME
	_ZNK9CryptoSpi24CExtendedCharacteristics27ListExtendedCharacteristicsEv @ 206 NONAME
	_ZNK9CryptoSpi31TSymmetricCipherCharacteristics22IsPaddingModeSupportedE4TUid @ 207 NONAME
	_ZNK9CryptoSpi31TSymmetricCipherCharacteristics24IsOperationModeSupportedE4TUid @ 208 NONAME
	_ZNK9CryptoSpi32TAsymmetricCipherCharacteristics22IsPaddingModeSupportedE4TUid @ 209 NONAME
	_ZNK9CryptoSpi35TAsymmetricSignatureCharacteristics22IsPaddingModeSupportedE4TUid @ 210 NONAME
	_ZNK9CryptoSpi4CKey10GetBigIntLE4TUid @ 211 NONAME
	_ZNK9CryptoSpi4CKey10GetTDesC8LE4TUid @ 212 NONAME
	_ZNK9CryptoSpi4CKey11KeyPropertyEv @ 213 NONAME
	_ZNK9CryptoSpi4CKey13KeyParametersEv @ 214 NONAME
	_ZNK9CryptoSpi4CKey8GetTIntLE4TUid @ 215 NONAME
	_ZNK9CryptoSpi4CKey9IsPresentE4TUid @ 216 NONAME
	_ZNK9CryptoSpi8CKeyPair10PrivateKeyEv @ 217 NONAME
	_ZNK9CryptoSpi8CKeyPair9PublicKeyEv @ 218 NONAME
	_ZThn4_N9CryptoSpi13CRuleSelectorD0Ev @ 219 NONAME
	_ZThn4_N9CryptoSpi13CRuleSelectorD1Ev @ 220 NONAME
	_ZN9CryptoSpi11CMacFactory10CreateMacLERPNS_4CMacE4TUidRKNS_4CKeyEPKNS_13CCryptoParamsE @ 221 NONAME
	_ZN9CryptoSpi11CMacFactory15CreateAsyncMacLERPNS_9CAsyncMacE4TUidRKNS_4CKeyEPKNS_13CCryptoParamsE @ 222 NONAME
	_ZN9CryptoSpi4CMac22ReInitialiseAndSetKeyLERKNS_4CKeyE @ 223 NONAME
	_ZN9CryptoSpi4CMac4MacLERK6TDesC8 @ 224 NONAME
	_ZN9CryptoSpi4CMac6FinalLERK6TDesC8 @ 225 NONAME
	_ZN9CryptoSpi4CMac7UpdateLERK6TDesC8 @ 226 NONAME
	_ZN9CryptoSpi4CMacD0Ev @ 227 NONAME
	_ZN9CryptoSpi4CMacD1Ev @ 228 NONAME
	_ZN9CryptoSpi4CMacD2Ev @ 229 NONAME
	_ZN9CryptoSpi9CAsyncMac22ReInitialiseAndSetKeyLERKNS_4CKeyE @ 230 NONAME
	_ZN9CryptoSpi9CAsyncMac4MacLERK6TDesC8R14TRequestStatus @ 231 NONAME
	_ZN9CryptoSpi9CAsyncMac6CancelEv @ 232 NONAME
	_ZN9CryptoSpi9CAsyncMac6FinalLERK6TDesC8R14TRequestStatus @ 233 NONAME
	_ZN9CryptoSpi9CAsyncMac7UpdateLERK6TDesC8R14TRequestStatus @ 234 NONAME
	_ZN9CryptoSpi9CAsyncMacD0Ev @ 235 NONAME
	_ZN9CryptoSpi9CAsyncMacD1Ev @ 236 NONAME
	_ZN9CryptoSpi9CAsyncMacD2Ev @ 237 NONAME
	_ZN9CryptoSpi12CHashFactory11CreateHashLERPNS_5CHashE4TUidPKNS_13CCryptoParamsE @ 238 NONAME
	_ZN9CryptoSpi12CHashFactory16CreateAsyncHashLERPNS_10CAsyncHashE4TUidPKNS_13CCryptoParamsE @ 239 NONAME
	_ZN9CryptoSpi4CMac10ReplicateLEv @ 240 NONAME
	_ZN9CryptoSpi4CMac5CopyLEv @ 241 NONAME
	_ZN9CryptoSpi9CAsyncMac10ReplicateLEv @ 242 NONAME
	_ZN9CryptoSpi9CAsyncMac5CopyLEv @ 243 NONAME

