EXPORTS
	_ZTV14CMessageDigest @ 1 NONAME ; #<VT>#
	_ZTI14CMessageDigest @ 2 NONAME ; #<TI>#
	_ZN14CMessageDigestC2ERKS_ @ 3 NONAME
	_ZN14CMessageDigestC2Ev @ 4 NONAME
	_ZN14CMessageDigestD0Ev @ 5 NONAME
	_ZN14CMessageDigestD1Ev @ 6 NONAME
	_ZN14CMessageDigestD2Ev @ 7 NONAME
	_ZN21CMessageDigestFactory10NewDigestLEN14CMessageDigest7THashIdE @ 8 NONAME
	_ZN21CMessageDigestFactory11NewDigestLCEN14CMessageDigest7THashIdE @ 9 NONAME
	_ZN21CMessageDigestFactory8NewHMACLEN14CMessageDigest7THashIdERK6TDesC8 @ 10 NONAME
	_ZN21CMessageDigestFactory9NewHMACLCEN14CMessageDigest7THashIdERK6TDesC8 @ 11 NONAME
	_ZN4CMD210ReplicateLEv @ 12 NONAME
	_ZN4CMD24HashERK6TDesC8 @ 13 NONAME
	_ZN4CMD24NewLEv @ 14 NONAME
	_ZN4CMD25CopyLEv @ 15 NONAME
	_ZN4CMD25FinalERK6TDesC8 @ 16 NONAME
	_ZN4CMD25FinalEv @ 17 NONAME
	_ZN4CMD25ResetEv @ 18 NONAME
	_ZN4CMD26UpdateERK6TDesC8 @ 19 NONAME
	_ZN4CMD28HashSizeEv @ 20 NONAME
	_ZN4CMD29BlockSizeEv @ 21 NONAME
	_ZN4CMD2D0Ev @ 22 NONAME
	_ZN4CMD2D1Ev @ 23 NONAME
	_ZN4CMD2D2Ev @ 24 NONAME
	_ZN4CMD510ReplicateLEv @ 25 NONAME
	_ZN4CMD54HashERK6TDesC8 @ 26 NONAME
	_ZN4CMD54NewLEv @ 27 NONAME
	_ZN4CMD55CopyLEv @ 28 NONAME
	_ZN4CMD55FinalERK6TDesC8 @ 29 NONAME
	_ZN4CMD55FinalEv @ 30 NONAME
	_ZN4CMD55ResetEv @ 31 NONAME
	_ZN4CMD56UpdateERK6TDesC8 @ 32 NONAME
	_ZN4CMD58HashSizeEv @ 33 NONAME
	_ZN4CMD59BlockSizeEv @ 34 NONAME
	_ZN4CMD5D0Ev @ 35 NONAME
	_ZN4CMD5D1Ev @ 36 NONAME
	_ZN4CMD5D2Ev @ 37 NONAME
	_ZN4CSHA10ReplicateLEv @ 38 NONAME
	_ZN4CSHA4HashERK6TDesC8 @ 39 NONAME
	_ZN4CSHA4NewLEv @ 40 NONAME
	_ZN4CSHA5CopyLEv @ 41 NONAME
	_ZN4CSHA5FinalERK6TDesC8 @ 42 NONAME
	_ZN4CSHA5FinalEv @ 43 NONAME
	_ZN4CSHA5ResetEv @ 44 NONAME
	_ZN4CSHA6UpdateERK6TDesC8 @ 45 NONAME
	_ZN4CSHA8HashSizeEv @ 46 NONAME
	_ZN4CSHA9BlockSizeEv @ 47 NONAME
	_ZN4CSHAD0Ev @ 48 NONAME
	_ZN4CSHAD1Ev @ 49 NONAME
	_ZN4CSHAD2Ev @ 50 NONAME
	_ZN5CHMAC10ReplicateLEv @ 51 NONAME
	_ZN5CHMAC4HashERK6TDesC8 @ 52 NONAME
	_ZN5CHMAC4NewLERK6TDesC8P14CMessageDigest @ 53 NONAME
	_ZN5CHMAC5CopyLEv @ 54 NONAME
	_ZN5CHMAC5FinalERK6TDesC8 @ 55 NONAME
	_ZN5CHMAC5FinalEv @ 56 NONAME
	_ZN5CHMAC5ResetEv @ 57 NONAME
	_ZN5CHMAC6UpdateERK6TDesC8 @ 58 NONAME
	_ZN5CHMAC8HashSizeEv @ 59 NONAME
	_ZN5CHMAC9BlockSizeEv @ 60 NONAME
	_ZN5CHMACD0Ev @ 61 NONAME
	_ZN5CHMACD1Ev @ 62 NONAME
	_ZN5CHMACD2Ev @ 63 NONAME
	_ZN5CSHA110ReplicateLEv @ 64 NONAME
	_ZN5CSHA14HashERK6TDesC8 @ 65 NONAME
	_ZN5CSHA14NewLEv @ 66 NONAME
	_ZN5CSHA15CopyLEv @ 67 NONAME
	_ZN5CSHA15FinalERK6TDesC8 @ 68 NONAME
	_ZN5CSHA15FinalEv @ 69 NONAME
	_ZN5CSHA15ResetEv @ 70 NONAME
	_ZN5CSHA16UpdateERK6TDesC8 @ 71 NONAME
	_ZN5CSHA18HashSizeEv @ 72 NONAME
	_ZN5CSHA19BlockSizeEv @ 73 NONAME
	_ZN5CSHA1D0Ev @ 74 NONAME
	_ZN5CSHA1D1Ev @ 75 NONAME
	_ZN5CSHA1D2Ev @ 76 NONAME
	_ZTI4CMD2 @ 77 NONAME ; #<TI>#
	_ZTI4CMD5 @ 78 NONAME ; #<TI>#
	_ZTI4CSHA @ 79 NONAME ; #<TI>#
	_ZTI5CHMAC @ 80 NONAME ; #<TI>#
	_ZTI5CSHA1 @ 81 NONAME ; #<TI>#
	_ZTV4CMD2 @ 82 NONAME ; #<VT>#
	_ZTV4CMD5 @ 83 NONAME ; #<VT>#
	_ZTV4CSHA @ 84 NONAME ; #<VT>#
	_ZTV5CHMAC @ 85 NONAME ; #<VT>#
	_ZTV5CSHA1 @ 86 NONAME ; #<VT>#
	_ZN4CMD410ReplicateLEv @ 87 NONAME
	_ZN4CMD44HashERK6TDesC8 @ 88 NONAME
	_ZN4CMD44NewLEv @ 89 NONAME
	_ZN4CMD45CopyLEv @ 90 NONAME
	_ZN4CMD45FinalERK6TDesC8 @ 91 NONAME
	_ZN4CMD45FinalEv @ 92 NONAME
	_ZN4CMD45ResetEv @ 93 NONAME
	_ZN4CMD46UpdateERK6TDesC8 @ 94 NONAME
	_ZN4CMD48HashSizeEv @ 95 NONAME
	_ZN4CMD49BlockSizeEv @ 96 NONAME
	_ZN4CMD4D0Ev @ 97 NONAME
	_ZN4CMD4D1Ev @ 98 NONAME
	_ZN4CMD4D2Ev @ 99 NONAME
	_ZTI4CMD4 @ 100 NONAME
	_ZTV4CMD4 @ 101 NONAME
	_ZN5CSHA210ReplicateLEv @ 102 NONAME ABSENT
	_ZN5CSHA24HashERK6TDesC8 @ 103 NONAME ABSENT
	_ZN5CSHA24NewLE8TSH2Algo @ 104 NONAME
	_ZN5CSHA25CopyLEv @ 105 NONAME ABSENT
	_ZN5CSHA25FinalERK6TDesC8 @ 106 NONAME ABSENT
	_ZN5CSHA25FinalEv @ 107 NONAME ABSENT
	_ZN5CSHA25NewLCE8TSH2Algo @ 108 NONAME
	_ZN5CSHA25ResetEv @ 109 NONAME ABSENT
	_ZN5CSHA26UpdateERK6TDesC8 @ 110 NONAME ABSENT
	_ZN5CSHA28HashSizeEv @ 111 NONAME ABSENT
	_ZN5CSHA29BlockSizeEv @ 112 NONAME ABSENT
	_ZN5CSHA2D0Ev @ 113 NONAME
	_ZN5CSHA2D1Ev @ 114 NONAME
	_ZN5CSHA2D2Ev @ 115 NONAME
	_ZTI5CSHA2 @ 116 NONAME
	_ZTV5CSHA2 @ 117 NONAME

