EXPORTS
	_ZN12RSqlDatabase17SetIsolationLevelENS_15TIsolationLevelE @ 1 NONAME
	_ZN12RSqlDatabase4ExecERK6TDesC8 @ 2 NONAME
	_ZN12RSqlDatabase4ExecERK7TDesC16 @ 3 NONAME
	_ZN12RSqlDatabase4OpenERK7TDesC16PK6TDesC8 @ 4 NONAME
	_ZN12RSqlDatabase5CloseEv @ 5 NONAME
	_ZN12RSqlDatabase5OpenLERK7TDesC16PK6TDesC8 @ 6 NONAME
	_ZN12RSqlDatabase6CreateERK7TDesC16PK6TDesC8 @ 7 NONAME
	_ZN12RSqlDatabase6DeleteERK7TDesC16 @ 8 NONAME
	_ZN12RSqlDatabaseC1Ev @ 9 NONAME
	_ZN12RSqlDatabaseC2Ev @ 10 NONAME
	_ZN13RSqlStatement10BindBinaryEiRK6TDesC8 @ 11 NONAME
	_ZN13RSqlStatement4ExecEv @ 12 NONAME
	_ZN13RSqlStatement4NextEv @ 13 NONAME
	_ZN13RSqlStatement5CloseEv @ 14 NONAME
	_ZN13RSqlStatement5ResetEv @ 15 NONAME
	_ZN13RSqlStatement7BindIntEii @ 16 NONAME
	_ZN13RSqlStatement7PrepareER12RSqlDatabaseRK6TDesC8 @ 17 NONAME
	_ZN13RSqlStatement7PrepareER12RSqlDatabaseRK7TDesC16 @ 18 NONAME
	_ZN13RSqlStatement8BindNullEi @ 19 NONAME
	_ZN13RSqlStatement8BindRealEid @ 20 NONAME
	_ZN13RSqlStatement8BindTextEiRK7TDesC16 @ 21 NONAME
	_ZN13RSqlStatement9BindInt64Eix @ 22 NONAME
	_ZN13RSqlStatementC1Ev @ 23 NONAME
	_ZN13RSqlStatementC2Ev @ 24 NONAME
	_ZN20RSqlColumnReadStream12ColumnBinaryER13RSqlStatementi @ 25 NONAME
	_ZN20RSqlColumnReadStream10ColumnTextER13RSqlStatementi @ 26 NONAME
	_ZN20RSqlParamWriteStream10BindBinaryER13RSqlStatementi @ 27 NONAME
	_ZN20RSqlParamWriteStream8BindTextER13RSqlStatementi @ 28 NONAME
	_ZNK12RSqlDatabase17GetSecurityPolicyER18RSqlSecurityPolicy @ 29 NONAME
	_ZNK12RSqlDatabase16LastErrorMessageEv @ 30 NONAME
	_ZNK13RSqlStatement10ColumnRealEi @ 31 NONAME
	_ZNK13RSqlStatement10ColumnSizeEi @ 32 NONAME
	_ZNK13RSqlStatement10ColumnTextEiR6TDes16 @ 33 NONAME
	_ZNK13RSqlStatement10ColumnTextEiR7TPtrC16 @ 34 NONAME
	_ZNK13RSqlStatement10ColumnTypeEi @ 35 NONAME
	_ZNK13RSqlStatement11ColumnIndexERK7TDesC16 @ 36 NONAME
	_ZNK13RSqlStatement11ColumnInt64Ei @ 37 NONAME
	_ZNK13RSqlStatement11ColumnTextLEi @ 38 NONAME
	_ZNK13RSqlStatement12ColumnBinaryEiR5TDes8 @ 39 NONAME
	_ZNK13RSqlStatement12ColumnBinaryEiR6TPtrC8 @ 40 NONAME
	_ZNK13RSqlStatement13ColumnBinaryLEi @ 41 NONAME
	_ZNK13RSqlStatement14ParameterIndexERK7TDesC16 @ 42 NONAME
	_ZNK13RSqlStatement6IsNullEi @ 43 NONAME
	_ZNK13RSqlStatement9ColumnIntEi @ 44 NONAME
	_ZNK13RSqlStatement5AtRowEv @ 45 NONAME
	_ZN18TSqlResourceTester14SetHeapFailureEii @ 46 NONAME
	_ZN18TSqlResourceTester16SetDbHeapFailureEii @ 47 NONAME
	_ZN18TSqlResourceTester5CheckEv @ 48 NONAME
	_ZN18TSqlResourceTester4MarkEv @ 49 NONAME
	_ZN18TSqlResourceTester5CountEv @ 50 NONAME
	_ZN18RSqlSecurityPolicy11SetDbPolicyENS_11TPolicyTypeERK15TSecurityPolicy @ 51 NONAME
	_ZN18RSqlSecurityPolicy12InternalizeLER11RReadStream @ 52 NONAME
	_ZN18RSqlSecurityPolicy5CloseEv @ 53 NONAME
	_ZN18RSqlSecurityPolicy6CreateERK15TSecurityPolicy @ 54 NONAME
	_ZN18RSqlSecurityPolicy9SetPolicyENS_11TObjectTypeERK7TDesC16NS_11TPolicyTypeERK15TSecurityPolicy @ 55 NONAME
	_ZN18RSqlSecurityPolicyC1Ev @ 56 NONAME
	_ZN18RSqlSecurityPolicyC2Ev @ 57 NONAME
	_ZNK18RSqlSecurityPolicy12ExternalizeLER12RWriteStream @ 58 NONAME
	_ZNK18RSqlSecurityPolicy13DefaultPolicyEv @ 59 NONAME
	_ZNK18RSqlSecurityPolicy6PolicyENS_11TObjectTypeERK7TDesC16NS_11TPolicyTypeE @ 60 NONAME
	_ZNK18RSqlSecurityPolicy8DbPolicyENS_11TPolicyTypeE @ 61 NONAME
	_Z15SqlRetCodeClassi @ 62 NONAME
	_ZN12RSqlDatabase6AttachERK7TDesC16S2_ @ 63 NONAME
	_ZN12RSqlDatabase6DetachERK7TDesC16 @ 64 NONAME
	_ZN12RSqlDatabase4CopyERK7TDesC16S2_ @ 65 NONAME
	_ZN12RSqlDatabase6CreateERK7TDesC16RK18RSqlSecurityPolicyPK6TDesC8 @ 66 NONAME
	_ZN12RSqlDatabase7CreateLERK7TDesC16PK6TDesC8 @ 67 NONAME
	_ZN12RSqlDatabase7CreateLERK7TDesC16RK18RSqlSecurityPolicyPK6TDesC8 @ 68 NONAME
	_ZN13RSqlStatement8PrepareLER12RSqlDatabaseRK6TDesC8 @ 69 NONAME
	_ZN13RSqlStatement8PrepareLER12RSqlDatabaseRK7TDesC16 @ 70 NONAME
	_ZN18RSqlSecurityPolicy7CreateLERK15TSecurityPolicy @ 71 NONAME
	_ZN20RSqlColumnReadStream11ColumnTextLER13RSqlStatementi @ 72 NONAME
	_ZN20RSqlColumnReadStream13ColumnBinaryLER13RSqlStatementi @ 73 NONAME
	_ZN20RSqlParamWriteStream11BindBinaryLER13RSqlStatementi @ 74 NONAME
	_ZN20RSqlParamWriteStream9BindTextLER13RSqlStatementi @ 75 NONAME
	_ZNK12RSqlDatabase18GetSecurityPolicyLER18RSqlSecurityPolicy @ 76 NONAME
	_ZN12RSqlDatabase16GetReserveAccessEv @ 77 NONAME
	_ZN12RSqlDatabase17FreeReservedSpaceEv @ 78 NONAME
	_ZN12RSqlDatabase17ReserveDriveSpaceEi @ 79 NONAME
	_ZN12RSqlDatabase20ReleaseReserveAccessEv @ 80 NONAME
	_ZN12RSqlDatabase4ExecERK6TDesC8R14TRequestStatus @ 81 NONAME
	_ZN12RSqlDatabase4ExecERK7TDesC16R14TRequestStatus @ 82 NONAME
	_ZN13RSqlStatement4ExecER14TRequestStatus @ 83 NONAME
	_ZN25TSqlScalarFullSelectQuery10SelectIntLERK6TDesC8 @ 84 NONAME
	_ZN25TSqlScalarFullSelectQuery10SelectIntLERK7TDesC16 @ 85 NONAME
	_ZN25TSqlScalarFullSelectQuery11SelectRealLERK6TDesC8 @ 86 NONAME
	_ZN25TSqlScalarFullSelectQuery11SelectRealLERK7TDesC16 @ 87 NONAME
	_ZN25TSqlScalarFullSelectQuery11SelectTextLERK6TDesC8R6TDes16 @ 88 NONAME
	_ZN25TSqlScalarFullSelectQuery11SelectTextLERK7TDesC16R6TDes16 @ 89 NONAME
	_ZN25TSqlScalarFullSelectQuery11SetDatabaseER12RSqlDatabase @ 90 NONAME
	_ZN25TSqlScalarFullSelectQuery12SelectInt64LERK6TDesC8 @ 91 NONAME
	_ZN25TSqlScalarFullSelectQuery12SelectInt64LERK7TDesC16 @ 92 NONAME
	_ZN25TSqlScalarFullSelectQuery13SelectBinaryLERK6TDesC8R5TDes8 @ 93 NONAME
	_ZN25TSqlScalarFullSelectQuery13SelectBinaryLERK7TDesC16R5TDes8 @ 94 NONAME
	_ZN25TSqlScalarFullSelectQueryC1ER12RSqlDatabase @ 95 NONAME
	_ZN25TSqlScalarFullSelectQueryC1Ev @ 96 NONAME
	_ZN25TSqlScalarFullSelectQueryC2ER12RSqlDatabase @ 97 NONAME
	_ZN25TSqlScalarFullSelectQueryC2Ev @ 98 NONAME
	_ZNK12RSqlDatabase13InTransactionEv @ 99 NONAME
	_ZNK12RSqlDatabase4SizeEv @ 100 NONAME
	_ZN14TSqlRowSetUtil11EvaluateAllER13RSqlStatementR6RArrayIxE @ 101 NONAME ABSENT
	_ZN14TSqlRowSetUtil12ColumnNamesLER13RSqlStatement @ 102 NONAME ABSENT
	_ZN14TSqlRowSetUtil13ColumnSourceLERK13RSqlStatementi @ 103 NONAME ABSENT
	_ZN14TSqlRowSetUtil13ColumnValuesLER13RSqlStatementx @ 104 NONAME ABSENT
	_ZN14TSqlRowSetUtil14GetColumnValueER13RSqlStatementiR5TDes8 @ 105 NONAME ABSENT
	_ZN14TSqlRowSetUtil19GetDeclColumnTypesLER13RSqlStatement @ 106 NONAME ABSENT
	_ZN14TSqlRowSetUtil4ExecER12RSqlDatabaseRK7TDesC16Rx @ 107 NONAME ABSENT
	_ZN14TSqlRowSetUtil6InsertER13RSqlStatementRx @ 108 NONAME ABSENT
	_ZN14TSqlRowSetUtil6OpenDbER12RSqlDatabaseRK7TDesC16PK6TDesC8 @ 109 NONAME ABSENT
	_ZN14TSqlRowSetUtil6UpdateER13RSqlStatement @ 110 NONAME ABSENT
	_ZN14TSqlRowSetUtil8CreateDbER12RSqlDatabaseRK7TDesC16PK6TDesC8 @ 111 NONAME ABSENT
	_ZN14TSqlRowSetUtil9BindText8ER13RSqlStatementiRK6TDesC8 @ 112 NONAME ABSENT
	_ZN14TSqlRowSetUtil12ColumnValuesER13RSqlStatement @ 113 NONAME ABSENT
	_ZNK13RSqlStatement11ColumnCountEv @ 114 NONAME
	_ZNK13RSqlStatement18DeclaredColumnTypeEiR14TSqlColumnType @ 115 NONAME
	_ZN13RSqlStatement10ColumnNameEiR7TPtrC16 @ 116 NONAME
	_ZN13RSqlStatement13ParameterNameEiR7TPtrC16 @ 117 NONAME
	_ZN12RSqlDatabase7CompactExR14TRequestStatusRK7TDesC16 @ 118 NONAME
	_ZN12RSqlDatabase7CompactExRK7TDesC16 @ 119 NONAME
	_ZN13RSqlStatement12BindZeroBlobEii @ 120 NONAME
	_ZN18RSqlBlobReadStream5OpenLER12RSqlDatabaseRK7TDesC16S4_xS4_ @ 121 NONAME
	_ZN18RSqlBlobReadStream5SizeLEv @ 122 NONAME
	_ZN19RSqlBlobWriteStream5OpenLER12RSqlDatabaseRK7TDesC16S4_xS4_ @ 123 NONAME
	_ZN19RSqlBlobWriteStream5SizeLEv @ 124 NONAME
	_ZN20TSqlResourceProfiler4StopENS_11TSqlCounterE @ 125 NONAME
	_ZN20TSqlResourceProfiler5QueryENS_11TSqlCounterER5TDes8 @ 126 NONAME
	_ZN20TSqlResourceProfiler5ResetENS_11TSqlCounterE @ 127 NONAME
	_ZN20TSqlResourceProfiler5StartENS_11TSqlCounterEPK6TDesC8 @ 128 NONAME
	_ZN20TSqlResourceProfilerC1ER12RSqlDatabase @ 129 NONAME
	_ZN20TSqlResourceProfilerC2ER12RSqlDatabase @ 130 NONAME
	_ZN8TSqlBlob3GetER12RSqlDatabaseRK7TDesC16S4_R5TDes8xS4_ @ 131 NONAME
	_ZN8TSqlBlob4SetLER12RSqlDatabaseRK7TDesC16S4_RK6TDesC8xS4_ @ 132 NONAME
	_ZN8TSqlBlob5GetLCER12RSqlDatabaseRK7TDesC16S4_xS4_ @ 133 NONAME
	_ZNK12RSqlDatabase17LastInsertedRowIdEv @ 134 NONAME
	_ZNK12RSqlDatabase4SizeERNS_5TSizeERK7TDesC16 @ 135 NONAME
	_ZN13RSqlStatement9ParamNameEiR7TPtrC16 @ 136 NONAME

