EXPORTS
	?DataSizeL@CData@ContentAccess@@QAEXAAH@Z @ 1 NONAME ; public: void __thiscall ContentAccess::CData::DataSizeL(int &)
	?EvaluateIntent@CData@ContentAccess@@QAEHW4TIntent@2@@Z @ 2 NONAME ; public: int __thiscall ContentAccess::CData::EvaluateIntent(enum ContentAccess::TIntent)
	?ExecuteIntent@CData@ContentAccess@@QAEHW4TIntent@2@@Z @ 3 NONAME ; public: int __thiscall ContentAccess::CData::ExecuteIntent(enum ContentAccess::TIntent)
	?GetL@CAttribute@ContentAccess@@QAEXXZ @ 4 NONAME ; public: void __thiscall ContentAccess::CAttribute::GetL(void)
	?NewAttributeL@CContent@ContentAccess@@QAEPAVCAttribute@2@H@Z @ 5 NONAME ; public: class ContentAccess::CAttribute * __thiscall ContentAccess::CContent::NewAttributeL(int)
	?NewL@CContent@ContentAccess@@SAPAV12@ABVTDesC16@@@Z @ 6 NONAME ; public: static class ContentAccess::CContent * __cdecl ContentAccess::CContent::NewL(class TDesC16 const &)
	?NewLC@CContent@ContentAccess@@SAPAV12@ABVTDesC16@@@Z @ 7 NONAME ; public: static class ContentAccess::CContent * __cdecl ContentAccess::CContent::NewLC(class TDesC16 const &)
	?OpenContentL@CContent@ContentAccess@@QAEPAVCData@2@W4TIntent@2@@Z @ 8 NONAME ; public: class ContentAccess::CData * __thiscall ContentAccess::CContent::OpenContentL(enum ContentAccess::TIntent)
	?QuerySet@CAttribute@ContentAccess@@QAEAAVCBitset@2@XZ @ 9 NONAME ; public: class ContentAccess::CBitset & __thiscall ContentAccess::CAttribute::QuerySet(void)
	?Read@CData@ContentAccess@@QBEHAAVTDes8@@@Z @ 10 NONAME ; public: int __thiscall ContentAccess::CData::Read(class TDes8 &)const 
	?Read@CData@ContentAccess@@QBEHAAVTDes8@@H@Z @ 11 NONAME ; public: int __thiscall ContentAccess::CData::Read(class TDes8 &,int)const 
	?Read@CData@ContentAccess@@QBEXAAVTDes8@@AAVTRequestStatus@@@Z @ 12 NONAME ; public: void __thiscall ContentAccess::CData::Read(class TDes8 &,class TRequestStatus &)const 
	?Read@CData@ContentAccess@@QBEXAAVTDes8@@HAAVTRequestStatus@@@Z @ 13 NONAME ; public: void __thiscall ContentAccess::CData::Read(class TDes8 &,int,class TRequestStatus &)const 
	?Reset@CAttribute@ContentAccess@@QAEXXZ @ 14 NONAME ; public: void __thiscall ContentAccess::CAttribute::Reset(void)
	?ResponseSet@CAttribute@ContentAccess@@QBEABVCBitset@2@XZ @ 15 NONAME ; public: class ContentAccess::CBitset const & __thiscall ContentAccess::CAttribute::ResponseSet(void)const 
	?Seek@CData@ContentAccess@@QBEHW4TSeek@@AAH@Z @ 16 NONAME ; public: int __thiscall ContentAccess::CData::Seek(enum TSeek,int &)const 
	?SetQosL@CData@ContentAccess@@QAEXW4TQosAttribute@2@H@Z @ 17 NONAME ; public: void __thiscall ContentAccess::CData::SetQosL(enum ContentAccess::TQosAttribute,int)
	?GetMimeTypeL@CData@ContentAccess@@QBEHAAVTDes8@@@Z @ 18 NONAME ; public: int __thiscall ContentAccess::CData::GetMimeTypeL(class TDes8 &)const 
	?AttributesL@CSupplierOutputFile@ContentAccess@@QAEAAVCAttribute@2@H@Z @ 19 NONAME ; public: class ContentAccess::CAttribute & __thiscall ContentAccess::CSupplierOutputFile::AttributesL(int)
	?ConsumerMimeTypes@CAgentResolver@ContentAccess@@QBEABV?$RArray@VTPtrC8@@@@XZ @ 20 NONAME ; public: class RArray<class TPtrC8> const & __thiscall ContentAccess::CAgentResolver::ConsumerMimeTypes(void)const 
	?DeleteFileL@CManager@ContentAccess@@SAXABVTDesC16@@@Z @ 21 NONAME ; public: static void __cdecl ContentAccess::CManager::DeleteFileL(class TDesC16 const &)
	?DoRecognizeL@CAgentResolver@ContentAccess@@QAEHABVTDesC16@@ABVTDesC8@@AAVTDes8@@2@Z @ 22 NONAME ; public: int __thiscall ContentAccess::CAgentResolver::DoRecognize(class TDesC16 const &,class TDesC8 const &,class TDes8 &,class TDes8 &)
	?FileName@CSupplierOutputFile@ContentAccess@@QBE?AVTPtrC16@@XZ @ 23 NONAME ; public: class TPtrC16  __thiscall ContentAccess::CSupplierOutputFile::FileName(void)const 
	?ImportFileL@CSupplier@ContentAccess@@QAEPAVCImportFile@2@AAVCCafMimeHeader@2@ABVTDesC16@@@Z @ 24 NONAME ; public: class ContentAccess::CImportFile * __thiscall ContentAccess::CSupplier::ImportFileL(class ContentAccess::CCafMimeHeader &,class TDesC16 const &)
	?IsImportSupported@CSupplier@ContentAccess@@QAEHABVTDesC8@@@Z @ 25 NONAME ; public: int __thiscall ContentAccess::CSupplier::IsImportSupported(class TDesC8 const &)
	?MimeTypeL@CSupplierOutputFile@ContentAccess@@QAE?AVTPtrC8@@XZ @ 26 NONAME ; public: class TPtrC8  __thiscall ContentAccess::CSupplierOutputFile::MimeTypeL(void)
	?NewL@CAgentResolver@ContentAccess@@SAPAV12@H@Z @ 27 NONAME ; public: static class ContentAccess::CAgentResolver * __cdecl ContentAccess::CAgentResolver::NewL(int)
	?NewL@CSupplier@ContentAccess@@SAPAV12@XZ @ 28 NONAME ; public: static class ContentAccess::CSupplier * __cdecl ContentAccess::CSupplier::NewL(void)
	?NewL@CSupplierOutputFile@ContentAccess@@SAPAV12@ABVTDesC16@@W4TOutputType@2@@Z @ 29 NONAME ; public: static class ContentAccess::CSupplierOutputFile * __cdecl ContentAccess::CSupplierOutputFile::NewL(class TDesC16 const &,enum ContentAccess::TOutputType)
	?NewLC@CAgentResolver@ContentAccess@@SAPAV12@H@Z @ 30 NONAME ; public: static class ContentAccess::CAgentResolver * __cdecl ContentAccess::CAgentResolver::NewLC(int)
	?NewLC@CSupplier@ContentAccess@@SAPAV12@XZ @ 31 NONAME ; public: static class ContentAccess::CSupplier * __cdecl ContentAccess::CSupplier::NewLC(void)
	?OutputFileCountL@CImportFile@ContentAccess@@QBEHXZ @ 32 NONAME ; public: int __thiscall ContentAccess::CImportFile::OutputFileCountL(void)const 
	?OutputFileL@CImportFile@ContentAccess@@QBEAAVCSupplierOutputFile@2@H@Z @ 33 NONAME ; public: class ContentAccess::CSupplierOutputFile & __thiscall ContentAccess::CImportFile::OutputFileL(int)const 
	?OutputType@CSupplierOutputFile@ContentAccess@@QBE?AW4TOutputType@2@XZ @ 34 NONAME ; public: enum ContentAccess::TOutputType  __thiscall ContentAccess::CSupplierOutputFile::OutputType(void)const 
	?PreferredBufferSize@CAgentResolver@ContentAccess@@QAEHXZ @ 35 NONAME ; public: int __thiscall ContentAccess::CAgentResolver::PreferredBufferSize(void)
	?SetOutputDirectoryL@CSupplier@ContentAccess@@QAEXABVTDesC16@@@Z @ 36 NONAME ; public: void __thiscall ContentAccess::CSupplier::SetOutputDirectoryL(class TDesC16 const &)
	?SupplierMimeTypes@CAgentResolver@ContentAccess@@QBEABV?$RArray@VTPtrC8@@@@XZ @ 37 NONAME ; public: class RArray<class TPtrC8> const & __thiscall ContentAccess::CAgentResolver::SupplierMimeTypes(void)const 
	?WriteData@CImportFile@ContentAccess@@QAEHABVTDesC8@@@Z @ 38 NONAME ; public: int __thiscall ContentAccess::CImportFile::WriteData(class TDesC8 const &)
	?WriteData@CImportFile@ContentAccess@@QAEXABVTDesC8@@AAVTRequestStatus@@@Z @ 39 NONAME ; public: void __thiscall ContentAccess::CImportFile::WriteData(class TDesC8 const &,class TRequestStatus &)
	?WriteDataComplete@CImportFile@ContentAccess@@QAEHXZ @ 40 NONAME ; public: int __thiscall ContentAccess::CImportFile::WriteDataComplete(void)
	?WriteDataComplete@CImportFile@ContentAccess@@QAEXAAVTRequestStatus@@@Z @ 41 NONAME ; public: void __thiscall ContentAccess::CImportFile::WriteDataComplete(class TRequestStatus &)
	?NewAttributeL@CContent@ContentAccess@@QAEPAVCAttribute@2@HW4TContentShareMode@2@@Z @ 42 NONAME ; public: class ContentAccess::CAttribute * __thiscall ContentAccess::CContent::NewAttributeL(int,enum ContentAccess::TContentShareMode)
	?OpenContentL@CContent@ContentAccess@@QAEPAVCData@2@W4TIntent@2@W4TContentShareMode@2@@Z @ 43 NONAME ; public: class ContentAccess::CData * __thiscall ContentAccess::CContent::OpenContentL(enum ContentAccess::TIntent,enum ContentAccess::TContentShareMode)
	?NewL@CContent@ContentAccess@@SAPAV12@AAVRFile@@@Z @ 44 NONAME ; class ContentAccess::CContent * ContentAccess::CContent::NewL(class RFile &)
	?NewLC@CContent@ContentAccess@@SAPAV12@AAVRFile@@@Z @ 45 NONAME ; class ContentAccess::CContent * ContentAccess::CContent::NewLC(class RFile &)
	??1CAgentFactory@ContentAccess@@UAE@XZ @ 46 NONAME ; ContentAccess::CAgentFactory::~CAgentFactory(void)
	?Agent@CContent@ContentAccess@@QBEABVTAgent@2@XZ @ 47 NONAME ; class ContentAccess::TAgent const & ContentAccess::CContent::Agent(void) const
	?AgentSpecificCommand@CContent@ContentAccess@@QAEHHABVTDesC8@@AAVTDes8@@@Z @ 48 NONAME ; int ContentAccess::CContent::AgentSpecificCommand(int, class TDesC8 const &, class TDes8 &)
	?AgentSpecificCommand@CContent@ContentAccess@@QAEXHABVTDesC8@@AAVTDes8@@AAVTRequestStatus@@@Z @ 49 NONAME ; void ContentAccess::CContent::AgentSpecificCommand(int, class TDesC8 const &, class TDes8 &, class TRequestStatus &)
	?AgentSpecificCommand@CManager@ContentAccess@@QAEHAAVTAgent@2@HABVTDesC8@@AAVTDes8@@@Z @ 50 NONAME ; int ContentAccess::CManager::AgentSpecificCommand(class ContentAccess::TAgent &, int, class TDesC8 const &, class TDes8 &)
	?AgentSpecificCommand@CManager@ContentAccess@@QAEXAAVTAgent@2@HABVTDesC8@@AAVTDes8@@AAVTRequestStatus@@@Z @ 51 NONAME ; void ContentAccess::CManager::AgentSpecificCommand(class ContentAccess::TAgent &, int, class TDesC8 const &, class TDes8 &, class TRequestStatus &)
	?CancelNotifyStatusChange@CContent@ContentAccess@@QAEHAAVTRequestStatus@@@Z @ 52 NONAME ; int ContentAccess::CContent::CancelNotifyStatusChange(class TRequestStatus &)
	?CancelNotifyStatusChange@CContent@ContentAccess@@QAEHAAVTRequestStatus@@ABVTDesC16@@@Z @ 53 NONAME ; int ContentAccess::CContent::CancelNotifyStatusChange(class TRequestStatus &, class TDesC16 const &)
	?CancelNotifyStatusChange@CManager@ContentAccess@@QAEHABVTDesC16@@AAVTRequestStatus@@@Z @ 54 NONAME ; int ContentAccess::CManager::CancelNotifyStatusChange(class TDesC16 const &, class TRequestStatus &)
	?CancelRequestRights@CContent@ContentAccess@@QAEHAAVTRequestStatus@@@Z @ 55 NONAME ; int ContentAccess::CContent::CancelRequestRights(class TRequestStatus &)
	?CancelRequestRights@CContent@ContentAccess@@QAEHAAVTRequestStatus@@ABVTDesC16@@@Z @ 56 NONAME ; int ContentAccess::CContent::CancelRequestRights(class TRequestStatus &, class TDesC16 const &)
	?CloseContainer@CContent@ContentAccess@@QAEHXZ @ 57 NONAME ; int ContentAccess::CContent::CloseContainer(void)
	?ContinueWithNewOutputFile@CImportFile@ContentAccess@@QAEHAAVRFile@@ABVTDesC16@@@Z @ 58 NONAME ; int ContentAccess::CImportFile::ContinueWithNewOutputFile(class RFile &, class TDesC16 const &)
	?ContinueWithNewOutputFile@CImportFile@ContentAccess@@QAEXAAVRFile@@ABVTDesC16@@AAVTRequestStatus@@@Z @ 59 NONAME ; void ContentAccess::CImportFile::ContinueWithNewOutputFile(class RFile &, class TDesC16 const &, class TRequestStatus &)
	?CopyFile@CManager@ContentAccess@@QBEHABVTDesC16@@0@Z @ 60 NONAME ; int ContentAccess::CManager::CopyFile(class TDesC16 const &, class TDesC16 const &) const
	?CreateRightsManagerL@CManager@ContentAccess@@QBEPAVCRightsManager@2@AAVTAgent@2@@Z @ 61 NONAME ; class ContentAccess::CRightsManager * ContentAccess::CManager::CreateRightsManagerL(class ContentAccess::TAgent &) const
	?DeleteAllRightsObjects@CRightsManager@ContentAccess@@QAEHABVTVirtualPathPtr@2@@Z @ 62 NONAME ; int ContentAccess::CRightsManager::DeleteAllRightsObjects(class ContentAccess::TVirtualPathPtr const &)
	?DeleteFile@CManager@ContentAccess@@QBEHABVTDesC16@@@Z @ 63 NONAME ; int ContentAccess::CManager::DeleteFile(class TDesC16 const &) const
	?DeleteRightsObject@CRightsManager@ContentAccess@@QAEHABVCRightsInfo@2@@Z @ 64 NONAME ; int ContentAccess::CRightsManager::DeleteRightsObject(class ContentAccess::CRightsInfo const &)
	?DisplayInfoL@CContent@ContentAccess@@QBEXW4TDisplayInfo@2@@Z @ 65 NONAME ; void ContentAccess::CContent::DisplayInfoL(enum ContentAccess::TDisplayInfo) const
	?DisplayInfoL@CContent@ContentAccess@@QBEXW4TDisplayInfo@2@ABVTDesC16@@@Z @ 66 NONAME ; void ContentAccess::CContent::DisplayInfoL(enum ContentAccess::TDisplayInfo, class TDesC16 const &) const
	?DisplayInfoL@CManager@ContentAccess@@QAEXW4TDisplayInfo@2@ABVTVirtualPathPtr@2@@Z @ 67 NONAME ; void ContentAccess::CManager::DisplayInfoL(enum ContentAccess::TDisplayInfo, class ContentAccess::TVirtualPathPtr const &)
	?DisplayManagementInfoL@CManager@ContentAccess@@QAEXAAVTAgent@2@@Z @ 68 NONAME ; void ContentAccess::CManager::DisplayManagementInfoL(class ContentAccess::TAgent &)
	?ExternalizeL@CSupplierOutputFile@ContentAccess@@QBEXAAVRWriteStream@@@Z @ 69 NONAME ; void ContentAccess::CSupplierOutputFile::ExternalizeL(class RWriteStream &) const
	?GetAttribute@CContent@ContentAccess@@QBEHHAAH@Z @ 70 NONAME ; int ContentAccess::CContent::GetAttribute(int, int &) const
	?GetAttribute@CContent@ContentAccess@@QBEHHAAHABVTDesC16@@@Z @ 71 NONAME ; int ContentAccess::CContent::GetAttribute(int, int &, class TDesC16 const &) const
	?GetAttribute@CData@ContentAccess@@QBEHHAAH@Z @ 72 NONAME ; int ContentAccess::CData::GetAttribute(int, int &) const
	?GetAttribute@CManager@ContentAccess@@QBEHHAAHABVTVirtualPathPtr@2@@Z @ 73 NONAME ; int ContentAccess::CManager::GetAttribute(int, int &, class ContentAccess::TVirtualPathPtr const &) const
	?GetAttributeSet@CContent@ContentAccess@@QBEHAAVRAttributeSet@2@@Z @ 74 NONAME ; int ContentAccess::CContent::GetAttributeSet(class ContentAccess::RAttributeSet &) const
	?GetAttributeSet@CContent@ContentAccess@@QBEHAAVRAttributeSet@2@ABVTDesC16@@@Z @ 75 NONAME ; int ContentAccess::CContent::GetAttributeSet(class ContentAccess::RAttributeSet &, class TDesC16 const &) const
	?GetAttributeSet@CData@ContentAccess@@QBEHAAVRAttributeSet@2@@Z @ 76 NONAME ; int ContentAccess::CData::GetAttributeSet(class ContentAccess::RAttributeSet &) const
	?GetAttributeSet@CManager@ContentAccess@@QBEHAAVRAttributeSet@2@ABVTVirtualPathPtr@2@@Z @ 77 NONAME ; int ContentAccess::CManager::GetAttributeSet(class ContentAccess::RAttributeSet &, class ContentAccess::TVirtualPathPtr const &) const
	?GetDir@CManager@ContentAccess@@QBEHABVTDesC16@@ABVTUidType@@IAAPAVCDir@@@Z @ 78 NONAME ; int ContentAccess::CManager::GetDir(class TDesC16 const &, class TUidType const &, unsigned int, class CDir * &) const
	?GetDir@CManager@ContentAccess@@QBEHABVTDesC16@@IIAAPAVCDir@@1@Z @ 79 NONAME ; int ContentAccess::CManager::GetDir(class TDesC16 const &, unsigned int, unsigned int, class CDir * &, class CDir * &) const
	?GetDir@CManager@ContentAccess@@QBEHABVTDesC16@@IIAAPAVCDir@@@Z @ 80 NONAME ; int ContentAccess::CManager::GetDir(class TDesC16 const &, unsigned int, unsigned int, class CDir * &) const
	?GetEmbeddedObjectsL@CContent@ContentAccess@@QBEXAAV?$RStreamablePtrArray@VCEmbeddedObject@ContentAccess@@@2@@Z @ 81 NONAME ; void ContentAccess::CContent::GetEmbeddedObjectsL(class ContentAccess::RStreamablePtrArray<class ContentAccess::CEmbeddedObject> &) const
	?GetEmbeddedObjectsL@CContent@ContentAccess@@QBEXAAV?$RStreamablePtrArray@VCEmbeddedObject@ContentAccess@@@2@W4TEmbeddedType@2@@Z @ 82 NONAME ; void ContentAccess::CContent::GetEmbeddedObjectsL(class ContentAccess::RStreamablePtrArray<class ContentAccess::CEmbeddedObject> &, enum ContentAccess::TEmbeddedType) const
	?GetImportStatus@CImportFile@ContentAccess@@QBE?AW4TImportStatus@2@XZ @ 83 NONAME ; enum ContentAccess::TImportStatus ContentAccess::CImportFile::GetImportStatus(void) const
	?GetRightsDataL@CRightsManager@ContentAccess@@QBEPAVMAgentRightsBase@2@ABVCRightsInfo@2@@Z @ 84 NONAME ; class ContentAccess::MAgentRightsBase * ContentAccess::CRightsManager::GetRightsDataL(class ContentAccess::CRightsInfo const &) const
	?GetStringAttribute@CContent@ContentAccess@@QBEHHAAVTDes16@@@Z @ 85 NONAME ; int ContentAccess::CContent::GetStringAttribute(int, class TDes16 &) const
	?GetStringAttribute@CContent@ContentAccess@@QBEHHAAVTDes16@@ABVTDesC16@@@Z @ 86 NONAME ; int ContentAccess::CContent::GetStringAttribute(int, class TDes16 &, class TDesC16 const &) const
	?GetStringAttribute@CData@ContentAccess@@QBEHHAAVTDes16@@@Z @ 87 NONAME ; int ContentAccess::CData::GetStringAttribute(int, class TDes16 &) const
	?GetStringAttribute@CManager@ContentAccess@@QBEHHAAVTDes16@@ABVTVirtualPathPtr@2@@Z @ 88 NONAME ; int ContentAccess::CManager::GetStringAttribute(int, class TDes16 &, class ContentAccess::TVirtualPathPtr const &) const
	?GetStringAttributeSet@CContent@ContentAccess@@QBEHAAVRStringAttributeSet@2@@Z @ 89 NONAME ; int ContentAccess::CContent::GetStringAttributeSet(class ContentAccess::RStringAttributeSet &) const
	?GetStringAttributeSet@CContent@ContentAccess@@QBEHAAVRStringAttributeSet@2@ABVTDesC16@@@Z @ 90 NONAME ; int ContentAccess::CContent::GetStringAttributeSet(class ContentAccess::RStringAttributeSet &, class TDesC16 const &) const
	?GetStringAttributeSet@CData@ContentAccess@@QBEHAAVRStringAttributeSet@2@@Z @ 91 NONAME ; int ContentAccess::CData::GetStringAttributeSet(class ContentAccess::RStringAttributeSet &) const
	?GetStringAttributeSet@CManager@ContentAccess@@QBEHAAVRStringAttributeSet@2@ABVTVirtualPathPtr@2@@Z @ 92 NONAME ; int ContentAccess::CManager::GetStringAttributeSet(class ContentAccess::RStringAttributeSet &, class ContentAccess::TVirtualPathPtr const &) const
	?GetSuggestedOutputFileExtension@CImportFile@ContentAccess@@QAEHAAVTDes16@@@Z @ 93 NONAME ; int ContentAccess::CImportFile::GetSuggestedOutputFileExtension(class TDes16 &)
	?GetSuggestedOutputFileName@CImportFile@ContentAccess@@QAEHAAVTDes16@@@Z @ 94 NONAME ; int ContentAccess::CImportFile::GetSuggestedOutputFileName(class TDes16 &)
	?ImportFileL@CSupplier@ContentAccess@@QAEPAVCImportFile@2@ABVTDesC8@@ABVCMetaDataArray@2@@Z @ 95 NONAME ; class ContentAccess::CImportFile * ContentAccess::CSupplier::ImportFileL(class TDesC8 const &, class ContentAccess::CMetaDataArray const &)
	?ImportFileL@CSupplier@ContentAccess@@QAEPAVCImportFile@2@ABVTDesC8@@ABVCMetaDataArray@2@ABVTDesC16@@@Z @ 96 NONAME ; class ContentAccess::CImportFile * ContentAccess::CSupplier::ImportFileL(class TDesC8 const &, class ContentAccess::CMetaDataArray const &, class TDesC16 const &)
	?ListAgentsL@CManager@ContentAccess@@QAEXAAV?$RArray@VTAgent@ContentAccess@@@@@Z @ 97 NONAME ; void ContentAccess::CManager::ListAgentsL(class RArray<class ContentAccess::TAgent> &)
	?ListAllRightsL@CRightsManager@ContentAccess@@QBEXAAV?$RStreamablePtrArray@VCRightsInfo@ContentAccess@@@2@@Z @ 98 NONAME ; void ContentAccess::CRightsManager::ListAllRightsL(class ContentAccess::RStreamablePtrArray<class ContentAccess::CRightsInfo> &) const
	?ListContentL@CRightsManager@ContentAccess@@QBEXAAV?$RStreamablePtrArray@VCVirtualPath@ContentAccess@@@2@AAVCRightsInfo@2@@Z @ 99 NONAME ; void ContentAccess::CRightsManager::ListContentL(class ContentAccess::RStreamablePtrArray<class ContentAccess::CVirtualPath> &, class ContentAccess::CRightsInfo &) const
	?ListRightsL@CRightsManager@ContentAccess@@QBEXAAV?$RStreamablePtrArray@VCRightsInfo@ContentAccess@@@2@AAVTVirtualPathPtr@2@@Z @ 100 NONAME ; void ContentAccess::CRightsManager::ListRightsL(class ContentAccess::RStreamablePtrArray<class ContentAccess::CRightsInfo> &, class ContentAccess::TVirtualPathPtr &) const
	?ListRightsL@CRightsManager@ContentAccess@@QBEXAAV?$RStreamablePtrArray@VCRightsInfo@ContentAccess@@@2@ABVTDesC16@@@Z @ 101 NONAME ; void ContentAccess::CRightsManager::ListRightsL(class ContentAccess::RStreamablePtrArray<class ContentAccess::CRightsInfo> &, class TDesC16 const &) const
	?MkDir@CManager@ContentAccess@@QBEHABVTDesC16@@@Z @ 102 NONAME ; int ContentAccess::CManager::MkDir(class TDesC16 const &) const
	?MkDirAll@CManager@ContentAccess@@QBEHABVTDesC16@@@Z @ 103 NONAME ; int ContentAccess::CManager::MkDirAll(class TDesC16 const &) const
	?Name@TAgent@ContentAccess@@QBEABVTDesC16@@XZ @ 104 NONAME ; class TDesC16 const & ContentAccess::TAgent::Name(void) const
	?NewL@CContent@ContentAccess@@SAPAV12@ABVTDesC16@@W4TContentShareMode@2@@Z @ 105 NONAME ; class ContentAccess::CContent * ContentAccess::CContent::NewL(class TDesC16 const &, enum ContentAccess::TContentShareMode)
	?NewL@CManager@ContentAccess@@SAPAV12@XZ @ 106 NONAME ; class ContentAccess::CManager * ContentAccess::CManager::NewL(void)
	?NewL@CSupplierOutputFile@ContentAccess@@SAPAV12@AAVRReadStream@@@Z @ 107 NONAME ; class ContentAccess::CSupplierOutputFile * ContentAccess::CSupplierOutputFile::NewL(class RReadStream &)
	?NewL@CSupplierOutputFile@ContentAccess@@SAPAV12@ABVTDesC16@@W4TOutputType@2@ABVTDesC8@@@Z @ 108 NONAME ; class ContentAccess::CSupplierOutputFile * ContentAccess::CSupplierOutputFile::NewL(class TDesC16 const &, enum ContentAccess::TOutputType, class TDesC8 const &)
	?NewLC@CContent@ContentAccess@@SAPAV12@ABVTDesC16@@W4TContentShareMode@2@@Z @ 109 NONAME ; class ContentAccess::CContent * ContentAccess::CContent::NewLC(class TDesC16 const &, enum ContentAccess::TContentShareMode)
	?NewLC@CManager@ContentAccess@@SAPAV12@XZ @ 110 NONAME ; class ContentAccess::CManager * ContentAccess::CManager::NewLC(void)
	?NotifyStatusChange@CContent@ContentAccess@@QAEXW4TEventMask@2@AAVTRequestStatus@@@Z @ 111 NONAME ; void ContentAccess::CContent::NotifyStatusChange(enum ContentAccess::TEventMask, class TRequestStatus &)
	?NotifyStatusChange@CContent@ContentAccess@@QAEXW4TEventMask@2@AAVTRequestStatus@@ABVTDesC16@@@Z @ 112 NONAME ; void ContentAccess::CContent::NotifyStatusChange(enum ContentAccess::TEventMask, class TRequestStatus &, class TDesC16 const &)
	?NotifyStatusChange@CManager@ContentAccess@@QAEXABVTDesC16@@W4TEventMask@2@AAVTRequestStatus@@@Z @ 113 NONAME ; void ContentAccess::CManager::NotifyStatusChange(class TDesC16 const &, enum ContentAccess::TEventMask, class TRequestStatus &)
	?OpenContainer@CContent@ContentAccess@@QAEHABVTDesC16@@@Z @ 114 NONAME ; int ContentAccess::CContent::OpenContainer(class TDesC16 const &)
	?OpenContentL@CContent@ContentAccess@@QAEPAVCData@2@W4TIntent@2@ABVTDesC16@@@Z @ 115 NONAME ; class ContentAccess::CData * ContentAccess::CContent::OpenContentL(enum ContentAccess::TIntent, class TDesC16 const &)
	?RenameFile@CManager@ContentAccess@@QBEHABVTDesC16@@0@Z @ 116 NONAME ; int ContentAccess::CManager::RenameFile(class TDesC16 const &, class TDesC16 const &) const
	?RequestRights@CContent@ContentAccess@@QAEXAAVTRequestStatus@@@Z @ 117 NONAME ; void ContentAccess::CContent::RequestRights(class TRequestStatus &)
	?RequestRights@CContent@ContentAccess@@QAEXAAVTRequestStatus@@ABVTDesC16@@@Z @ 118 NONAME ; void ContentAccess::CContent::RequestRights(class TRequestStatus &, class TDesC16 const &)
	?RmDir@CManager@ContentAccess@@QBEHABVTDesC16@@@Z @ 119 NONAME ; int ContentAccess::CManager::RmDir(class TDesC16 const &) const
	?Search@CContent@ContentAccess@@QAEHAAV?$RStreamablePtrArray@VCEmbeddedObject@ContentAccess@@@2@ABVTDesC8@@H@Z @ 120 NONAME ; int ContentAccess::CContent::Search(class ContentAccess::RStreamablePtrArray<class ContentAccess::CEmbeddedObject> &, class TDesC8 const &, int)
	?SetProperty@CContent@ContentAccess@@QAEHW4TAgentProperty@2@H@Z @ 121 NONAME ; int ContentAccess::CContent::SetProperty(enum ContentAccess::TAgentProperty, int)
	?SetProperty@CData@ContentAccess@@QAEHW4TAgentProperty@2@H@Z @ 122 NONAME ; int ContentAccess::CData::SetProperty(enum ContentAccess::TAgentProperty, int)
	?SetProperty@CManager@ContentAccess@@QAEHW4TAgentProperty@2@H@Z @ 123 NONAME ; int ContentAccess::CManager::SetProperty(enum ContentAccess::TAgentProperty, int)
	?SetProperty@CRightsManager@ContentAccess@@QAEHW4TAgentProperty@2@H@Z @ 124 NONAME ; int ContentAccess::CRightsManager::SetProperty(enum ContentAccess::TAgentProperty, int)
	?PrepareHTTPRequestHeaders@CSupplier@ContentAccess@@QBEXAAVRStringPool@@AAVRHTTPHeaders@@@Z @ 125 NONAME ; void ContentAccess::CSupplier::PrepareHTTPRequestHeaders(class RStringPool &, class RHTTPHeaders &) const
	?NewL@CData@ContentAccess@@SAPAV12@AAVRFile@@ABVTDesC16@@W4TIntent@2@@Z @ 126 NONAME ; class ContentAccess::CData * ContentAccess::CData::NewL(class RFile &, class TDesC16 const &, enum ContentAccess::TIntent)
	?NewL@CData@ContentAccess@@SAPAV12@ABVTVirtualPathPtr@2@W4TIntent@2@W4TContentShareMode@2@@Z @ 127 NONAME ; class ContentAccess::CData * ContentAccess::CData::NewL(class ContentAccess::TVirtualPathPtr const &, enum ContentAccess::TIntent, enum ContentAccess::TContentShareMode)
	?NewLC@CData@ContentAccess@@SAPAV12@AAVRFile@@ABVTDesC16@@W4TIntent@2@@Z @ 128 NONAME ; class ContentAccess::CData * ContentAccess::CData::NewLC(class RFile &, class TDesC16 const &, enum ContentAccess::TIntent)
	?NewLC@CData@ContentAccess@@SAPAV12@ABVTVirtualPathPtr@2@W4TIntent@2@W4TContentShareMode@2@@Z @ 129 NONAME ; class ContentAccess::CData * ContentAccess::CData::NewLC(class ContentAccess::TVirtualPathPtr const &, enum ContentAccess::TIntent, enum ContentAccess::TContentShareMode)
	?OpenContentLC@CContent@ContentAccess@@QAEPAVCData@2@W4TIntent@2@@Z @ 130 NONAME ; class ContentAccess::CData * ContentAccess::CContent::OpenContentLC(enum ContentAccess::TIntent)
	?OpenContentLC@CContent@ContentAccess@@QAEPAVCData@2@W4TIntent@2@ABVTDesC16@@@Z @ 131 NONAME ; class ContentAccess::CData * ContentAccess::CContent::OpenContentLC(enum ContentAccess::TIntent, class TDesC16 const &)
	?RenameDir@CManager@ContentAccess@@QBEHABVTDesC16@@0@Z @ 132 NONAME ; int ContentAccess::CManager::RenameDir(class TDesC16 const &, class TDesC16 const &) const
	?RenameDir@CAgentManager@ContentAccess@@UAEHABVTDesC16@@0@Z @ 133 NONAME ; int ContentAccess::CAgentManager::RenameDir(class TDesC16 const &, class TDesC16 const &)
	?Cancel@CAgentImportFile@ContentAccess@@UAEXXZ @ 134 NONAME ; void ContentAccess::CAgentImportFile::Cancel(void)
	?Cancel@CImportFile@ContentAccess@@QAEXXZ @ 135 NONAME ; void ContentAccess::CImportFile::Cancel(void)
	?NewL@CData@ContentAccess@@SAPAV12@AAVRFile@@ABVTDesC16@@@Z @ 136 NONAME ; class ContentAccess::CData * ContentAccess::CData::NewL(class RFile &, class TDesC16 const &)
	?NewL@CData@ContentAccess@@SAPAV12@ABVTVirtualPathPtr@2@W4TContentShareMode@2@@Z @ 137 NONAME ; class ContentAccess::CData * ContentAccess::CData::NewL(class ContentAccess::TVirtualPathPtr const &, enum ContentAccess::TContentShareMode)
	?NewLC@CData@ContentAccess@@SAPAV12@AAVRFile@@ABVTDesC16@@@Z @ 138 NONAME ; class ContentAccess::CData * ContentAccess::CData::NewLC(class RFile &, class TDesC16 const &)
	?NewLC@CData@ContentAccess@@SAPAV12@ABVTVirtualPathPtr@2@W4TContentShareMode@2@@Z @ 139 NONAME ; class ContentAccess::CData * ContentAccess::CData::NewLC(class ContentAccess::TVirtualPathPtr const &, enum ContentAccess::TContentShareMode)
	?CopyFile@CAgentManager@ContentAccess@@UAEHAAVRFile@@ABVTDesC16@@@Z @ 140 NONAME ; int ContentAccess::CAgentManager::CopyFile(class RFile &, class TDesC16 const &)
	?CopyFile@CManager@ContentAccess@@QBEHAAVRFile@@ABVTDesC16@@@Z @ 141 NONAME ; int ContentAccess::CManager::CopyFile(class RFile &, class TDesC16 const &) const
	?Read@CAgentData@ContentAccess@@UAEHHAAVTDes8@@HAAVTRequestStatus@@@Z @ 142 NONAME ; int ContentAccess::CAgentData::Read(int, class TDes8 &, int, class TRequestStatus &)
	?Read_Unused@CData@ContentAccess@@ABEHHAAVTDes8@@HAAVTRequestStatus@@@Z @ 143 NONAME ; int ContentAccess::CData::Read_Unused(int, class TDes8 &, int, class TRequestStatus &) const
	?KCafLoadPostProductionAgents@@3EB @ 144 NONAME ; unsigned char const KCafLoadPostProductionAgents
	?ReadCancel@CData@ContentAccess@@QBEXAAVTRequestStatus@@@Z @ 145 NONAME ; void ContentAccess::CData::ReadCancel(class TRequestStatus &) const   
	?ReadCancel@CAgentData@ContentAccess@@UAEXAAVTRequestStatus@@@Z @ 146 NONAME ; void ContentAccess::CAgentData::ReadCancel(class TRequestStatus &) const   
	?DeleteAllRightsObjects@CAgentRightsManager@ContentAccess@@UAEHAAVRFile@@ABVTDesC16@@@Z @ 147 NONAME ; int ContentAccess::CAgentRightsManager::DeleteAllRightsObjects(class RFile &, class TDesC16 const &)
	?DeleteAllRightsObjects@CRightsManager@ContentAccess@@QAEHAAVRFile@@ABVTDesC16@@@Z @ 148 NONAME ; int ContentAccess::CRightsManager::DeleteAllRightsObjects(class RFile &, class TDesC16 const &)
	?DisplayInfoL@CAgentManager@ContentAccess@@UAEXW4TDisplayInfo@2@AAVRFile@@ABVTDesC16@@@Z @ 149 NONAME ; void ContentAccess::CAgentManager::DisplayInfoL(enum ContentAccess::TDisplayInfo, class RFile &, class TDesC16 const &)
	?DisplayInfoL@CManager@ContentAccess@@QAEXW4TDisplayInfo@2@AAVRFile@@ABVTDesC16@@@Z @ 150 NONAME ; void ContentAccess::CManager::DisplayInfoL(enum ContentAccess::TDisplayInfo, class RFile &, class TDesC16 const &)
	?GetAttribute@CAgentManager@ContentAccess@@UAEHHAAHAAVRFile@@ABVTDesC16@@@Z @ 151 NONAME ; int ContentAccess::CAgentManager::GetAttribute(int, int &, class RFile &, class TDesC16 const &)
	?GetAttribute@CManager@ContentAccess@@QAEHHAAHAAVRFile@@ABVTDesC16@@@Z @ 152 NONAME ; int ContentAccess::CManager::GetAttribute(int, int &, class RFile &, class TDesC16 const &)
	?GetAttributeSet@CAgentManager@ContentAccess@@UAEHAAVRAttributeSet@2@AAVRFile@@ABVTDesC16@@@Z @ 153 NONAME ; int ContentAccess::CAgentManager::GetAttributeSet(class ContentAccess::RAttributeSet &, class RFile &, class TDesC16 const &)
	?GetAttributeSet@CManager@ContentAccess@@QAEHAAVRAttributeSet@2@AAVRFile@@ABVTDesC16@@@Z @ 154 NONAME ; int ContentAccess::CManager::GetAttributeSet(class ContentAccess::RAttributeSet &, class RFile &, class TDesC16 const &)
	?GetStringAttribute@CAgentManager@ContentAccess@@UAEHHAAVTDes16@@AAVRFile@@ABVTDesC16@@@Z @ 155 NONAME ; int ContentAccess::CAgentManager::GetStringAttribute(int, class TDes16 &, class RFile &, class TDesC16 const &)
	?GetStringAttribute@CManager@ContentAccess@@QAEHHAAVTDes16@@AAVRFile@@ABVTDesC16@@@Z @ 156 NONAME ; int ContentAccess::CManager::GetStringAttribute(int, class TDes16 &, class RFile &, class TDesC16 const &)
	?GetStringAttributeSet@CAgentManager@ContentAccess@@UAEHAAVRStringAttributeSet@2@AAVRFile@@ABVTDesC16@@@Z @ 157 NONAME ; int ContentAccess::CAgentManager::GetStringAttributeSet(class ContentAccess::RStringAttributeSet &, class RFile &, class TDesC16 const &)
	?GetStringAttributeSet@CManager@ContentAccess@@QAEHAAVRStringAttributeSet@2@AAVRFile@@ABVTDesC16@@@Z @ 158 NONAME ; int ContentAccess::CManager::GetStringAttributeSet(class ContentAccess::RStringAttributeSet &, class RFile &, class TDesC16 const &)
	?ListRightsL@CAgentRightsManager@ContentAccess@@UBEXAAV?$RStreamablePtrArray@VCRightsInfo@ContentAccess@@@2@AAVRFile@@ABVTDesC16@@@Z @ 159 NONAME ; void ContentAccess::CAgentRightsManager::ListRightsL(class ContentAccess::RStreamablePtrArray<class ContentAccess::CRightsInfo> &, class RFile &, class TDesC16 const &) const
	?ListRightsL@CRightsManager@ContentAccess@@QBEXAAV?$RStreamablePtrArray@VCRightsInfo@ContentAccess@@@2@AAVRFile@@ABVTDesC16@@@Z @ 160 NONAME ; void ContentAccess::CRightsManager::ListRightsL(class ContentAccess::RStreamablePtrArray<class ContentAccess::CRightsInfo> &, class RFile &, class TDesC16 const &) const
	?ContentMimeTypeL@CAgentImportFile@ContentAccess@@UAEHAAVTDes8@@@Z @ 161 NONAME ; int ContentAccess::CAgentImportFile::ContentMimeTypeL(class TDes8 &)
	?ContentMimeTypeL@CImportFile@ContentAccess@@QAEHAAVTDes8@@@Z @ 162 NONAME ; int ContentAccess::CImportFile::ContentMimeTypeL(class TDes8 &)
	?DataSize64L@CAgentData@ContentAccess@@UAEXAA_J@Z @ 163 NONAME ; void ContentAccess::CAgentData::DataSize64L(long long &)
	?DataSize64L@CData@ContentAccess@@QAEXAA_J@Z @ 164 NONAME ; void ContentAccess::CData::DataSize64L(long long &)
	?Read64@CAgentData@ContentAccess@@UAEH_JAAVTDes8@@HAAVTRequestStatus@@@Z @ 165 NONAME ; int ContentAccess::CAgentData::Read64(long long, class TDes8 &, int, class TRequestStatus &)
	?Read@CData@ContentAccess@@QBEH_JAAVTDes8@@HAAVTRequestStatus@@@Z @ 166 NONAME ; int ContentAccess::CData::Read(long long, class TDes8 &, int, class TRequestStatus &) const
	?Seek64@CAgentData@ContentAccess@@UAEHW4TSeek@@AA_J@Z @ 167 NONAME ; int ContentAccess::CAgentData::Seek64(enum TSeek, long long &)
	?Seek64@CData@ContentAccess@@QBEHW4TSeek@@AA_J@Z @ 168 NONAME ; int ContentAccess::CData::Seek64(enum TSeek, long long &) const
	?GetStringAttribute@CManager@ContentAccess@@QBEHABVTDesC8@@HAAVTDes16@@@Z @ 169 NONAME ; int ContentAccess::CManager::GetStringAttribute(class TDesC8 const &, int, class TDes16 &) const
	?GetStringAttributeSet@CAgentManager@ContentAccess@@UAEHABVTDesC8@@AAVRStringAttributeSet@2@@Z @ 170 NONAME ; int ContentAccess::CAgentManager::GetStringAttributeSet(class TDesC8 const &, class ContentAccess::RStringAttributeSet &)
	?GetAttribute@CAgentManager@ContentAccess@@UAEHABVTDesC8@@HAAH@Z @ 171 NONAME ; int ContentAccess::CAgentManager::GetAttribute(class TDesC8 const &, int, int &)
	?NewL@CData@ContentAccess@@SAPAV12@ABVTDesC8@@W4TIntent@2@@Z @ 172 NONAME ; class ContentAccess::CData * ContentAccess::CData::NewL(class TDesC8 const &, enum ContentAccess::TIntent)
	?CreateContentBrowserL@CAgentFactory@ContentAccess@@UAEPAVCAgentContent@2@ABVTDesC8@@@Z @ 173 NONAME ; class ContentAccess::CAgentContent * ContentAccess::CAgentFactory::CreateContentBrowserL(class TDesC8 const &)
	?Read@CData@ContentAccess@@QBEXABVTDesC8@@AAVTDes8@@AAVTRequestStatus@@@Z @ 174 NONAME ; void ContentAccess::CData::Read(class TDesC8 const &, class TDes8 &, class TRequestStatus &) const
	?Read@CAgentData@ContentAccess@@UAEXABVTDesC8@@AAVTDes8@@AAVTRequestStatus@@@Z @ 175 NONAME ; void ContentAccess::CAgentData::Read(class TDesC8 const &, class TDes8 &, class TRequestStatus &)
	?GetAttributeSet@CManager@ContentAccess@@QBEHABVTDesC8@@AAVRAttributeSet@2@@Z @ 176 NONAME ; int ContentAccess::CManager::GetAttributeSet(class TDesC8 const &, class ContentAccess::RAttributeSet &) const
	?GetAttributeSet@CAgentManager@ContentAccess@@UAEHABVTDesC8@@AAVRAttributeSet@2@@Z @ 177 NONAME ; int ContentAccess::CAgentManager::GetAttributeSet(class TDesC8 const &, class ContentAccess::RAttributeSet &)
	?DoRecognizeL@CAgentResolver@ContentAccess@@QAEHABVTDesC8@@AAVTDes8@@1@Z @ 178 NONAME ; int ContentAccess::CAgentResolver::DoRecognizeL(class TDesC8 const &, class TDes8 &, class TDes8 &)
	?GetAttribute@CManager@ContentAccess@@QBEHABVTDesC8@@HAAH@Z @ 179 NONAME ; int ContentAccess::CManager::GetAttribute(class TDesC8 const &, int, int &) const
	?NewLC@CContent@ContentAccess@@SAPAV12@ABVTDesC8@@@Z @ 180 NONAME ; class ContentAccess::CContent * ContentAccess::CContent::NewLC(class TDesC8 const &)
	?GetStringAttributeSet@CManager@ContentAccess@@QBEHABVTDesC8@@AAVRStringAttributeSet@2@@Z @ 181 NONAME ; int ContentAccess::CManager::GetStringAttributeSet(class TDesC8 const &, class ContentAccess::RStringAttributeSet &) const
	?CreateDataConsumerL@CAgentFactory@ContentAccess@@UAEPAVCAgentData@2@ABVTDesC8@@@Z @ 182 NONAME ; class ContentAccess::CAgentData * ContentAccess::CAgentFactory::CreateDataConsumerL(class TDesC8 const &)
	?IsRecognizedL@CAgentManager@ContentAccess@@UBEHABVTDesC8@@@Z @ 183 NONAME ; int ContentAccess::CAgentManager::IsRecognizedL(class TDesC8 const &) const
	?NewL@CData@ContentAccess@@SAPAV12@ABVTDesC8@@@Z @ 184 NONAME ; class ContentAccess::CData * ContentAccess::CData::NewL(class TDesC8 const &)
	?Read@CAgentData@ContentAccess@@UAEHABVTDesC8@@AAVTDes8@@@Z @ 185 NONAME ; int ContentAccess::CAgentData::Read(class TDesC8 const &, class TDes8 &)
	?GetStringAttribute@CAgentManager@ContentAccess@@UAEHABVTDesC8@@HAAVTDes16@@@Z @ 186 NONAME ; int ContentAccess::CAgentManager::GetStringAttribute(class TDesC8 const &, int, class TDes16 &)
	?RecognizeContentL@CAgentManager@ContentAccess@@UBEHABVTDesC8@@AAVTDes8@@1@Z @ 187 NONAME ; int ContentAccess::CAgentManager::RecognizeContentL(class TDesC8 const &, class TDes8 &, class TDes8 &) const
	?NewLC@CData@ContentAccess@@SAPAV12@ABVTDesC8@@@Z @ 188 NONAME ; class ContentAccess::CData * ContentAccess::CData::NewLC(class TDesC8 const &)
	?Read@CData@ContentAccess@@QBEHABVTDesC8@@AAVTDes8@@@Z @ 189 NONAME ; int ContentAccess::CData::Read(class TDesC8 const &, class TDes8 &) const
	?NewLC@CData@ContentAccess@@SAPAV12@ABVTDesC8@@W4TIntent@2@@Z @ 190 NONAME ; class ContentAccess::CData * ContentAccess::CData::NewLC(class TDesC8 const &, enum ContentAccess::TIntent)
	?NewL@CContent@ContentAccess@@SAPAV12@ABVTDesC8@@@Z @ 191 NONAME ; class ContentAccess::CContent * ContentAccess::CContent::NewL(class TDesC8 const &)

