EXPORTS
	?Enumerate@CCryptoPluginEntry@@SAPAPBXVTUid@@AAH@Z @ 1 NONAME ; void const * * CCryptoPluginEntry::Enumerate(class TUid, int &)
	?GetExtendedCharacteristicsL@CCryptoPluginEntry@@SAXVTUid@@AAPAVCExtendedCharacteristics@CryptoSpi@@@Z @ 2 NONAME ; void CCryptoPluginEntry::GetExtendedCharacteristicsL(class TUid, class CryptoSPI::CExtendedCharacteristics* &)
	?CreateAsymmetricCipherL@CCryptoPluginEntry@@SAXAAPAVMAsymmetricCipher@CryptoSpi@@VTUid@@ABVCKey@3@11PBVCCryptoParams@3@@Z @ 3 NONAME ; void CCryptoPluginEntry::CreateAsymmetricCipherL(class CryptoSpi::MAsymmetricCipher * &, class TUid, class CryptoSpi::CKey const &, class TUid, class TUid, class CryptoSpi::CCryptoParams const *)
	?CreateAsymmetricSignerL@CCryptoPluginEntry@@SAXAAPAVMSigner@CryptoSpi@@VTUid@@ABVCKey@3@1PBVCCryptoParams@3@@Z @ 4 NONAME ; void CCryptoPluginEntry::CreateAsymmetricSignerL(class CryptoSpi::MSigner * &, class TUid, class CryptoSpi::CKey const &, class TUid, class CryptoSpi::CCryptoParams const *)
	?CreateAsymmetricVerifierL@CCryptoPluginEntry@@SAXAAPAVMVerifier@CryptoSpi@@VTUid@@ABVCKey@3@1PBVCCryptoParams@3@@Z @ 5 NONAME ; void CCryptoPluginEntry::CreateAsymmetricVerifierL(class CryptoSpi::MVerifier * &, class TUid, class CryptoSpi::CKey const &, class TUid, class CryptoSpi::CCryptoParams const *)
	?CreateHashL@CCryptoPluginEntry@@SAXAAPAVMHash@CryptoSpi@@VTUid@@1PBVCKey@3@PBVCCryptoParams@3@@Z @ 6 NONAME ; void CCryptoPluginEntry::CreateHashL(class CryptoSpi::MHash * &, class TUid, class TUid, class CryptoSpi::CKey const *, class CryptoSpi::CCryptoParams const *)
	?CreateKeyAgreementL@CCryptoPluginEntry@@SAXAAPAVMKeyAgreement@CryptoSpi@@VTUid@@ABVCKey@3@PBVCCryptoParams@3@@Z @ 7 NONAME ; void CCryptoPluginEntry::CreateKeyAgreementL(class CryptoSpi::MKeyAgreement * &, class TUid, class CryptoSpi::CKey const &, class CryptoSpi::CCryptoParams const *)
	?CreateKeyPairGeneratorL@CCryptoPluginEntry@@SAXAAPAVMKeyPairGenerator@CryptoSpi@@VTUid@@PBVCCryptoParams@3@@Z @ 8 NONAME ; void CCryptoPluginEntry::CreateKeyPairGeneratorL(class CryptoSpi::MKeyPairGenerator * &, class TUid, class CryptoSpi::CCryptoParams const *)
	?CreateRandomL@CCryptoPluginEntry@@SAXAAPAVMRandom@CryptoSpi@@VTUid@@PBVCCryptoParams@3@@Z @ 9 NONAME ; void CCryptoPluginEntry::CreateRandomL(class CryptoSpi::MRandom * &, class TUid, class CryptoSpi::CCryptoParams const *)
	?CreateSymmetricCipherL@CCryptoPluginEntry@@SAXAAPAVMSymmetricCipher@CryptoSpi@@VTUid@@ABVCKey@3@111PBVCCryptoParams@3@@Z @ 10 NONAME ; void CCryptoPluginEntry::CreateSymmetricCipherL(class CryptoSpi::MSymmetricCipher * &, class TUid, class CryptoSpi::CKey const &, class TUid, class TUid, class TUid, class CryptoSpi::CCryptoParams const *)
  	?CreateMacL@CCryptoPluginEntry@@SAXAAPA3MMac@CryptoSpi@@VTUid@@ABVCKey@3@PBVCCryptoParams@3@@Z @ 11 NONAME ABSENT; void CCryptoPluginEntry::CreateMacL(class CryptoSpi::MMac * &, class TUid, class CryptoSpi::CKey const &, class CryptoSpi::CCryptoParams const *)
  	?CreateMacL@CCryptoPluginEntry@@SAXAAPA3MMac@CryptoSpi@@VTUid@@ABVCKey@3@PBVCCryptoParams@3@@Z @ 12 NONAME ABSENT; void CCryptoPluginEntry::CreateMacL(class CryptoSpi::MMac * &, class TUid, class CryptoSpi::CKey const &, class CryptoSpi::CCryptoParams const *)
  	?CreateMacL@CCryptoPluginEntry@@SAXAAPA3MMac@CryptoSpi@@VTUid@@ABVCKey@3@PBVCCryptoParams@3@@Z @ 13 NONAME ABSENT; void CCryptoPluginEntry::CreateMacL(class CryptoSpi::MMac * &, class TUid, class CryptoSpi::CKey const &, class CryptoSpi::CCryptoParams const *)
  	?CreateMacL@CCryptoPluginEntry@@SAXAAPA3MMac@CryptoSpi@@VTUid@@ABVCKey@3@PBVCCryptoParams@3@@Z @ 14 NONAME ABSENT; void CCryptoPluginEntry::CreateMacL(class CryptoSpi::MMac * &, class TUid, class CryptoSpi::CKey const &, class CryptoSpi::CCryptoParams const *)
  	?CreateMacL@CCryptoPluginEntry@@SAXAAPA3MMac@CryptoSpi@@VTUid@@ABVCKey@3@PBVCCryptoParams@3@@Z @ 15 NONAME ABSENT; void CCryptoPluginEntry::CreateMacL(class CryptoSpi::MMac * &, class TUid, class CryptoSpi::CKey const &, class CryptoSpi::CCryptoParams const *)
  	?CreateMacL@CCryptoPluginEntry@@SAXAAPA3MMac@CryptoSpi@@VTUid@@ABVCKey@3@PBVCCryptoParams@3@@Z @ 16 NONAME ABSENT; void CCryptoPluginEntry::CreateMacL(class CryptoSpi::MMac * &, class TUid, class CryptoSpi::CKey const &, class CryptoSpi::CCryptoParams const *)
  	?CreateMacL@CCryptoPluginEntry@@SAXAAPA3MMac@CryptoSpi@@VTUid@@ABVCKey@3@PBVCCryptoParams@3@@Z @ 17 NONAME ABSENT; void CCryptoPluginEntry::CreateMacL(class CryptoSpi::MMac * &, class TUid, class CryptoSpi::CKey const &, class CryptoSpi::CCryptoParams const *)
  	?CreateMacL@CCryptoPluginEntry@@SAXAAPA3MMac@CryptoSpi@@VTUid@@ABVCKey@3@PBVCCryptoParams@3@@Z @ 18 NONAME ABSENT; void CCryptoPluginEntry::CreateMacL(class CryptoSpi::MMac * &, class TUid, class CryptoSpi::CKey const &, class CryptoSpi::CCryptoParams const *)
  	?CreateMacL@CCryptoPluginEntry@@SAXAAPA3MMac@CryptoSpi@@VTUid@@ABVCKey@3@PBVCCryptoParams@3@@Z @ 19 NONAME ABSENT; void CCryptoPluginEntry::CreateMacL(class CryptoSpi::MMac * &, class TUid, class CryptoSpi::CKey const &, class CryptoSpi::CCryptoParams const *)
  	?CreateMacL@CCryptoPluginEntry@@SAXAAPA3MMac@CryptoSpi@@VTUid@@ABVCKey@3@PBVCCryptoParams@3@@Z @ 20 NONAME ABSENT; void CCryptoPluginEntry::CreateMacL(class CryptoSpi::MMac * &, class TUid, class CryptoSpi::CKey const &, class CryptoSpi::CCryptoParams const *)
	?CreateMacL@CCryptoPluginEntry@@SAXAAPAVMMac@CryptoSpi@@VTUid@@ABVCKey@3@PBVCCryptoParams@3@@Z @ 21 NONAME ; void CCryptoPluginEntry::CreateMacL(class CryptoSpi::MMac * &, class TUid, class CryptoSpi::CKey const &, class CryptoSpi::CCryptoParams const *)
  	?CreateMacL@CCryptoPluginEntry@@SAXAAPA3MMac@CryptoSpi@@VTUid@@ABVCKey@3@PBVCCryptoParams@3@@Z @ 22 NONAME ABSENT; void CCryptoPluginEntry::CreateMacL(class CryptoSpi::MMac * &, class TUid, class CryptoSpi::CKey const &, class CryptoSpi::CCryptoParams const *)
	?CreateHashL@CCryptoPluginEntry@@SAXAAPAVMHash@CryptoSpi@@VTUid@@PBVCCryptoParams@3@@Z @ 23 NONAME ; void CCryptoPluginEntry::CreateHashL(class CryptoSpi::MHash * &, class TUid, class CryptoSpi::CCryptoParams const *)

