EXPORTS ??0CDbColSet@@QAE@XZ @1 NONAME
EXPORTS ??0CDbKey@@QAE@XZ @2 NONAME
EXPORTS ??0RDbRow@@QAE@XZ @3 NONAME
EXPORTS ??0TDbCol@@QAE@ABVTDesC16@@W4TDbColType@@@Z @4 NONAME
EXPORTS ??0TDbCol@@QAE@ABVTDesC16@@W4TDbColType@@H@Z @5 NONAME
EXPORTS ??0TDbColSetIter@@QAE@ABVCDbColSet@@@Z @6 NONAME
EXPORTS ??0TDbKeyCol@@QAE@ABVTDesC16@@HW4TOrder@0@@Z @7 NONAME
EXPORTS ??0TDbKeyCol@@QAE@ABVTDesC16@@W4TOrder@0@@Z @8 NONAME
EXPORTS ??0TDbWindow@@QAE@HH@Z @9 NONAME
EXPORTS ??1CDbColSet@@UAE@XZ @10 NONAME
EXPORTS ??1CDbKey@@UAE@XZ @11 NONAME
EXPORTS ??ETDbColSetIter@@QAEAAV0@XZ @12 NONAME
EXPORTS ?Add@TDbSeekKey@@QAEAAV1@ABVTDesC16@@@Z @13 NONAME
EXPORTS ?Add@TDbSeekKey@@QAEAAV1@ABVTDesC8@@@Z @14 NONAME
EXPORTS ?Add@TDbSeekKey@@QAEAAV1@H@Z @15 NONAME
EXPORTS ?Add@TDbSeekKey@@QAEAAV1@I@Z @16 NONAME
EXPORTS ?Add@TDbSeekKey@@QAEAAV1@M@Z @17 NONAME
EXPORTS ?Add@TDbSeekKey@@QAEAAV1@N@Z @18 NONAME
EXPORTS ?Add@TDbSeekKey@@QAEAAV1@_J@Z @19 NONAME
EXPORTS ?Add@TDbSeekKey@@QAEAAV1@VTTime@@@Z @20 NONAME
EXPORTS ?AddL@CDbColSet@@QAEAAV1@ABVTDbCol@@@Z @21 NONAME
EXPORTS ?AddL@CDbKey@@QAEAAV1@ABVTDbKeyCol@@@Z @22 NONAME
EXPORTS ?AddL@CDbNames@@QAEXABVTDesC16@@@Z @23 NONAME
EXPORTS ?AlterTable@RDbDatabase@@QAEHABVTDesC16@@ABVCDbColSet@@@Z @24 NONAME
EXPORTS ?AlterTable@RDbIncremental@@QAEHAAVRDbDatabase@@ABVTDesC16@@ABVCDbColSet@@AAH@Z @25 NONAME
EXPORTS ?AtBeginning@RDbRowSet@@QBEHXZ @26 NONAME
EXPORTS ?AtEnd@RDbRowSet@@QBEHXZ @27 NONAME
EXPORTS ?AtRow@RDbRowSet@@QBEHXZ @28 NONAME
EXPORTS ?Begin@RDbDatabase@@QAEHXZ @29 NONAME
EXPORTS ?Bookmark@RDbRowSet@@QBE?AVTDbBookmark@@XZ @30 NONAME
EXPORTS ?Cancel@RDbRowSet@@QAEXXZ @31 NONAME
EXPORTS ?Clear@CDbKey@@QAEXXZ @32 NONAME
EXPORTS ?Close@RDbDatabase@@QAEXXZ @33 NONAME
EXPORTS ?Close@RDbIncremental@@QAEXXZ @34 NONAME
EXPORTS ?Close@RDbRow@@QAEXXZ @35 NONAME
EXPORTS ?Close@RDbRowConstraint@@QAEXXZ @36 NONAME
EXPORTS ?Close@RDbRowSet@@QAEXXZ @37 NONAME
EXPORTS ?Col@CDbColSet@@QBEPBVTDbCol@@ABVTDesC16@@@Z @38 NONAME
EXPORTS ?ColCell@RDbRow@@QBEPBVTDbCell@@H@Z @39 NONAME
EXPORTS ?ColCount@RDbRowSet@@QBEHXZ @40 NONAME
EXPORTS ?ColDef@RDbRowSet@@QBE?AVTDbCol@@H@Z @41 NONAME
EXPORTS ?ColDes16@RDbRowSet@@QBE?AVTPtrC16@@H@Z @42 NONAME
EXPORTS ?ColDes8@RDbRowSet@@QBE?AVTPtrC8@@H@Z @43 NONAME
EXPORTS ?ColDes@RDbRowSet@@QBE?AVTPtrC16@@H@Z @44 NONAME
EXPORTS ?ColInt16@RDbRowSet@@QBEFH@Z @45 NONAME
EXPORTS ?ColInt32@RDbRowSet@@QBEJH@Z @46 NONAME
EXPORTS ?ColInt64@RDbRowSet@@QBE_JH@Z @47 NONAME
EXPORTS ?ColInt8@RDbRowSet@@QBECH@Z @48 NONAME
EXPORTS ?ColLength@RDbRowSet@@QBEHH@Z @49 NONAME
EXPORTS ?ColNo@CDbColSet@@QBEHABVTDesC16@@@Z @50 NONAME
EXPORTS ?ColReal32@RDbRowSet@@QBEMH@Z @51 NONAME
EXPORTS ?ColReal64@RDbRowSet@@QBENH@Z @52 NONAME
EXPORTS ?ColSetL@RDbDatabase@@QBEPAVCDbColSet@@ABVTDesC16@@@Z @53 NONAME
EXPORTS ?ColSetL@RDbRowSet@@QBEPAVCDbColSet@@XZ @54 NONAME
EXPORTS ?ColSize@RDbRowSet@@QBEHH@Z @55 NONAME
EXPORTS ?ColTime@RDbRowSet@@QBE?AVTTime@@H@Z @56 NONAME
EXPORTS ?ColType@RDbRowSet@@QBE?AW4TDbColType@@H@Z @57 NONAME
EXPORTS ?ColUint16@RDbRowSet@@QBEGH@Z @58 NONAME
EXPORTS ?ColUint32@RDbRowSet@@QBEKH@Z @59 NONAME
EXPORTS ?ColUint8@RDbRowSet@@QBEEH@Z @60 NONAME
EXPORTS ?Commit@RDbDatabase@@QAEHXZ @61 NONAME
EXPORTS ?CommitBlob@TDbColumn@@QAEXABVTDbBlob@@@Z @62 NONAME
EXPORTS ?CountL@RDbRowSet@@QBEHW4TAccuracy@1@@Z @63 NONAME
EXPORTS ?CreateIndex@RDbDatabase@@QAEHABVTDesC16@@0ABVCDbKey@@@Z @64 NONAME
EXPORTS ?CreateIndex@RDbIncremental@@QAEHAAVRDbDatabase@@ABVTDesC16@@1ABVCDbKey@@AAH@Z @65 NONAME
EXPORTS ?CreateL@RDbRow@@QAEXH@Z @66 NONAME
EXPORTS ?CreateTable@RDbDatabase@@AAEHABVTDesC16@@ABVCDbColSet@@PBVCDbKey@@@Z @67 NONAME
EXPORTS ?DeleteL@RDbRowSet@@QAEXXZ @68 NONAME
EXPORTS ?Destroy@RDbDatabase@@QAEHXZ @69 NONAME
EXPORTS ?NextL@CDbAsyncIncremental@@EAEHAAH@Z @70 NONAME
EXPORTS ?Next@CDbSyncIncremental@@EAEXAAV?$TPckgBuf@H@@AAVTRequestStatus@@@Z @71 NONAME
EXPORTS ?DropIndex@RDbDatabase@@QAEHABVTDesC16@@0@Z @72 NONAME
EXPORTS ?DropIndex@RDbIncremental@@QAEHAAVRDbDatabase@@ABVTDesC16@@1AAH@Z @73 NONAME
EXPORTS ?DropTable@RDbDatabase@@QAEHABVTDesC16@@@Z @74 NONAME
EXPORTS ?DropTable@RDbIncremental@@QAEHAAVRDbDatabase@@ABVTDesC16@@AAH@Z @75 NONAME
EXPORTS ?Evaluate@RDbView@@QAEHXZ @76 NONAME
EXPORTS ?Evaluate@RDbView@@QAEXAAVTRequestStatus@@@Z @77 NONAME
EXPORTS ?EvaluateAll@RDbView@@QAEHXZ @78 NONAME
EXPORTS ?FindL@RDbRowSet@@QAEHW4TDirection@1@VTDbQuery@@@Z @79 NONAME
EXPORTS ?GetL@RDbRowSet@@QAEXXZ @80 NONAME
EXPORTS ?GotoL@RDbRowSet@@QAEHW4TPosition@1@@Z @81 NONAME
EXPORTS ?GotoL@RDbRowSet@@QAEXABVTDbBookmark@@@Z @82 NONAME
EXPORTS ?GrowL@RDbRow@@QAEXH@Z @83 NONAME
EXPORTS ?InTransaction@RDbDatabase@@QBEHXZ @84 NONAME
EXPORTS ?IndexNamesL@RDbDatabase@@QBEPAVCDbNames@@ABVTDesC16@@@Z @85 NONAME
EXPORTS ?InitBlobL@TDbColumn@@QAEAAVTDbBlob@@XZ @86 NONAME
EXPORTS ?InsertCopyL@RDbRowSet@@QAEXXZ @87 NONAME
EXPORTS ?InsertL@RDbRowSet@@QAEXXZ @88 NONAME
EXPORTS ?IsDamaged@RDbDatabase@@QBEHXZ @89 NONAME
EXPORTS ?IsEmptyL@RDbRowSet@@QBEHXZ @90 NONAME
EXPORTS ?KeyL@RDbDatabase@@QBEPAVCDbKey@@ABVTDesC16@@0@Z @91 NONAME
EXPORTS ?MatchL@RDbRowSet@@QAEHABVRDbRowConstraint@@@Z @92 NONAME
EXPORTS ?NewL@CDbColSet@@SAPAV1@XZ @93 NONAME
EXPORTS ?NewL@CDbKey@@SAPAV1@XZ @94 NONAME
EXPORTS ?NewLC@CDbColSet@@SAPAV1@XZ @95 NONAME
EXPORTS ?NewLC@CDbKey@@SAPAV1@XZ @96 NONAME
EXPORTS ?Next@RDbIncremental@@QAEHAAH@Z @97 NONAME
EXPORTS ?Next@RDbIncremental@@QAEXAAV?$TPckgBuf@H@@AAVTRequestStatus@@@Z @98 NONAME
EXPORTS ?Open@RDbRow@@QAEXPAXHH@Z @99 NONAME
EXPORTS ?Open@RDbRowConstraint@@QAEHABVRDbRowSet@@VTDbQuery@@@Z @100 NONAME
EXPORTS ?Open@RDbTable@@QAEHAAVRDbDatabase@@ABVTDesC16@@W4TAccess@RDbRowSet@@@Z @101 NONAME
EXPORTS ?OpenL@RDbColReadStream@@QAEXABVRDbRowSet@@H@Z @102 NONAME
EXPORTS ?OpenL@RDbColWriteStream@@QAEXAAVRDbRowSet@@H@Z @103 NONAME
EXPORTS ?OpenLC@RDbColReadStream@@QAEXABVRDbRowSet@@H@Z @104 NONAME
EXPORTS ?OpenLC@RDbColWriteStream@@QAEXAAVRDbRowSet@@H@Z @105 NONAME
EXPORTS ?Prepare@RDbView@@QAEHAAVRDbDatabase@@ABVTDbQuery@@ABVTDbWindow@@@Z @106 NONAME
EXPORTS ?Prepare@RDbView@@QAEHAAVRDbDatabase@@ABVTDbQuery@@ABVTDbWindow@@W4TAccess@RDbRowSet@@@Z @107 NONAME
EXPORTS ?Prepare@RDbView@@QAEHAAVRDbDatabase@@ABVTDbQuery@@W4TAccess@RDbRowSet@@@Z @108 NONAME
EXPORTS ?PutL@RDbRowSet@@QAEXXZ @109 NONAME
EXPORTS ?Recover@RDbDatabase@@QAEHXZ @110 NONAME
EXPORTS ?Recover@RDbIncremental@@QAEHAAVRDbDatabase@@AAH@Z @111 NONAME
EXPORTS ?Remove@CDbColSet@@QAEXABVTDesC16@@@Z @112 NONAME
EXPORTS ?Remove@CDbKey@@QAEXABVTDesC16@@@Z @113 NONAME
EXPORTS ?Reserved_1@CDbCursor@@EAEXXZ @114 NONAME
EXPORTS ?Reserved_1@CDbDatabase@@EAEXXZ @115 NONAME
EXPORTS ?Reserved_2@CDbCursor@@EAEXXZ @116 NONAME
EXPORTS ?Reserved_2@CDbDatabase@@EAEXXZ @117 NONAME
EXPORTS ?Reset@RDbRowSet@@QAEXXZ @118 NONAME
EXPORTS ?Rollback@RDbDatabase@@QAEXXZ @119 NONAME
EXPORTS ?FreeReservedSpace@RDbs@@QAEXH@Z @ 120 NONAME ; public: void __thiscall RDbs::FreeReservedSpace(int)
EXPORTS ?SeekL@RDbTable@@QAEHABVTDbSeekKey@@W4TComparison@1@@Z @121 NONAME
EXPORTS ?SetColL@RDbRowSet@@QAEXHABVTDesC16@@@Z @122 NONAME
EXPORTS ?SetColL@RDbRowSet@@QAEXHABVTDesC8@@@Z @123 NONAME
EXPORTS ?SetColL@RDbRowSet@@QAEXHJ@Z @124 NONAME
EXPORTS ?SetColL@RDbRowSet@@QAEXHK@Z @125 NONAME
EXPORTS ?SetColL@RDbRowSet@@QAEXHM@Z @126 NONAME
EXPORTS ?SetColL@RDbRowSet@@QAEXHN@Z @127 NONAME
EXPORTS ?SetColL@RDbRowSet@@QAEXH_J@Z @128 NONAME
EXPORTS ?SetColL@RDbRowSet@@QAEXHVTTime@@@Z @129 NONAME
EXPORTS ?SetColNullL@RDbRowSet@@QAEXH@Z @130 NONAME
EXPORTS ?SetColumnWidthL@RDbRow@@AAEPAXHH@Z @131 NONAME
EXPORTS ?SetIndex@RDbTable@@AAEHPBVTDesC16@@@Z @132 NONAME
EXPORTS ?SetL@TDbColumn@@QAEXABVTDesC16@@@Z @133 NONAME
EXPORTS ?SetL@TDbColumn@@QAEXABVTDesC8@@@Z @134 NONAME
EXPORTS ?SetL@TDbColumn@@AAEXPBXH@Z @135 NONAME
EXPORTS ?SetL@TDbColumn@@QAEXK@Z @136 NONAME
EXPORTS ?SetL@TDbColumn@@QAEXM@Z @137 NONAME
EXPORTS ?SetL@TDbColumn@@QAEXN@Z @138 NONAME
EXPORTS ?Create@RDbNamedDatabase@@QAEHAAVRFs@@ABVTDesC16@@1@Z @139 NONAME
EXPORTS ?SetL@TDbColumn@@QAEX_J@Z @140 NONAME
EXPORTS ?Open@RDbNamedDatabase@@QAEHAAVRDbs@@ABVTDesC16@@1@Z @141 NONAME
EXPORTS ?SetSize@RDbRow@@QAEXH@Z @142 NONAME
EXPORTS ?TableNamesL@RDbDatabase@@QBEPAVCDbNames@@XZ @143 NONAME
EXPORTS ?Unevaluated@RDbView@@QBEHXZ @144 NONAME
EXPORTS ?UpdateL@RDbRowSet@@QAEXXZ @145 NONAME
EXPORTS ?CreateL@RDbStoreDatabase@@QAE?AVTStreamId@@PAVCStreamStore@@@Z @146 NONAME
EXPORTS ?ReserveDriveSpace@RDbs@@QAEHHH@Z @ 147 NONAME ; public: int __thiscall RDbs::ReserveDriveSpace(int,int)
EXPORTS ?OpenL@RDbStoreDatabase@@QAEXPAVCStreamStore@@VTStreamId@@@Z @148 NONAME
EXPORTS ?ReleaseReserveAccess@RDbs@@QAEHH@Z @ 149 NONAME ; public: int __thiscall RDbs::ReleaseReserveAccess(int)
EXPORTS ??0CDbTable@@IAE@AAVCDbTableDatabase@@ABVCDbTableDef@@@Z @150 NONAME
EXPORTS ??0CDbTableDatabase@@IAE@XZ @151 NONAME
EXPORTS ??0CDbTableDef@@IAE@XZ @152 NONAME
EXPORTS ??0CDbTableIndexDef@@QAE@XZ @153 NONAME
EXPORTS ??1CDbTable@@MAE@XZ @154 NONAME
EXPORTS ??1CDbTableDatabase@@MAE@XZ @155 NONAME
EXPORTS ??1CDbTableDef@@UAE@XZ @156 NONAME
EXPORTS ??1CDbTableIndexDef@@UAE@XZ @157 NONAME
EXPORTS ?AboutToModifyL@CDbRecordBase@@EAEXXZ @158 NONAME
EXPORTS ?AddStepper@CMultiStepper@CDbTableDatabase@@QAEXPAVCStepper@2@H@Z @159 NONAME
EXPORTS ?BlobsL@CDbTable@@QAEPAVCDbBlobSpace@@XZ @160 NONAME
EXPORTS ?Changed@CDbTableDef@@UAEXXZ @161 NONAME
EXPORTS ?ColNoL@HDbColumnSet@@QBEHABVTDesC16@@@Z @162 NONAME
EXPORTS ?ColumnL@HDbColumnSet@@QBEPBVTDbColumnDef@@ABVTDesC16@@@Z @163 NONAME
EXPORTS ?Compare@TTextOps@@QBEHABVTDesC16@@0@Z @164 NONAME
EXPORTS ?Compare@TTextOps@@QBEHABVTDesC8@@0@Z @165 NONAME
EXPORTS ?ConstructL@CDbTableDef@@IAEXABVTDesC16@@H@Z @166 NONAME
EXPORTS ?ConstructL@CDbTableIndexDef@@QAEXABVTDesC16@@@Z @167 NONAME
EXPORTS ?Count@HDbColumnSet@@QBEHXZ @168 NONAME
EXPORTS ?Count@RDbIndexes@@QBEHXZ @169 NONAME
EXPORTS ?CreateL@CDbBlobSpace@@QAEKW4TDbColType@@PBXH@Z @170 NONAME
EXPORTS ?CreateL@CDbBlobSpace@@QAEPAVMStreamBuf@@AAKW4TDbColType@@@Z @171 NONAME
EXPORTS ?Delete@CDbBlobSpace@@QAEHK@Z @172 NONAME
EXPORTS ?DeleteL@CDbBlobSpace@@QAEXK@Z @173 NONAME
EXPORTS ?DiscardBlobsL@CDbTable@@QAEXAAVRDbRow@@@Z @174 NONAME
EXPORTS ?DoRestoreL@CDbRecordBase@@AAEHXZ @175 NONAME
EXPORTS ?Find@TTextOps@@QBEHABVTDesC16@@0@Z @176 NONAME
EXPORTS ?Find@TTextOps@@QBEHABVTDesC8@@0@Z @177 NONAME
EXPORTS ?Find@TTextOps@@QBEHPBEH0H@Z @178 NONAME
EXPORTS ?Find@TTextOps@@QBEHPBGH0H@Z @179 NONAME
EXPORTS ?FlushL@CDbRecordBase@@QAEXXZ @180 NONAME
EXPORTS ?Idle@CDbTableDatabase@@EAEXXZ @181 NONAME
EXPORTS ?InterfaceL@CDbTableDatabase@@QAEPAVCDbDatabase@@XZ @182 NONAME
EXPORTS ?Match@TTextOps@@QBEHPBEH0H@Z @183 NONAME
EXPORTS ?Match@TTextOps@@QBEHPBGH0H@Z @184 NONAME
EXPORTS ??0CDbRecordIter@@IAE@AAVCDbRecordBase@@@Z @185 NONAME
EXPORTS ?NewL@CBuildIndex@CDbTableDatabase@@SAPAV12@AAV2@ABVCDbTableDef@@ABVCDbTableIndexDef@@@Z @186 NONAME
EXPORTS ?NewL@CMultiStepper@CDbTableDatabase@@SAPAV12@H@Z @187 NONAME
EXPORTS ?Ops@TTextOps@@SAABV1@W4TDbTextComparison@@@Z @188 NONAME
EXPORTS ?ReadL@RDbTableRow@@QAEXVTDbRecordId@@@Z @189 NONAME
EXPORTS ?ReadLC@CDbBlobSpace@@QBEPAVMStreamBuf@@KW4TDbColType@@@Z @190 NONAME
EXPORTS ?RecordsL@CDbTable@@QAEAAVCDbRecordSpace@@XZ @191 NONAME
EXPORTS ?Reserved_1@CDbTableDatabase@@EAEXXZ @192 NONAME
EXPORTS ?Reserved_2@CDbTableDatabase@@EAEXXZ @193 NONAME
EXPORTS ?RestoreL@CDbRecordBase@@EAEHXZ @194 NONAME
EXPORTS ?SchemaL@CDbTableDatabase@@QAEAAVRDbTableSchema@@XZ @195 NONAME
EXPORTS ?SetL@TDbColumnDef@@QAEXABV1@@Z @196 NONAME
EXPORTS ?SetL@TDbColumnDef@@QAEXABVTDbCol@@@Z @197 NONAME
EXPORTS ?Open@RDbNamedDatabase@@QAEHAAVRFs@@ABVTDesC16@@1W4TAccess@1@@Z @198 NONAME
EXPORTS ?Steps@CBuildIndex@CDbTableDatabase@@SAHH@Z @199 NONAME
EXPORTS ?StepsL@CBuildIndex@CDbTableDatabase@@QAEHXZ @200 NONAME
EXPORTS ?SynchL@CDbRecordBase@@EAEXXZ @201 NONAME
EXPORTS ?TotalSteps@CMultiStepper@CDbTableDatabase@@QAEHXZ @202 NONAME
EXPORTS ?TouchL@CDbRecordBase@@IAEXXZ @203 NONAME
EXPORTS ?CompressL@RDbStoreDatabase@@SAXAAVCStreamStore@@VTStreamId@@@Z @204 NONAME
EXPORTS ?DecompressL@RDbStoreDatabase@@SAXAAVCStreamStore@@VTStreamId@@@Z @205 NONAME
EXPORTS ?Replace@RDbNamedDatabase@@QAEHAAVRFs@@ABVTDesC16@@1@Z @206 NONAME
EXPORTS ?Connect@RDbs@@QAEHXZ @207 NONAME
EXPORTS ?ResourceCheck@RDbs@@QAEXXZ @208 NONAME
EXPORTS ?ResourceCount@RDbs@@QAEHXZ @209 NONAME
EXPORTS ?ResourceMark@RDbs@@QAEXXZ @210 NONAME
EXPORTS ?SetHeapFailure@RDbs@@QAEXHH@Z @211 NONAME
EXPORTS ?Version@RDbs@@SA?AVTVersion@@XZ @212 NONAME
EXPORTS ?Cancel@RDbNotifier@@QAEXXZ @213 NONAME
EXPORTS ?Close@RDbNotifier@@QAEXXZ @214 NONAME
EXPORTS ?NotifyUnlock@RDbNotifier@@QAEXAAVTRequestStatus@@@Z @215 NONAME
EXPORTS ?Open@RDbNotifier@@QAEHAAVRDbDatabase@@@Z @216 NONAME
EXPORTS ?Compact@RDbDatabase@@QAEHXZ @217 NONAME
EXPORTS ?Compact@RDbIncremental@@QAEHAAVRDbDatabase@@AAH@Z @218 NONAME
EXPORTS ??0CDbFileStoreDatabase@@IAE@AAVRFs@@@Z @219 NONAME
EXPORTS ??0CDbStoreDatabase@@IAE@XZ @220 NONAME
EXPORTS ??1CDbFileStoreDatabase@@MAE@XZ @221 NONAME
EXPORTS ??1CDbStoreDatabase@@MAE@XZ @222 NONAME
EXPORTS ?AuthenticateL@CDbStoreDatabase@@MAEXXZ @223 NONAME
EXPORTS ?GetReserveAccess@RDbs@@QAEHH@Z @ 224 NONAME ; public: int __thiscall RDbs::GetReserveAccess(int)
EXPORTS ?DatabaseNamesL@RDbs@@QAEPAVCDbNames@@W4TDriveNumber@@VTUid@@@Z @ 225 NONAME ; public: class CDbNames * __thiscall RDbs::DatabaseNamesL(enum TDriveNumber,class TUid)
EXPORTS ?Close@RDbUpdate@@QAEXXZ @226 NONAME
EXPORTS ?ColumnsL@CDbCursor@@UAEXAAVCDbColSet@@@Z @227 NONAME
EXPORTS ?UtilityL@CDbTableDatabase@@UAEPAVCStepper@1@W4TUtility@CDbDatabase@@AAH@Z @228 NONAME
EXPORTS ?ConstructL@CDbStoreDatabase@@IAE?AVTStreamId@@XZ @229 NONAME
EXPORTS ?CreateIndexL@CDbStoreDatabase@@MAEPAVCDbTableIndexDef@@ABVCDbTableDef@@ABVTDesC16@@ABVCDbKey@@@Z @230 NONAME
EXPORTS ?CreateL@CDbFileStoreDatabase@@IAEXABVTDesC16@@W4TCreate@TDbFormat@@ABVTUidType@@@Z @231 NONAME
EXPORTS ?CreateL@CDbFileStoreDatabase@@SAPAVCDbDatabase@@AAVRFs@@ABVTDesC16@@W4TCreate@TDbFormat@@ABVTUidType@@@Z @232 NONAME
EXPORTS ?CreateRootL@CDbFileStoreDatabase@@MAE?AVTStreamId@@V2@@Z @233 NONAME
EXPORTS ?CreateTableL@CDbStoreDatabase@@MAEPAVCDbTableDef@@ABVTDesC16@@ABVCDbColSet@@PBVCDbKey@@@Z @234 NONAME
EXPORTS ?DatabaseIdL@CDbFileStoreDatabase@@MAE?AVTStreamId@@V2@@Z @235 NONAME
EXPORTS ?GetTablePolicy@RDbs@@QAEHVTUid@@ABVTDesC16@@W4TPolicyType@1@AAVTSecurityPolicy@@@Z @ 236 NONAME ; public: int __thiscall RDbs::GetTablePolicy(class TUid,class TDesC16 const &,enum RDbs::TPolicyType,class TSecurityPolicy &)
EXPORTS ?DestroyL@CDbFileStoreDatabase@@MAEXXZ @237 NONAME
EXPORTS ?DestroyL@CDbStoreDatabase@@MAEXXZ @238 NONAME
EXPORTS ?GetTablePolicies@RDbs@@QAEHVTUid@@ABVTDesC16@@W4TPolicyType@1@AAVTSecurityPolicy@@3@Z @ 239 NONAME ; public: int __thiscall RDbs::GetTablePolicies(class TUid,class TDesC16 const &,enum RDbs::TPolicyType,class TSecurityPolicy &,class TSecurityPolicy &)
EXPORTS ?Execute@RDbDatabase@@QAEHABVTDesC16@@W4TDbTextComparison@@@Z @240 NONAME
EXPORTS ?Execute@RDbIncremental@@QAEHAAVRDbDatabase@@ABVTDesC16@@W4TDbTextComparison@@AAH@Z @241 NONAME
EXPORTS ?Execute@RDbUpdate@@QAEHAAVRDbDatabase@@ABVTDesC16@@W4TDbTextComparison@@@Z @242 NONAME
EXPORTS ?Idle@CDbStoreDatabase@@MAEXXZ @243 NONAME
EXPORTS ?IndexDiscarderL@CDbStoreDatabase@@MAEPAVCStepper@CDbTableDatabase@@ABVCDbTableDef@@ABVCDbTableIndexDef@@AAH@Z @244 NONAME
EXPORTS ?Property@CDbTableDatabase@@MAEHW4TProperty@CDbDatabase@@@Z @245 NONAME
EXPORTS ?LoadSchemaL@CDbStoreDatabase@@MAEXXZ @246 NONAME
EXPORTS ?Next@RDbUpdate@@QAEHXZ @247 NONAME
EXPORTS ?Next@RDbUpdate@@QAEXAAVTRequestStatus@@@Z @248 NONAME
EXPORTS ?OpenL@CDbFileStoreDatabase@@IAEXABVTDesC16@@W4TOpen@TDbFormat@@@Z @249 NONAME
EXPORTS ?OpenL@CDbFileStoreDatabase@@SAPAVCDbSource@@AAVRFs@@ABVTDesC16@@W4TOpen@TDbFormat@@@Z @250 NONAME
EXPORTS ?CountL@CDbCursor@@UAEHW4TAccuracy@RDbRowSet@@@Z @251 NONAME
EXPORTS ?FindL@CDbCursor@@UAEHW4TDirection@RDbRowSet@@ABVTDbQuery@@@Z @252 NONAME
EXPORTS ?Panic@Dbms@@SAXABVTDesC16@@H@Z @253 NONAME
EXPORTS ?RecordDiscarderL@CDbStoreDatabase@@MAEPAVCStepper@CDbTableDatabase@@ABVCDbTableDef@@AAH@Z @254 NONAME
EXPORTS ?UtilityL@CDbStoreDatabase@@MAEPAVCStepper@CDbTableDatabase@@W4TUtility@CDbDatabase@@AAH@Z @255 NONAME
EXPORTS ?Reserved_1@CDbStoreDatabase@@EAEXXZ @256 NONAME
EXPORTS ?Reserved_2@CDbStoreDatabase@@EAEXXZ @257 NONAME
EXPORTS ?RestoreL@CDbStoreDatabase@@IAEXVTStreamId@@@Z @258 NONAME
EXPORTS ?Revert@CDbStoreDatabase@@MAEXW4TDbLockType@@@Z @259 NONAME
EXPORTS ?RowCount@RDbUpdate@@QBEHXZ @260 NONAME
EXPORTS ?Run@Dbs@@SAHXZ @ 261 NONAME ; public: static int __cdecl Dbs::Run(void)
EXPORTS ?GetDatabasePolicy@RDbs@@QAEHVTUid@@W4TPolicyType@1@AAVTSecurityPolicy@@@Z @ 262 NONAME ; public: int __thiscall RDbs::GetDatabasePolicy(class TUid,enum RDbs::TPolicyType,class TSecurityPolicy &)
EXPORTS ?SetBlobL@TDbColumn@@QAEXKH@Z @263 NONAME
EXPORTS ?SetBlobL@TDbColumn@@QAEXPBEH@Z @264 NONAME
EXPORTS ?SourceL@CDbTableDatabase@@QAEPAVCDbSource@@XZ @265 NONAME
EXPORTS ?SynchL@CDbStoreDatabase@@MAEXW4TDbLockType@@@Z @266 NONAME
EXPORTS ?TableAlterL@CDbStoreDatabase@@MAEPAVCStepper@CDbTableDatabase@@AAVCDbTableDef@@ABVHDbColumnSet@@AAH@Z @267 NONAME
EXPORTS ?TableL@CDbStoreDatabase@@MAEPAVCDbTable@@ABVCDbTableDef@@@Z @268 NONAME
EXPORTS ?Size@RDbDatabase@@QBE?AUTSize@1@XZ @269 NONAME
EXPORTS ?UpdateStats@RDbDatabase@@QAEHXZ @270 NONAME
EXPORTS ?UpdateStats@RDbIncremental@@QAEHAAVRDbDatabase@@AAH@Z @271 NONAME
EXPORTS ??1CDbRecordIter@@UAE@XZ @272 NONAME
EXPORTS ?IndexL@CDbTable@@QAEAAVCDbRecordIndex@@ABVCDbTableIndexDef@@@Z @273 NONAME
EXPORTS ?IndexSpanL@CDbTable@@UAEHABVCDbTableIndexDef@@IPBVTDbLookupKey@@1@Z @274 NONAME
EXPORTS ?Property@CDbFileStoreDatabase@@MAEHW4TProperty@CDbDatabase@@@Z @275 NONAME
EXPORTS ?Property@CDbStoreDatabase@@MAEHW4TProperty@CDbDatabase@@@Z @276 NONAME
EXPORTS ?NotifyChange@RDbNotifier@@QAEXAAVTRequestStatus@@@Z @277 NONAME
EXPORTS ?Create@RDbNamedDatabase@@QAEHAAVRDbs@@ABVTDesC16@@1@Z @ 278 NONAME ; public: int __thiscall RDbNamedDatabase::Create(class RDbs &,class TDesC16 const &,class TDesC16 const &)
EXPORTS ?CopyDatabase@RDbs@@QAEHABVTDesC16@@0VTUid@@@Z @ 279 NONAME ; public: int __thiscall RDbs::CopyDatabase(class TDesC16 const &,class TDesC16 const &,class TUid)
EXPORTS ?DeleteDatabase@RDbs@@QAEHABVTDesC16@@VTUid@@@Z @ 280 NONAME ; public: int __thiscall RDbs::DeleteDatabase(class TDesC16 const &,class TUid)
	?GetBackupPath@RDbs@@QAEHVTSecureId@@ABVTDesC16@@VTUid@@AAVTDes16@@@Z @ 281 NONAME ; int RDbs::GetBackupPath(class TSecureId, class TDesC16 const &, class TUid, class TDes16 &)
	?BackupPathsL@RDbs@@QAEPAVCDbStrings@@VTSecureId@@VTUid@@@Z @ 282 NONAME ; class CDbStrings * RDbs::BackupPathsL(class TSecureId, class TUid)
