EXPORTS
	_Z10gen_subseqv @ 1 NONAME
	_Z10rw_enabledPKc @ 2 NONAME
	_Z10rw_enabledi @ 3 NONAME
	_Z10rw_fprintfP7rw_filePKcz @ 4 NONAME
	_Z10rw_ldblcmpee @ 5 NONAME
	_Z10rw_localesiPKc @ 6 NONAME
	_Z10rw_runoptsPKc @ 7 NONAME
	_Z10rw_runoptsiPPc @ 8 NONAME
	_Z10rw_setoptsPKcz @ 9 NONAME
	_Z10rw_strncmpPKcPKwji @ 10 NONAME
	_Z10rw_strncmpPKcS0_ji @ 11 NONAME
	_Z10rw_strncmpPKwPKcji @ 12 NONAME
	_Z10rw_strncmpPKwS0_ji @ 13 NONAME
	_Z11rw_sprintfaPKcz @ 14 NONAME
	_Z11rw_vsetoptsPKcSt9__va_list @ 15 NONAME
	_Z12rw_asnprintfPPcPjPKcz @ 16 NONAME
	_Z12rw_localedefPKcS0_S0_S0_ @ 17 NONAME
	_Z12rw_snprintfaPcjPKcz @ 18 NONAME
	_Z13rw_vasnprintfPPcPjPKcSt9__va_list @ 19 NONAME
	_Z14gen_seq_2listsv @ 20 NONAME
	_Z17Getn_total_op_eq_v @ 21 NONAME
	_Z18rw_set_locale_rootv @ 22 NONAME
	_Z21Getn_total_op_assign_v @ 23 NONAME
	_Z7gen_rndv @ 24 NONAME
	_Z7gen_seqv @ 25 NONAME
	_Z7rw_infoiPKciS0_z @ 26 NONAME
	_Z7rw_noteiPKciS0_z @ 27 NONAME
	_Z7rw_testiPPcPKcS2_S2_PFiiS0_ES2_z @ 28 NONAME
	_Z7rw_warniPKciS0_z @ 29 NONAME
	_Z8Get_gen_v @ 30 NONAME
	_Z8rw_erroriPKciS0_z @ 31 NONAME
	_Z8rw_fataliPKciS0_z @ 32 NONAME
	_Z8rw_freadPKcPjS0_ @ 33 NONAME
	_Z8rw_fsizePKc @ 34 NONAME
	_Z8rw_vtestiPPcPKcS2_S2_PFiiS0_ES2_St9__va_list @ 35 NONAME
	_Z9pcs_writePvPKc @ 36 NONAME
	_Z9rw_assertiPKciS0_z @ 37 NONAME
	_Z9rw_dblcmpdd @ 38 NONAME
	_Z9rw_fltcmpff @ 39 NONAME
	_Z9rw_fwritePKcPKvjS0_ @ 40 NONAME
	_Z9rw_localePKcS0_ @ 41 NONAME
	_Z9rw_printfPKcz @ 42 NONAME
	_Z9rw_putenvPKci @ 43 NONAME
	_Z9rw_systemPKcz @ 44 NONAME
	_Z9rw_tmpnamPc @ 45 NONAME
	_Z9rw_valcmpPKvS0_jjji @ 46 NONAME
	_ZN1X13n_total_dtor_E @ 47 NONAME
	_ZN1X14n_total_op_lt_E @ 48 NONAME
	_ZN1X15_n_total_op_eq_E @ 49 NONAME
	_ZN1X17n_total_def_ctor_E @ 50 NONAME
	_ZN1X18n_total_copy_ctor_E @ 51 NONAME
	_ZN1X19_n_total_op_assign_E @ 52 NONAME
	_ZN1X5_gen_E @ 53 NONAME
	_ZN8rw_any_t5tostrEPKc @ 54 NONAME
	_ZN8rw_any_tC1EPKc @ 55 NONAME
	_ZN8rw_any_tC1EPKv @ 56 NONAME
	_ZN8rw_any_tC1EPKw @ 57 NONAME
	_ZN8rw_any_tC1ERKS_ @ 58 NONAME
	_ZN8rw_any_tC1Ea @ 59 NONAME
	_ZN8rw_any_tC1Eb @ 60 NONAME
	_ZN8rw_any_tC1Ec @ 61 NONAME
	_ZN8rw_any_tC1Ed @ 62 NONAME
	_ZN8rw_any_tC1Ee @ 63 NONAME
	_ZN8rw_any_tC1Ef @ 64 NONAME
	_ZN8rw_any_tC1Eh @ 65 NONAME
	_ZN8rw_any_tC1Ei @ 66 NONAME
	_ZN8rw_any_tC1Ej @ 67 NONAME
	_ZN8rw_any_tC1El @ 68 NONAME
	_ZN8rw_any_tC1Em @ 69 NONAME
	_ZN8rw_any_tC1Es @ 70 NONAME
	_ZN8rw_any_tC1Et @ 71 NONAME
	_ZN8rw_any_tC1Ew @ 72 NONAME
	_ZN8rw_any_tC2EPKc @ 73 NONAME
	_ZN8rw_any_tC2EPKv @ 74 NONAME
	_ZN8rw_any_tC2EPKw @ 75 NONAME
	_ZN8rw_any_tC2ERKS_ @ 76 NONAME
	_ZN8rw_any_tC2Ea @ 77 NONAME
	_ZN8rw_any_tC2Eb @ 78 NONAME
	_ZN8rw_any_tC2Ec @ 79 NONAME
	_ZN8rw_any_tC2Ed @ 80 NONAME
	_ZN8rw_any_tC2Ee @ 81 NONAME
	_ZN8rw_any_tC2Ef @ 82 NONAME
	_ZN8rw_any_tC2Eh @ 83 NONAME
	_ZN8rw_any_tC2Ei @ 84 NONAME
	_ZN8rw_any_tC2Ej @ 85 NONAME
	_ZN8rw_any_tC2El @ 86 NONAME
	_ZN8rw_any_tC2Em @ 87 NONAME
	_ZN8rw_any_tC2Es @ 88 NONAME
	_ZN8rw_any_tC2Et @ 89 NONAME
	_ZN8rw_any_tC2Ew @ 90 NONAME
	_ZN8rw_any_tD1Ev @ 91 NONAME
	_ZN8rw_any_tD2Ev @ 92 NONAME
	_ZN8rw_any_taSERKS_ @ 93 NONAME
	_ZNK8rw_any_t9type_nameEv @ 94 NONAME
	_ZTI14UnaryPredicate @ 95 NONAME ; #<TI>#
	_ZTI15BinaryPredicate @ 96 NONAME ; #<TI>#
	_ZTV14UnaryPredicate @ 97 NONAME ; #<VT>#
	_ZTV15BinaryPredicate @ 98 NONAME ; #<VT>#
	rw_stderr @ 99 NONAME
	rw_stdout @ 100 NONAME
	_Z5WCtoCPKwiPc @ 101 NONAME
	_Z9rw_strcmpRSbIwSt11char_traitsIwESaIwEEe @ 102 NONAME
	_Z9rw_strcmpRSse @ 103 NONAME
	_ZN14UnaryPredicateC1ERKS_ @ 104 NONAME
	_ZN14UnaryPredicateC1Ev @ 105 NONAME
	_ZN14UnaryPredicateC2ERKS_ @ 106 NONAME
	_ZN14UnaryPredicateC2Ev @ 107 NONAME
	_ZN14UnaryPredicateD0Ev @ 108 NONAME
	_ZN14UnaryPredicateD1Ev @ 109 NONAME
	_ZN14UnaryPredicateD2Ev @ 110 NONAME
	_ZN14UnaryPredicateaSERKS_ @ 111 NONAME
	_ZN15BinaryPredicateC1Eb @ 112 NONAME
	_ZN15BinaryPredicateC2Eb @ 113 NONAME
	_ZN15BinaryPredicateD0Ev @ 114 NONAME
	_ZN15BinaryPredicateD1Ev @ 115 NONAME
	_ZN15BinaryPredicateD2Ev @ 116 NONAME
	_ZN15BinaryPredicateaSERKS_ @ 117 NONAME
	_ZN1X7compareEPKS_PKcj @ 118 NONAME
	_ZN1X7compareEPKS_S1_j @ 119 NONAME
	_ZN1X7compareEPKcPKS_j @ 120 NONAME
	_ZN1X8is_totalEjjjjjj @ 121 NONAME
	_ZN1XC1ERKS_ @ 122 NONAME
	_ZN1XC1Ev @ 123 NONAME
	_ZN1XC2ERKS_ @ 124 NONAME
	_ZN1XC2Ev @ 125 NONAME
	_ZN1XD1Ev @ 126 NONAME
	_ZN1XD2Ev @ 127 NONAME
	_ZN1XaSERKS_ @ 128 NONAME
	_ZN4__rw14__rw_exception9_C_assignEPKcj @ 129 NONAME
	_ZN4__rw14__rw_exceptionC1EPKc @ 130 NONAME
	_ZN4__rw14__rw_exceptionC1ERKS0_ @ 131 NONAME
	_ZN4__rw14__rw_exceptionC1ERKSs @ 132 NONAME
	_ZN4__rw14__rw_exceptionC1Ev @ 133 NONAME
	_ZN4__rw14__rw_exceptionC2EPKc @ 134 NONAME
	_ZN4__rw14__rw_exceptionC2ERKS0_ @ 135 NONAME
	_ZN4__rw14__rw_exceptionC2ERKSs @ 136 NONAME
	_ZN4__rw14__rw_exceptionC2Ev @ 137 NONAME
	_ZN4__rw14__rw_exceptionD0Ev @ 138 NONAME
	_ZN4__rw14__rw_exceptionD1Ev @ 139 NONAME
	_ZN4__rw14__rw_exceptionD2Ev @ 140 NONAME
	_ZN4__rw14__rw_exceptionaSERKS0_ @ 141 NONAME
	_ZNK14UnaryPredicateclERK1X @ 142 NONAME
	_ZNK15BinaryPredicateclERK1XS2_ @ 143 NONAME
	_ZNK1X8is_countEjjjj @ 144 NONAME
	_ZNK1XeqERKS_ @ 145 NONAME
	_ZNK1XltERKS_ @ 146 NONAME
	_ZNK4__rw14__rw_exception4whatEv @ 147 NONAME
	_ZTIN4__rw14__rw_exceptionE @ 148 NONAME ; #<TI>#
	_ZTVN4__rw14__rw_exceptionE @ 149 NONAME ; #<VT>#
	_ZN14UnaryPredicate17n_total_op_fcall_E @ 150 NONAME ABSENT
	_ZN15BinaryPredicate17n_total_op_fcall_E @ 151 NONAME ABSENT
	_ZN15BinaryPredicateC1ERKS_ @ 152 NONAME ABSENT
	_ZN15BinaryPredicateC2ERKS_ @ 153 NONAME ABSENT
	_ZN1X15dtor_throw_ptr_E @ 154 NONAME ABSENT
	_ZN1X16op_eq_throw_ptr_E @ 155 NONAME ABSENT
	_ZN1X16op_lt_throw_ptr_E @ 156 NONAME ABSENT
	_ZN1X17dtor_throw_count_E @ 157 NONAME ABSENT
	_ZN1X18op_eq_throw_count_E @ 158 NONAME ABSENT
	_ZN1X18op_lt_throw_count_E @ 159 NONAME ABSENT
	_ZN1X19def_ctor_throw_ptr_E @ 160 NONAME ABSENT
	_ZN1X20copy_ctor_throw_ptr_E @ 161 NONAME ABSENT
	_ZN1X20op_assign_throw_ptr_E @ 162 NONAME ABSENT
	_ZN1X21def_ctor_throw_count_E @ 163 NONAME ABSENT
	_ZN1X22copy_ctor_throw_count_E @ 164 NONAME ABSENT
	_ZN1X22op_assign_throw_count_E @ 165 NONAME ABSENT
	_ZN1X6count_E @ 166 NONAME ABSENT
	_ZN1X7id_gen_E @ 167 NONAME ABSENT
	_ZN1X9from_charEPKcj @ 168 NONAME ABSENT

