EXPORTS
	?SpareExport1@@YAXXZ @ 1 NONAME ABSENT
	?SpareExport2@@YAXXZ @ 2 NONAME ABSENT
	??0CTextLayout@@AAE@XZ @ 3 NONAME ; private: __thiscall CTextLayout::CTextLayout(void)
	??0CTextView@@AAE@XZ @ 4 NONAME ; private: __thiscall CTextView::CTextView(void)
	??0TDrawTextLayoutContext@@QAE@XZ @ 5 NONAME ; public: __thiscall TDrawTextLayoutContext::TDrawTextLayoutContext(void)
	??0TFrameOverlay@@QAE@XZ @ 6 NONAME ; public: __thiscall TFrameOverlay::TFrameOverlay(void)
	??0TNonPrintingCharVisibility@@QAE@ABV0@@Z @ 7 NONAME ; public: __thiscall TNonPrintingCharVisibility::TNonPrintingCharVisibility(class TNonPrintingCharVisibility const &)
	??0TNonPrintingCharVisibility@@QAE@XZ @ 8 NONAME ; public: __thiscall TNonPrintingCharVisibility::TNonPrintingCharVisibility(void)
	?SpareExport3@@YAXXZ @ 9 NONAME ABSENT
	?SpareExport4@@YAXXZ @ 10 NONAME ABSENT
	??1CTextLayout@@UAE@XZ @ 11 NONAME ; public: virtual __thiscall CTextLayout::~CTextLayout(void)
	??1CTextPageRegionPrinter@@UAE@XZ @ 12 NONAME ; public: virtual __thiscall CTextPageRegionPrinter::~CTextPageRegionPrinter(void)
	??1CTextPaginator@@UAE@XZ @ 13 NONAME ; public: virtual __thiscall CTextPaginator::~CTextPaginator(void)
	??1CTextView@@UAE@XZ @ 14 NONAME ; public: virtual __thiscall CTextView::~CTextView(void)
	??4TNonPrintingCharVisibility@@QAEAAV0@ABV0@@Z @ 15 NONAME ; public: class TNonPrintingCharVisibility & __thiscall TNonPrintingCharVisibility::operator=(class TNonPrintingCharVisibility const &)
	?AdjustVerticalAlignment@CTextLayout@@QAEXW4TAlignment@CParaFormat@@@Z @ 16 NONAME ; public: void __thiscall CTextLayout::AdjustVerticalAlignment(enum CParaFormat::TAlignment)
	?AppendTextL@CTextPaginator@@QAEHAAH@Z @ 17 NONAME ; public: int __thiscall CTextPaginator::AppendTextL(int &)
	?BandHeight@CTextLayout@@QBEHXZ @ 18 NONAME ; public: int __thiscall CTextLayout::BandHeight(void)const 
	?CalculateHorizontalExtremesL@CTextLayout@@QBEHAAH0HH@Z @ 19 NONAME ; public: int __thiscall CTextLayout::CalculateHorizontalExtremesL(int &,int &,int,int)const 
	?CalculateHorizontalExtremesL@CTextView@@QAEXAAH0H@Z @ 20 NONAME ; public: void __thiscall CTextView::CalculateHorizontalExtremesL(int &,int &,int)
	?CancelSelectionL@CTextView@@QAEXXZ @ 21 NONAME ; public: void __thiscall CTextView::CancelSelectionL(void)
	?ChangeBandTopL@CTextLayout@@QAEHAAHW4TAllowDisallow@1@@Z @ 22 NONAME ; public: int __thiscall CTextLayout::ChangeBandTopL(int &,enum CTextLayout::TAllowDisallow)
	?ClearFlags@TFrameOverlay@@QAEXH@Z @ 23 NONAME ; public: void __thiscall TFrameOverlay::ClearFlags(int)
	?ConstructL@CTextLayout@@AAEXPAVMLayDoc@@H@Z @ 24 NONAME ; private: void __thiscall CTextLayout::ConstructL(class MLayDoc *,int)
	?ConstructL@CTextView@@AAEXPAVCTextLayout@@ABVTRect@@PAVCBitmapDevice@@PAVMGraphicsDeviceMap@@PAVRWindow@@PAVRWindowGroup@@PAVRWsSession@@@Z @ 25 NONAME ; private: void __thiscall CTextView::ConstructL(class CTextLayout *,class TRect const &,class CBitmapDevice *,class MGraphicsDeviceMap *,class RWindow *,class RWindowGroup *,class RWsSession *)
	?CustomDraw@CTextLayout@@QBEPBVMFormCustomDraw@@XZ @ 26 NONAME ; public: class MFormCustomDraw const * __thiscall CTextLayout::CustomDraw(void)const 
	?DiscardFormat@CTextLayout@@QAEXXZ @ 27 NONAME ; public: void __thiscall CTextLayout::DiscardFormat(void)
	?DisplayHeight@TDrawTextLayoutContext@@QBEHXZ @ 28 NONAME ; public: int __thiscall TDrawTextLayoutContext::DisplayHeight(void)const 
	?DocPosToXyPosL@CTextLayout@@QBEHHAAVTPoint@@I@Z @ 29 NONAME ; public: int __thiscall CTextLayout::DocPosToXyPosL(int,class TPoint &,unsigned int)const 
	?DocPosToXyPosL@CTextView@@QAEHHAAVTPoint@@@Z @ 30 NONAME ; public: int __thiscall CTextView::DocPosToXyPosL(int,class TPoint &)
	?DocumentLength@CTextLayout@@QBEHXZ @ 31 NONAME ; public: int __thiscall CTextLayout::DocumentLength(void)const 
	?DrawBackground@MFormCustomDraw@@UBEXABVTParam@1@ABVTRgb@@AAVTRect@@@Z @ 32 NONAME ; public: virtual void __thiscall MFormCustomDraw::DrawBackground(class MFormCustomDraw::TParam const &,class TRgb const &,class TRect &)const 
	?DrawBorders@CTextLayout@@SAXPBVMGraphicsDeviceMap@@AAVCGraphicsContext@@ABVTRect@@ABVTParaBorderArray@@PBVTRgb@@PAVTRegion@@PBV4@@Z @ 33 NONAME ; public: static void __cdecl CTextLayout::DrawBorders(class MGraphicsDeviceMap const *,class CGraphicsContext &,class TRect const &,class TParaBorderArray const &,class TRgb const *,class TRegion *,class TRect const *)
	?DrawGraphics@TDrawTextLayoutContext@@QBEHXZ @ 34 NONAME ; public: int __thiscall TDrawTextLayoutContext::DrawGraphics(void)const 
	?DrawL@CTextLayout@@QAEXABVTRect@@PBVTDrawTextLayoutContext@@PBVTCursorSelection@@@Z @ 35 NONAME ; public: void __thiscall CTextLayout::DrawL(class TRect const &,class TDrawTextLayoutContext const *,class TCursorSelection const *)
	?DrawL@CTextView@@QAEXVTRect@@@Z @ 36 NONAME ; public: void __thiscall CTextView::DrawL(class TRect)
	?DrawL@CTextView@@QAEXVTRect@@AAVCBitmapContext@@@Z @ 37 NONAME ; public: void __thiscall CTextView::DrawL(class TRect,class CBitmapContext &)
	?DrawLineGraphics@MFormCustomDraw@@UBEXABVTParam@1@ABVTLineInfo@1@@Z @ 38 NONAME ; public: virtual void __thiscall MFormCustomDraw::DrawLineGraphics(class MFormCustomDraw::TParam const &,class MFormCustomDraw::TLineInfo const &)const 
	?DrawText@MFormCustomDraw@@UBEXABVTParam@1@ABVTLineInfo@1@ABVTCharFormat@@ABVTDesC16@@ABVTPoint@@H@Z @ 39 NONAME ; public: virtual void __thiscall MFormCustomDraw::DrawText(class MFormCustomDraw::TParam const &,class MFormCustomDraw::TLineInfo const &,class TCharFormat const &,class TDesC16 const &,class TPoint const &,int)const 
	?DrawText@TDrawTextLayoutContext@@QBEHXZ @ 40 NONAME ; public: int __thiscall TDrawTextLayoutContext::DrawText(void)const 
	?EnablePictureFrameL@CTextView@@QAEXH@Z @ 41 NONAME ; public: void __thiscall CTextView::EnablePictureFrameL(int)
	?ExcludingPartialLines@CTextLayout@@QBEHXZ @ 42 NONAME ; public: int __thiscall CTextLayout::ExcludingPartialLines(void)const 
	?ExternalizeL@TNonPrintingCharVisibility@@QBEXAAVRWriteStream@@@Z @ 43 NONAME ; public: void __thiscall TNonPrintingCharVisibility::ExternalizeL(class RWriteStream &)const 
	?FinishBackgroundFormattingL@CTextView@@QAEXXZ @ 44 NONAME ; public: void __thiscall CTextView::FinishBackgroundFormattingL(void)
	?FirstCharOnLine@CTextLayout@@QBEHH@Z @ 45 NONAME ; public: int __thiscall CTextLayout::FirstCharOnLine(int)const 
	?FirstDocPosFullyInBand@CTextLayout@@QBEHXZ @ 46 NONAME ; public: int __thiscall CTextLayout::FirstDocPosFullyInBand(void)const 
	?FirstFormattedPos@CTextLayout@@QBEHXZ @ 47 NONAME ; public: int __thiscall CTextLayout::FirstFormattedPos(void)const 
	?FirstLineInBand@CTextLayout@@QBEHXZ @ 48 NONAME ; public: int __thiscall CTextLayout::FirstLineInBand(void)const 
	?FontHeightIncreaseFactor@CTextLayout@@QBEHXZ @ 49 NONAME ; public: int __thiscall CTextLayout::FontHeightIncreaseFactor(void)const 
	?ForceNoWrapping@CTextLayout@@QAEXH@Z @ 50 NONAME ; public: void __thiscall CTextLayout::ForceNoWrapping(int)
	?FormatBandL@CTextLayout@@QAEXXZ @ 51 NONAME ; public: void __thiscall CTextLayout::FormatBandL(void)
	?FormatCharRangeL@CTextLayout@@QAEXHH@Z @ 52 NONAME ; public: void __thiscall CTextLayout::FormatCharRangeL(int,int)
	?FormatLineL@CTextLayout@@QAEHPAVCParaFormat@@AAH11@Z @ 53 NONAME ; public: int __thiscall CTextLayout::FormatLineL(class CParaFormat *,int &,int &,int &)
	?FormatNextLineL@CTextLayout@@QAEHAAH@Z @ 54 NONAME ; public: int __thiscall CTextLayout::FormatNextLineL(int &)
	?FormatTextL@CTextView@@QAEXXZ @ 55 NONAME ; public: void __thiscall CTextView::FormatTextL(void)
	?FormattedHeightInPixels@CTextLayout@@QBEHXZ @ 56 NONAME ; public: int __thiscall CTextLayout::FormattedHeightInPixels(void)const 
	?FormattedLength@CTextLayout@@QBEHXZ @ 57 NONAME ; public: int __thiscall CTextLayout::FormattedLength(void)const 
	?Get@MFormParam@@SAPBV1@XZ @ 58 NONAME ; public: static class MFormParam const * __cdecl MFormParam::Get(void)
	?GetCharacterHeightAndAscentL@CTextLayout@@QBEXHAAH0@Z @ 59 NONAME ; public: void __thiscall CTextLayout::GetCharacterHeightAndAscentL(int,int &,int &)const 
	?GetFontHeightAndAscentL@CTextLayout@@QBEXABVTFontSpec@@AAH1@Z @ 60 NONAME ; public: void __thiscall CTextLayout::GetFontHeightAndAscentL(class TFontSpec const &,int &,int &)const 
	?GetLineRect@CTextLayout@@QBEHHAAVTRect@@@Z @ 61 NONAME ; public: int __thiscall CTextLayout::GetLineRect(int,class TRect &)const 
	?GetLineRectL@CTextLayout@@QBE?AVTRect@@HH@Z @ 62 NONAME ; public: class TRect  __thiscall CTextLayout::GetLineRectL(int,int)const 
	?GetMinimumSizeL@CTextLayout@@QAEXHAAVTSize@@@Z @ 63 NONAME ; public: void __thiscall CTextLayout::GetMinimumSizeL(int,class TSize &)
	?GetPictureRectangleL@CTextView@@QAEHVTPoint@@AAVTRect@@PAH@Z @ 64 NONAME ; public: int __thiscall CTextView::GetPictureRectangleL(class TPoint,class TRect &,int *)
	?GetPictureRectangleL@CTextView@@QBEHHAAVTRect@@PAH@Z @ 65 NONAME ; public: int __thiscall CTextView::GetPictureRectangleL(int,class TRect &,int *)const 
	?GutterMargin@TDrawTextLayoutContext@@QBE?AVTRect@@XZ @ 66 NONAME ; public: class TRect  __thiscall TDrawTextLayoutContext::GutterMargin(void)const 
	?HandleAdditionalCharactersAtEndL@CTextLayout@@QAEXAAH0@Z @ 67 NONAME ; public: void __thiscall CTextLayout::HandleAdditionalCharactersAtEndL(int &,int &)
	?HandleAdditionalCharactersAtEndL@CTextView@@QAEXXZ @ 68 NONAME ; public: void __thiscall CTextView::HandleAdditionalCharactersAtEndL(void)
	?HandleBlockChangeL@CTextLayout@@QAEXVTCursorSelection@@HAAVTViewRectChanges@@H@Z @ 69 NONAME ; public: void __thiscall CTextLayout::HandleBlockChangeL(class TCursorSelection,int,class TViewRectChanges &,int)
	?HandleCharEditL@CTextLayout@@QAEHIAAH0000H@Z @ 70 NONAME ; public: int __thiscall CTextLayout::HandleCharEditL(unsigned int,int &,int &,int &,int &,int &,int)
	?HandleCharEditL@CTextView@@QAEHIH@Z @ 71 NONAME ; public: int __thiscall CTextView::HandleCharEditL(unsigned int,int)
	?HandleGlobalChangeL@CTextView@@QAEXVTViewYPosQualifier@@@Z @ 72 NONAME ; public: void __thiscall CTextView::HandleGlobalChangeL(class TViewYPosQualifier)
	?HandleGlobalChangeNoRedrawL@CTextView@@QAEXVTViewYPosQualifier@@@Z @ 73 NONAME ; public: void __thiscall CTextView::HandleGlobalChangeNoRedrawL(class TViewYPosQualifier)
	?HandleInsertDeleteL@CTextView@@QAE?AVTPoint@@VTCursorSelection@@HH@Z @ 74 NONAME ; public: class TPoint  __thiscall CTextView::HandleInsertDeleteL(class TCursorSelection,int,int)
	?HandleRangeFormatChangeL@CTextView@@QAE?AVTPoint@@VTCursorSelection@@H@Z @ 75 NONAME ; public: class TPoint  __thiscall CTextView::HandleRangeFormatChangeL(class TCursorSelection,int)
	?SpareExport5@@YAXXZ @ 76 NONAME ABSENT
	?HorizontalScrollJump@CTextView@@QBEHXZ @ 77 NONAME ; public: int __thiscall CTextView::HorizontalScrollJump(void)const 
	?IdleL@CTextView@@CAHPAX@Z @ 78 NONAME ; private: static int __cdecl CTextView::IdleL(void *)
	?InternalizeL@TNonPrintingCharVisibility@@QAEXAAVRReadStream@@@Z @ 79 NONAME ; public: void __thiscall TNonPrintingCharVisibility::InternalizeL(class RReadStream &)
	?InvertRangeL@CTextLayout@@QAEXABVTCursorSelection@@ABVTRect@@PBVTDrawTextLayoutContext@@@Z @ 80 NONAME ; public: void __thiscall CTextLayout::InvertRangeL(class TCursorSelection const &,class TRect const &,class TDrawTextLayoutContext const *)
	?IsBackgroundFormatting@CTextLayout@@QBEHXZ @ 81 NONAME ; public: int __thiscall CTextLayout::IsBackgroundFormatting(void)const 
	?IsFormattingBand@CTextLayout@@QBEHXZ @ 82 NONAME ; public: int __thiscall CTextLayout::IsFormattingBand(void)const 
	?IsGutterMargin@TDrawTextLayoutContext@@QBEHXZ @ 83 NONAME ; public: int __thiscall TDrawTextLayoutContext::IsGutterMargin(void)const 
	?IsLabelMargin@TDrawTextLayoutContext@@QBEHXZ @ 84 NONAME ; public: int __thiscall TDrawTextLayoutContext::IsLabelMargin(void)const 
	?IsPictureFrameSelected@CTextView@@QBEHAAVTRect@@AAH@Z @ 85 NONAME ; public: int __thiscall CTextView::IsPictureFrameSelected(class TRect &,int &)const 
	?IsWrapping@CTextLayout@@QBEHXZ @ 86 NONAME ; public: int __thiscall CTextLayout::IsWrapping(void)const 
	?LabelMargin@TDrawTextLayoutContext@@QBE?AVTRect@@XZ @ 87 NONAME ; public: class TRect  __thiscall TDrawTextLayoutContext::LabelMargin(void)const 
	?LeftTextMargin@CTextView@@QBEHXZ @ 88 NONAME ; public: int __thiscall CTextView::LeftTextMargin(void)const 
	?GetCustomInvisibleCharacterRemapper@CTextLayout@@QAEPAVMFormCustomInvisibleCharacterRemapper@@XZ @ 89 NONAME ; class MFormCustomInvisibleCharacterRemapper * CTextLayout::GetCustomInvisibleCharacterRemapper(void)
	?DrawText@MFormCustomDraw@@UBEXABVTParam@1@ABVTLineInfo@1@ABVTCharFormat@@ABVTDesC16@@HHABVTPoint@@H@Z @ 90  NONAME ; void MFormCustomDraw::DrawText(class MFormCustomDraw::TParam const &, class MFormCustomDraw::TLineInfo const &, class TCharFormat const &, class TDesC16 const &, int, int, class TPoint const &, int) const
	?MFormCustomDraw_Reserved_2@MFormCustomDraw@@UAEXXZ @ 91 NONAME ; public: virtual void __thiscall MFormCustomDraw::MFormCustomDraw_Reserved_2(void)
	?MajorVersion@CTextLayout@@QBEHXZ @ 92 NONAME ; public: int __thiscall CTextLayout::MajorVersion(void)const 
	?MarginWidths@CTextView@@QBEXAAH0@Z @ 93 NONAME ; public: void __thiscall CTextView::MarginWidths(int &,int &)const 
	?MatchCursorHeightL@CTextView@@QAEXABVTFontSpec@@@Z @ 94 NONAME ; public: void __thiscall CTextView::MatchCursorHeightL(class TFontSpec const &)
	?MatchCursorHeightToAdjacentChar@CTextView@@QAEXW4TBeforeAfter@1@@Z @ 95 NONAME ; public: void __thiscall CTextView::MatchCursorHeightToAdjacentChar(enum CTextView::TBeforeAfter)
	?MinimumLineDescent@CTextLayout@@QBEHXZ @ 96 NONAME ; public: int __thiscall CTextLayout::MinimumLineDescent(void)const 
	?MoveCursorL@CTextView@@QAE?AVTPoint@@AAW4TMovementType@TCursorPosition@@H@Z @ 97 NONAME ; public: class TPoint  __thiscall CTextView::MoveCursorL(enum TCursorPosition::TMovementType &,int)
	?NewL@CTextLayout@@SAPAV1@PAVMLayDoc@@H@Z @ 98 NONAME ; public: static class CTextLayout * __cdecl CTextLayout::NewL(class MLayDoc *,int)
	?NewL@CTextPageRegionPrinter@@SAPAV1@PAVMLayDoc@@PAVCPrinterDevice@@@Z @ 99 NONAME ; public: static class CTextPageRegionPrinter * __cdecl CTextPageRegionPrinter::NewL(class MLayDoc *,class CPrinterDevice *)
	?NewL@CTextPaginator@@SAPAV1@PAVCPrinterDevice@@PAV?$CArrayFix@H@@H@Z @ 100 NONAME ; public: static class CTextPaginator * __cdecl CTextPaginator::NewL(class CPrinterDevice *,class CArrayFix<int> *,int)
	?NewL@CTextView@@SAPAV1@PAVCTextLayout@@ABVTRect@@PAVCBitmapDevice@@PAVMGraphicsDeviceMap@@PAVRWindow@@PAVRWindowGroup@@PAVRWsSession@@@Z @ 101 NONAME ; public: static class CTextView * __cdecl CTextView::NewL(class CTextLayout *,class TRect const &,class CBitmapDevice *,class MGraphicsDeviceMap *,class RWindow *,class RWindowGroup *,class RWsSession *)
	?NonPrintingCharsVisibility@CTextLayout@@QBE?AVTNonPrintingCharVisibility@@XZ @ 102 NONAME ; public: class TNonPrintingCharVisibility  __thiscall CTextLayout::NonPrintingCharsVisibility(void)const 
	?NotifyTerminateBackgroundFormatting@CTextLayout@@QAEXXZ @ 103 NONAME ; public: void __thiscall CTextLayout::NotifyTerminateBackgroundFormatting(void)
	?SetCustomInvisibleCharacterRemapper@CTextLayout@@QAEXPAVMFormCustomInvisibleCharacterRemapper@@@Z @ 104 NONAME ; void CTextLayout::SetCustomInvisibleCharacterRemapper(class MFormCustomInvisibleCharacterRemapper *)
	?DefaultMapping@MFormCustomInvisibleCharacterRemapper@@SAIIVTNonPrintingCharVisibility@@ABVTLayDocTextSource@@@Z @ 105 NONAME ; unsigned int MFormCustomInvisibleCharacterRemapper::DefaultMapping(unsigned int, class TNonPrintingCharVisibility, class TLayDocTextSource const &)
	?NumFormattedLines@CTextLayout@@QBEHXZ @ 106 NONAME ; public: int __thiscall CTextLayout::NumFormattedLines(void)const 
	?PageDownL@CTextLayout@@QAEXAAH0@Z @ 107 NONAME ; public: void __thiscall CTextLayout::PageDownL(int &,int &)
	?PageUpL@CTextLayout@@QAEXAAH0@Z @ 108 NONAME ; public: void __thiscall CTextLayout::PageUpL(int &,int &)
	?PaginateCompleteDocumentL@CTextPaginator@@QAEXXZ @ 109 NONAME ; public: void __thiscall CTextPaginator::PaginateCompleteDocumentL(void)
	?PaginationCompletedL@CTextPaginator@@QAEHXZ @ 110 NONAME ; public: int __thiscall CTextPaginator::PaginationCompletedL(void)
	?ParagraphFillTextOnly@TDrawTextLayoutContext@@QBEHXZ @ 111 NONAME ; public: int __thiscall TDrawTextLayoutContext::ParagraphFillTextOnly(void)const 
	?ParagraphHeight@CTextLayout@@QBEHH@Z @ 112 NONAME ; public: int __thiscall CTextLayout::ParagraphHeight(int)const 
	?ParagraphRectL@CTextLayout@@QBE?AVTRect@@H@Z @ 113 NONAME ; public: class TRect  __thiscall CTextLayout::ParagraphRectL(int)const 
	?ParagraphRectL@CTextView@@QBE?AVTRect@@H@Z @ 114 NONAME ; public: class TRect  __thiscall CTextView::ParagraphRectL(int)const 
	?PictureGc@TDrawTextLayoutContext@@QBEPAVCGraphicsContext@@XZ @ 115 NONAME ; public: class CGraphicsContext * __thiscall TDrawTextLayoutContext::PictureGc(void)const 
	?PictureRectangleL@CTextLayout@@QBEHABVTPoint@@AAVTRect@@PAH@Z @ 116 NONAME ; public: int __thiscall CTextLayout::PictureRectangleL(class TPoint const &,class TRect &,int *)const 
	?PictureRectangleL@CTextLayout@@QBEHHAAVTRect@@PAH@Z @ 117 NONAME ; public: int __thiscall CTextLayout::PictureRectangleL(int,class TRect &,int *)const 
	?PixelsAboveBand@CTextLayout@@QBEHXZ @ 118 NONAME ; public: int __thiscall CTextLayout::PixelsAboveBand(void)const 
	?PosInBand@CTextLayout@@QBEHHAAVTPoint@@@Z @ 119 NONAME ; public: int __thiscall CTextLayout::PosInBand(int,class TPoint &)const 
	?PosIsFormatted@CTextLayout@@QBEHH@Z @ 120 NONAME ; public: int __thiscall CTextLayout::PosIsFormatted(int)const 
	?PosRangeInBand@CTextLayout@@QBEHAAH@Z @ 121 NONAME ; public: int __thiscall CTextLayout::PosRangeInBand(int &)const 
	?PrimaryGc@TDrawTextLayoutContext@@QBEPAVCGraphicsContext@@XZ @ 122 NONAME ; public: class CGraphicsContext * __thiscall TDrawTextLayoutContext::PrimaryGc(void)const 
	?PrintBandL@CTextPageRegionPrinter@@UAEXPAVCGraphicsDevice@@HABVTBandAttributes@@@Z @ 123 NONAME ; public: virtual void __thiscall CTextPageRegionPrinter::PrintBandL(class CGraphicsDevice *,int,class TBandAttributes const &)
	?ReformatVerticalSpaceL@CTextLayout@@QAEXXZ @ 124 NONAME ; public: void __thiscall CTextLayout::ReformatVerticalSpaceL(void)
	?Reserved@MFormParam@@UAEXXZ @ 125 NONAME ; public: virtual void __thiscall MFormParam::Reserved(void)
	?ScrollDisplayL@CTextView@@QAEHW4TMovementType@TCursorPosition@@W4TAllowDisallow@CTextLayout@@@Z @ 126 NONAME ; public: int __thiscall CTextView::ScrollDisplayL(enum TCursorPosition::TMovementType,enum CTextLayout::TAllowDisallow)
	?ScrollDisplayLinesL@CTextView@@QAEHAAHW4TAllowDisallow@CTextLayout@@@Z @ 127 NONAME ; public: int __thiscall CTextView::ScrollDisplayLinesL(int &,enum CTextLayout::TAllowDisallow)
	?ScrollDisplayParagraphsL@CTextView@@QAEHAAHW4TAllowDisallow@CTextLayout@@@Z @ 128 NONAME ; public: int __thiscall CTextView::ScrollDisplayParagraphsL(int &,enum CTextLayout::TAllowDisallow)
	?ScrollDisplayPixelsL@CTextView@@QAEXAAH@Z @ 129 NONAME ; public: void __thiscall CTextView::ScrollDisplayPixelsL(int &)
	?ScrollLinesL@CTextLayout@@QAEHAAHW4TAllowDisallow@1@@Z @ 130 NONAME ; public: int __thiscall CTextLayout::ScrollLinesL(int &,enum CTextLayout::TAllowDisallow)
	?ScrollParagraphsL@CTextLayout@@QAEHAAHW4TAllowDisallow@1@@Z @ 131 NONAME ; public: int __thiscall CTextLayout::ScrollParagraphsL(int &,enum CTextLayout::TAllowDisallow)
	?Selection@CTextView@@QBE?AVTCursorSelection@@XZ @ 132 NONAME ; public: class TCursorSelection  __thiscall CTextView::Selection(void)const 
	?Set@MFormParam@@SAXPBV1@@Z @ 133 NONAME ; public: static void __cdecl MFormParam::Set(class MFormParam const *)
	?SetActiveBlobWidthInPixels@TFrameOverlay@@QAEXH@Z @ 134 NONAME ; public: void __thiscall TFrameOverlay::SetActiveBlobWidthInPixels(int)
	?SetAllVisible@TNonPrintingCharVisibility@@QAEXXZ @ 135 NONAME ; public: void __thiscall TNonPrintingCharVisibility::SetAllVisible(void)
	?SetAmountToFormat@CTextLayout@@QAEXW4TAmountFormatted@1@@Z @ 136 NONAME ; public: void __thiscall CTextLayout::SetAmountToFormat(enum CTextLayout::TAmountFormatted)
	?SetBackgroundColor@CTextView@@QAEXVTRgb@@@Z @ 137 NONAME ; public: void __thiscall CTextView::SetBackgroundColor(class TRgb)
	?SetBandHeight@CTextLayout@@QAEXH@Z @ 138 NONAME ; public: void __thiscall CTextLayout::SetBandHeight(int)
	?SetBitmapGc@TDrawTextLayoutContext@@QAEXPAVCBitmapContext@@0@Z @ 139 NONAME ; public: void __thiscall TDrawTextLayoutContext::SetBitmapGc(class CBitmapContext *,class CBitmapContext *)
	?SetBlobWidthInPixels@TFrameOverlay@@QAEXH@Z @ 140 NONAME ; public: void __thiscall TFrameOverlay::SetBlobWidthInPixels(int)
	?SetClipping@TDrawTextLayoutContext@@QAEXH@Z @ 141 NONAME ; public: void __thiscall TDrawTextLayoutContext::SetClipping(int)
	?SetCursorVisibilityL@CTextView@@QAEXII@Z @ 142 NONAME ; public: void __thiscall CTextView::SetCursorVisibilityL(unsigned int,unsigned int)
	?SetCursorWidthTypeL@CTextView@@QAEXHH@Z @ 143 NONAME ; public: void __thiscall CTextView::SetCursorWidthTypeL(int,int)
	?SetCustomDraw@CTextLayout@@QAEXPBVMFormCustomDraw@@@Z @ 144 NONAME ; public: void __thiscall CTextLayout::SetCustomDraw(class MFormCustomDraw const *)
	?SetDisplayContextL@CTextView@@QAEXPAVCBitmapDevice@@PAVRWindow@@PAVRWindowGroup@@PAVRWsSession@@@Z @ 145 NONAME ; public: void __thiscall CTextView::SetDisplayContextL(class CBitmapDevice *,class RWindow *,class RWindowGroup *,class RWsSession *)
	?SetDocPosL@CTextView@@QAE?AVTPoint@@HH@Z @ 146 NONAME ; public: class TPoint  __thiscall CTextView::SetDocPosL(int,int)
	?SetDocument@CTextPageRegionPrinter@@QAEXPAVMLayDoc@@@Z @ 147 NONAME ; public: void __thiscall CTextPageRegionPrinter::SetDocument(class MLayDoc *)
	?SetDocumentL@CTextPaginator@@QAEXPAVMLayDoc@@@Z @ 148 NONAME ; public: void __thiscall CTextPaginator::SetDocumentL(class MLayDoc *)
	?SetDrawGraphicsOnly@TDrawTextLayoutContext@@QAEXXZ @ 149 NONAME ; public: void __thiscall TDrawTextLayoutContext::SetDrawGraphicsOnly(void)
	?SetDrawTextAndGraphics@TDrawTextLayoutContext@@QAEXXZ @ 150 NONAME ; public: void __thiscall TDrawTextLayoutContext::SetDrawTextAndGraphics(void)
	?SetDrawTextOnly@TDrawTextLayoutContext@@QAEXXZ @ 151 NONAME ; public: void __thiscall TDrawTextLayoutContext::SetDrawTextOnly(void)
	?SetDrawToEveryPixel@TDrawTextLayoutContext@@QAEXH@Z @ 152 NONAME ; public: void __thiscall TDrawTextLayoutContext::SetDrawToEveryPixel(int)
	?SetExcludePartialLines@CTextLayout@@QAEXH@Z @ 153 NONAME ; public: void __thiscall CTextLayout::SetExcludePartialLines(int)
	?SetFillScreen@TViewYPosQualifier@@QAEXH@Z @ 154 NONAME ; public: void __thiscall TViewYPosQualifier::SetFillScreen(int)
	?SetFirstPageOfDoc@CTextPageRegionPrinter@@QAEXH@Z @ 155 NONAME ; public: void __thiscall CTextPageRegionPrinter::SetFirstPageOfDoc(int)
	?SetFlags@TFrameOverlay@@QAEXH@Z @ 156 NONAME ; public: void __thiscall TFrameOverlay::SetFlags(int)
	?SetFontHeightIncreaseFactor@CTextLayout@@QAEXH@Z @ 157 NONAME ; public: void __thiscall CTextLayout::SetFontHeightIncreaseFactor(int)
	?SetFormatMode@CTextLayout@@QAEXW4TFormatMode@CLayoutData@@HPAVMGraphicsDeviceMap@@@Z @ 158 NONAME ; public: void __thiscall CTextLayout::SetFormatMode(enum CLayoutData::TFormatMode,int,class MGraphicsDeviceMap *)
	?SetGc@TDrawTextLayoutContext@@QAEXPAVCGraphicsContext@@0@Z @ 159 NONAME ; public: void __thiscall TDrawTextLayoutContext::SetGc(class CGraphicsContext *,class CGraphicsContext *)
	?SetHorizontalScrollJump@CTextView@@QAEXH@Z @ 160 NONAME ; public: void __thiscall CTextView::SetHorizontalScrollJump(int)
	?SetHotSpot@TViewYPosQualifier@@QAEXW4TPartOfLine@1@@Z @ 161 NONAME ; public: void __thiscall TViewYPosQualifier::SetHotSpot(enum TViewYPosQualifier::TPartOfLine)
	?SetImageDeviceMap@CTextLayout@@QAEXPAVMGraphicsDeviceMap@@@Z @ 162 NONAME ; public: void __thiscall CTextLayout::SetImageDeviceMap(class MGraphicsDeviceMap *)
	?SetLabelsDeviceMap@CTextLayout@@QAEXPAVMGraphicsDeviceMap@@@Z @ 163 NONAME ; public: void __thiscall CTextLayout::SetLabelsDeviceMap(class MGraphicsDeviceMap *)
	?SetLabelsMarginWidth@CTextLayout@@QAEXH@Z @ 164 NONAME ; public: void __thiscall CTextLayout::SetLabelsMarginWidth(int)
	?SetLatentXPosition@CTextView@@QAEXH@Z @ 165 NONAME ; public: void __thiscall CTextView::SetLatentXPosition(int)
	?SetLayDoc@CTextLayout@@QAEXPAVMLayDoc@@@Z @ 166 NONAME ; public: void __thiscall CTextLayout::SetLayDoc(class MLayDoc *)
	?SetLayout@CTextView@@QAEXPAVCTextLayout@@@Z @ 167 NONAME ; public: void __thiscall CTextView::SetLayout(class CTextLayout *)
	?SetLeftTextMargin@CTextView@@QAEXH@Z @ 168 NONAME ; public: void __thiscall CTextView::SetLeftTextMargin(int)
	?SetLineBreaksVisible@TNonPrintingCharVisibility@@QAEXH@Z @ 169 NONAME ; public: void __thiscall TNonPrintingCharVisibility::SetLineBreaksVisible(int)
	?SetLineCursorBitmap@CTextView@@QAEXPBVCFbsBitmap@@@Z @ 170 NONAME ; public: void __thiscall CTextView::SetLineCursorBitmap(class CFbsBitmap const *)
	?SetMakeLineFullyVisible@TViewYPosQualifier@@QAEXW4TFullyVisible@1@@Z @ 171 NONAME ; public: void __thiscall TViewYPosQualifier::SetMakeLineFullyVisible(enum TViewYPosQualifier::TFullyVisible)
	?SetMarginWidths@CTextView@@QAEXHH@Z @ 172 NONAME ; public: void __thiscall CTextView::SetMarginWidths(int,int)
	?SetMinimumLineDescent@CTextLayout@@QAEXH@Z @ 173 NONAME ; public: void __thiscall CTextLayout::SetMinimumLineDescent(int)
	?SetNonBreakingHyphensVisible@TNonPrintingCharVisibility@@QAEXH@Z @ 174 NONAME ; public: void __thiscall TNonPrintingCharVisibility::SetNonBreakingHyphensVisible(int)
	?SetNonBreakingSpacesVisible@TNonPrintingCharVisibility@@QAEXH@Z @ 175 NONAME ; public: void __thiscall TNonPrintingCharVisibility::SetNonBreakingSpacesVisible(int)
	?SetNonPrintingCharsVisibility@CTextLayout@@QAEXVTNonPrintingCharVisibility@@@Z @ 176 NONAME ; public: void __thiscall CTextLayout::SetNonPrintingCharsVisibility(class TNonPrintingCharVisibility)
	?SetNoneVisible@TNonPrintingCharVisibility@@QAEXXZ @ 177 NONAME ; public: void __thiscall TNonPrintingCharVisibility::SetNoneVisible(void)
	?SetObserver@CTextPaginator@@QAEXPAVMPaginateObserver@@@Z @ 178 NONAME ; public: void __thiscall CTextPaginator::SetObserver(class MPaginateObserver *)
	?SetPageBreaksVisible@TNonPrintingCharVisibility@@QAEXH@Z @ 179 NONAME ; public: void __thiscall TNonPrintingCharVisibility::SetPageBreaksVisible(int)
	?SetPageList@CTextPageRegionPrinter@@QAEXPBV?$CArrayFix@H@@@Z @ 180 NONAME ; public: void __thiscall CTextPageRegionPrinter::SetPageList(class CArrayFix<int> const *)
	?SetPageMarginsInTwips@CTextPageRegionPrinter@@QAEXABVTMargins@@@Z @ 181 NONAME ; public: void __thiscall CTextPageRegionPrinter::SetPageMarginsInTwips(class TMargins const &)
	?SetPageMarginsInTwips@CTextPaginator@@QAEXABVTMargins@@@Z @ 182 NONAME ; public: void __thiscall CTextPaginator::SetPageMarginsInTwips(class TMargins const &)
	?SetPageSpecInTwips@CTextPageRegionPrinter@@QAEXABVTPageSpec@@@Z @ 183 NONAME ; public: void __thiscall CTextPageRegionPrinter::SetPageSpecInTwips(class TPageSpec const &)
	?SetPageSpecInTwips@CTextPaginator@@QAEXABVTPageSpec@@@Z @ 184 NONAME ; public: void __thiscall CTextPaginator::SetPageSpecInTwips(class TPageSpec const &)
	?SetParagraphDelimitersVisible@TNonPrintingCharVisibility@@QAEXH@Z @ 185 NONAME ; public: void __thiscall TNonPrintingCharVisibility::SetParagraphDelimitersVisible(int)
	?SetParagraphFillTextOnly@CTextPageRegionPrinter@@QAEXH@Z @ 186 NONAME ; public: void __thiscall CTextPageRegionPrinter::SetParagraphFillTextOnly(int)
	?SetParagraphFillTextOnly@CTextView@@QAEXH@Z @ 187 NONAME ; public: void __thiscall CTextView::SetParagraphFillTextOnly(int)
	?SetParagraphFillTextOnly@TDrawTextLayoutContext@@QAEXH@Z @ 188 NONAME ; public: void __thiscall TDrawTextLayoutContext::SetParagraphFillTextOnly(int)
	?SetPendingSelection@CTextView@@QAEXABVTCursorSelection@@@Z @ 189 NONAME ; public: void __thiscall CTextView::SetPendingSelection(class TCursorSelection const &)
	?SetPotentialHyphensVisible@TNonPrintingCharVisibility@@QAEXH@Z @ 190 NONAME ; public: void __thiscall TNonPrintingCharVisibility::SetPotentialHyphensVisible(int)
	?SetPrintPreview@CTextPageRegionPrinter@@QAEXH@Z @ 191 NONAME ; public: void __thiscall CTextPageRegionPrinter::SetPrintPreview(int)
	?SetPrinterDevice@CTextPageRegionPrinter@@QAEXPAVCPrinterDevice@@@Z @ 192 NONAME ; public: void __thiscall CTextPageRegionPrinter::SetPrinterDevice(class CPrinterDevice *)
	?SetPrinterDevice@CTextPaginator@@QAEXPAVCPrinterDevice@@@Z @ 193 NONAME ; public: void __thiscall CTextPaginator::SetPrinterDevice(class CPrinterDevice *)
	?SetRect@TFrameOverlay@@QAEXABVTRect@@@Z @ 194 NONAME ; public: void __thiscall TFrameOverlay::SetRect(class TRect const &)
	?SetSelectionL@CTextView@@QAE?AVTPoint@@ABVTCursorSelection@@@Z @ 195 NONAME ; public: class TPoint  __thiscall CTextView::SetSelectionL(class TCursorSelection const &)
	?SetSelectionVisibilityL@CTextView@@QAEXH@Z @ 196 NONAME ; public: void __thiscall CTextView::SetSelectionVisibilityL(int)
	?SetSpacesVisible@TNonPrintingCharVisibility@@QAEXH@Z @ 197 NONAME ; public: void __thiscall TNonPrintingCharVisibility::SetSpacesVisible(int)
	?SetTabsVisible@TNonPrintingCharVisibility@@QAEXH@Z @ 198 NONAME ; public: void __thiscall TNonPrintingCharVisibility::SetTabsVisible(int)
	?SetTextColorOverride@CTextView@@QAEXPBVTRgb@@@Z @ 199 NONAME ; public: void __thiscall CTextView::SetTextColorOverride(class TRgb const *)
	?SetTextColorOverride@TDrawTextLayoutContext@@QAEXPBVTRgb@@@Z @ 200 NONAME ; public: void __thiscall TDrawTextLayoutContext::SetTextColorOverride(class TRgb const *)
	?SetTextMarginWidthsInTwips@CTextPageRegionPrinter@@QAEXHH@Z @ 201 NONAME ; public: void __thiscall CTextPageRegionPrinter::SetTextMarginWidthsInTwips(int,int)
	?SetTextMarginWidthsInTwips@CTextPaginator@@QAEXHH@Z @ 202 NONAME ; public: void __thiscall CTextPaginator::SetTextMarginWidthsInTwips(int,int)
	?SetTruncating@CTextLayout@@QAEXH@Z @ 203 NONAME ; public: void __thiscall CTextLayout::SetTruncating(int)
	?SetTruncatingEllipsis@CTextLayout@@QAEXVTChar@@@Z @ 204 NONAME ; public: void __thiscall CTextLayout::SetTruncatingEllipsis(class TChar)
	?SetViewL@CTextLayout@@QAEHHAAHVTViewYPosQualifier@@W4TDiscard@1@@Z @ 205 NONAME ; public: int __thiscall CTextLayout::SetViewL(int,int &,class TViewYPosQualifier,enum CTextLayout::TDiscard)
	?SetViewL@CTextView@@QAE?AVTPoint@@HAAHVTViewYPosQualifier@@W4TDiscard@1@W4TDoHorizontalScroll@1@@Z @ 206 NONAME ; public: class TPoint  __thiscall CTextView::SetViewL(int,int &,class TViewYPosQualifier,enum CTextView::TDiscard,enum CTextView::TDoHorizontalScroll)
	?SetViewLineAtTopL@CTextView@@QAE?AVTPoint@@H@Z @ 207 NONAME ; public: class TPoint  __thiscall CTextView::SetViewLineAtTopL(int)
	?SetViewRect@CTextView@@QAEXABVTRect@@@Z @ 208 NONAME ; public: void __thiscall CTextView::SetViewRect(class TRect const &)
	?SetVisibleBlobWidthInPixels@TFrameOverlay@@QAEXH@Z @ 209 NONAME ; public: void __thiscall TFrameOverlay::SetVisibleBlobWidthInPixels(int)
	?SetWindowGc@TDrawTextLayoutContext@@QAEXPAVCWindowGc@@0@Z @ 210 NONAME ; public: void __thiscall TDrawTextLayoutContext::SetWindowGc(class CWindowGc *,class CWindowGc *)
	?SetWrapWidth@CTextLayout@@QAEXH@Z @ 211 NONAME ; public: void __thiscall CTextLayout::SetWrapWidth(int)
	?SetXyPosL@CTextView@@QAE?AVTPoint@@V2@HAAPAVTRect@@AAH@Z @ 212 NONAME ; public: class TPoint  __thiscall CTextView::SetXyPosL(class TPoint,int,class TRect * &,int &)
	?SystemColor@MFormCustomDraw@@UBE?AVTRgb@@IV2@@Z @ 213 NONAME ; public: virtual class TRgb  __thiscall MFormCustomDraw::SystemColor(unsigned int,class TRgb)const 
	?TextArea@TDrawTextLayoutContext@@QBE?AVTRect@@XZ @ 214 NONAME ; public: class TRect  __thiscall TDrawTextLayoutContext::TextArea(void)const 
	?TextOverrideColor@TDrawTextLayoutContext@@QBEPBVTRgb@@XZ @ 215 NONAME ; public: class TRgb const * __thiscall TDrawTextLayoutContext::TextOverrideColor(void)const 
	?TextToWindow@TDrawTextLayoutContext@@QBEXAAVTPoint@@@Z @ 216 NONAME ; public: void __thiscall TDrawTextLayoutContext::TextToWindow(class TPoint &)const 
	?TextToWindow@TDrawTextLayoutContext@@QBEXAAVTRect@@@Z @ 217 NONAME ; public: void __thiscall TDrawTextLayoutContext::TextToWindow(class TRect &)const 
	?ToParagraphStart@CTextLayout@@QBEHAAH@Z @ 218 NONAME ; public: int __thiscall CTextLayout::ToParagraphStart(int &)const 
	?TopLeftText@TDrawTextLayoutContext@@QBE?AVTPoint@@XZ @ 219 NONAME ; public: class TPoint  __thiscall TDrawTextLayoutContext::TopLeftText(void)const 
	?TopLeftTextArea@TDrawTextLayoutContext@@QBE?AVTPoint@@XZ @ 220 NONAME ; public: class TPoint  __thiscall TDrawTextLayoutContext::TopLeftTextArea(void)const 
	?TotalMargin@TDrawTextLayoutContext@@QBE?AVTRect@@XZ @ 221 NONAME ; public: class TRect  __thiscall TDrawTextLayoutContext::TotalMargin(void)const 
	?Truncating@CTextLayout@@QBEHXZ @ 222 NONAME ; public: int __thiscall CTextLayout::Truncating(void)const 
	?TruncatingEllipsis@CTextLayout@@QBE?AVTChar@@XZ @ 223 NONAME ; public: class TChar  __thiscall CTextLayout::TruncatingEllipsis(void)const 
	?UseBackgroundColor@TDrawTextLayoutContext@@QBEHXZ @ 224 NONAME ; public: int __thiscall TDrawTextLayoutContext::UseBackgroundColor(void)const 
	?UseClippingRect@TDrawTextLayoutContext@@QBEHXZ @ 225 NONAME ; public: int __thiscall TDrawTextLayoutContext::UseClippingRect(void)const 
	?UseGcClear@TDrawTextLayoutContext@@QBEHXZ @ 226 NONAME ; public: int __thiscall TDrawTextLayoutContext::UseGcClear(void)const 
	?ViewRect@CTextView@@QBEABVTRect@@XZ @ 227 NONAME ; public: class TRect const & __thiscall CTextView::ViewRect(void)const 
	?WindowToText@TDrawTextLayoutContext@@QBEXAAVTPoint@@@Z @ 228 NONAME ; public: void __thiscall TDrawTextLayoutContext::WindowToText(class TPoint &)const 
	?WindowToText@TDrawTextLayoutContext@@QBEXAAVTRect@@@Z @ 229 NONAME ; public: void __thiscall TDrawTextLayoutContext::WindowToText(class TRect &)const 
	?XorDraw@TFrameOverlay@@QBEXAAVCGraphicsContext@@@Z @ 230 NONAME ; public: void __thiscall TFrameOverlay::XorDraw(class CGraphicsContext &)const 
	?XyPosToDocPosL@CTextLayout@@QBEHAAVTPoint@@I@Z @ 231 NONAME ; public: int __thiscall CTextLayout::XyPosToDocPosL(class TPoint &,unsigned int)const 
	?XyPosToDocPosL@CTextView@@QAEHAAVTPoint@@@Z @ 232 NONAME ; public: int __thiscall CTextView::XyPosToDocPosL(class TPoint &)
	?XyPosToEdges@TFrameOverlay@@QBEHABVTPoint@@@Z @ 233 NONAME ; public: int __thiscall TFrameOverlay::XyPosToEdges(class TPoint const &)const 
	?YBottomLastFormattedLine@CTextLayout@@QBEHXZ @ 234 NONAME ; public: int __thiscall CTextLayout::YBottomLastFormattedLine(void)const 
	?SetCursorFlash@CTextView@@QAEXH@Z @ 235 NONAME ; public: void __thiscall CTextView::SetCursorFlash(int)
	?SetCursorPlacement@CTextView@@QAEXW4TTmCursorPlacement@@@Z @ 236 NONAME ; public: void __thiscall CTextView::SetCursorPlacement(enum TTmCursorPlacement)
	?SetCursorWeight@CTextView@@QAEXH@Z @ 237 NONAME ; public: void __thiscall CTextView::SetCursorWeight(int)
	?SetCursorXorColor@CTextView@@QAEXVTRgb@@@Z @ 238 NONAME ; public: void __thiscall CTextView::SetCursorXorColor(class TRgb)
	?CustomWrap@CTextLayout@@QBEPBVMFormCustomWrap@@XZ @ 239 NONAME ; public: class MFormCustomWrap const * __thiscall CTextLayout::CustomWrap(void)const 
	?GetLineBreakInContext@MFormCustomWrap@@UBEHABVTDesC16@@HHHAAH@Z @ 240 NONAME ; public: virtual int __thiscall MFormCustomWrap::GetLineBreakInContext(class TDesC16 const &,int,int,int,int &)const 
	?IsHangingCharacter@MFormCustomWrap@@UBEHI@Z @ 241 NONAME ; public: virtual int __thiscall MFormCustomWrap::IsHangingCharacter(unsigned int)const 
	?LineBreakClass@MFormCustomWrap@@UBEIIAAI0@Z @ 242 NONAME ; public: virtual unsigned int __thiscall MFormCustomWrap::LineBreakClass(unsigned int,unsigned int &,unsigned int &)const 
	?LineBreakPossible@MFormCustomWrap@@UBEHIIH@Z @ 243 NONAME ; public: virtual int __thiscall MFormCustomWrap::LineBreakPossible(unsigned int,unsigned int,int)const 
	?MFormCustomWrap_Reserved_1@MFormCustomWrap@@EAEXXZ @ 244 NONAME ; private: virtual void __thiscall MFormCustomWrap::MFormCustomWrap_Reserved_1(void)
	?MFormCustomWrap_Reserved_2@MFormCustomWrap@@EAEXXZ @ 245 NONAME ; private: virtual void __thiscall MFormCustomWrap::MFormCustomWrap_Reserved_2(void)
	?SetCustomWrap@CTextLayout@@QAEXPBVMFormCustomWrap@@@Z @ 246 NONAME ; public: void __thiscall CTextLayout::SetCustomWrap(class MFormCustomWrap const *)
	??0TRangeChange@CTextLayout@@QAE@HHW4TChangeType@01@@Z @ 247 NONAME ; public: __thiscall CTextLayout::TRangeChange::TRangeChange(int,int,enum TRangeChange::TRangeChange::TChangeType)
	?Get@TRangeChange@CTextLayout@@QBE?AW4TChangeType@12@AAH0@Z @ 248 NONAME ; public: enum CTextLayout::TRangeChange::TChangeType  __thiscall CTextLayout::TRangeChange::Get(int &,int &)const 
	?Highlight@CTextLayout@@QAEXABVTRangeChange@1@ABVTRect@@PBVTDrawTextLayoutContext@@@Z @ 249 NONAME ; public: void __thiscall CTextLayout::Highlight(class CTextLayout::TRangeChange const &,class TRect const &,class TDrawTextLayoutContext const *)
	?NonNull@TRangeChange@CTextLayout@@QBEHXZ @ 250 NONAME ; public: int __thiscall CTextLayout::TRangeChange::NonNull(void)const 
	?OptimizeWith@TRangeChange@CTextLayout@@QAEXAAV12@@Z @ 251 NONAME ; public: void __thiscall CTextLayout::TRangeChange::OptimizeWith(class CTextLayout::TRangeChange &)
	?Clip@TRangeChange@CTextLayout@@QAEHHH@Z @ 252 NONAME ; public: int __thiscall CTextLayout::TRangeChange::Clip(int,int)
	??0TRangeChange@CTextLayout@@QAE@XZ @ 253 NONAME ; public: __thiscall CTextLayout::TRangeChange::TRangeChange(void)
	?Set@TRangeChange@CTextLayout@@QAEXHHW4TChangeType@12@@Z @ 254 NONAME ; public: void __thiscall CTextLayout::TRangeChange::Set(int,int,enum CTextLayout::TRangeChange::TChangeType)
	?GetLineNumber@CTextLayout@@QAEHH@Z @ 255 NONAME ; public: int __thiscall CTextLayout::GetLineNumber(int)
	?SetCursorExtensions@CTextView@@QAEXHH@Z @ 256 NONAME ; public: void __thiscall CTextView::SetCursorExtensions(int,int)
	?ClearSelectionL@CTextView@@QAEXXZ @ 257 NONAME ; public: void __thiscall CTextView::ClearSelectionL(void)
	?SetHighlightExtensions@CTextLayout@@QAEXHHHH@Z @ 258 NONAME ; public: void __thiscall CTextLayout::SetHighlightExtensions(int,int,int,int)
	?SetHighlightExtensions@CTextView@@QAEXHHHH@Z @ 259 NONAME ; public: void __thiscall CTextView::SetHighlightExtensions(int,int,int,int)
	?AlterViewRect@CTextView@@QAEXABVTRect@@@Z @ 260 NONAME ; public: void __thiscall CTextView::AlterViewRect(class TRect const &)
	?AlteredViewRect@CTextView@@QBEABVTRect@@XZ @ 261 NONAME ; public: class TRect const & __thiscall CTextView::AlteredViewRect(void)const 
	?SelectionVisible@CTextView@@QBEHXZ @ 262 NONAME ; public: int __thiscall CTextView::SelectionVisible(void)const 
	?ExtendFormattingToCoverPosL@CTextLayout@@QAEXH@Z @ 263 NONAME ; public: void __thiscall CTextLayout::ExtendFormattingToCoverPosL(int)
	?ExtendFormattingToCoverYL@CTextLayout@@QAEXH@Z @ 264 NONAME ; public: void __thiscall CTextLayout::ExtendFormattingToCoverYL(int)
	?BitmapContext@CTextView@@QAEPAVCBitmapContext@@XZ @ 265 NONAME ; public: class CBitmapContext * __thiscall CTextView::BitmapContext(void)
	?FindDocPos@CTextLayout@@QBEHABVTTmDocPosSpec@@AAVTTmPosInfo2@@PAVTTmLineInfo@@@Z @ 266 NONAME ; public: int __thiscall CTextLayout::FindDocPos(class TTmDocPosSpec const &,class TTmPosInfo2 &,class TTmLineInfo *)const 
	?FindDocPosL@CTextView@@QAEHABVTTmDocPosSpec@@AAVTTmPosInfo2@@PAVTTmLineInfo@@@Z @ 267 NONAME ; public: int __thiscall CTextView::FindDocPosL(class TTmDocPosSpec const &,class TTmPosInfo2 &,class TTmLineInfo *)
	?FindXyPos@CTextLayout@@QBEHABVTPoint@@AAVTTmPosInfo2@@PAVTTmLineInfo@@@Z @ 268 NONAME ; public: int __thiscall CTextLayout::FindXyPos(class TPoint const &,class TTmPosInfo2 &,class TTmLineInfo *)const 
	?FindXyPosL@CTextView@@QAEHABVTPoint@@AAVTTmPosInfo2@@PAVTTmLineInfo@@@Z @ 269 NONAME ; public: int __thiscall CTextView::FindXyPosL(class TPoint const &,class TTmPosInfo2 &,class TTmLineInfo *)
	?GetCursorPos@CTextView@@QBEXAAVTTmDocPos@@@Z @ 270 NONAME ; public: void __thiscall CTextView::GetCursorPos(class TTmDocPos &)const 
	?GetNextVisualCursorPos@CTextLayout@@QBEHABVTTmDocPosSpec@@AAVTTmPosInfo2@@H@Z @ 271 NONAME ; public: int __thiscall CTextLayout::GetNextVisualCursorPos(class TTmDocPosSpec const &,class TTmPosInfo2 &,int)const 
	?PosInBand@CTextLayout@@QBEHABVTTmDocPos@@PAVTTmLineInfo@@@Z @ 272 NONAME ; public: int __thiscall CTextLayout::PosInBand(class TTmDocPos const &,class TTmLineInfo *)const 
	?SetDocPosL@CTextView@@QAE?AVTPoint@@ABVTTmDocPos@@H@Z @ 273 NONAME ; public: class TPoint  __thiscall CTextView::SetDocPosL(class TTmDocPos const &,int)
	?SetDocPosL@CTextView@@QAE?AVTPoint@@ABVTTmDocPosSpec@@H@Z @ 274 NONAME ; public: class TPoint  __thiscall CTextView::SetDocPosL(class TTmDocPosSpec const &,int)
	?SetViewL@CTextLayout@@QAEHABVTTmDocPos@@AAHVTViewYPosQualifier@@W4TDiscard@1@@Z @ 275 NONAME ; public: int __thiscall CTextLayout::SetViewL(class TTmDocPos const &,int &,class TViewYPosQualifier,enum CTextLayout::TDiscard)
	?VisualEndOfRunL@CTextView@@QAEABVTTmDocPos@@ABV2@0W4TVisualEnd@TCursorPosition@@@Z @ 276 NONAME ; public: class TTmDocPos const & __thiscall CTextView::VisualEndOfRunL(class TTmDocPos const &,class TTmDocPos const &,enum TCursorPosition::TVisualEnd)
	?SetCursorPositioningHintL@CTextView@@QAEXW4TPosHint@TCursorPosition@@@Z @ 277 NONAME ; public: void __thiscall CTextView::SetCursorPositioningHintL(enum TCursorPosition::TPosHint)
	?GetBackwardDeletePositionL@CTextView@@QAE?AVTCursorSelection@@XZ @ 278 NONAME ; class TCursorSelection CTextView::GetBackwardDeletePositionL(void)
	?GetForwardDeletePositionL@CTextView@@QAE?AVTCursorSelection@@XZ @ 279 NONAME ; class TCursorSelection CTextView::GetForwardDeletePositionL(void)
	?SetInterfaceProvider@CTextLayout@@QAEXPAVMFormCustomInterfaceProvider@@@Z @ 280 NONAME ; void CTextLayout::SetInterfaceProvider(class MFormCustomInterfaceProvider *)
	?SetOpaque@CTextView@@QAEXH@Z @ 281 NONAME ; public: void __thiscall CTextView::SetOpaque(int)
	?GetMinimumSizeL@CTextLayout@@QAEXHHAAVTSize@@@Z @ 282 NONAME ; void CTextLayout::GetMinimumSizeL(int, int, class TSize &)
	?PosInBand@CTextLayout@@QBEHVTTmDocPos@@AAVTPoint@@@Z @ 283 NONAME ; int CTextLayout::PosInBand(class TTmDocPos, class TPoint &) const
	?SetExcessHeightRequired@CTextView@@QAEXH@Z @ 284 NONAME ; void CTextView::SetExcessHeightRequired(int)
	?MakeVisible@CTextLayout@@QAEXH@Z @ 285 NONAME ; void CTextLayout::MakeVisible(int)
	?MakeVisible@CTextView@@QAEXH@Z @ 286 NONAME ; void CTextView::MakeVisible(int)
	?ChangeBandTopNoLimitBorderL@CTextLayout@@QAEXH@Z @ 287 NONAME ; void CTextLayout::ChangeBandTopNoLimitBorderL(int)
	?ScrollDisplayPixelsNoLimitBorderL@CTextView@@QAEXH@Z @ 288 NONAME ; void CTextView::ScrollDisplayPixelsNoLimitBorderL(int)

