EXPORTS
	?EntryPoint@@YAHPAX@Z @ 1 NONAME ; int __cdecl EntryPoint(void *)
	??0CTmTextLayout@@QAE@XZ @ 2 NONAME ; public: __thiscall CTmTextLayout::CTmTextLayout(void)
	??0RTmParFormat@@QAE@XZ @ 3 NONAME ; public: __thiscall RTmParFormat::RTmParFormat(void)
	??0TTmBullet@@QAE@XZ @ 4 NONAME ; public: __thiscall TTmBullet::TTmBullet(void)
	??0TTmCharFormat@@QAE@ABVTDesC16@@H@Z @ 5 NONAME ; public: __thiscall TTmCharFormat::TTmCharFormat(class TDesC16 const &,int)
	??0TTmCharFormat@@QAE@XZ @ 6 NONAME ; public: __thiscall TTmCharFormat::TTmCharFormat(void)
	??0TTmCharFormatLayer@@QAE@ABVCCharFormatLayer@@@Z @ 7 NONAME ; public: __thiscall TTmCharFormatLayer::TTmCharFormatLayer(class CCharFormatLayer const &)
	??0TTmCharFormatMask@@QAE@ABVTCharFormatMask@@@Z @ 8 NONAME ; public: __thiscall TTmCharFormatMask::TTmCharFormatMask(class TCharFormatMask const &)
	??0TTmFormatParam@@QAE@ABVTTmFormatParamBase@@@Z @ 9 NONAME ; public: __thiscall TTmFormatParam::TTmFormatParam(class TTmFormatParamBase const &)
	??0TTmFormatParam@@QAE@XZ @ 10 NONAME ; public: __thiscall TTmFormatParam::TTmFormatParam(void)
	??0TTmFormatParamBase@@QAE@XZ @ 11 NONAME ; public: __thiscall TTmFormatParamBase::TTmFormatParamBase(void)
	??0TTmParBorder@@QAE@XZ @ 12 NONAME ; public: __thiscall TTmParBorder::TTmParBorder(void)
	??0TTmParFormatMask@@QAE@ABVTParaFormatMask@@@Z @ 13 NONAME ; public: __thiscall TTmParFormatMask::TTmParFormatMask(class TParaFormatMask const &)
	??0TTmReformatParam@@QAE@XZ @ 14 NONAME ; public: __thiscall TTmReformatParam::TTmReformatParam(void)
	??0TTmReformatResult@@QAE@XZ @ 15 NONAME ; public: __thiscall TTmReformatResult::TTmReformatResult(void)
	??1CTmText@@UAE@XZ @ 16 NONAME ; public: virtual __thiscall CTmText::~CTmText(void)
	??1CTmTextLayout@@UAE@XZ @ 17 NONAME ; public: virtual __thiscall CTmTextLayout::~CTmTextLayout(void)
	??4TTmBullet@@QAEXABVTBullet@@@Z @ 18 NONAME ; public: void __thiscall TTmBullet::operator=(class TBullet const &)
	??4TTmCharFormat@@QAEXABVTCharFormat@@@Z @ 19 NONAME ; public: void __thiscall TTmCharFormat::operator=(class TCharFormat const &)
	??4TTmParBorder@@QAEXABVTParaBorder@@@Z @ 20 NONAME ; public: void __thiscall TTmParBorder::operator=(class TParaBorder const &)
	??4TTmTab@@QAEXABVTTabStop@@@Z @ 21 NONAME ; public: void __thiscall TTmTab::operator=(class TTabStop const &)
	??8RTmParFormat@@QBEHABV0@@Z @ 22 NONAME ; public: int __thiscall RTmParFormat::operator==(class RTmParFormat const &)const 
	??8TTmBullet@@QBEHABV0@@Z @ 23 NONAME ; public: int __thiscall TTmBullet::operator==(class TTmBullet const &)const 
	??8TTmCharFormat@@QBEHABV0@@Z @ 24 NONAME ; public: int __thiscall TTmCharFormat::operator==(class TTmCharFormat const &)const 
	??8TTmDocPos@@QBEHABV0@@Z @ 25 NONAME ; public: int __thiscall TTmDocPos::operator==(class TTmDocPos const &)const 
	??8TTmParBorder@@QBEHABV0@@Z @ 26 NONAME ; public: int __thiscall TTmParBorder::operator==(class TTmParBorder const &)const 
	??8TTmTab@@QBEHABV0@@Z @ 27 NONAME ; public: int __thiscall TTmTab::operator==(class TTmTab const &)const 
	??OTTmDocPos@@QBEHABV0@@Z @ 28 NONAME ; public: int __thiscall TTmDocPos::operator>(class TTmDocPos const &)const 
	??PTTmDocPos@@QBEHABV0@@Z @ 29 NONAME ; public: int __thiscall TTmDocPos::operator>=(class TTmDocPos const &)const 
	?AddParL@CTmTextLayout@@QAEHABVTTmFormatParamBase@@HAAH1@Z @ 30 NONAME ; public: int __thiscall CTmTextLayout::AddParL(class TTmFormatParamBase const &,int,int &,int &)
	?MTmSource_Reserved_1@MTmSource@@UAEXXZ @ 31 NONAME ; void MTmSource::MTmSource_Reserved_1(void)
	?ChangeFormatL@CTmText@@QAEXABVTTmFormatParamBase@@@Z @ 32 NONAME ; public: void __thiscall CTmText::ChangeFormatL(class TTmFormatParamBase const &)
	?Clear@CTmText@@QAEXXZ @ 33 NONAME ; public: void __thiscall CTmText::Clear(void)
	?Clear@CTmTextLayout@@QAEXXZ @ 34 NONAME ; public: void __thiscall CTmTextLayout::Clear(void)
	?Close@RTmParFormat@@QAEXXZ @ 35 NONAME ; public: void __thiscall RTmParFormat::Close(void)
	?CopyL@RTmParFormat@@QAEXABV1@@Z @ 36 NONAME ; public: void __thiscall RTmParFormat::CopyL(class RTmParFormat const &)
	?CopyL@RTmParFormat@@QAEXABVCParaFormat@@@Z @ 37 NONAME ; public: void __thiscall RTmParFormat::CopyL(class CParaFormat const &)
	?CopyL@RTmParFormatLayer@@QAEXABVCParaFormatLayer@@@Z @ 38 NONAME ; public: void __thiscall RTmParFormatLayer::CopyL(class CParaFormatLayer const &)
	?CopyL@RTmStyle@@QAEXABVRParagraphStyleInfo@@@Z @ 39 NONAME ; public: void __thiscall RTmStyle::CopyL(class RParagraphStyleInfo const &)
	?CustomizeL@CTmText@@QAEXPBVMTmCustom@@@Z @ 40 NONAME ; public: void __thiscall CTmText::CustomizeL(class MTmCustom const *)
	?DeletePar@CTmTextLayout@@QAEHABVTTmFormatParamBase@@HHAAH@Z @ 41 NONAME ; public: int __thiscall CTmTextLayout::DeletePar(class TTmFormatParamBase const &,int,int,int &)
	?DocPosToLine@CTmTextLayout@@QBEHABVTTmDocPos@@AAVTTmLineInfo@@@Z @ 42 NONAME ; public: int __thiscall CTmTextLayout::DocPosToLine(class TTmDocPos const &,class TTmLineInfo &)const 
	?DocPosToLine@CTmTextLayout@@QBEHABVTTmDocPosSpec@@AAVTTmLineInfo@@@Z @ 43 NONAME ; public: int __thiscall CTmTextLayout::DocPosToLine(class TTmDocPosSpec const &,class TTmLineInfo &)const 
	?DocPosToLine@MTmTextLayoutForwarder@@QBEHABVTTmDocPos@@AAVTTmLineInfo@@@Z @ 44 NONAME ; public: int __thiscall MTmTextLayoutForwarder::DocPosToLine(class TTmDocPos const &,class TTmLineInfo &)const 
	?DocPosToLine@MTmTextLayoutForwarder@@QBEHABVTTmDocPosSpec@@AAVTTmLineInfo@@@Z @ 45 NONAME ; public: int __thiscall MTmTextLayoutForwarder::DocPosToLine(class TTmDocPosSpec const &,class TTmLineInfo &)const 
	?DrawBackground@CTmTextLayout@@QBEXAAVCGraphicsContext@@ABVTPoint@@ABVTRect@@ABVTLogicalRgb@@@Z @ 46 NONAME ; public: void __thiscall CTmTextLayout::DrawBackground(class CGraphicsContext &,class TPoint const &,class TRect const &,class TLogicalRgb const &)const 
	?DrawBackground@MTmCustom@@UBEXAAVCGraphicsContext@@ABVTPoint@@ABVTRect@@ABVTLogicalRgb@@AAV4@@Z @ 47 NONAME ; public: virtual void __thiscall MTmCustom::DrawBackground(class CGraphicsContext &,class TPoint const &,class TRect const &,class TLogicalRgb const &,class TRect &)const 
	?DrawBackground@MTmTextLayoutForwarder@@QBEXAAVCGraphicsContext@@ABVTPoint@@ABVTRect@@ABVTLogicalRgb@@@Z @ 48 NONAME ; public: void __thiscall MTmTextLayoutForwarder::DrawBackground(class CGraphicsContext &,class TPoint const &,class TRect const &,class TLogicalRgb const &)const 
	?DrawLayout@CTmTextLayout@@QBEXAAVCGraphicsContext@@ABVTPoint@@ABVTRect@@PBVTLogicalRgb@@H@Z @ 49 NONAME ; public: void __thiscall CTmTextLayout::DrawLayout(class CGraphicsContext &,class TPoint const &,class TRect const &,class TLogicalRgb const *,int)const 
	?DrawLayout@MTmTextLayoutForwarder@@QBEXAAVCGraphicsContext@@ABVTPoint@@ABVTRect@@PBVTLogicalRgb@@H@Z @ 50 NONAME ; public: void __thiscall MTmTextLayoutForwarder::DrawLayout(class CGraphicsContext &,class TPoint const &,class TRect const &,class TLogicalRgb const *,int)const 
	?DrawLineGraphics@MTmCustom@@UBEXAAVCGraphicsContext@@ABVTPoint@@ABVTRect@@ABVTTmLineInfo@@@Z @ 51 NONAME ; public: virtual void __thiscall MTmCustom::DrawLineGraphics(class CGraphicsContext &,class TPoint const &,class TRect const &,class TTmLineInfo const &)const 
	?DrawPicture@MTmCustom@@UBEXAAVCGraphicsContext@@ABVTPoint@@ABVTRect@@AAVMGraphicsDeviceMap@@ABVCPicture@@@Z @ 52 NONAME ; public: virtual void __thiscall MTmCustom::DrawPicture(class CGraphicsContext &,class TPoint const &,class TRect const &,class MGraphicsDeviceMap &,class CPicture const &)const 
	?DrawSection@CTmTextLayout@@QBEXAAVCGraphicsContext@@ABVTPoint@@HHABVTRect@@@Z @ 53 NONAME ; public: void __thiscall CTmTextLayout::DrawSection(class CGraphicsContext &,class TPoint const &,int,int,class TRect const &)const 
	?DrawSection@CTmTextLayout@@QBEXAAVCGraphicsContext@@ABVTPoint@@HHABVTRect@@ABVTTmHighlightExtensions@@HH@Z @ 54 NONAME ; public: void __thiscall CTmTextLayout::DrawSection(class CGraphicsContext &,class TPoint const &,int,int,class TRect const &,class TTmHighlightExtensions const &,int,int)const 
	?DrawText@MTmCustom@@UBEXAAVCGraphicsContext@@ABVTPoint@@ABVTRect@@ABVTTmLineInfo@@ABVTTmCharFormat@@ABVTDesC16@@1H@Z @ 55 NONAME ; public: virtual void __thiscall MTmCustom::DrawText(class CGraphicsContext &,class TPoint const &,class TRect const &,class TTmLineInfo const &,class TTmCharFormat const &,class TDesC16 const &,class TPoint const &,int)const 
	?EndChar@MTmTextLayoutForwarder@@QBEHXZ @ 56 NONAME ; public: int MTmTextLayoutForwarder::EndChar(void)const 
	?FindAdjacentChunks@CTmTextLayout@@QBEHABVTTmDocPosSpec@@AAVTTmChunkDescription@1@1@Z @ 57 NONAME ; public: int __thiscall CTmTextLayout::FindAdjacentChunks(class TTmDocPosSpec const &,class CTmTextLayout::TTmChunkDescription &,class CTmTextLayout::TTmChunkDescription &)const 
	?FindDocPos@CTmTextLayout@@QBEHABVTTmDocPos@@AAVTTmPosInfo@@AAVTTmLineInfo@@@Z @ 58 NONAME ; public: int __thiscall CTmTextLayout::FindDocPos(class TTmDocPos const &,class TTmPosInfo &,class TTmLineInfo &)const 
	?FindDocPos@CTmTextLayout@@QBEHABVTTmDocPosSpec@@AAVTTmPosInfo2@@AAVTTmLineInfo@@@Z @ 59 NONAME ; public: int __thiscall CTmTextLayout::FindDocPos(class TTmDocPosSpec const &,class TTmPosInfo2 &,class TTmLineInfo &)const 
	?FindDocPos@MTmTextLayoutForwarder@@QBEHABVTTmDocPos@@AAVTTmPosInfo@@AAVTTmLineInfo@@@Z @ 60 NONAME ; public: int __thiscall MTmTextLayoutForwarder::FindDocPos(class TTmDocPos const &,class TTmPosInfo &,class TTmLineInfo &)const 
	?FindDocPos@MTmTextLayoutForwarder@@QBEHABVTTmDocPosSpec@@AAVTTmPosInfo2@@AAVTTmLineInfo@@@Z @ 61 NONAME ; public: int __thiscall MTmTextLayoutForwarder::FindDocPos(class TTmDocPosSpec const &,class TTmPosInfo2 &,class TTmLineInfo &)const 
	?FindXyPos@CTmTextLayout@@QBEHABVTPoint@@AAVTTmPosInfo2@@AAVTTmLineInfo@@@Z @ 62 NONAME ; public: int __thiscall CTmTextLayout::FindXyPos(class TPoint const &,class TTmPosInfo2 &,class TTmLineInfo &)const 
	?FindXyPos@CTmTextLayout@@QBEHABVTPoint@@AAVTTmPosInfo@@AAVTTmLineInfo@@@Z @ 63 NONAME ; public: int __thiscall CTmTextLayout::FindXyPos(class TPoint const &,class TTmPosInfo &,class TTmLineInfo &)const 
	?FindXyPos@MTmTextLayoutForwarder@@QBEHABVTPoint@@AAVTTmPosInfo2@@AAVTTmLineInfo@@@Z @ 64 NONAME ; public: int __thiscall MTmTextLayoutForwarder::FindXyPos(class TPoint const &,class TTmPosInfo2 &,class TTmLineInfo &)const 
	?FindXyPos@MTmTextLayoutForwarder@@QBEHABVTPoint@@AAVTTmPosInfo@@AAVTTmLineInfo@@@Z @ 65 NONAME ; public: int __thiscall MTmTextLayoutForwarder::FindXyPos(class TPoint const &,class TTmPosInfo &,class TTmLineInfo &)const 
	?FormatL@CTmTextLayout@@QAEXABVTTmFormatParamBase@@ABVTTmReformatParam@@AAVTTmReformatResult@@@Z @ 66 NONAME ; public: void __thiscall CTmTextLayout::FormatL(class TTmFormatParamBase const &,class TTmReformatParam const &,class TTmReformatResult &)
	?GetCParaFormatL@RTmParFormat@@QBEXAAVCParaFormat@@@Z @ 67 NONAME ; public: void __thiscall RTmParFormat::GetCParaFormatL(class CParaFormat &)const 
	?GetCursor@CTmTextLayout@@QBEHABVTTmDocPos@@W4TTmCursorPlacement@@AAVTTmLineInfo@@AAVTPoint@@AAH44@Z @ 68 NONAME ; public: int __thiscall CTmTextLayout::GetCursor(class TTmDocPos const &,enum TTmCursorPlacement,class TTmLineInfo &,class TPoint &,int &,int &,int &)const 
	?GetCursor@CTmTextLayout@@QBEHABVTTmDocPosSpec@@W4TTmCursorPlacement@@AAVTTmLineInfo@@AAVTPoint@@AAH44@Z @ 69 NONAME ; public: int __thiscall CTmTextLayout::GetCursor(class TTmDocPosSpec const &,enum TTmCursorPlacement,class TTmLineInfo &,class TPoint &,int &,int &,int &)const 
	?GetCursor@MTmTextLayoutForwarder@@QBEHABVTTmDocPos@@W4TTmCursorPlacement@@AAVTTmLineInfo@@AAVTPoint@@AAH44@Z @ 70 NONAME ; public: int __thiscall MTmTextLayoutForwarder::GetCursor(class TTmDocPos const &,enum TTmCursorPlacement,class TTmLineInfo &,class TPoint &,int &,int &,int &)const 
	?GetCursor@MTmTextLayoutForwarder@@QBEHABVTTmDocPosSpec@@W4TTmCursorPlacement@@AAVTTmLineInfo@@AAVTPoint@@AAH44@Z @ 71 NONAME ; public: int __thiscall MTmTextLayoutForwarder::GetCursor(class TTmDocPosSpec const &,enum TTmCursorPlacement,class TTmLineInfo &,class TPoint &,int &,int &,int &)const 
	?GetDisplayedText@CTmTextLayout@@QBEHHAAVTDes16@@AAH@Z @ 72 NONAME ; public: int __thiscall CTmTextLayout::GetDisplayedText(int,class TDes16 &,int &)const 
	?GetDisplayedText@MTmTextLayoutForwarder@@QBEHHAAVTDes16@@AAH@Z @ 73 NONAME ; public: int __thiscall MTmTextLayoutForwarder::GetDisplayedText(int,class TDes16 &,int &)const 
	?GetDisplayedTextL@CTmTextLayout@@QBEHHAAVTDes16@@AAH@Z @ 74 NONAME ; public: int __thiscall CTmTextLayout::GetDisplayedTextL(int,class TDes16 &,int &)const 
	?GetFormat@CTmText@@QBEXAAVTTmFormatParamBase@@@Z @ 75 NONAME ; public: void __thiscall CTmText::GetFormat(class TTmFormatParamBase &)const 
	?MTmSource_Reserved_2@MTmSource@@UAEXXZ @ 76 NONAME ; void MTmSource::MTmSource_Reserved_2(void)
	?GetLineBreakInContext@MTmCustom@@UBEHABVTDesC16@@HHHAAH@Z @ 77 NONAME ; public: virtual int __thiscall MTmCustom::GetLineBreakInContext(class TDesC16 const &,int,int,int,int &)const 
	?GetLineBreakL@MTmSource@@QBEHABVTDesC16@@HHHHAAH11@Z @ 78 NONAME ; public: int __thiscall MTmSource::GetLineBreakL(class TDesC16 const &,int,int,int,int,int &,int &,int &)const 
	?GetMinimumLayoutSizeL@CTmTextLayout@@QBEXHAAVTSize@@@Z @ 79 NONAME ; public: void __thiscall CTmTextLayout::GetMinimumLayoutSizeL(int,class TSize &)const 
	?GetMinimumLayoutSizeL@MTmTextLayoutForwarder@@QBEXHAAVTSize@@@Z @ 80 NONAME ; public: void __thiscall MTmTextLayoutForwarder::GetMinimumLayoutSizeL(int,class TSize &)const 
	?GetNextVisualCursorPos@CTmTextLayout@@QBEHABVTTmDocPos@@AAVTTmPosInfo@@H@Z @ 81 NONAME ; public: int __thiscall CTmTextLayout::GetNextVisualCursorPos(class TTmDocPos const &,class TTmPosInfo &,int)const 
	?GetNextVisualCursorPos@CTmTextLayout@@QBEHABVTTmDocPosSpec@@AAVTTmPosInfo2@@H@Z @ 82 NONAME ; public: int __thiscall CTmTextLayout::GetNextVisualCursorPos(class TTmDocPosSpec const &,class TTmPosInfo2 &,int)const 
	?GetNextVisualCursorPos@MTmTextLayoutForwarder@@QBEHABVTTmDocPos@@AAVTTmPosInfo@@H@Z @ 83 NONAME ; public: int __thiscall MTmTextLayoutForwarder::GetNextVisualCursorPos(class TTmDocPos const &,class TTmPosInfo &,int)const 
	?GetNextVisualCursorPos@MTmTextLayoutForwarder@@QBEHABVTTmDocPosSpec@@AAVTTmPosInfo2@@H@Z @ 84 NONAME ; public: int __thiscall MTmTextLayoutForwarder::GetNextVisualCursorPos(class TTmDocPosSpec const &,class TTmPosInfo2 &,int)const 
	?GetOrigin@MTmTextLayoutForwarder@@EBEXAAVTPoint@@@Z @ 85 NONAME ; private: virtual void __thiscall MTmTextLayoutForwarder::GetOrigin(class TPoint &)const 
	?GetPictureSizeInTwipsL@MTmSource@@UBEHHAAVTSize@@@Z @ 86 NONAME ; public: virtual int __thiscall MTmSource::GetPictureSizeInTwipsL(int,class TSize &)const 
	?GetRParagraphStyleInfoL@RTmStyle@@QBEXAAVRParagraphStyleInfo@@ABVCParaFormatLayer@@ABVCCharFormatLayer@@ABVCStyleList@@@Z @ 87 NONAME ; public: void __thiscall RTmStyle::GetRParagraphStyleInfoL(class RParagraphStyleInfo &,class CParaFormatLayer const &,class CCharFormatLayer const &,class CStyleList const &)const 
	?GetStandardLineBreak@MTmSource@@SAXABVTDesC16@@HHAAH1@Z @ 88 NONAME ; public: static void __cdecl MTmSource::GetStandardLineBreak(class TDesC16 const &,int,int,int &,int &)
	?GetTBullet@TTmBullet@@QBEXAAVTBullet@@@Z @ 89 NONAME ; public: void __thiscall TTmBullet::GetTBullet(class TBullet &)const 
	?GetTCharFormat@TTmCharFormat@@QBEXAAVTCharFormat@@@Z @ 90 NONAME ; public: void __thiscall TTmCharFormat::GetTCharFormat(class TCharFormat &)const 
	?GetTCharFormatMask@TTmCharFormatMask@@QBEXAAVTCharFormatMask@@@Z @ 91 NONAME ; public: void __thiscall TTmCharFormatMask::GetTCharFormatMask(class TCharFormatMask &)const 
	?GetTParaBorder@TTmParBorder@@QBEXAAVTParaBorder@@@Z @ 92 NONAME ; public: void __thiscall TTmParBorder::GetTParaBorder(class TParaBorder &)const 
	?GetTParaFormatMask@TTmParFormatMask@@QBEXAAVTParaFormatMask@@@Z @ 93 NONAME ; public: void __thiscall TTmParFormatMask::GetTParaFormatMask(class TParaFormatMask &)const 
	?GetTTabStop@TTmTab@@QBEXAAVTTabStop@@@Z @ 94 NONAME ; public: void __thiscall TTmTab::GetTTabStop(class TTabStop &)const 
	?GetText@MUnifiedEditor@@QBEXHAAVTDes16@@@Z @ 95 NONAME ; public: void __thiscall MUnifiedEditor::GetText(int,class TDes16 &)const 
	?HaveBorders@RTmParFormat@@QBEHXZ @ 96 NONAME ; public: int __thiscall RTmParFormat::HaveBorders(void)const 
	?HighlightSection@CTmTextLayout@@QBEXAAVCGraphicsContext@@ABVTPoint@@HHABVTRect@@@Z @ 97 NONAME ; public: void __thiscall CTmTextLayout::HighlightSection(class CGraphicsContext &,class TPoint const &,int,int,class TRect const &)const 
	?HighlightSection@CTmTextLayout@@QBEXAAVCGraphicsContext@@ABVTPoint@@HHABVTRect@@ABVTTmHighlightExtensions@@HH@Z @ 98 NONAME ; public: void __thiscall CTmTextLayout::HighlightSection(class CGraphicsContext &,class TPoint const &,int,int,class TRect const &,class TTmHighlightExtensions const &,int,int)const 
	?InsertL@CTmText@@QAEXHABVTDesC16@@PBVTTmCharFormat@@PBVRTmParFormat@@PAVTRect@@PAH@Z @ 99 NONAME ; public: void __thiscall CTmText::InsertL(int,class TDesC16 const &,class TTmCharFormat const *,class RTmParFormat const *,class TRect *,int *)
	?InvertLayout@CTmTextLayout@@QBEXAAVCGraphicsContext@@ABVTPoint@@HH@Z @ 100 NONAME ; public: void __thiscall CTmTextLayout::InvertLayout(class CGraphicsContext &,class TPoint const &,int,int)const 
	?InvertLayout@CTmTextLayout@@QBEXAAVCGraphicsContext@@ABVTPoint@@HHABVTTmHighlightExtensions@@HH@Z @ 101 NONAME ; public: void __thiscall CTmTextLayout::InvertLayout(class CGraphicsContext &,class TPoint const &,int,int,class TTmHighlightExtensions const &,int,int)const 
	?InvertLayout@MTmTextLayoutForwarder@@QAEXAAVCGraphicsContext@@ABVTPoint@@HH@Z @ 102 NONAME ; public: void __thiscall MTmTextLayoutForwarder::InvertLayout(class CGraphicsContext &,class TPoint const &,int,int)
	?IsHangingCharacter@MTmCustom@@UBEHI@Z @ 103 NONAME ; public: virtual int __thiscall MTmCustom::IsHangingCharacter(unsigned int)const 
	?LayoutHeight@MTmTextLayoutForwarder@@QBEHXZ @ 104 NONAME ; public: int MTmTextLayoutForwarder::LayoutHeight(void)const 
	?LayoutWidth@MTmTextLayoutForwarder@@QBEHXZ @ 105 NONAME ; public: int MTmTextLayoutForwarder::LayoutWidth(void)const 
	?LineBreakClass@MTmCustom@@UBEIIAAI0@Z @ 106 NONAME ; public: virtual unsigned int __thiscall MTmCustom::LineBreakClass(unsigned int,unsigned int &,unsigned int &)const 
	?LineBreakPossible@MTmCustom@@UBEHIIH@Z @ 107 NONAME ; public: virtual int __thiscall MTmCustom::LineBreakPossible(unsigned int,unsigned int,int)const 
	?LineExtreme@CTmTextLayout@@QBEHABVTTmDocPosSpec@@HAAVTTmDocPos@@@Z @ 108 NONAME ; public: int __thiscall CTmTextLayout::LineExtreme(class TTmDocPosSpec const &,int,class TTmDocPos &)const 
	?LineNumberToLine@CTmTextLayout@@QBEHHAAVTTmLineInfo@@@Z @ 109 NONAME ; public: int __thiscall CTmTextLayout::LineNumberToLine(int,class TTmLineInfo &)const 
	?LineNumberToLine@MTmTextLayoutForwarder@@QBEHHAAVTTmLineInfo@@@Z @ 110 NONAME ; public: int __thiscall MTmTextLayoutForwarder::LineNumberToLine(int,class TTmLineInfo &)const 
	?Lines@CTmTextLayout@@QBEHXZ @ 111 NONAME ; public: int __thiscall CTmTextLayout::Lines(void)const 
	?Lines@MTmTextLayoutForwarder@@QBEHXZ @ 112 NONAME ; public: int __thiscall MTmTextLayoutForwarder::Lines(void)const 
	?Map@MTmCustom@@UBEII@Z @ 113 NONAME ; public: virtual unsigned int __thiscall MTmCustom::Map(unsigned int)const 
	?MemoryUsed@CTmText@@QBEHXZ @ 114 NONAME ; public: int __thiscall CTmText::MemoryUsed(void)const 
	?MemoryUsed@CTmTextLayout@@QBEHXZ @ 115 NONAME ; public: int __thiscall CTmTextLayout::MemoryUsed(void)const 
	?NewL@CTmText@@SAPAV1@AAVMGraphicsDeviceMap@@ABVTTmFormatParamBase@@@Z @ 116 NONAME ; public: static class CTmText * __cdecl CTmText::NewL(class MGraphicsDeviceMap &,class TTmFormatParamBase const &)
	?NewL@CTmText@@SAPAV1@AAVMGraphicsDeviceMap@@HH@Z @ 117 NONAME ; public: static class CTmText * __cdecl CTmText::NewL(class MGraphicsDeviceMap &,int,int)
	?PageBreakInRange@MTmSource@@UBEHHH@Z @ 118 NONAME ; public: virtual int __thiscall MTmSource::PageBreakInRange(int,int)const 
	?ParNumberToLine@CTmTextLayout@@QBEHHHAAVTTmLineInfo@@@Z @ 119 NONAME ; public: int __thiscall CTmTextLayout::ParNumberToLine(int,int,class TTmLineInfo &)const 
	?ParNumberToLine@MTmTextLayoutForwarder@@QBEHHHAAVTTmLineInfo@@@Z @ 120 NONAME ; public: int __thiscall MTmTextLayoutForwarder::ParNumberToLine(int,int,class TTmLineInfo &)const 
	?ParagraphEnd@MTmSource@@QBEHH@Z @ 121 NONAME ; public: int __thiscall MTmSource::ParagraphEnd(int)const 
	?Paragraphs@CTmTextLayout@@QBEHXZ @ 122 NONAME ; public: int __thiscall CTmTextLayout::Paragraphs(void)const 
	?Paragraphs@MTmTextLayoutForwarder@@QBEHXZ @ 123 NONAME ; public: int __thiscall MTmTextLayoutForwarder::Paragraphs(void)const 
	?PictureL@MTmSource@@UBEPAVCPicture@@H@Z @ 124 NONAME ; public: virtual class CPicture * __thiscall MTmSource::PictureL(int)const 
	?GetExtendedInterface@MTmSource@@UAEPAXABVTUid@@@Z @ 125 NONAME ; void * MTmSource::GetExtendedInterface(class TUid const &)
	?SetBrushColor@MTmCustom@@QBEXAAVCGraphicsContext@@VTLogicalRgb@@@Z @ 126 NONAME ; public: void __thiscall MTmCustom::SetBrushColor(class CGraphicsContext &,class TLogicalRgb)const 
	?SetLineHeight@MTmCustom@@UBEXABVTLineHeightParam@1@AAH1@Z @ 127 NONAME ; public: virtual void __thiscall MTmCustom::SetLineHeight(class MTmCustom::TLineHeightParam const &,int &,int &)const 
	?SetPenColor@MTmCustom@@QBEXAAVCGraphicsContext@@VTLogicalRgb@@@Z @ 128 NONAME ; public: void __thiscall MTmCustom::SetPenColor(class CGraphicsContext &,class TLogicalRgb)const 
	?SetTextL@CTmTextLayout@@QAEXAAVMTmSource@@ABVTTmFormatParam@@@Z @ 129 NONAME ; public: void __thiscall CTmTextLayout::SetTextL(class MTmSource &,class TTmFormatParam const &)
	?SetWrapWidthL@CTmText@@QAEXH@Z @ 130 NONAME ; public: void __thiscall CTmText::SetWrapWidthL(int)
	?Spare1@CTmText@@AAEXXZ @ 131 NONAME ; private: void __thiscall CTmText::Spare1(void)
	?StartChar@MTmTextLayoutForwarder@@QBEHXZ @ 132 NONAME ; public: int MTmTextLayoutForwarder::StartChar(void)const 
	?Stretch@MTmCustom@@UBEHI@Z @ 133 NONAME ; public: virtual int __thiscall MTmCustom::Stretch(unsigned int)const 
	?SystemColor@MTmCustom@@QBE?AVTRgb@@VTLogicalRgb@@@Z @ 134 NONAME ; public: class TRgb  __thiscall MTmCustom::SystemColor(class TLogicalRgb)const 
	?SystemColor@MTmCustom@@UBE?AVTRgb@@IV2@@Z @ 135 NONAME ; public: virtual class TRgb  __thiscall MTmCustom::SystemColor(unsigned int,class TRgb)const 
	?Tabs@RTmParFormat@@QBEHXZ @ 136 NONAME ; public: int __thiscall RTmParFormat::Tabs(void)const 
	?WidthOfWidestLine@CTmTextLayout@@QBEHHH@Z @ 137 NONAME ; public: int __thiscall CTmTextLayout::WidthOfWidestLine(int,int)const 
	?WidthOfWidestLine@MTmTextLayoutForwarder@@QBEHHH@Z @ 138 NONAME ; public: int __thiscall MTmTextLayoutForwarder::WidthOfWidestLine(int,int)const 
	?YPosToLine@CTmTextLayout@@QBEHHAAVTTmLineInfo@@@Z @ 139 NONAME ; public: int __thiscall CTmTextLayout::YPosToLine(int,class TTmLineInfo &)const 
	?YPosToLine@MTmTextLayoutForwarder@@QBEHHAAVTTmLineInfo@@@Z @ 140 NONAME ; public: int __thiscall MTmTextLayoutForwarder::YPosToLine(int,class TTmLineInfo &)const 
	?FindNextPos@CTmTextLayout@@QBEHH@Z @ 141 NONAME ; public: int __thiscall CTmTextLayout::FindNextPos(int)const 
	?FindPreviousPos@CTmTextLayout@@QBEHH@Z @ 142 NONAME ; public: int __thiscall CTmTextLayout::FindPreviousPos(int)const 
	?FindXyPosWithDisambiguation@CTmTextLayout@@QBEHABVTPoint@@AAVTTmPosInfo2@@1AAVTTmLineInfo@@@Z @ 143 NONAME ; public: int __thiscall CTmTextLayout::FindXyPosWithDisambiguation(class TPoint const &,class TTmPosInfo2 &,class TTmPosInfo2 &,class TTmLineInfo &)const 
	?FindXyPosWithDisambiguation@MTmTextLayoutForwarder@@QBEHABVTPoint@@AAVTTmPosInfo2@@1AAVTTmLineInfo@@@Z @ 144 NONAME ; public: int __thiscall MTmTextLayoutForwarder::FindXyPosWithDisambiguation(class TPoint const &,class TTmPosInfo2 &,class TTmPosInfo2 &,class TTmLineInfo &)const 
	?GetNextPosLeftWithDisambiguation@CTmTextLayout@@QBEHABVTTmDocPosSpec@@AAVTTmPosInfo2@@1@Z @ 145 NONAME ; public: int __thiscall CTmTextLayout::GetNextPosLeftWithDisambiguation(class TTmDocPosSpec const &,class TTmPosInfo2 &,class TTmPosInfo2 &)const 
	?GetNextPosLeftWithDisambiguation@MTmTextLayoutForwarder@@QBEHABVTTmDocPosSpec@@AAVTTmPosInfo2@@1@Z @ 146 NONAME ; public: int __thiscall MTmTextLayoutForwarder::GetNextPosLeftWithDisambiguation(class TTmDocPosSpec const &,class TTmPosInfo2 &,class TTmPosInfo2 &)const 
	?GetNextPosRightWithDisambiguation@CTmTextLayout@@QBEHABVTTmDocPosSpec@@AAVTTmPosInfo2@@1@Z @ 147 NONAME ; public: int __thiscall CTmTextLayout::GetNextPosRightWithDisambiguation(class TTmDocPosSpec const &,class TTmPosInfo2 &,class TTmPosInfo2 &)const 
	?GetNextPosRightWithDisambiguation@MTmTextLayoutForwarder@@QBEHABVTTmDocPosSpec@@AAVTTmPosInfo2@@1@Z @ 148 NONAME ; public: int __thiscall MTmTextLayoutForwarder::GetNextPosRightWithDisambiguation(class TTmDocPosSpec const &,class TTmPosInfo2 &,class TTmPosInfo2 &)const 
	?HorizontalExtremes@CTmTextLayout@@QBEXAAH0HH@Z @ 149 NONAME ; public: void __thiscall CTmTextLayout::HorizontalExtremes(int &,int &,int,int)const 
	?HorizontalExtremes@MTmTextLayoutForwarder@@QBEXAAH0HH@Z @ 150 NONAME ; public: void __thiscall MTmTextLayoutForwarder::HorizontalExtremes(int &,int &,int,int)const 
	?LabelMetrics@MFormLabelApi@@UBEXW4TLabelType@MTmSource@@AAVTSize@@AAH@Z @ 151 NONAME ; void MFormLabelApi::LabelMetrics(enum MTmSource::TLabelType, class TSize &, int &) const
	?LabelModeCancel@MFormLabelApi@@UAEXXZ @ 152 NONAME ; void MFormLabelApi::LabelModeCancel(void)
	?LabelModeSelect@MFormLabelApi@@UAEHW4TLabelType@MTmSource@@H@Z @ 153 NONAME ; int MFormLabelApi::LabelModeSelect(enum MTmSource::TLabelType, int)
	?GetMinimumLayoutSizeL@CTmTextLayout@@QBEXHHAAVTSize@@@Z @ 154 NONAME ; void CTmTextLayout::GetMinimumLayoutSizeL(int, int, class TSize &) const
	?GetMinimumLayoutSizeL@MTmTextLayoutForwarder@@QBEXHHAAVTSize@@@Z @ 155 NONAME ; void MTmTextLayoutForwarder::GetMinimumLayoutSizeL(int, int, class TSize &) const

