EXPORTS
	_ZN10CLogClient11ChangeEventERK9CLogEventR14TRequestStatus @ 1 NONAME
	_ZN10CLogClient11DeleteEventElR14TRequestStatus @ 2 NONAME
	_ZN10CLogClient12AddEventTypeERK13CLogEventTypeR14TRequestStatus @ 3 NONAME
	_ZN10CLogClient12ChangeConfigERK10TLogConfigR14TRequestStatus @ 4 NONAME
	_ZN10CLogClient12GetEventTypeER13CLogEventTypeR14TRequestStatus @ 5 NONAME
	_ZN10CLogClient12NotifyChangeE27TTimeIntervalMicroSeconds32R14TRequestStatus @ 6 NONAME
	_ZN10CLogClient15ChangeEventTypeERK13CLogEventTypeR14TRequestStatus @ 7 NONAME
	_ZN10CLogClient15DeleteEventTypeE4TUidR14TRequestStatus @ 8 NONAME
	_ZN10CLogClient18CLogBase_Reserved1Ev @ 9 NONAME
	_ZN10CLogClient18NotifyChangeCancelEv @ 10 NONAME
	_ZN10CLogClient24SetGlobalChangeObserverLEP24MLogClientChangeObserver @ 11 NONAME
	_ZN10CLogClient4NewLER3RFsi @ 12 NONAME
	_ZN10CLogClient8AddEventER9CLogEventR14TRequestStatus @ 13 NONAME
	_ZN10CLogClient8ClearLogERK5TTimeR14TRequestStatus @ 14 NONAME
	_ZN10CLogClient8ClearLogEiR14TRequestStatus @ 15 NONAME
	_ZN10CLogClient8GetEventER9CLogEventR14TRequestStatus @ 16 NONAME
	_ZN10CLogClient9GetConfigER10TLogConfigR14TRequestStatus @ 17 NONAME
	_ZN10CLogClientD0Ev @ 18 NONAME
	_ZN10CLogClientD1Ev @ 19 NONAME
	_ZN10CLogClientD2Ev @ 20 NONAME
	_ZN10CLogFilter4CopyERKS_ @ 21 NONAME
	_ZN10CLogFilter4NewLEv @ 22 NONAME
	_ZN10CLogFilterD0Ev @ 23 NONAME
	_ZN10CLogFilterD1Ev @ 24 NONAME
	_ZN10CLogFilterD2Ev @ 25 NONAME
	_ZN10TLogConfigC1Ev @ 26 NONAME
	_ZN10TLogConfigC2Ev @ 27 NONAME
	_ZN10TLogWindow5ResetEv @ 28 NONAME
	_ZN10TLogWindowC1Ev @ 29 NONAME
	_ZN10TLogWindowC2Ev @ 30 NONAME
	_ZN11CLogPackage12SetLogEventLERK9CLogEvent @ 31 NONAME
	_ZN11CLogPackage13SetLogConfigLERK10TLogConfig @ 32 NONAME
	_ZN11CLogPackage16SetLogEventTypeLERK13CLogEventType @ 33 NONAME
	_ZN11CLogPackage17SetLogFilterListLERK14CLogFilterList @ 34 NONAME
	_ZN11CLogPackage4NewLEv @ 35 NONAME
	_ZN11CLogPackageD0Ev @ 36 NONAME
	_ZN11CLogPackageD1Ev @ 37 NONAME
	_ZN11CLogPackageD2Ev @ 38 NONAME
	_ZN13CLogEventType4CopyERKS_ @ 39 NONAME
	_ZN13CLogEventType4NewLEv @ 40 NONAME
	_ZN13CLogEventTypeD0Ev @ 41 NONAME
	_ZN13CLogEventTypeD1Ev @ 42 NONAME
	_ZN13CLogEventTypeD2Ev @ 43 NONAME
	_ZN13CLogViewEvent10SetFilterLERK10CLogFilterR14TRequestStatus @ 44 NONAME
	_ZN13CLogViewEvent10SetFilterLERK14CLogFilterListR14TRequestStatus @ 45 NONAME
	_ZN13CLogViewEvent29SetFilterParseFilterByFilterLERK14CLogFilterListR14TRequestStatus @ 46 NONAME
	_ZN13CLogViewEvent4NewLER10CLogClientR22MLogViewChangeObserveri @ 47 NONAME
	_ZN13CLogViewEvent4NewLER10CLogClienti @ 48 NONAME
	_ZN13CLogViewEventD0Ev @ 49 NONAME
	_ZN13CLogViewEventD1Ev @ 50 NONAME
	_ZN13CLogViewEventD2Ev @ 51 NONAME
	_ZN14CLogFilterListC1Ev @ 52 NONAME
	_ZN14CLogFilterListC2Ev @ 53 NONAME
	_ZN14CLogViewRecent11DuplicatesLER17CLogViewDuplicateR14TRequestStatus @ 54 NONAME
	_ZN14CLogViewRecent11DuplicatesLER17CLogViewDuplicateRK10CLogFilterR14TRequestStatus @ 55 NONAME
	_ZN14CLogViewRecent11DuplicatesLER17CLogViewDuplicateRK14CLogFilterListR14TRequestStatus @ 56 NONAME
	_ZN14CLogViewRecent14SetRecentListLEaR14TRequestStatus @ 57 NONAME
	_ZN14CLogViewRecent14SetRecentListLEaRK10CLogFilterR14TRequestStatus @ 58 NONAME
	_ZN14CLogViewRecent14SetRecentListLEaRK14CLogFilterListR14TRequestStatus @ 59 NONAME
	_ZN14CLogViewRecent16ClearDuplicatesLEv @ 60 NONAME
	_ZN14CLogViewRecent4NewLER10CLogClientR22MLogViewChangeObserveri @ 61 NONAME
	_ZN14CLogViewRecent4NewLER10CLogClienti @ 62 NONAME
	_ZN14CLogViewRecent7RemoveLER14TRequestStatus @ 63 NONAME
	_ZN14CLogViewRecent7RemoveLEl @ 64 NONAME
	_ZN14CLogViewRecentD0Ev @ 65 NONAME
	_ZN14CLogViewRecentD1Ev @ 66 NONAME
	_ZN14CLogViewRecentD2Ev @ 67 NONAME
	_ZN17CLogViewDuplicate4NewLER10CLogClientR22MLogViewChangeObserveri @ 68 NONAME
	_ZN17CLogViewDuplicate4NewLER10CLogClienti @ 69 NONAME
	_ZN17CLogViewDuplicate7RemoveLER14TRequestStatus @ 70 NONAME
	_ZN17CLogViewDuplicate7RemoveLEl @ 71 NONAME
	_ZN17CLogViewDuplicateD0Ev @ 72 NONAME
	_ZN17CLogViewDuplicateD1Ev @ 73 NONAME
	_ZN17CLogViewDuplicateD2Ev @ 74 NONAME
	_ZN18TLogTransferWindow5ResetEv @ 75 NONAME
	_ZN18TLogTransferWindowC1Ev @ 76 NONAME
	_ZN18TLogTransferWindowC2Ev @ 77 NONAME
	_ZN20CLogChangeDefinition12InternalizeLER11RReadStream @ 78 NONAME
	_ZN20CLogChangeDefinition4AddLEl22TLogDatabaseChangeTypei @ 79 NONAME
	_ZN20CLogChangeDefinition4NewLER11RReadStream @ 80 NONAME
	_ZN20CLogChangeDefinition4NewLERKS_ @ 81 NONAME
	_ZN20CLogChangeDefinition4NewLEi @ 82 NONAME
	_ZN20CLogChangeDefinition5ResetEv @ 83 NONAME
	_ZN20CLogChangeDefinitionD0Ev @ 84 NONAME
	_ZN20CLogChangeDefinitionD1Ev @ 85 NONAME
	_ZN20CLogChangeDefinitionD2Ev @ 86 NONAME
	_ZN24MLogClientChangeObserver34MLogClientChangeObserver_Reserved1Ev @ 87 NONAME
	_ZN24MLogClientChangeObserver34MLogClientChangeObserver_Reserved2Ev @ 88 NONAME
	_ZN8CLogView5LastLER14TRequestStatus @ 89 NONAME
	_ZN8CLogView5NextLER14TRequestStatus @ 90 NONAME
	_ZN8CLogView6CountLEv @ 91 NONAME
	_ZN8CLogView6FirstLER14TRequestStatus @ 92 NONAME
	_ZN8CLogView9PreviousLER14TRequestStatus @ 93 NONAME
	_ZN8CLogView9SetFlagsLEh @ 94 NONAME
	_ZN8CLogViewD0Ev @ 95 NONAME
	_ZN8CLogViewD1Ev @ 96 NONAME
	_ZN8CLogViewD2Ev @ 97 NONAME
	_ZN8LogUtils19DateFormatForLocaleEv @ 98 NONAME
	_ZNK10CLogClient9GetStringER6TDes16i @ 99 NONAME
	_ZNK10TLogWindow29WindowIndexFromCursorPositionEi @ 100 NONAME
	_ZNK10TLogWindow5RangeEv @ 101 NONAME
	_ZNK10TLogWindow8ContainsEi @ 102 NONAME
	_ZNK11CLogPackage12GetLogEventLER9CLogEvent @ 103 NONAME
	_ZNK11CLogPackage13GetLogConfigLER10TLogConfig @ 104 NONAME
	_ZNK11CLogPackage16GetLogEventTypeLER13CLogEventType @ 105 NONAME
	_ZNK11CLogPackage17GetLogFilterListLER14CLogFilterList @ 106 NONAME
	_ZNK14CLogFilterList5CopyLEv @ 107 NONAME
	_ZNK14CLogFilterList6CopyLCEv @ 108 NONAME
	_ZNK20CLogChangeDefinition12ExternalizeLER12RWriteStream @ 109 NONAME
	_ZNK20CLogChangeDefinition15FindByViewIndexEi @ 110 NONAME
	_ZNK20CLogChangeDefinition2AtEi @ 111 NONAME
	_ZNK20CLogChangeDefinition2AtEiRl @ 112 NONAME
	_ZNK20CLogChangeDefinition2AtEiRlRi @ 113 NONAME
	_ZNK20CLogChangeDefinition4FindEl @ 114 NONAME
	_ZNK20CLogChangeDefinition4FindEl22TLogDatabaseChangeType @ 115 NONAME
	_ZNK20CLogChangeDefinition5CountEv @ 116 NONAME
	_ZTV8CLogView @ 117 NONAME ; #<VT>#
	_ZTI24MLogClientChangeObserver @ 118 NONAME ; #<TI>#
	_ZTV24MLogClientChangeObserver @ 119 NONAME ; #<VT>#
	_ZTI10CLogClient @ 120 NONAME ; #<TI>#
	_ZTI10CLogFilter @ 121 NONAME ; #<TI>#
	_ZTI11CLogPackage @ 122 NONAME ; #<TI>#
	_ZTI12CLogClientOp @ 123 NONAME ABSENT ; #<TI>#
	_ZTI13CLogEventType @ 124 NONAME ; #<TI>#
	_ZTI13CLogViewEvent @ 125 NONAME ; #<TI>#
	_ZTI14CLogViewRecent @ 126 NONAME ; #<TI>#
	_ZTI14CLogViewWindow @ 127 NONAME ABSENT ; #<TI>#
	_ZTI16CLogViewObserver @ 128 NONAME ABSENT ; #<TI>#
	_ZTI17CLogViewDuplicate @ 129 NONAME ; #<TI>#
	_ZTI18CLogClientObserver @ 130 NONAME ABSENT ; #<TI>#
	_ZTI19CLogAddTypeClientOp @ 131 NONAME ABSENT ; #<TI>#
	_ZTI19CLogGetTypeClientOp @ 132 NONAME ABSENT ; #<TI>#
	_ZTI20CLogAddEventClientOp @ 133 NONAME ABSENT ; #<TI>#
	_ZTI20CLogChangeDefinition @ 134 NONAME ; #<TI>#
	_ZTI20CLogClearLogClientOp @ 135 NONAME ABSENT ; #<TI>#
	_ZTI20CLogGetEventClientOp @ 136 NONAME ABSENT ; #<TI>#
	_ZTI20CLogMaintainClientOp @ 137 NONAME ABSENT ; #<TI>#
	_ZTI21CLogGetConfigClientOp @ 138 NONAME ABSENT ; #<TI>#
	_ZTI21CLogViewSetupClientOp @ 139 NONAME ABSENT ; #<TI>#
	_ZTI21CLogViewWindowFetcher @ 140 NONAME ABSENT ; #<TI>#
	_ZTI22CLogChangeTypeClientOp @ 141 NONAME ABSENT ; #<TI>#
	_ZTI22CLogDeleteTypeClientOp @ 142 NONAME ABSENT ; #<TI>#
	_ZTI23CLogChangeEventClientOp @ 143 NONAME ABSENT ; #<TI>#
	_ZTI23CLogClearRecentClientOp @ 144 NONAME ABSENT ; #<TI>#
	_ZTI23CLogDeleteEventClientOp @ 145 NONAME ABSENT ; #<TI>#
	_ZTI24CLogChangeConfigClientOp @ 146 NONAME ABSENT ; #<TI>#
	_ZTI26CLogViewWindowLockObserver @ 147 NONAME ABSENT ; #<TI>#
	_ZTI27CLogViewRemoveEventClientOp @ 148 NONAME ABSENT ; #<TI>#
	_ZTI28CLogViewWindowChangeObserver @ 149 NONAME ABSENT ; #<TI>#
	_ZTI8CLogView @ 150 NONAME ; #<TI>#
	_ZTV10CLogClient @ 151 NONAME ; #<VT>#
	_ZTV10CLogFilter @ 152 NONAME ; #<VT>#
	_ZTV11CLogPackage @ 153 NONAME ; #<VT>#
	_ZTV12CLogClientOp @ 154 NONAME ABSENT ; #<VT>#
	_ZTV13CLogEventType @ 155 NONAME ; #<VT>#
	_ZTV13CLogViewEvent @ 156 NONAME ; #<VT>#
	_ZTV14CLogViewRecent @ 157 NONAME ; #<VT>#
	_ZTV14CLogViewWindow @ 158 NONAME ABSENT ; #<VT>#
	_ZTV16CLogViewObserver @ 159 NONAME ABSENT ; #<VT>#
	_ZTV17CLogViewDuplicate @ 160 NONAME ; #<VT>#
	_ZTV18CLogClientObserver @ 161 NONAME ABSENT ; #<VT>#
	_ZTV19CLogAddTypeClientOp @ 162 NONAME ABSENT ; #<VT>#
	_ZTV19CLogGetTypeClientOp @ 163 NONAME ABSENT ; #<VT>#
	_ZTV20CLogAddEventClientOp @ 164 NONAME ABSENT ; #<VT>#
	_ZTV20CLogChangeDefinition @ 165 NONAME ; #<VT>#
	_ZTV20CLogClearLogClientOp @ 166 NONAME ABSENT ; #<VT>#
	_ZTV20CLogGetEventClientOp @ 167 NONAME ABSENT ; #<VT>#
	_ZTV20CLogMaintainClientOp @ 168 NONAME ABSENT ; #<VT>#
	_ZTV21CLogGetConfigClientOp @ 169 NONAME ABSENT ; #<VT>#
	_ZTV21CLogViewSetupClientOp @ 170 NONAME ABSENT ; #<VT>#
	_ZTV21CLogViewWindowFetcher @ 171 NONAME ABSENT ; #<VT>#
	_ZTV22CLogChangeTypeClientOp @ 172 NONAME ABSENT ; #<VT>#
	_ZTV22CLogDeleteTypeClientOp @ 173 NONAME ABSENT ; #<VT>#
	_ZTV23CLogChangeEventClientOp @ 174 NONAME ABSENT ; #<VT>#
	_ZTV23CLogClearRecentClientOp @ 175 NONAME ABSENT ; #<VT>#
	_ZTV23CLogDeleteEventClientOp @ 176 NONAME ABSENT ; #<VT>#
	_ZTV24CLogChangeConfigClientOp @ 177 NONAME ABSENT ; #<VT>#
	_ZTV26CLogViewWindowLockObserver @ 178 NONAME ABSENT ; #<VT>#
	_ZTV27CLogViewRemoveEventClientOp @ 179 NONAME ABSENT ; #<VT>#
	_ZTV28CLogViewWindowChangeObserver @ 180 NONAME ABSENT ; #<VT>#
	_ZN10CLogClient8ClearLogERK5TTimemR14TRequestStatus @ 181 NONAME
	_ZN10CLogClient8ClearLogEimR14TRequestStatus @ 182 NONAME
	_ZN10CLogFilter8SetSimIdEm @ 183 NONAME
	_ZNK10CLogFilter5SimIdEv @ 184 NONAME

