EXPORTS
	??0LString16@@QAE@ABV0@@Z @ 1 NONAME ; LString16::LString16(class LString16 const &)
	??0LString16@@QAE@ABVTDesC16@@@Z @ 2 NONAME ; LString16::LString16(class TDesC16 const &)
	??0LString16@@QAE@H@Z @ 3 NONAME ; LString16::LString16(int)
	??0LString16@@QAE@PAGH@Z @ 4 NONAME ; LString16::LString16(unsigned short *, int)
	??0LString16@@QAE@PAGHH@Z @ 5 NONAME ; LString16::LString16(unsigned short *, int, int)
	??0LString16@@QAE@PAVHBufC16@@@Z @ 6 NONAME ; LString16::LString16(class HBufC16 *)
	??0LString16@@QAE@PBG@Z @ 7 NONAME ; LString16::LString16(unsigned short const *)
	??0LString16@@QAE@XZ @ 8 NONAME ; LString16::LString16(void)
	??0LString8@@QAE@ABV0@@Z @ 9 NONAME ; LString8::LString8(class LString8 const &)
	??0LString8@@QAE@ABVTDesC8@@@Z @ 10 NONAME ; LString8::LString8(class TDesC8 const &)
	??0LString8@@QAE@H@Z @ 11 NONAME ; LString8::LString8(int)
	??0LString8@@QAE@PAEH@Z @ 12 NONAME ; LString8::LString8(unsigned char *, int)
	??0LString8@@QAE@PAEHH@Z @ 13 NONAME ; LString8::LString8(unsigned char *, int, int)
	??0LString8@@QAE@PAVHBufC8@@@Z @ 14 NONAME ; LString8::LString8(class HBufC8 *)
	??0LString8@@QAE@PBE@Z @ 15 NONAME ; LString8::LString8(unsigned char const *)
	??0LString8@@QAE@XZ @ 16 NONAME ; LString8::LString8(void)
	??1LString16@@QAE@XZ @ 17 NONAME ; LString16::~LString16(void)
	??1LString8@@QAE@XZ @ 18 NONAME ; LString8::~LString8(void)
	??4LString16@@QAEAAV0@ABV0@@Z @ 19 NONAME ; class LString16 & LString16::operator=(class LString16 const &)
	??4LString16@@QAEAAV0@ABVTDesC16@@@Z @ 20 NONAME ; class LString16 & LString16::operator=(class TDesC16 const &)
	??4LString16@@QAEAAV0@PAVHBufC16@@@Z @ 21 NONAME ; class LString16 & LString16::operator=(class HBufC16 *)
	??4LString16@@QAEAAV0@PBG@Z @ 22 NONAME ; class LString16 & LString16::operator=(unsigned short const *)
	??4LString8@@QAEAAV0@ABV0@@Z @ 23 NONAME ; class LString8 & LString8::operator=(class LString8 const &)
	??4LString8@@QAEAAV0@ABVTDesC8@@@Z @ 24 NONAME ; class LString8 & LString8::operator=(class TDesC8 const &)
	??4LString8@@QAEAAV0@PAVHBufC8@@@Z @ 25 NONAME ; class LString8 & LString8::operator=(class HBufC8 *)
	??4LString8@@QAEAAV0@PBE@Z @ 26 NONAME ; class LString8 & LString8::operator=(unsigned char const *)
	??YLString16@@QAEAAV0@ABVTDesC16@@@Z @ 27 NONAME ; class LString16 & LString16::operator+=(class TDesC16 const &)
	??YLString16@@QAEAAV0@VTChar@@@Z @ 28 NONAME ; class LString16 & LString16::operator+=(class TChar)
	??YLString8@@QAEAAV0@ABVTDesC8@@@Z @ 29 NONAME ; class LString8 & LString8::operator+=(class TDesC8 const &)
	??YLString8@@QAEAAV0@VTChar@@@Z @ 30 NONAME ; class LString8 & LString8::operator+=(class TChar)
	?AppendFillL@LString16@@QAEXVTChar@@H@Z @ 31 NONAME ; void LString16::AppendFillL(class TChar, int)
	?AppendFillL@LString8@@QAEXVTChar@@H@Z @ 32 NONAME ; void LString8::AppendFillL(class TChar, int)
	?AppendFormatL@LString16@@QAAXV?$TRefByValue@$$CBVTDesC16@@@@ZZ @ 33 NONAME ; void LString16::AppendFormatL(class TRefByValue<class TDesC16 const >, ...)
	?AppendFormatL@LString8@@QAAXV?$TRefByValue@$$CBVTDesC8@@@@ZZ @ 34 NONAME ; void LString8::AppendFormatL(class TRefByValue<class TDesC8 const >, ...)
	?AppendFormatListL@LString16@@QAEXABVTDesC16@@QAPAC@Z @ 35 NONAME ; void LString16::AppendFormatListL(class TDesC16 const &, signed char * * const)
	?AppendFormatListL@LString8@@QAEXABVTDesC8@@QAPAC@Z @ 36 NONAME ; void LString8::AppendFormatListL(class TDesC8 const &, signed char * * const)
	?AppendJustifyL@LString16@@QAEXABVTDesC16@@HHW4TAlign@@VTChar@@@Z @ 37 NONAME ; void LString16::AppendJustifyL(class TDesC16 const &, int, int, enum TAlign, class TChar)
	?AppendJustifyL@LString16@@QAEXABVTDesC16@@HW4TAlign@@VTChar@@@Z @ 38 NONAME ; void LString16::AppendJustifyL(class TDesC16 const &, int, enum TAlign, class TChar)
	?AppendJustifyL@LString16@@QAEXPBGHHW4TAlign@@VTChar@@@Z @ 39 NONAME ; void LString16::AppendJustifyL(unsigned short const *, int, int, enum TAlign, class TChar)
	?AppendJustifyL@LString16@@QAEXPBGHW4TAlign@@VTChar@@@Z @ 40 NONAME ; void LString16::AppendJustifyL(unsigned short const *, int, enum TAlign, class TChar)
	?AppendJustifyL@LString8@@QAEXABVTDesC8@@HHW4TAlign@@VTChar@@@Z @ 41 NONAME ; void LString8::AppendJustifyL(class TDesC8 const &, int, int, enum TAlign, class TChar)
	?AppendJustifyL@LString8@@QAEXABVTDesC8@@HW4TAlign@@VTChar@@@Z @ 42 NONAME ; void LString8::AppendJustifyL(class TDesC8 const &, int, enum TAlign, class TChar)
	?AppendJustifyL@LString8@@QAEXPBEHHW4TAlign@@VTChar@@@Z @ 43 NONAME ; void LString8::AppendJustifyL(unsigned char const *, int, int, enum TAlign, class TChar)
	?AppendJustifyL@LString8@@QAEXPBEHW4TAlign@@VTChar@@@Z @ 44 NONAME ; void LString8::AppendJustifyL(unsigned char const *, int, enum TAlign, class TChar)
	?AppendL@LString16@@QAEXABVTDesC16@@@Z @ 45 NONAME ; void LString16::AppendL(class TDesC16 const &)
	?AppendL@LString16@@QAEXPBGH@Z @ 46 NONAME ; void LString16::AppendL(unsigned short const *, int)
	?AppendL@LString16@@QAEXVTChar@@@Z @ 47 NONAME ; void LString16::AppendL(class TChar)
	?AppendL@LString8@@QAEXABVTDesC8@@@Z @ 48 NONAME ; void LString8::AppendL(class TDesC8 const &)
	?AppendL@LString8@@QAEXPBEH@Z @ 49 NONAME ; void LString8::AppendL(unsigned char const *, int)
	?AppendL@LString8@@QAEXVTChar@@@Z @ 50 NONAME ; void LString8::AppendL(class TChar)
	?AppendNumFixedWidthL@LString16@@QAEXIW4TRadix@@H@Z @ 51 NONAME ; void LString16::AppendNumFixedWidthL(unsigned int, enum TRadix, int)
	?AppendNumFixedWidthL@LString8@@QAEXIW4TRadix@@H@Z @ 52 NONAME ; void LString8::AppendNumFixedWidthL(unsigned int, enum TRadix, int)
	?AppendNumFixedWidthUCL@LString16@@QAEXIW4TRadix@@H@Z @ 53 NONAME ; void LString16::AppendNumFixedWidthUCL(unsigned int, enum TRadix, int)
	?AppendNumFixedWidthUCL@LString8@@QAEXIW4TRadix@@H@Z @ 54 NONAME ; void LString8::AppendNumFixedWidthUCL(unsigned int, enum TRadix, int)
	?AppendNumL@LString16@@QAEHNABVTRealFormat@@@Z @ 55 NONAME ; int LString16::AppendNumL(double, class TRealFormat const &)
	?AppendNumL@LString16@@QAEX_J@Z @ 56 NONAME ; void LString16::AppendNumL(long long)
	?AppendNumL@LString16@@QAEX_KW4TRadix@@@Z @ 57 NONAME ; void LString16::AppendNumL(unsigned long long, enum TRadix)
	?AppendNumL@LString8@@QAEHNABVTRealFormat@@@Z @ 58 NONAME ; int LString8::AppendNumL(double, class TRealFormat const &)
	?AppendNumL@LString8@@QAEX_J@Z @ 59 NONAME ; void LString8::AppendNumL(long long)
	?AppendNumL@LString8@@QAEX_KW4TRadix@@@Z @ 60 NONAME ; void LString8::AppendNumL(unsigned long long, enum TRadix)
	?AppendNumUCL@LString16@@QAEX_KW4TRadix@@@Z @ 61 NONAME ; void LString16::AppendNumUCL(unsigned long long, enum TRadix)
	?AppendNumUCL@LString8@@QAEX_KW4TRadix@@@Z @ 62 NONAME ; void LString8::AppendNumUCL(unsigned long long, enum TRadix)
	?Assign@LString16@@QAEXABV1@@Z @ 63 NONAME ; void LString16::Assign(class LString16 const &)
	?Assign@LString16@@QAEXABVRBuf16@@@Z @ 64 NONAME ; void LString16::Assign(class RBuf16 const &)
	?Assign@LString16@@QAEXPAGH@Z @ 65 NONAME ; void LString16::Assign(unsigned short *, int)
	?Assign@LString16@@QAEXPAGHH@Z @ 66 NONAME ; void LString16::Assign(unsigned short *, int, int)
	?Assign@LString16@@QAEXPAVHBufC16@@@Z @ 67 NONAME ; void LString16::Assign(class HBufC16 *)
	?Assign@LString8@@QAEXABV1@@Z @ 68 NONAME ; void LString8::Assign(class LString8 const &)
	?Assign@LString8@@QAEXABVRBuf8@@@Z @ 69 NONAME ; void LString8::Assign(class RBuf8 const &)
	?Assign@LString8@@QAEXPAEH@Z @ 70 NONAME ; void LString8::Assign(unsigned char *, int)
	?Assign@LString8@@QAEXPAEHH@Z @ 71 NONAME ; void LString8::Assign(unsigned char *, int, int)
	?Assign@LString8@@QAEXPAVHBufC8@@@Z @ 72 NONAME ; void LString8::Assign(class HBufC8 *)
	?Compress@LString16@@QAEXXZ @ 73 NONAME ; void LString16::Compress(void)
	?Compress@LString8@@QAEXXZ @ 74 NONAME ; void LString8::Compress(void)
	?CopyCL@LString16@@QAEXABVTDesC16@@@Z @ 75 NONAME ; void LString16::CopyCL(class TDesC16 const &)
	?CopyCL@LString8@@QAEXABVTDesC8@@@Z @ 76 NONAME ; void LString8::CopyCL(class TDesC8 const &)
	?CopyCPL@LString16@@QAEXABVTDesC16@@@Z @ 77 NONAME ; void LString16::CopyCPL(class TDesC16 const &)
	?CopyCPL@LString8@@QAEXABVTDesC8@@@Z @ 78 NONAME ; void LString8::CopyCPL(class TDesC8 const &)
	?CopyFL@LString16@@QAEXABVTDesC16@@@Z @ 79 NONAME ; void LString16::CopyFL(class TDesC16 const &)
	?CopyFL@LString8@@QAEXABVTDesC8@@@Z @ 80 NONAME ; void LString8::CopyFL(class TDesC8 const &)
	?CopyL@LString16@@QAEXABVTDesC16@@@Z @ 81 NONAME ; void LString16::CopyL(class TDesC16 const &)
	?CopyL@LString16@@QAEXABVTDesC8@@@Z @ 82 NONAME ; void LString16::CopyL(class TDesC8 const &)
	?CopyL@LString16@@QAEXPBG@Z @ 83 NONAME ; void LString16::CopyL(unsigned short const *)
	?CopyL@LString16@@QAEXPBGH@Z @ 84 NONAME ; void LString16::CopyL(unsigned short const *, int)
	?CopyL@LString8@@QAEXABVTDesC16@@@Z @ 85 NONAME ; void LString8::CopyL(class TDesC16 const &)
	?CopyL@LString8@@QAEXABVTDesC8@@@Z @ 86 NONAME ; void LString8::CopyL(class TDesC8 const &)
	?CopyL@LString8@@QAEXPBE@Z @ 87 NONAME ; void LString8::CopyL(unsigned char const *)
	?CopyL@LString8@@QAEXPBEH@Z @ 88 NONAME ; void LString8::CopyL(unsigned char const *, int)
	?CopyLCL@LString16@@QAEXABVTDesC16@@@Z @ 89 NONAME ; void LString16::CopyLCL(class TDesC16 const &)
	?CopyLCL@LString8@@QAEXABVTDesC8@@@Z @ 90 NONAME ; void LString8::CopyLCL(class TDesC8 const &)
	?CopyUCL@LString16@@QAEXABVTDesC16@@@Z @ 91 NONAME ; void LString16::CopyUCL(class TDesC16 const &)
	?CopyUCL@LString8@@QAEXABVTDesC8@@@Z @ 92 NONAME ; void LString8::CopyUCL(class TDesC8 const &)
	?CreateL@LString16@@QAEXAAVRReadStream@@H@Z @ 93 NONAME ; void LString16::CreateL(class RReadStream &, int)
	?CreateL@LString8@@QAEXAAVRReadStream@@H@Z @ 94 NONAME ; void LString8::CreateL(class RReadStream &, int)
	?FillL@LString16@@QAEXVTChar@@H@Z @ 95 NONAME ; void LString16::FillL(class TChar, int)
	?FillL@LString8@@QAEXVTChar@@H@Z @ 96 NONAME ; void LString8::FillL(class TChar, int)
	?FillZL@LString16@@QAEXH@Z @ 97 NONAME ; void LString16::FillZL(int)
	?FillZL@LString8@@QAEXH@Z @ 98 NONAME ; void LString8::FillZL(int)
	?FormatL@LString16@@QAAXV?$TRefByValue@$$CBVTDesC16@@@@ZZ @ 99 NONAME ; void LString16::FormatL(class TRefByValue<class TDesC16 const >, ...)
	?FormatL@LString8@@QAAXV?$TRefByValue@$$CBVTDesC8@@@@ZZ @ 100 NONAME ; void LString8::FormatL(class TRefByValue<class TDesC8 const >, ...)
	?FormatListL@LString16@@QAEXABVTDesC16@@QAPAC@Z @ 101 NONAME ; void LString16::FormatListL(class TDesC16 const &, signed char * * const)
	?FormatListL@LString8@@QAEXABVTDesC8@@QAPAC@Z @ 102 NONAME ; void LString8::FormatListL(class TDesC8 const &, signed char * * const)
	?InsertL@LString16@@QAEXHABVTDesC16@@@Z @ 103 NONAME ; void LString16::InsertL(int, class TDesC16 const &)
	?InsertL@LString8@@QAEXHABVTDesC8@@@Z @ 104 NONAME ; void LString8::InsertL(int, class TDesC8 const &)
	?JustifyL@LString16@@QAEXABVTDesC16@@HW4TAlign@@VTChar@@@Z @ 105 NONAME ; void LString16::JustifyL(class TDesC16 const &, int, enum TAlign, class TChar)
	?JustifyL@LString8@@QAEXABVTDesC8@@HW4TAlign@@VTChar@@@Z @ 106 NONAME ; void LString8::JustifyL(class TDesC8 const &, int, enum TAlign, class TChar)
	?NumFixedWidthL@LString16@@QAEXIW4TRadix@@H@Z @ 107 NONAME ; void LString16::NumFixedWidthL(unsigned int, enum TRadix, int)
	?NumFixedWidthL@LString8@@QAEXIW4TRadix@@H@Z @ 108 NONAME ; void LString8::NumFixedWidthL(unsigned int, enum TRadix, int)
	?NumFixedWidthUCL@LString16@@QAEXIW4TRadix@@H@Z @ 109 NONAME ; void LString16::NumFixedWidthUCL(unsigned int, enum TRadix, int)
	?NumFixedWidthUCL@LString8@@QAEXIW4TRadix@@H@Z @ 110 NONAME ; void LString8::NumFixedWidthUCL(unsigned int, enum TRadix, int)
	?NumL@LString16@@QAEHNABVTRealFormat@@@Z @ 111 NONAME ; int LString16::NumL(double, class TRealFormat const &)
	?NumL@LString16@@QAEX_J@Z @ 112 NONAME ; void LString16::NumL(long long)
	?NumL@LString16@@QAEX_KW4TRadix@@@Z @ 113 NONAME ; void LString16::NumL(unsigned long long, enum TRadix)
	?NumL@LString8@@QAEHNABVTRealFormat@@@Z @ 114 NONAME ; int LString8::NumL(double, class TRealFormat const &)
	?NumL@LString8@@QAEX_J@Z @ 115 NONAME ; void LString8::NumL(long long)
	?NumL@LString8@@QAEX_KW4TRadix@@@Z @ 116 NONAME ; void LString8::NumL(unsigned long long, enum TRadix)
	?NumUCL@LString16@@QAEX_KW4TRadix@@@Z @ 117 NONAME ; void LString16::NumUCL(unsigned long long, enum TRadix)
	?NumUCL@LString8@@QAEX_KW4TRadix@@@Z @ 118 NONAME ; void LString8::NumUCL(unsigned long long, enum TRadix)
	?PtrZL@LString16@@QAEPBGXZ @ 119 NONAME ; unsigned short const * LString16::PtrZL(void)
	?PtrZL@LString8@@QAEPBEXZ @ 120 NONAME ; unsigned char const * LString8::PtrZL(void)
	?ReplaceL@LString16@@QAEXHHABVTDesC16@@@Z @ 121 NONAME ; void LString16::ReplaceL(int, int, class TDesC16 const &)
	?ReplaceL@LString8@@QAEXHHABVTDesC8@@@Z @ 122 NONAME ; void LString8::ReplaceL(int, int, class TDesC8 const &)
	?ReserveFreeCapacityL@LString16@@QAEXH@Z @ 123 NONAME ; void LString16::ReserveFreeCapacityL(int)
	?ReserveFreeCapacityL@LString8@@QAEXH@Z @ 124 NONAME ; void LString8::ReserveFreeCapacityL(int)
	?Reset@LString16@@QAEXXZ @ 125 NONAME ; void LString16::Reset(void)
	?Reset@LString8@@QAEXXZ @ 126 NONAME ; void LString8::Reset(void)
	?SetLengthL@LString16@@QAEXH@Z @ 127 NONAME ; void LString16::SetLengthL(int)
	?SetLengthL@LString8@@QAEXH@Z @ 128 NONAME ; void LString8::SetLengthL(int)
	?SetMaxLengthL@LString16@@QAEXH@Z @ 129 NONAME ; void LString16::SetMaxLengthL(int)
	?SetMaxLengthL@LString8@@QAEXH@Z @ 130 NONAME ; void LString8::SetMaxLengthL(int)
	?SwapL@LString16@@QAEXAAV1@@Z @ 131 NONAME ; void LString16::SwapL(class LString16 &)
	?SwapL@LString16@@QAEXAAVTDes16@@@Z @ 132 NONAME ; void LString16::SwapL(class TDes16 &)
	?SwapL@LString8@@QAEXAAV1@@Z @ 133 NONAME ; void LString8::SwapL(class LString8 &)
	?SwapL@LString8@@QAEXAAVTDes8@@@Z @ 134 NONAME ; void LString8::SwapL(class TDes8 &)
	?ZeroTerminateL@LString16@@QAEXXZ @ 135 NONAME ; void LString16::ZeroTerminateL(void)
	?ZeroTerminateL@LString8@@QAEXXZ @ 136 NONAME ; void LString8::ZeroTerminateL(void)
	?AppendL@LString16@@QAEXPBG@Z @ 137 NONAME ; void LString16::AppendL(unsigned short const *)
	?Find@LString16@@QBEHPB_WH@Z @ 138 NONAME ; int LString16::Find(wchar_t const *, int) const
	?Match@LString8@@QBEHPBE@Z @ 139 NONAME ; int LString8::Match(unsigned char const *) const
	??NLString8@@QBEHPBE@Z @ 140 NONAME ; int LString8::operator<=(unsigned char const *) const
	?CopyUCL@LString8@@QAEXPBE@Z @ 141 NONAME ; void LString8::CopyUCL(unsigned char const *)
	?FindF@LString16@@QBEHPB_WH@Z @ 142 NONAME ; int LString16::FindF(wchar_t const *, int) const
	??4LString16@@QAEAAV0@PB_W@Z @ 143 NONAME ; class LString16 & LString16::operator=(wchar_t const *)
	?AppendJustifyL@LString8@@QAEXPBDHW4TAlign@@VTChar@@@Z @ 144 NONAME ; void LString8::AppendJustifyL(char const *, int, enum TAlign, class TChar)
	??0LString8@@QAE@PBD@Z @ 145 NONAME ; LString8::LString8(char const *)
	?Compare@LString8@@QBEHPBE@Z @ 146 NONAME ; int LString8::Compare(unsigned char const *) const
	?CompareF@LString16@@QBEHPBG@Z @ 147 NONAME ; int LString16::CompareF(unsigned short const *) const
	?AppendL@LString8@@QAEXPBD@Z @ 148 NONAME ; void LString8::AppendL(char const *)
	?FindF@LString8@@QBEHPBDH@Z @ 149 NONAME ; int LString8::FindF(char const *, int) const
	??NLString16@@QBEHPBG@Z @ 150 NONAME ; int LString16::operator<=(unsigned short const *) const
	?InsertL@LString8@@QAEXHPBD@Z @ 151 NONAME ; void LString8::InsertL(int, char const *)
	?MatchF@LString8@@QBEHPBD@Z @ 152 NONAME ; int LString8::MatchF(char const *) const
	??9LString16@@QBEHPBG@Z @ 153 NONAME ; int LString16::operator!=(unsigned short const *) const
	?CopyFL@LString8@@QAEXPBE@Z @ 154 NONAME ; void LString8::CopyFL(unsigned char const *)
	??9LString16@@QBEHPB_W@Z @ 155 NONAME ; int LString16::operator!=(wchar_t const *) const
	?Find@LString8@@QBEHPBE@Z @ 156 NONAME ; int LString8::Find(unsigned char const *) const
	??MLString8@@QBEHPBE@Z @ 157 NONAME ; int LString8::operator<(unsigned char const *) const
	?CopyUCL@LString16@@QAEXPBG@Z @ 158 NONAME ; void LString16::CopyUCL(unsigned short const *)
	?CopyLCL@LString8@@QAEXPBD@Z @ 159 NONAME ; void LString8::CopyLCL(char const *)
	??8LString16@@QBEHPB_W@Z @ 160 NONAME ; int LString16::operator==(wchar_t const *) const
	?FindF@LString16@@QBEHPB_W@Z @ 161 NONAME ; int LString16::FindF(wchar_t const *) const
	?Match@LString16@@QBEHPBG@Z @ 162 NONAME ; int LString16::Match(unsigned short const *) const
	??9LString8@@QBEHPBD@Z @ 163 NONAME ; int LString8::operator!=(char const *) const
	?CopyCPL@LString8@@QAEXPBD@Z @ 164 NONAME ; void LString8::CopyCPL(char const *)
	??PLString16@@QBEHPB_W@Z @ 165 NONAME ; int LString16::operator>=(wchar_t const *) const
	??YLString8@@QAEAAV0@PBE@Z @ 166 NONAME ; class LString8 & LString8::operator+=(unsigned char const *)
	??PLString8@@QBEHPBD@Z @ 167 NONAME ; int LString8::operator>=(char const *) const
	?CopyFL@LString16@@QAEXPB_W@Z @ 168 NONAME ; void LString16::CopyFL(wchar_t const *)
	?MatchF@LString16@@QBEHPBG@Z @ 169 NONAME ; int LString16::MatchF(unsigned short const *) const
	??OLString16@@QBEHPB_W@Z @ 170 NONAME ; int LString16::operator>(wchar_t const *) const
	?AppendJustifyL@LString16@@QAEXPB_WHHW4TAlign@@VTChar@@@Z @ 171 NONAME ; void LString16::AppendJustifyL(wchar_t const *, int, int, enum TAlign, class TChar)
	?Find@LString8@@QBEHPBDH@Z @ 172 NONAME ; int LString8::Find(char const *, int) const
	??NLString16@@QBEHPB_W@Z @ 173 NONAME ; int LString16::operator<=(wchar_t const *) const
	?Compare@LString16@@QBEHPB_W@Z @ 174 NONAME ; int LString16::Compare(wchar_t const *) const
	??MLString16@@QBEHPB_W@Z @ 175 NONAME ; int LString16::operator<(wchar_t const *) const
	?FindF@LString16@@QBEHPBG@Z @ 176 NONAME ; int LString16::FindF(unsigned short const *) const
	?ReplaceL@LString8@@QAEXHHPBD@Z @ 177 NONAME ; void LString8::ReplaceL(int, int, char const *)
	?JustifyL@LString8@@QAEXPBEHW4TAlign@@VTChar@@@Z @ 178 NONAME ; void LString8::JustifyL(unsigned char const *, int, enum TAlign, class TChar)
	??8LString8@@QBEHPBD@Z @ 179 NONAME ; int LString8::operator==(char const *) const
	?CopyLCL@LString16@@QAEXPB_W@Z @ 180 NONAME ; void LString16::CopyLCL(wchar_t const *)
	??YLString16@@QAEAAV0@PBG@Z @ 181 NONAME ; class LString16 & LString16::operator+=(unsigned short const *)
	?AppendL@LString16@@QAEXPB_WH@Z @ 182 NONAME ; void LString16::AppendL(wchar_t const *, int)
	?AppendL@LString16@@QAEXPB_W@Z @ 183 NONAME ; void LString16::AppendL(wchar_t const *)
	?CompareF@LString16@@QBEHPB_W@Z @ 184 NONAME ; int LString16::CompareF(wchar_t const *) const
	?JustifyL@LString8@@QAEXPBDHW4TAlign@@VTChar@@@Z @ 185 NONAME ; void LString8::JustifyL(char const *, int, enum TAlign, class TChar)
	?JustifyL@LString16@@QAEXPBGHW4TAlign@@VTChar@@@Z @ 186 NONAME ; void LString16::JustifyL(unsigned short const *, int, enum TAlign, class TChar)
	??OLString16@@QBEHPBG@Z @ 187 NONAME ; int LString16::operator>(unsigned short const *) const
	??OLString8@@QBEHPBD@Z @ 188 NONAME ; int LString8::operator>(char const *) const
	?CompareF@LString8@@QBEHPBD@Z @ 189 NONAME ; int LString8::CompareF(char const *) const
	?CopyL@LString16@@QAEXPB_W@Z @ 190 NONAME ; void LString16::CopyL(wchar_t const *)
	?AppendL@LString8@@QAEXPBE@Z @ 191 NONAME ; void LString8::AppendL(unsigned char const *)
	?JustifyL@LString16@@QAEXPB_WHW4TAlign@@VTChar@@@Z @ 192 NONAME ; void LString16::JustifyL(wchar_t const *, int, enum TAlign, class TChar)
	?InsertL@LString8@@QAEXHPBE@Z @ 193 NONAME ; void LString8::InsertL(int, unsigned char const *)
	?MatchF@LString8@@QBEHPBE@Z @ 194 NONAME ; int LString8::MatchF(unsigned char const *) const
	?FindF@LString8@@QBEHPBD@Z @ 195 NONAME ; int LString8::FindF(char const *) const
	?AppendJustifyL@LString16@@QAEXPB_WHW4TAlign@@VTChar@@@Z @ 196 NONAME ; void LString16::AppendJustifyL(wchar_t const *, int, enum TAlign, class TChar)
	?Compare@LString16@@QBEHPBG@Z @ 197 NONAME ; int LString16::Compare(unsigned short const *) const
	?AppendJustifyL@LString8@@QAEXPBDHHW4TAlign@@VTChar@@@Z @ 198 NONAME ; void LString8::AppendJustifyL(char const *, int, int, enum TAlign, class TChar)
	?ReplaceL@LString16@@QAEXHHPB_W@Z @ 199 NONAME ; void LString16::ReplaceL(int, int, wchar_t const *)
	?Match@LString16@@QBEHPB_W@Z @ 200 NONAME ; int LString16::Match(wchar_t const *) const
	?CopyLCL@LString8@@QAEXPBE@Z @ 201 NONAME ; void LString8::CopyLCL(unsigned char const *)
	?Match@LString8@@QBEHPBD@Z @ 202 NONAME ; int LString8::Match(char const *) const
	?ReplaceL@LString16@@QAEXHHPBG@Z @ 203 NONAME ; void LString16::ReplaceL(int, int, unsigned short const *)
	?Find@LString16@@QBEHPBG@Z @ 204 NONAME ; int LString16::Find(unsigned short const *) const
	??9LString8@@QBEHPBE@Z @ 205 NONAME ; int LString8::operator!=(unsigned char const *) const
	??NLString8@@QBEHPBD@Z @ 206 NONAME ; int LString8::operator<=(char const *) const
	?CopyUCL@LString8@@QAEXPBD@Z @ 207 NONAME ; void LString8::CopyUCL(char const *)
	?CopyFL@LString16@@QAEXPBG@Z @ 208 NONAME ; void LString16::CopyFL(unsigned short const *)
	?CopyCPL@LString8@@QAEXPBE@Z @ 209 NONAME ; void LString8::CopyCPL(unsigned char const *)
	?InsertL@LString16@@QAEXHPBG@Z @ 210 NONAME ; void LString16::InsertL(int, unsigned short const *)
	?InsertL@LString16@@QAEXHPB_W@Z @ 211 NONAME ; void LString16::InsertL(int, wchar_t const *)
	?Find@LString16@@QBEHPB_W@Z @ 212 NONAME ; int LString16::Find(wchar_t const *) const
	??PLString8@@QBEHPBE@Z @ 213 NONAME ; int LString8::operator>=(unsigned char const *) const
	?Compare@LString8@@QBEHPBD@Z @ 214 NONAME ; int LString8::Compare(char const *) const
	?AppendL@LString8@@QAEXPBDH@Z @ 215 NONAME ; void LString8::AppendL(char const *, int)
	??0LString16@@QAE@PB_W@Z @ 216 NONAME ; LString16::LString16(wchar_t const *)
	?CopyCPL@LString16@@QAEXPB_W@Z @ 217 NONAME ; void LString16::CopyCPL(wchar_t const *)
	?CopyL@LString8@@QAEXPBD@Z @ 218 NONAME ; void LString8::CopyL(char const *)
	?CopyFL@LString8@@QAEXPBD@Z @ 219 NONAME ; void LString8::CopyFL(char const *)
	?ReplaceL@LString8@@QAEXHHPBE@Z @ 220 NONAME ; void LString8::ReplaceL(int, int, unsigned char const *)
	??PLString16@@QBEHPBG@Z @ 221 NONAME ; int LString16::operator>=(unsigned short const *) const
	?CopyUCL@LString16@@QAEXPB_W@Z @ 222 NONAME ; void LString16::CopyUCL(wchar_t const *)
	??MLString16@@QBEHPBG@Z @ 223 NONAME ; int LString16::operator<(unsigned short const *) const
	?Find@LString8@@QBEHPBD@Z @ 224 NONAME ; int LString8::Find(char const *) const
	??8LString8@@QBEHPBE@Z @ 225 NONAME ; int LString8::operator==(unsigned char const *) const
	??MLString8@@QBEHPBD@Z @ 226 NONAME ; int LString8::operator<(char const *) const
	?CopyCPL@LString16@@QAEXPBG@Z @ 227 NONAME ; void LString16::CopyCPL(unsigned short const *)
	??8LString16@@QBEHPBG@Z @ 228 NONAME ; int LString16::operator==(unsigned short const *) const
	??OLString8@@QBEHPBE@Z @ 229 NONAME ; int LString8::operator>(unsigned char const *) const
	?CopyLCL@LString16@@QAEXPBG@Z @ 230 NONAME ; void LString16::CopyLCL(unsigned short const *)
	?CompareF@LString8@@QBEHPBE@Z @ 231 NONAME ; int LString8::CompareF(unsigned char const *) const
	??YLString8@@QAEAAV0@PBD@Z @ 232 NONAME ; class LString8 & LString8::operator+=(char const *)
	?MatchF@LString16@@QBEHPB_W@Z @ 233 NONAME ; int LString16::MatchF(wchar_t const *) const
	??4LString8@@QAEAAV0@PBD@Z @ 234 NONAME ; class LString8 & LString8::operator=(char const *)
	??YLString16@@QAEAAV0@PB_W@Z @ 235 NONAME ; class LString16 & LString16::operator+=(wchar_t const *)
	?FindF@LString8@@QBEHPBE@Z @ 236 NONAME ; int LString8::FindF(unsigned char const *) const

