Certificate:
    Data:
        Version: 1 (0x0)
        Serial Number: 1 (0x1)
        Signature Algorithm: dsaWithSHA1
        Issuer: O=Symbian Software Ltd, CN=Root2-DSA
        Validity
            Not Before: Feb  3 12:00:00 1982 GMT
            Not After : Feb  3 12:00:01 1982 GMT
        Subject: O=Symbian Software Ltd, CN=Expired-R2
        Subject Public Key Info:
            Public Key Algorithm: dsaEncryption
            DSA Public Key:
                pub: 
                    00:92:c9:b1:a3:af:ea:92:a5:ec:e0:83:bf:2f:fc:
                    35:92:07:ea:7a:e2:f6:7f:7d:c5:90:07:45:1c:4b:
                    16:f5:50:66:ca:66:4d:c2:82:d2:c2:dc:7a:cb:df:
                    de:f8:4c:d9:e1:6f:36:dc:ba:b9:e2:a3:3a:21:f4:
                    15:69:ac:df:2f:51:8a:13:23:64:56:27:6d:63:a7:
                    df:65:23:d7:53:45:9c:89:10:d5:26:af:52:a9:da:
                    f1:7a:ba:f8:92:5f:fc:bb:99:c0:0b:1a:95:b4:af:
                    25:75:19:cd:83:51:59:eb:1d:56:2b:9a:8e:3b:34:
                    db:33:87:bd:87:d0:2a:bc:fc
                P:   
                    00:c0:46:1a:89:48:cb:d2:7c:6d:af:22:06:1e:16:
                    60:70:ef:3c:af:9f:a1:f5:47:dc:65:ad:a3:60:c9:
                    0a:b7:ee:b6:45:22:50:c3:6c:2a:bf:a9:94:e6:db:
                    75:f8:58:7f:c0:1f:98:18:ec:47:af:0f:17:10:28:
                    cd:5a:04:33:23:0a:42:55:48:be:13:e1:9b:0b:42:
                    02:09:0d:06:3a:ab:6f:06:fb:86:d1:77:85:08:2f:
                    87:de:0e:7f:cf:df:d4:d8:f0:68:80:3c:94:1f:cf:
                    3b:1f:4a:44:93:32:ba:06:0a:e8:71:0f:46:2a:f9:
                    e6:02:d3:46:2e:1b:79:75:f5
                Q:   
                    00:9f:bb:32:4d:ea:56:27:10:b1:b1:47:1c:69:99:
                    b8:c0:da:85:86:77
                G:   
                    00:b4:83:a7:c0:49:ba:c3:1f:95:33:94:ca:90:ce:
                    1d:b7:48:06:2f:20:97:ce:c8:98:0f:ec:fa:33:fe:
                    8d:71:c8:13:d4:23:06:a3:b3:a8:3a:71:33:53:16:
                    5d:4a:db:04:00:6e:5c:c2:91:f8:13:95:ce:0c:46:
                    bd:bc:23:93:85:be:55:ca:99:6c:ac:ed:0a:01:7c:
                    52:0f:d5:4a:42:a2:91:3f:ef:c5:09:a4:17:0d:83:
                    5c:38:fe:65:58:3c:d6:eb:fc:b7:09:d7:b7:71:57:
                    35:76:57:9e:cd:62:15:16:c0:c7:f7:e1:61:8e:a4:
                    51:fd:8a:7a:05:53:a6:b5:77
    Signature Algorithm: dsaWithSHA1
        30:2c:02:14:71:83:67:a8:11:29:d6:88:fa:ef:82:59:34:9b:
        47:f5:ac:22:f2:68:02:14:65:5e:ab:c2:fd:87:63:94:d6:06:
        5e:1b:34:3b:3d:2a:58:ba:fd:f1
-----BEGIN CERTIFICATE-----
MIIClTCCAlUCAQEwCQYHKoZIzjgEAzAzMR0wGwYDVQQKExRTeW1iaWFuIFNvZnR3
YXJlIEx0ZDESMBAGA1UEAxMJUm9vdDItRFNBMB4XDTgyMDIwMzEyMDAwMFoXDTgy
MDIwMzEyMDAwMVowNDEdMBsGA1UEChMUU3ltYmlhbiBTb2Z0d2FyZSBMdGQxEzAR
BgNVBAMTCkV4cGlyZWQtUjIwggG4MIIBLAYHKoZIzjgEATCCAR8CgYEAwEYaiUjL
0nxtryIGHhZgcO88r5+h9UfcZa2jYMkKt+62RSJQw2wqv6mU5tt1+Fh/wB+YGOxH
rw8XECjNWgQzIwpCVUi+E+GbC0ICCQ0GOqtvBvuG0XeFCC+H3g5/z9/U2PBogDyU
H887H0pEkzK6BgrocQ9GKvnmAtNGLht5dfUCFQCfuzJN6lYnELGxRxxpmbjA2oWG
dwKBgQC0g6fASbrDH5UzlMqQzh23SAYvIJfOyJgP7Poz/o1xyBPUIwajs6g6cTNT
Fl1K2wQAblzCkfgTlc4MRr28I5OFvlXKmWys7QoBfFIP1UpCopE/78UJpBcNg1w4
/mVYPNbr/LcJ17dxVzV2V57NYhUWwMf34WGOpFH9inoFU6a1dwOBhQACgYEAksmx
o6/qkqXs4IO/L/w1kgfqeuL2f33FkAdFHEsW9VBmymZNwoLSwtx6y9/e+EzZ4W82
3Lq54qM6IfQVaazfL1GKEyNkVidtY6ffZSPXU0WciRDVJq9Sqdrxerr4kl/8u5nA
CxqVtK8ldRnNg1FZ6x1WK5qOOzTbM4e9h9AqvPwwCQYHKoZIzjgEAwMvADAsAhRx
g2eoESnWiPrvglk0m0f1rCLyaAIUZV6rwv2HY5TWBl4bNDs9Kli6/fE=
-----END CERTIFICATE-----
