Certificate:
    Data:
        Version: 1 (0x0)
        Serial Number: 2 (0x2)
        Signature Algorithm: dsaWithSHA1
        Issuer: O=Symbian Software Ltd, CN=Root2-DSA
        Validity
            Not Before: Mar  3 16:34:38 2004 GMT
            Not After : Mar  1 16:34:38 2014 GMT
        Subject: O=Symbian Software Ltd, CN=Good-R2
        Subject Public Key Info:
            Public Key Algorithm: dsaEncryption
            DSA Public Key:
                pub: 
                    5e:99:90:10:a7:85:6a:3c:5d:f6:e5:1c:9e:1e:54:
                    05:59:a2:02:cb:75:aa:09:61:3f:db:ab:f8:51:f3:
                    7a:5a:61:3e:58:e4:97:e7:06:9f:45:e6:77:b7:d0:
                    dd:9f:c2:1c:d6:fc:be:06:a8:50:51:3f:66:13:a1:
                    55:f2:b7:05:55:7b:43:aa:ce:2e:76:4f:e4:1c:90:
                    83:6e:d8:73:83:b9:8b:f9:f3:dc:40:f6:78:d7:50:
                    05:a4:9f:0f:62:7c:4f:17:88:a2:ba:0d:9d:14:97:
                    54:31:d7:a0:af:f5:f3:40:66:7f:16:cd:0a:06:a0:
                    a2:86:cb:0a:f1:77:a6:f0
                P:   
                    00:c0:46:1a:89:48:cb:d2:7c:6d:af:22:06:1e:16:
                    60:70:ef:3c:af:9f:a1:f5:47:dc:65:ad:a3:60:c9:
                    0a:b7:ee:b6:45:22:50:c3:6c:2a:bf:a9:94:e6:db:
                    75:f8:58:7f:c0:1f:98:18:ec:47:af:0f:17:10:28:
                    cd:5a:04:33:23:0a:42:55:48:be:13:e1:9b:0b:42:
                    02:09:0d:06:3a:ab:6f:06:fb:86:d1:77:85:08:2f:
                    87:de:0e:7f:cf:df:d4:d8:f0:68:80:3c:94:1f:cf:
                    3b:1f:4a:44:93:32:ba:06:0a:e8:71:0f:46:2a:f9:
                    e6:02:d3:46:2e:1b:79:75:f5
                Q:   
                    00:9f:bb:32:4d:ea:56:27:10:b1:b1:47:1c:69:99:
                    b8:c0:da:85:86:77
                G:   
                    00:b4:83:a7:c0:49:ba:c3:1f:95:33:94:ca:90:ce:
                    1d:b7:48:06:2f:20:97:ce:c8:98:0f:ec:fa:33:fe:
                    8d:71:c8:13:d4:23:06:a3:b3:a8:3a:71:33:53:16:
                    5d:4a:db:04:00:6e:5c:c2:91:f8:13:95:ce:0c:46:
                    bd:bc:23:93:85:be:55:ca:99:6c:ac:ed:0a:01:7c:
                    52:0f:d5:4a:42:a2:91:3f:ef:c5:09:a4:17:0d:83:
                    5c:38:fe:65:58:3c:d6:eb:fc:b7:09:d7:b7:71:57:
                    35:76:57:9e:cd:62:15:16:c0:c7:f7:e1:61:8e:a4:
                    51:fd:8a:7a:05:53:a6:b5:77
    Signature Algorithm: dsaWithSHA1
        30:2c:02:14:1e:1f:88:07:88:67:9f:25:c3:cc:dc:ed:09:1c:
        8c:cf:7b:d1:03:fe:02:14:45:f7:b3:33:3e:8c:39:ad:1f:1b:
        66:b5:85:f7:d6:24:0a:c4:02:0a
-----BEGIN CERTIFICATE-----
MIICkTCCAlECAQIwCQYHKoZIzjgEAzAzMR0wGwYDVQQKExRTeW1iaWFuIFNvZnR3
YXJlIEx0ZDESMBAGA1UEAxMJUm9vdDItRFNBMB4XDTA0MDMwMzE2MzQzOFoXDTE0
MDMwMTE2MzQzOFowMTEdMBsGA1UEChMUU3ltYmlhbiBTb2Z0d2FyZSBMdGQxEDAO
BgNVBAMTB0dvb2QtUjIwggG3MIIBLAYHKoZIzjgEATCCAR8CgYEAwEYaiUjL0nxt
ryIGHhZgcO88r5+h9UfcZa2jYMkKt+62RSJQw2wqv6mU5tt1+Fh/wB+YGOxHrw8X
ECjNWgQzIwpCVUi+E+GbC0ICCQ0GOqtvBvuG0XeFCC+H3g5/z9/U2PBogDyUH887
H0pEkzK6BgrocQ9GKvnmAtNGLht5dfUCFQCfuzJN6lYnELGxRxxpmbjA2oWGdwKB
gQC0g6fASbrDH5UzlMqQzh23SAYvIJfOyJgP7Poz/o1xyBPUIwajs6g6cTNTFl1K
2wQAblzCkfgTlc4MRr28I5OFvlXKmWys7QoBfFIP1UpCopE/78UJpBcNg1w4/mVY
PNbr/LcJ17dxVzV2V57NYhUWwMf34WGOpFH9inoFU6a1dwOBhAACgYBemZAQp4Vq
PF325RyeHlQFWaICy3WqCWE/26v4UfN6WmE+WOSX5wafReZ3t9Ddn8Ic1vy+BqhQ
UT9mE6FV8rcFVXtDqs4udk/kHJCDbthzg7mL+fPcQPZ411AFpJ8PYnxPF4iiug2d
FJdUMdegr/XzQGZ/Fs0KBqCihssK8Xem8DAJBgcqhkjOOAQDAy8AMCwCFB4fiAeI
Z58lw8zc7QkcjM970QP+AhRF97MzPow5rR8bZrWF99YkCsQCCg==
-----END CERTIFICATE-----
