Certificate:
    Data:
        Version: 1 (0x0)
        Serial Number: 3 (0x3)
        Signature Algorithm: dsaWithSHA1
        Issuer: O=Symbian Software Ltd, CN=Root2-DSA
        Validity
            Not Before: Mar  3 16:34:39 2004 GMT
            Not After : Mar  1 16:34:39 2014 GMT
        Subject: O=Symbian Software Ltd, CN=Revoked-R2
        Subject Public Key Info:
            Public Key Algorithm: dsaEncryption
            DSA Public Key:
                pub: 
                    00:b4:8a:64:c1:f6:9a:c4:ba:c0:4e:d6:c5:b2:c4:
                    1b:80:0b:4c:0e:aa:ff:98:c2:8b:ef:ca:f5:bc:d9:
                    b7:d2:87:2f:c9:00:52:3b:c7:23:a6:d8:66:2f:99:
                    68:b3:ec:fe:2d:63:70:83:93:8d:48:cd:ec:c3:2f:
                    5b:8e:41:d3:6c:00:fd:b7:a0:b6:20:be:2d:36:88:
                    02:69:28:a7:9c:08:18:8a:7e:91:25:fc:77:13:96:
                    a9:3e:06:5e:5f:ea:19:8b:03:eb:0a:f2:3b:b4:81:
                    4f:c4:76:fc:46:cc:e6:3c:80:e8:e4:43:a0:a2:ce:
                    60:f5:d9:1d:a8:f8:d5:9c:e4
                P:   
                    00:c0:46:1a:89:48:cb:d2:7c:6d:af:22:06:1e:16:
                    60:70:ef:3c:af:9f:a1:f5:47:dc:65:ad:a3:60:c9:
                    0a:b7:ee:b6:45:22:50:c3:6c:2a:bf:a9:94:e6:db:
                    75:f8:58:7f:c0:1f:98:18:ec:47:af:0f:17:10:28:
                    cd:5a:04:33:23:0a:42:55:48:be:13:e1:9b:0b:42:
                    02:09:0d:06:3a:ab:6f:06:fb:86:d1:77:85:08:2f:
                    87:de:0e:7f:cf:df:d4:d8:f0:68:80:3c:94:1f:cf:
                    3b:1f:4a:44:93:32:ba:06:0a:e8:71:0f:46:2a:f9:
                    e6:02:d3:46:2e:1b:79:75:f5
                Q:   
                    00:9f:bb:32:4d:ea:56:27:10:b1:b1:47:1c:69:99:
                    b8:c0:da:85:86:77
                G:   
                    00:b4:83:a7:c0:49:ba:c3:1f:95:33:94:ca:90:ce:
                    1d:b7:48:06:2f:20:97:ce:c8:98:0f:ec:fa:33:fe:
                    8d:71:c8:13:d4:23:06:a3:b3:a8:3a:71:33:53:16:
                    5d:4a:db:04:00:6e:5c:c2:91:f8:13:95:ce:0c:46:
                    bd:bc:23:93:85:be:55:ca:99:6c:ac:ed:0a:01:7c:
                    52:0f:d5:4a:42:a2:91:3f:ef:c5:09:a4:17:0d:83:
                    5c:38:fe:65:58:3c:d6:eb:fc:b7:09:d7:b7:71:57:
                    35:76:57:9e:cd:62:15:16:c0:c7:f7:e1:61:8e:a4:
                    51:fd:8a:7a:05:53:a6:b5:77
    Signature Algorithm: dsaWithSHA1
        30:2d:02:14:47:07:70:59:5f:63:e4:e7:90:bf:5a:8b:fe:3b:
        35:ea:ae:5a:a8:5e:02:15:00:80:bf:9c:e3:20:27:09:d0:62:
        ad:9f:a6:d6:a3:f0:41:05:ff:56:61
-----BEGIN CERTIFICATE-----
MIICljCCAlUCAQMwCQYHKoZIzjgEAzAzMR0wGwYDVQQKExRTeW1iaWFuIFNvZnR3
YXJlIEx0ZDESMBAGA1UEAxMJUm9vdDItRFNBMB4XDTA0MDMwMzE2MzQzOVoXDTE0
MDMwMTE2MzQzOVowNDEdMBsGA1UEChMUU3ltYmlhbiBTb2Z0d2FyZSBMdGQxEzAR
BgNVBAMTClJldm9rZWQtUjIwggG4MIIBLAYHKoZIzjgEATCCAR8CgYEAwEYaiUjL
0nxtryIGHhZgcO88r5+h9UfcZa2jYMkKt+62RSJQw2wqv6mU5tt1+Fh/wB+YGOxH
rw8XECjNWgQzIwpCVUi+E+GbC0ICCQ0GOqtvBvuG0XeFCC+H3g5/z9/U2PBogDyU
H887H0pEkzK6BgrocQ9GKvnmAtNGLht5dfUCFQCfuzJN6lYnELGxRxxpmbjA2oWG
dwKBgQC0g6fASbrDH5UzlMqQzh23SAYvIJfOyJgP7Poz/o1xyBPUIwajs6g6cTNT
Fl1K2wQAblzCkfgTlc4MRr28I5OFvlXKmWys7QoBfFIP1UpCopE/78UJpBcNg1w4
/mVYPNbr/LcJ17dxVzV2V57NYhUWwMf34WGOpFH9inoFU6a1dwOBhQACgYEAtIpk
wfaaxLrATtbFssQbgAtMDqr/mMKL78r1vNm30ocvyQBSO8cjpthmL5los+z+LWNw
g5ONSM3swy9bjkHTbAD9t6C2IL4tNogCaSinnAgYin6RJfx3E5apPgZeX+oZiwPr
CvI7tIFPxHb8RszmPIDo5EOgos5g9dkdqPjVnOQwCQYHKoZIzjgEAwMwADAtAhRH
B3BZX2Pk55C/Wov+OzXqrlqoXgIVAIC/nOMgJwnQYq2fptaj8EEF/1Zh
-----END CERTIFICATE-----
