Certificate:
    Data:
        Version: 3 (0x2)
        Serial Number: 5 (0x5)
        Signature Algorithm: dsaWithSHA1
        Issuer: O=Symbian Software Ltd, CN=Root2-DSA
        Validity
            Not Before: Mar  3 16:34:42 2004 GMT
            Not After : Aug  6 16:34:42 2020 GMT
        Subject: O=Symbian Software Ltd, CN=OCSPSigner-R2
        Subject Public Key Info:
            Public Key Algorithm: dsaEncryption
            DSA Public Key:
                pub: 
                    33:65:12:70:85:96:46:5f:c4:d4:72:a3:0d:57:09:
                    5a:09:28:af:05:0d:28:82:f1:57:a9:cc:70:b0:ec:
                    7a:b4:7f:0c:6d:0a:20:d7:1f:08:3f:ec:89:72:c0:
                    a0:b8:8b:2e:b9:77:3a:99:f9:09:d6:70:3b:25:91:
                    97:1a:9e:bd:0d:15:b6:a6:bc:ca:02:c5:f3:11:b9:
                    d1:22:f9:c1:2c:6b:a6:ff:fd:90:78:ee:4a:7e:d5:
                    e9:7d:25:16:f4:98:2d:1b:7a:e2:04:c9:dc:0e:80:
                    4b:ce:3b:bd:a5:b8:a6:d6:58:54:eb:c4:96:3a:e0:
                    b9:cc:d5:05:10:8b:df:54
                P:   
                    00:c0:46:1a:89:48:cb:d2:7c:6d:af:22:06:1e:16:
                    60:70:ef:3c:af:9f:a1:f5:47:dc:65:ad:a3:60:c9:
                    0a:b7:ee:b6:45:22:50:c3:6c:2a:bf:a9:94:e6:db:
                    75:f8:58:7f:c0:1f:98:18:ec:47:af:0f:17:10:28:
                    cd:5a:04:33:23:0a:42:55:48:be:13:e1:9b:0b:42:
                    02:09:0d:06:3a:ab:6f:06:fb:86:d1:77:85:08:2f:
                    87:de:0e:7f:cf:df:d4:d8:f0:68:80:3c:94:1f:cf:
                    3b:1f:4a:44:93:32:ba:06:0a:e8:71:0f:46:2a:f9:
                    e6:02:d3:46:2e:1b:79:75:f5
                Q:   
                    00:9f:bb:32:4d:ea:56:27:10:b1:b1:47:1c:69:99:
                    b8:c0:da:85:86:77
                G:   
                    00:b4:83:a7:c0:49:ba:c3:1f:95:33:94:ca:90:ce:
                    1d:b7:48:06:2f:20:97:ce:c8:98:0f:ec:fa:33:fe:
                    8d:71:c8:13:d4:23:06:a3:b3:a8:3a:71:33:53:16:
                    5d:4a:db:04:00:6e:5c:c2:91:f8:13:95:ce:0c:46:
                    bd:bc:23:93:85:be:55:ca:99:6c:ac:ed:0a:01:7c:
                    52:0f:d5:4a:42:a2:91:3f:ef:c5:09:a4:17:0d:83:
                    5c:38:fe:65:58:3c:d6:eb:fc:b7:09:d7:b7:71:57:
                    35:76:57:9e:cd:62:15:16:c0:c7:f7:e1:61:8e:a4:
                    51:fd:8a:7a:05:53:a6:b5:77
        X509v3 extensions:
            OCSP No Check: 

    Signature Algorithm: dsaWithSHA1
        30:2c:02:14:32:6e:fc:d0:05:a3:03:80:de:36:ea:f3:0c:20:
        7f:34:1c:a3:3c:3f:02:14:5c:3c:e9:26:57:99:6a:24:f9:81:
        d6:78:8a:bb:cd:e2:3b:e4:8b:00
-----BEGIN CERTIFICATE-----
MIICsTCCAnGgAwIBAgIBBTAJBgcqhkjOOAQDMDMxHTAbBgNVBAoTFFN5bWJpYW4g
U29mdHdhcmUgTHRkMRIwEAYDVQQDEwlSb290Mi1EU0EwHhcNMDQwMzAzMTYzNDQy
WhcNMjAwODA2MTYzNDQyWjA3MR0wGwYDVQQKExRTeW1iaWFuIFNvZnR3YXJlIEx0
ZDEWMBQGA1UEAxMNT0NTUFNpZ25lci1SMjCCAbcwggEsBgcqhkjOOAQBMIIBHwKB
gQDARhqJSMvSfG2vIgYeFmBw7zyvn6H1R9xlraNgyQq37rZFIlDDbCq/qZTm23X4
WH/AH5gY7EevDxcQKM1aBDMjCkJVSL4T4ZsLQgIJDQY6q28G+4bRd4UIL4feDn/P
39TY8GiAPJQfzzsfSkSTMroGCuhxD0Yq+eYC00YuG3l19QIVAJ+7Mk3qVicQsbFH
HGmZuMDahYZ3AoGBALSDp8BJusMflTOUypDOHbdIBi8gl87ImA/s+jP+jXHIE9Qj
BqOzqDpxM1MWXUrbBABuXMKR+BOVzgxGvbwjk4W+VcqZbKztCgF8Ug/VSkKikT/v
xQmkFw2DXDj+ZVg81uv8twnXt3FXNXZXns1iFRbAx/fhYY6kUf2KegVTprV3A4GE
AAKBgDNlEnCFlkZfxNRyow1XCVoJKK8FDSiC8VepzHCw7Hq0fwxtCiDXHwg/7Ily
wKC4iy65dzqZ+QnWcDslkZcanr0NFbamvMoCxfMRudEi+cEsa6b//ZB47kp+1el9
JRb0mC0beuIEydwOgEvOO72luKbWWFTrxJY64LnM1QUQi99UoxMwETAPBgkrBgEF
BQcwAQUEAgUAMAkGByqGSM44BAMDLwAwLAIUMm780AWjA4DeNurzDCB/NByjPD8C
FFw86SZXmWok+YHWeIq7zeI75IsA
-----END CERTIFICATE-----
