Certificate:
    Data:
        Version: 1 (0x0)
        Serial Number: 1 (0x1)
        Signature Algorithm: md5WithRSAEncryption
        Issuer: O=Symbian Software Ltd, CN=Root1-RSA
        Validity
            Not Before: Feb  3 12:00:00 1982 GMT
            Not After : Feb  3 12:00:01 1982 GMT
        Subject: O=Symbian Software Ltd, CN=Expired-R1
        Subject Public Key Info:
            Public Key Algorithm: rsaEncryption
            RSA Public Key: (1024 bit)
                Modulus (1024 bit):
                    00:be:9b:80:75:eb:7d:31:77:9a:f9:95:44:79:dc:
                    60:f5:fb:35:f5:c5:8d:a4:bd:0e:90:0c:91:91:79:
                    e4:8e:db:7a:00:bc:44:cf:83:56:f2:28:2a:fa:e8:
                    e2:37:84:6e:5b:e1:06:80:5f:e0:a8:df:98:02:e2:
                    23:04:56:6a:10:a9:0e:2c:a3:8b:c4:a3:d9:98:b7:
                    ef:2e:23:06:1f:e2:73:3f:23:89:3e:62:76:67:9d:
                    79:6f:ae:5f:09:4f:e2:9a:a3:e3:7b:ba:2e:99:e7:
                    bb:ec:b9:e8:80:97:4d:cc:ec:7d:34:04:0b:f5:ac:
                    54:12:b7:cf:62:c6:74:20:a3
                Exponent: 65537 (0x10001)
    Signature Algorithm: md5WithRSAEncryption
        46:6a:38:30:f4:de:9a:85:60:ac:2c:3d:01:40:98:1d:b2:f0:
        42:fb:ed:e5:fb:2e:0c:7d:1a:6b:e9:70:23:c1:9c:54:a9:97:
        9e:3d:79:bf:38:53:b4:e7:6e:f0:c1:09:d3:9e:29:14:4d:4c:
        42:1e:af:90:bb:7f:07:5d:73:6d:52:08:eb:42:04:a3:a8:f0:
        62:68:e3:5f:e9:f5:7e:51:cc:c2:be:83:a4:b0:53:3c:cb:1b:
        ef:39:19:58:24:6d:38:a5:03:78:e3:f7:2a:f5:3e:f3:c5:8b:
        bb:3d:ae:c6:40:be:87:7e:fd:b0:74:b2:a4:75:b7:5d:0c:aa:
        e9:91
-----BEGIN CERTIFICATE-----
MIIB1jCCAT8CAQEwDQYJKoZIhvcNAQEEBQAwMzEdMBsGA1UEChMUU3ltYmlhbiBT
b2Z0d2FyZSBMdGQxEjAQBgNVBAMTCVJvb3QxLVJTQTAeFw04MjAyMDMxMjAwMDBa
Fw04MjAyMDMxMjAwMDFaMDQxHTAbBgNVBAoTFFN5bWJpYW4gU29mdHdhcmUgTHRk
MRMwEQYDVQQDEwpFeHBpcmVkLVIxMIGfMA0GCSqGSIb3DQEBAQUAA4GNADCBiQKB
gQC+m4B1630xd5r5lUR53GD1+zX1xY2kvQ6QDJGReeSO23oAvETPg1byKCr66OI3
hG5b4QaAX+Co35gC4iMEVmoQqQ4so4vEo9mYt+8uIwYf4nM/I4k+YnZnnXlvrl8J
T+Kao+N7ui6Z57vsueiAl03M7H00BAv1rFQSt89ixnQgowIDAQABMA0GCSqGSIb3
DQEBBAUAA4GBAEZqODD03pqFYKwsPQFAmB2y8EL77eX7Lgx9GmvpcCPBnFSpl549
eb84U7TnbvDBCdOeKRRNTEIer5C7fwddc21SCOtCBKOo8GJo41/p9X5RzMK+g6Sw
UzzLG+85GVgkbTilA3jj9yr1PvPFi7s9rsZAvod+/bB0sqR1t10MqumR
-----END CERTIFICATE-----
