Certificate:
    Data:
        Version: 1 (0x0)
        Serial Number: 2 (0x2)
        Signature Algorithm: md5WithRSAEncryption
        Issuer: O=Symbian Software Ltd, CN=Root1-RSA
        Validity
            Not Before: Mar  3 16:34:15 2004 GMT
            Not After : Mar  1 16:34:15 2014 GMT
        Subject: O=Symbian Software Ltd, CN=Good-R1
        Subject Public Key Info:
            Public Key Algorithm: rsaEncryption
            RSA Public Key: (1024 bit)
                Modulus (1024 bit):
                    00:cd:b1:ce:69:06:a2:de:75:e2:4b:fd:92:a8:14:
                    50:bf:8e:91:27:4d:e6:5f:78:ef:c0:85:d3:04:f2:
                    42:6d:e2:32:db:c1:a5:b2:1b:60:32:cf:6d:6a:99:
                    ca:09:17:8a:e9:dc:21:b0:02:c3:eb:d9:e1:4f:be:
                    09:63:4d:cf:7c:98:b8:fa:8a:b1:5a:e9:73:16:e1:
                    e0:62:a6:56:d6:3f:5f:c6:a0:a3:5f:4b:25:01:13:
                    42:a5:b1:9c:30:34:25:55:04:d7:c3:1a:32:3c:90:
                    c4:33:82:ae:da:6c:e5:c5:81:3b:06:c3:64:4c:48:
                    be:24:fc:57:d0:b3:2d:36:97
                Exponent: 65537 (0x10001)
    Signature Algorithm: md5WithRSAEncryption
        4a:2f:ee:56:60:70:93:df:6e:bc:55:b7:48:ab:fc:45:09:99:
        b8:59:76:71:3e:4b:d4:62:ca:99:2a:b6:a2:36:92:bc:70:82:
        b9:0c:6a:4e:96:34:7b:7c:d2:5d:94:22:57:43:aa:78:18:03:
        ff:0e:fc:43:06:e4:2d:9f:4e:13:d6:6c:ef:0c:2d:58:ac:56:
        1c:49:2f:0b:d3:63:1f:d3:38:80:78:f8:c0:74:e7:5d:2d:e6:
        b6:4c:87:e8:52:b4:0e:41:a7:fb:ac:4e:23:ae:76:2a:35:02:
        d7:cd:af:4d:7d:2b:b4:e6:af:7a:16:cb:e3:31:38:fb:a5:c8:
        05:c3
-----BEGIN CERTIFICATE-----
MIIB0zCCATwCAQIwDQYJKoZIhvcNAQEEBQAwMzEdMBsGA1UEChMUU3ltYmlhbiBT
b2Z0d2FyZSBMdGQxEjAQBgNVBAMTCVJvb3QxLVJTQTAeFw0wNDAzMDMxNjM0MTVa
Fw0xNDAzMDExNjM0MTVaMDExHTAbBgNVBAoTFFN5bWJpYW4gU29mdHdhcmUgTHRk
MRAwDgYDVQQDEwdHb29kLVIxMIGfMA0GCSqGSIb3DQEBAQUAA4GNADCBiQKBgQDN
sc5pBqLedeJL/ZKoFFC/jpEnTeZfeO/AhdME8kJt4jLbwaWyG2Ayz21qmcoJF4rp
3CGwAsPr2eFPvgljTc98mLj6irFa6XMW4eBiplbWP1/GoKNfSyUBE0KlsZwwNCVV
BNfDGjI8kMQzgq7abOXFgTsGw2RMSL4k/FfQsy02lwIDAQABMA0GCSqGSIb3DQEB
BAUAA4GBAEov7lZgcJPfbrxVt0ir/EUJmbhZdnE+S9RiypkqtqI2krxwgrkMak6W
NHt80l2UIldDqngYA/8O/EMG5C2fThPWbO8MLVisVhxJLwvTYx/TOIB4+MB0510t
5rZMh+hStA5Bp/usTiOudio1AtfNr019K7Tmr3oWy+MxOPulyAXD
-----END CERTIFICATE-----
