Certificate:
    Data:
        Version: 1 (0x0)
        Serial Number: 3 (0x3)
        Signature Algorithm: md5WithRSAEncryption
        Issuer: O=Symbian Software Ltd, CN=Root1-RSA
        Validity
            Not Before: Mar  3 16:34:17 2004 GMT
            Not After : Mar  1 16:34:17 2014 GMT
        Subject: O=Symbian Software Ltd, CN=Revoked-R1
        Subject Public Key Info:
            Public Key Algorithm: rsaEncryption
            RSA Public Key: (1024 bit)
                Modulus (1024 bit):
                    00:d4:c5:4e:5e:ea:33:21:9c:74:15:61:00:67:0e:
                    d7:c6:03:23:9c:9b:d0:cd:11:21:0b:bb:c1:40:a1:
                    57:6e:fe:db:61:d7:a3:cb:3f:2e:18:c4:b8:39:be:
                    58:23:83:d1:bf:b7:55:b8:e9:c3:21:bf:3e:b5:e1:
                    dd:99:6e:f7:9f:3f:6c:f2:d9:76:82:b6:04:db:fe:
                    16:51:99:70:c3:fd:35:04:9e:69:38:fb:6e:3d:1d:
                    48:e2:e1:8b:31:3e:be:ff:7d:7a:c6:11:b9:a4:ca:
                    ad:e9:d7:74:2f:26:b1:45:c4:ba:98:3f:d4:39:4a:
                    89:4e:2a:4f:e2:f5:58:58:f9
                Exponent: 65537 (0x10001)
    Signature Algorithm: md5WithRSAEncryption
        6f:e0:05:ad:ec:05:c4:ea:68:b2:ae:8a:0b:28:15:d4:52:e2:
        49:53:70:8f:96:33:38:82:da:40:c4:5b:2c:9d:63:81:4a:9f:
        37:af:95:14:56:ea:fc:60:dd:87:60:7b:c9:fb:f9:08:bf:d8:
        cc:4a:af:31:dd:f8:24:89:2d:3e:5d:66:8c:15:86:0a:cd:c9:
        51:5a:c6:b4:3c:c4:7f:9e:6c:2c:5a:b2:75:2e:0d:32:c9:59:
        41:3a:ce:bc:bc:e9:a9:01:49:0b:13:28:d6:be:17:0d:67:0c:
        2e:29:33:18:a1:20:0b:ac:e1:a5:35:cd:99:ef:3a:7e:bd:1e:
        e2:1a
-----BEGIN CERTIFICATE-----
MIIB1jCCAT8CAQMwDQYJKoZIhvcNAQEEBQAwMzEdMBsGA1UEChMUU3ltYmlhbiBT
b2Z0d2FyZSBMdGQxEjAQBgNVBAMTCVJvb3QxLVJTQTAeFw0wNDAzMDMxNjM0MTda
Fw0xNDAzMDExNjM0MTdaMDQxHTAbBgNVBAoTFFN5bWJpYW4gU29mdHdhcmUgTHRk
MRMwEQYDVQQDEwpSZXZva2VkLVIxMIGfMA0GCSqGSIb3DQEBAQUAA4GNADCBiQKB
gQDUxU5e6jMhnHQVYQBnDtfGAyOcm9DNESELu8FAoVdu/tth16PLPy4YxLg5vlgj
g9G/t1W46cMhvz614d2ZbvefP2zy2XaCtgTb/hZRmXDD/TUEnmk4+249HUji4Ysx
Pr7/fXrGEbmkyq3p13QvJrFFxLqYP9Q5SolOKk/i9VhY+QIDAQABMA0GCSqGSIb3
DQEBBAUAA4GBAG/gBa3sBcTqaLKuigsoFdRS4klTcI+WMziC2kDEWyydY4FKnzev
lRRW6vxg3Ydge8n7+Qi/2MxKrzHd+CSJLT5dZowVhgrNyVFaxrQ8xH+ebCxasnUu
DTLJWUE6zry86akBSQsTKNa+Fw1nDC4pMxihIAus4aU1zZnvOn69HuIa
-----END CERTIFICATE-----
