Certificate:
    Data:
        Version: 1 (0x0)
        Serial Number: 4 (0x4)
        Signature Algorithm: md5WithRSAEncryption
        Issuer: O=Symbian Software Ltd, CN=Root1-RSA
        Validity
            Not Before: Mar  3 16:34:19 2004 GMT
            Not After : Mar  1 16:34:19 2014 GMT
        Subject: O=Symbian Software Ltd, CN=Unknown-R1
        Subject Public Key Info:
            Public Key Algorithm: rsaEncryption
            RSA Public Key: (1024 bit)
                Modulus (1024 bit):
                    00:ec:95:4c:29:c8:d5:19:f0:f0:f3:f3:03:fd:e7:
                    97:f1:bf:da:74:2f:ef:bf:d1:28:ca:3b:c6:f1:48:
                    1a:29:ac:bd:4f:ed:49:99:68:fe:ec:12:00:4d:8e:
                    33:61:e5:84:94:a9:00:22:c6:39:10:a4:54:77:3a:
                    d1:b1:75:07:e5:36:3b:fa:50:d5:d7:cf:c2:38:74:
                    bc:9b:14:0e:08:29:89:07:8b:f0:d6:fc:c9:4b:43:
                    68:89:bc:11:2e:5a:2e:c9:7e:b9:31:5f:e6:88:6f:
                    4a:ce:e3:60:70:8b:41:92:63:75:80:a8:35:ad:ed:
                    41:25:04:b6:93:a6:47:8c:c1
                Exponent: 65537 (0x10001)
    Signature Algorithm: md5WithRSAEncryption
        64:a5:52:db:e4:c2:84:26:59:13:1a:a9:7d:cd:b4:94:60:82:
        77:4a:37:1f:f2:69:0e:f2:79:dd:45:25:1c:33:37:95:80:0b:
        40:e2:d3:a7:f7:a5:27:ca:01:af:f6:c2:0b:f4:f0:b5:11:47:
        5c:fd:00:25:d0:53:01:61:90:7e:32:63:77:23:ac:f7:7e:a4:
        5d:57:c5:a2:1a:2f:33:22:4e:84:16:41:9c:20:3b:e9:71:a8:
        1e:87:af:a4:55:82:85:4e:66:62:25:40:cd:a6:56:a2:02:1a:
        17:4f:2f:62:e7:bb:9b:b6:4c:17:7d:d0:78:bd:55:80:68:33:
        24:01
-----BEGIN CERTIFICATE-----
MIIB1jCCAT8CAQQwDQYJKoZIhvcNAQEEBQAwMzEdMBsGA1UEChMUU3ltYmlhbiBT
b2Z0d2FyZSBMdGQxEjAQBgNVBAMTCVJvb3QxLVJTQTAeFw0wNDAzMDMxNjM0MTla
Fw0xNDAzMDExNjM0MTlaMDQxHTAbBgNVBAoTFFN5bWJpYW4gU29mdHdhcmUgTHRk
MRMwEQYDVQQDEwpVbmtub3duLVIxMIGfMA0GCSqGSIb3DQEBAQUAA4GNADCBiQKB
gQDslUwpyNUZ8PDz8wP955fxv9p0L++/0SjKO8bxSBoprL1P7UmZaP7sEgBNjjNh
5YSUqQAixjkQpFR3OtGxdQflNjv6UNXXz8I4dLybFA4IKYkHi/DW/MlLQ2iJvBEu
Wi7JfrkxX+aIb0rO42Bwi0GSY3WAqDWt7UElBLaTpkeMwQIDAQABMA0GCSqGSIb3
DQEBBAUAA4GBAGSlUtvkwoQmWRMaqX3NtJRggndKNx/yaQ7yed1FJRwzN5WAC0Di
06f3pSfKAa/2wgv08LURR1z9ACXQUwFhkH4yY3cjrPd+pF1XxaIaLzMiToQWQZwg
O+lxqB6Hr6RVgoVOZmIlQM2mVqICGhdPL2Lnu5u2TBd90Hi9VYBoMyQB
-----END CERTIFICATE-----
