Certificate:
    Data:
        Version: 3 (0x2)
        Serial Number: 5 (0x5)
        Signature Algorithm: md5WithRSAEncryption
        Issuer: O=Symbian Software Ltd, CN=Root1-RSA
        Validity
            Not Before: Mar  3 16:34:20 2004 GMT
            Not After : Mar  1 16:34:20 2014 GMT
        Subject: O=Symbian Software Ltd, CN=OCSPSigner-R1
        Subject Public Key Info:
            Public Key Algorithm: rsaEncryption
            RSA Public Key: (1024 bit)
                Modulus (1024 bit):
                    00:a6:35:bc:9e:6f:a0:f7:c6:d3:91:22:bf:2d:2b:
                    71:91:e7:e5:3c:e9:cb:93:31:ce:3c:56:f2:4b:d0:
                    ec:63:af:0d:df:95:ab:b5:c3:25:25:ba:6e:57:c7:
                    55:d0:e2:05:78:6c:46:65:05:6b:56:c0:1a:09:cb:
                    f5:c5:50:ea:59:01:b8:dd:73:40:66:b0:f2:e0:ed:
                    76:c6:65:5d:f2:00:d1:ba:e7:78:79:57:3f:fb:e2:
                    ed:f6:dd:a7:78:dc:69:69:20:90:78:d7:b7:65:7d:
                    d8:df:62:09:de:f7:fe:d8:b8:85:a4:aa:0f:f2:30:
                    08:30:9f:bf:b8:f3:59:f4:5f
                Exponent: 65537 (0x10001)
        X509v3 extensions:
            OCSP No Check: 

    Signature Algorithm: md5WithRSAEncryption
        63:26:8c:19:0d:98:b0:1c:4f:97:44:44:be:a6:c8:ab:b3:fb:
        c5:1d:50:1d:c7:b4:01:e4:93:55:27:3e:45:6c:53:95:3d:45:
        65:d5:b6:7b:fd:61:f8:73:06:e7:9b:a7:82:d9:28:49:7b:f6:
        58:90:fe:11:d4:e5:92:f8:04:d1:73:0d:9b:53:22:6a:a1:03:
        8f:01:53:d5:60:08:66:56:64:c4:cd:64:20:98:0e:34:dc:66:
        35:b0:b9:4f:16:fd:e4:af:06:12:dd:de:77:d6:bd:0e:3d:55:
        cb:c1:d9:7d:55:f4:56:25:7f:5d:bf:72:8e:a7:67:8e:c8:3c:
        cf:1d
-----BEGIN CERTIFICATE-----
MIIB8zCCAVygAwIBAgIBBTANBgkqhkiG9w0BAQQFADAzMR0wGwYDVQQKExRTeW1i
aWFuIFNvZnR3YXJlIEx0ZDESMBAGA1UEAxMJUm9vdDEtUlNBMB4XDTA0MDMwMzE2
MzQyMFoXDTE0MDMwMTE2MzQyMFowNzEdMBsGA1UEChMUU3ltYmlhbiBTb2Z0d2Fy
ZSBMdGQxFjAUBgNVBAMTDU9DU1BTaWduZXItUjEwgZ8wDQYJKoZIhvcNAQEBBQAD
gY0AMIGJAoGBAKY1vJ5voPfG05Eivy0rcZHn5Tzpy5MxzjxW8kvQ7GOvDd+Vq7XD
JSW6blfHVdDiBXhsRmUFa1bAGgnL9cVQ6lkBuN1zQGaw8uDtdsZlXfIA0brneHlX
P/vi7fbdp3jcaWkgkHjXt2V92N9iCd73/ti4haSqD/IwCDCfv7jzWfRfAgMBAAGj
EzARMA8GCSsGAQUFBzABBQQCBQAwDQYJKoZIhvcNAQEEBQADgYEAYyaMGQ2YsBxP
l0REvqbIq7P7xR1QHce0AeSTVSc+RWxTlT1FZdW2e/1h+HMG55ungtkoSXv2WJD+
EdTlkvgE0XMNm1MiaqEDjwFT1WAIZlZkxM1kIJgONNxmNbC5Txb95K8GEt3ed9a9
Dj1Vy8HZfVX0ViV/Xb9yjqdnjsg8zx0=
-----END CERTIFICATE-----
