EXPORTS
	_ZN10CClipboard10PasteFromLERd @ 1 NONAME
	_ZN10CClipboard14NewForReadingLER3RFs @ 2 NONAME
	_ZN10CClipboard15NewForReadingLCER3RFs @ 3 NONAME
	_ZN10CClipboard15NewForWritingLCER3RFs @ 4 NONAME
	_ZN10CClipboard18ClipboardFileDriveEv @ 5 NONAME
	_ZN10CClipboard5ClearER3RFs @ 6 NONAME
	_ZN10CClipboard7CommitLEv @ 7 NONAME
	_ZN10CClipboard7CopyToLEd @ 8 NONAME
	_ZN10CClipboardD0Ev @ 9 NONAME
	_ZN10CClipboardD1Ev @ 10 NONAME
	_ZN10CClipboardD2Ev @ 11 NONAME
	_ZN11CDesC8Array10InsertIsqLERK6TDesC811TKeyCmpText @ 12 NONAME
	_ZN11CDesC8Array25InsertIsqAllowDuplicatesLERK6TDesC811TKeyCmpText @ 13 NONAME
	_ZN11CDesC8Array4SortE11TKeyCmpText @ 14 NONAME
	_ZN11CDesC8Array5ResetEv @ 15 NONAME
	_ZN11CDesC8Array6DeleteEi @ 16 NONAME
	_ZN11CDesC8Array6DeleteEii @ 17 NONAME
	_ZN11CDesC8Array7AppendLERK6TDesC8 @ 18 NONAME
	_ZN11CDesC8Array7InsertLEiRK6TDesC8 @ 19 NONAME
	_ZN11CDesC8ArrayC1EPFP8CBufBaseiEi @ 20 NONAME
	_ZN11CDesC8ArrayC2EPFP8CBufBaseiEi @ 21 NONAME
	_ZN11CDesC8ArrayD0Ev @ 22 NONAME
	_ZN11CDesC8ArrayD1Ev @ 23 NONAME
	_ZN11CDesC8ArrayD2Ev @ 24 NONAME
	_ZN11CPtrC8Array5CopyLERK11MDesC8Array @ 25 NONAME
	_ZN11CPtrC8ArrayC1Ei @ 26 NONAME
	_ZN11CPtrC8ArrayC2Ei @ 27 NONAME
	_ZN11CPtrC8ArrayD0Ev @ 28 NONAME
	_ZN11CPtrC8ArrayD1Ev @ 29 NONAME
	_ZN11CPtrC8ArrayD2Ev @ 30 NONAME
	_ZN11RStringBase4CopyEv @ 31 NONAME
	_ZN11RStringBase5CloseEv @ 32 NONAME
	_ZN11RStringPool5CloseEv @ 33 NONAME
	_ZN11RStringPool5OpenLERK12TStringTable @ 34 NONAME
	_ZN11RStringPool5OpenLERK12TStringTableR24MStringPoolCloseCallBack @ 35 NONAME
	_ZN11RStringPool5OpenLEv @ 36 NONAME
	_ZN12CDesC16Array10InsertIsqLERK7TDesC1611TKeyCmpText @ 37 NONAME
	_ZN12CDesC16Array25InsertIsqAllowDuplicatesLERK7TDesC1611TKeyCmpText @ 38 NONAME
	_ZN12CDesC16Array4SortE11TKeyCmpText @ 39 NONAME
	_ZN12CDesC16Array5ResetEv @ 40 NONAME
	_ZN12CDesC16Array6DeleteEi @ 41 NONAME
	_ZN12CDesC16Array6DeleteEii @ 42 NONAME
	_ZN12CDesC16Array7AppendLERK7TDesC16 @ 43 NONAME
	_ZN12CDesC16Array7InsertLEiRK7TDesC16 @ 44 NONAME
	_ZN12CDesC16ArrayC1EPFP8CBufBaseiEi @ 45 NONAME
	_ZN12CDesC16ArrayC2EPFP8CBufBaseiEi @ 46 NONAME
	_ZN12CDesC16ArrayD0Ev @ 47 NONAME
	_ZN12CDesC16ArrayD1Ev @ 48 NONAME
	_ZN12CDesC16ArrayD2Ev @ 49 NONAME
	_ZN12CPtrC16Array5CopyLERK12MDesC16Array @ 50 NONAME
	_ZN12CPtrC16ArrayC1Ei @ 51 NONAME
	_ZN12CPtrC16ArrayC2Ei @ 52 NONAME
	_ZN12CPtrC16ArrayD0Ev @ 53 NONAME
	_ZN12CPtrC16ArrayD1Ev @ 54 NONAME
	_ZN12CPtrC16ArrayD2Ev @ 55 NONAME
	_ZN13BaSystemSound15SystemSoundFileEv @ 56 NONAME
	_ZN13BaSystemSound8GetSoundER3RFsRK18TBaSystemSoundTypeR18TBaSystemSoundInfo @ 57 NONAME
	_ZN13BaSystemSound9SetSoundLER3RFsRK18TBaSystemSoundInfo @ 58 NONAME
	_ZN13CResourceFile17ConfirmSignatureLEi @ 59 NONAME
	_ZN13CResourceFile17ConfirmSignatureLEv @ 60 NONAME
	_ZN13CResourceFile4NewLER3RFsRK7TDesC16ji @ 61 NONAME
	_ZN13CResourceFile5NewLCER3RFsRK7TDesC16ji @ 62 NONAME
	_ZN13CResourceFileD0Ev @ 63 NONAME
	_ZN13CResourceFileD1Ev @ 64 NONAME
	_ZN13CResourceFileD2Ev @ 65 NONAME
	_ZN13RResourceFile17ConfirmSignatureLEi @ 66 NONAME
	_ZN13RResourceFile17ConfirmSignatureLEv @ 67 NONAME
	_ZN13RResourceFile5CloseEv @ 68 NONAME
	_ZN13RResourceFile5OpenLER3RFsRK7TDesC16 @ 69 NONAME
	_ZN13RResourceFile5OpenLER3RFsRK7TDesC16ji @ 70 NONAME
	_ZN13RResourceFileC1Ev @ 71 NONAME
	_ZN13RResourceFileC2Ev @ 72 NONAME
	_ZN13TLibAssocBase3SetERK8RLibraryPv @ 73 NONAME
	_ZN13TLibAssocBase8DoUnloadEPv @ 74 NONAME
	_ZN13TLibAssocBaseC1ERK8RLibraryPv @ 75 NONAME
	_ZN13TLibAssocBaseC2ERK8RLibraryPv @ 76 NONAME
	_ZN14CDesC8ArraySegC1Ei @ 77 NONAME
	_ZN14CDesC8ArraySegC2Ei @ 78 NONAME
	_ZN14CDesC8ArraySegD0Ev @ 79 NONAME
	_ZN14CDesC8ArraySegD1Ev @ 80 NONAME
	_ZN14CDesC8ArraySegD2Ev @ 81 NONAME
	_ZN15CBaNamedPlugins11CParameters14SetTextForNoneEP7HBufC16NS_14TArrayPositionE @ 82 NONAME
	_ZN15CBaNamedPlugins11CParameters15SetCompareNamesEPFiRK7TDesC16S3_E @ 83 NONAME
	_ZN15CBaNamedPlugins11CParameters15SetFallBackNameERKNS_13MFallBackNameE @ 84 NONAME
	_ZN15CBaNamedPlugins11CParameters15SetTextForNoneLERK7TDesC16NS_14TArrayPositionE @ 85 NONAME
	_ZN15CBaNamedPlugins11CParameters4NewLER3RFsRK6TArrayINS_13TResourceFileEE @ 86 NONAME
	_ZN15CBaNamedPlugins11CParameters5NewLCER3RFsRK6TArrayINS_13TResourceFileEE @ 87 NONAME
	_ZN15CBaNamedPlugins11CParametersD0Ev @ 88 NONAME
	_ZN15CBaNamedPlugins11CParametersD1Ev @ 89 NONAME
	_ZN15CBaNamedPlugins11CParametersD2Ev @ 90 NONAME
	_ZN15CBaNamedPlugins13MFallBackName24MFallBackName_Reserved_1Ev @ 91 NONAME
	_ZN15CBaNamedPlugins13MFallBackName24MFallBackName_Reserved_2Ev @ 92 NONAME
	_ZN15CBaNamedPlugins4NewLERKNS_11CParametersE @ 93 NONAME
	_ZN15CBaNamedPlugins5NewLCERKNS_11CParametersE @ 94 NONAME
	_ZN15CBaNamedPluginsD0Ev @ 95 NONAME
	_ZN15CBaNamedPluginsD1Ev @ 96 NONAME
	_ZN15CBaNamedPluginsD2Ev @ 97 NONAME
	_ZN15CDesC16ArraySegC1Ei @ 98 NONAME
	_ZN15CDesC16ArraySegC2Ei @ 99 NONAME
	_ZN15CDesC16ArraySegD0Ev @ 100 NONAME
	_ZN15CDesC16ArraySegD1Ev @ 101 NONAME
	_ZN15CDesC16ArraySegD2Ev @ 102 NONAME
	_ZN15CDesC8ArrayFlatC1Ei @ 103 NONAME
	_ZN15CDesC8ArrayFlatC2Ei @ 104 NONAME
	_ZN15CDesC8ArrayFlatD0Ev @ 105 NONAME
	_ZN15CDesC8ArrayFlatD1Ev @ 106 NONAME
	_ZN15CDesC8ArrayFlatD2Ev @ 107 NONAME
	_ZN15CFindFileByType8FindNextEv @ 108 NONAME
	_ZN15CFindFileByType9FindFirstERK7TDesC16S2_RK8TUidType @ 109 NONAME
	_ZN15CFindFileByTypeC1ER3RFs @ 110 NONAME
	_ZN15CFindFileByTypeC2ER3RFs @ 111 NONAME
	_ZN15CFindFileByTypeD0Ev @ 112 NONAME
	_ZN15CFindFileByTypeD1Ev @ 113 NONAME
	_ZN15CFindFileByTypeD2Ev @ 114 NONAME
	_ZN15RIncrMatcherPtr8MatchDesEv @ 115 NONAME
	_ZN15RIncrMatcherPtrC1ER6TDes16 @ 116 NONAME
	_ZN15RIncrMatcherPtrC1Ev @ 117 NONAME
	_ZN15RIncrMatcherPtrC2ER6TDes16 @ 118 NONAME
	_ZN15RIncrMatcherPtrC2Ev @ 119 NONAME
	_ZN15RIncrMatcherPtrD0Ev @ 120 NONAME
	_ZN15RIncrMatcherPtrD1Ev @ 121 NONAME
	_ZN15RIncrMatcherPtrD2Ev @ 122 NONAME
	_ZN15RResourceReader10ReadHBufCLEv @ 123 NONAME
	_ZN15RResourceReader10ReadInt16LEv @ 124 NONAME
	_ZN15RResourceReader10ReadInt32LEv @ 125 NONAME
	_ZN15RResourceReader10ReadTPtrCLEv @ 126 NONAME
	_ZN15RResourceReader10ReadUint8LEv @ 127 NONAME
	_ZN15RResourceReader11ReadHBufC8LEv @ 128 NONAME
	_ZN15RResourceReader11ReadReal64LEv @ 129 NONAME
	_ZN15RResourceReader11ReadTPtrC8LEv @ 130 NONAME
	_ZN15RResourceReader11ReadUint16LEv @ 131 NONAME
	_ZN15RResourceReader11ReadUint32LEv @ 132 NONAME
	_ZN15RResourceReader12ReadHBufC16LEv @ 133 NONAME
	_ZN15RResourceReader12ReadTPtrC16LEv @ 134 NONAME
	_ZN15RResourceReader14ReadDesCArrayLEv @ 135 NONAME
	_ZN15RResourceReader15ReadDesC8ArrayLEv @ 136 NONAME
	_ZN15RResourceReader16ReadDesC16ArrayLEv @ 137 NONAME
	_ZN15RResourceReader5CloseEv @ 138 NONAME
	_ZN15RResourceReader5OpenLEPK13CResourceFilei @ 139 NONAME
	_ZN15RResourceReader5ReadLEPvi @ 140 NONAME
	_ZN15RResourceReader6OpenLCEPK13CResourceFilei @ 141 NONAME
	_ZN15RResourceReader7RewindLEi @ 142 NONAME
	_ZN15RResourceReader8AdvanceLEi @ 143 NONAME
	_ZN15RResourceReader9ReadInt8LEv @ 144 NONAME
	_ZN15RResourceReaderC1Ev @ 145 NONAME
	_ZN15RResourceReaderC2Ev @ 146 NONAME
	_ZN15RResourceReaderD1Ev @ 147 NONAME
	_ZN15RResourceReaderD2Ev @ 148 NONAME
	_ZN15TResourceReader10ReadReal64Ev @ 149 NONAME
	_ZN15TResourceReader10ReadTPtrC8EiPK6TDesC8 @ 150 NONAME
	_ZN15TResourceReader10ReadTPtrC8Ev @ 151 NONAME
	_ZN15TResourceReader10ReadUint16Ev @ 152 NONAME
	_ZN15TResourceReader10ReadUint32Ev @ 153 NONAME
	_ZN15TResourceReader11ReadHBufC8LEv @ 154 NONAME
	_ZN15TResourceReader11ReadTPtrC16EiPK6TDesC8 @ 155 NONAME
	_ZN15TResourceReader11ReadTPtrC16Ev @ 156 NONAME
	_ZN15TResourceReader12ReadHBufC16LEv @ 157 NONAME
	_ZN15TResourceReader15ReadDesC8ArrayLEv @ 158 NONAME
	_ZN15TResourceReader16ReadDesC16ArrayLEv @ 159 NONAME
	_ZN15TResourceReader3PtrEv @ 160 NONAME
	_ZN15TResourceReader4ReadEPvi @ 161 NONAME
	_ZN15TResourceReader6RewindEi @ 162 NONAME
	_ZN15TResourceReader7AdvanceEi @ 163 NONAME
	_ZN15TResourceReader8ReadInt8Ev @ 164 NONAME
	_ZN15TResourceReader9ReadInt16Ev @ 165 NONAME
	_ZN15TResourceReader9ReadInt32Ev @ 166 NONAME
	_ZN15TResourceReader9ReadUint8Ev @ 167 NONAME
	_ZN15TResourceReader9SetBufferEPK6TDesC8 @ 168 NONAME
	_ZN16CDesC16ArrayFlatC1Ei @ 169 NONAME
	_ZN16CDesC16ArrayFlatC2Ei @ 170 NONAME
	_ZN16CDesC16ArrayFlatD0Ev @ 171 NONAME
	_ZN16CDesC16ArrayFlatD1Ev @ 172 NONAME
	_ZN16CDesC16ArrayFlatD2Ev @ 173 NONAME
	_ZN16RIncrMatcherBase10AppendCharE5TChar @ 174 NONAME
	_ZN16RIncrMatcherBase12SetBestMatchERK7TDesC16 @ 175 NONAME
	_ZN16RIncrMatcherBase13SetBestMatchCERK7TDesC16 @ 176 NONAME
	_ZN16RIncrMatcherBase13SetBestMatchFERK7TDesC16 @ 177 NONAME
	_ZN16RIncrMatcherBase14DeleteLastCharEv @ 178 NONAME
	_ZN16RIncrMatcherBaseD0Ev @ 179 NONAME
	_ZN16RIncrMatcherBaseD1Ev @ 180 NONAME
	_ZN16RIncrMatcherBaseD2Ev @ 181 NONAME
	_ZN18CBaActiveScheduler10Reserved_1Ev @ 182 NONAME
	_ZN18CBaActiveScheduler10Reserved_2Ev @ 183 NONAME
	_ZN18CBaActiveScheduler12LeaveNoAlertEv @ 184 NONAME
	_ZN18CBaActiveScheduler13ExtendedErrorEv @ 185 NONAME
	_ZN18CBaActiveScheduler13LeaveForAlertE4TUidi @ 186 NONAME
	_ZN18CBaActiveScheduler17LeaveForInfoPrintE4TUidi @ 187 NONAME
	_ZN18CBaActiveScheduler20DisplayExtendedErrorE4TUidi @ 188 NONAME
	_ZN18CBaActiveScheduler20LeaveForErrorHandlerEPK15CBaErrorHandler @ 189 NONAME
	_ZN18CBaActiveScheduler4ExitEv @ 190 NONAME
	_ZN18CBaflFileSortTable22ConstructFromResourceLER15TResourceReader @ 191 NONAME
	_ZN18CBaflFileSortTableC1Ev @ 192 NONAME
	_ZN18CBaflFileSortTableC2Ev @ 193 NONAME
	_ZN18TBaSystemSoundInfo11SetFileNameERK4TBufILi256EE @ 194 NONAME
	_ZN18TBaSystemSoundInfo22SetFixedSequenceNumberEi @ 195 NONAME
	_ZN18TBaSystemSoundInfo7SetToneERKNS_5TToneE @ 196 NONAME
	_ZN18TBaSystemSoundInfoC1ERK18TBaSystemSoundTypeNS_5TToneEii @ 197 NONAME
	_ZN18TBaSystemSoundInfoC1ERK18TBaSystemSoundTypeRK4TBufILi256EEii @ 198 NONAME
	_ZN18TBaSystemSoundInfoC1ERK18TBaSystemSoundTypeiii @ 199 NONAME
	_ZN18TBaSystemSoundInfoC1Ev @ 200 NONAME
	_ZN18TBaSystemSoundInfoC2ERK18TBaSystemSoundTypeNS_5TToneEii @ 201 NONAME
	_ZN18TBaSystemSoundInfoC2ERK18TBaSystemSoundTypeRK4TBufILi256EEii @ 202 NONAME
	_ZN18TBaSystemSoundInfoC2ERK18TBaSystemSoundTypeiii @ 203 NONAME
	_ZN18TBaSystemSoundInfoC2Ev @ 204 NONAME
	_ZN18TBaSystemSoundTypeC1E4TUidS0_ @ 205 NONAME
	_ZN18TBaSystemSoundTypeC1Ev @ 206 NONAME
	_ZN18TBaSystemSoundTypeC2E4TUidS0_ @ 207 NONAME
	_ZN18TBaSystemSoundTypeC2Ev @ 208 NONAME
	_ZN19CBaSystemSoundArray2AtEi @ 209 NONAME
	_ZN19CBaSystemSoundArray4NewLEv @ 210 NONAME
	_ZN19CBaSystemSoundArray5CountEv @ 211 NONAME
	_ZN19CBaSystemSoundArray5NewLCEv @ 212 NONAME
	_ZN19CBaSystemSoundArray8RestoreLER3RFs4TUid @ 213 NONAME
	_ZN19RIncrMatcherTextBuf8MatchDesEv @ 214 NONAME
	_ZN19RIncrMatcherTextBufC1Ev @ 215 NONAME
	_ZN19RIncrMatcherTextBufC2Ev @ 216 NONAME
	_ZN19RIncrMatcherTextBufD0Ev @ 217 NONAME
	_ZN19RIncrMatcherTextBufD1Ev @ 218 NONAME
	_ZN19RIncrMatcherTextBufD2Ev @ 219 NONAME
	_ZN21CCommandLineArguments4NewLEv @ 220 NONAME
	_ZN21CCommandLineArguments5NewLCEv @ 221 NONAME
	_ZN21CCommandLineArgumentsD0Ev @ 222 NONAME
	_ZN21CCommandLineArgumentsD1Ev @ 223 NONAME
	_ZN21CCommandLineArgumentsD2Ev @ 224 NONAME
	_ZN23CBaBackupSessionWrapper10CloseFileLERK7TDesC16N15MBackupObserver14TFileLockFlagsE @ 225 NONAME
	_ZN23CBaBackupSessionWrapper10RestartAllEv @ 226 NONAME
	_ZN23CBaBackupSessionWrapper11CloseServerEv @ 227 NONAME ABSENT
	_ZN23CBaBackupSessionWrapper11RestartFileERK7TDesC16 @ 228 NONAME
	_ZN23CBaBackupSessionWrapper13RegisterFileLERK7TDesC16R15MBackupObserver @ 229 NONAME
	_ZN23CBaBackupSessionWrapper14DeregisterFileERK7TDesC16 @ 230 NONAME
	_ZN23CBaBackupSessionWrapper22NotifyBackupOperationLERK26TBackupOperationAttributes @ 231 NONAME
	_ZN23CBaBackupSessionWrapper32RegisterBackupOperationObserverLER24MBackupOperationObserver @ 232 NONAME
	_ZN23CBaBackupSessionWrapper33DeRegisterBackupOperationObserverER24MBackupOperationObserver @ 233 NONAME
	_ZN23CBaBackupSessionWrapper4NewLEv @ 234 NONAME
	_ZN23CBaBackupSessionWrapper8CloseAllEN15MBackupObserver14TFileLockFlagsER14TRequestStatus @ 235 NONAME
	_ZN23CBaBackupSessionWrapperD0Ev @ 236 NONAME
	_ZN23CBaBackupSessionWrapperD1Ev @ 237 NONAME
	_ZN23CBaBackupSessionWrapperD2Ev @ 238 NONAME
	_ZN23TBaSoundPriorityEncoderC1Ei22TMdaPriorityPreference @ 239 NONAME
	_ZN23TBaSoundPriorityEncoderC2Ei22TMdaPriorityPreference @ 240 NONAME
	_ZN24MBackupOperationObserver9Reserved1Ev @ 241 NONAME
	_ZN26CEnvironmentChangeNotifier3SetERK9TCallBack @ 242 NONAME
	_ZN26CEnvironmentChangeNotifier4NewLEiRK9TCallBack @ 243 NONAME
	_ZN26CEnvironmentChangeNotifier5StartEv @ 244 NONAME
	_ZN26CEnvironmentChangeNotifierD0Ev @ 245 NONAME
	_ZN26CEnvironmentChangeNotifierD1Ev @ 246 NONAME
	_ZN26CEnvironmentChangeNotifierD2Ev @ 247 NONAME
	_ZN8RTextBuf13SetMaxLengthLEi @ 248 NONAME
	_ZN8RTextBuf5CloseEv @ 249 NONAME
	_ZN8RTextBufC1Ev @ 250 NONAME
	_ZN8RTextBufC2Ev @ 251 NONAME
	_ZN8RTextBufD1Ev @ 252 NONAME
	_ZN8RTextBufD2Ev @ 253 NONAME
	_ZN8TCellRef12InternalizeLER11RReadStream @ 254 NONAME
	_ZN8TCellRef6OffsetEii @ 255 NONAME
	_ZN9BaflUtils10DeleteFileER3RFsRK7TDesC16j @ 256 NONAME
	_ZN9BaflUtils10FileExistsERK3RFsRK7TDesC16 @ 257 NONAME
	_ZN9BaflUtils10PathExistsER3RFsRK7TDesC16 @ 258 NONAME
	_ZN9BaflUtils10PersistHALEv @ 259 NONAME
	_ZN9BaflUtils10RenameFileER3RFsRK7TDesC16S4_j @ 260 NONAME
	_ZN9BaflUtils11CheckFolderER3RFsRK7TDesC16 @ 261 NONAME
	_ZN9BaflUtils11SortByTableER4CDirP18CBaflFileSortTable @ 262 NONAME
	_ZN9BaflUtils12FolderExistsER3RFsRK7TDesC16 @ 263 NONAME
	_ZN9BaflUtils13InitialiseHALER3RFs @ 264 NONAME
	_ZN9BaflUtils13PersistLocaleEv @ 265 NONAME
	_ZN9BaflUtils14DiskIsReadOnlyER3RFsRK7TDesC16Ri @ 266 NONAME
	_ZN9BaflUtils14GetSystemDriveER12TDriveNumber @ 267 NONAME
	_ZN9BaflUtils14RootFolderPathE4TBufILi1EE @ 268 NONAME
	_ZN9BaflUtils14UidTypeMatchesERK8TUidTypeS2_ @ 269 NONAME
	_ZN9BaflUtils15UpdateDiskListLERK3RFsR12CDesC16Arrayi12TDriveNumber @ 270 NONAME
	_ZN9BaflUtils16InitialiseLocaleER3RFs @ 271 NONAME
	_ZN9BaflUtils17EnsurePathExistsLER3RFsRK7TDesC16 @ 272 NONAME
	_ZN9BaflUtils17GetDowngradePathLERK3RFs9TLanguageR6RArrayIS3_E @ 273 NONAME
	_ZN9BaflUtils18AbbreviateFileNameERK4TBufILi256EER6TDes16 @ 274 NONAME
	_ZN9BaflUtils18CopyWithTruncationER6TDes16RK7TDesC165TChar @ 275 NONAME
	_ZN9BaflUtils19NearestLanguageFileERK3RFsR4TBufILi256EE @ 276 NONAME
	_ZN9BaflUtils21IsFirstDriveForSocketE10TDriveUnit @ 277 NONAME
	_ZN9BaflUtils21RemoveSystemDirectoryER4CDir @ 278 NONAME
	_ZN9BaflUtils22FolderNameFromFullNameERK7TDesC16 @ 279 NONAME
	_ZN9BaflUtils24DriveAndPathFromFullNameERK7TDesC16 @ 280 NONAME
	_ZN9BaflUtils24PersistScreenCalibrationERK21TDigitizerCalibration @ 281 NONAME
	_ZN9BaflUtils26ExtractAppNameFromFullNameERK4TBufILi256EE @ 282 NONAME
	_ZN9BaflUtils27InitialiseScreenCalibrationER3RFs @ 283 NONAME
	_ZN9BaflUtils29MostSignificantPartOfFullNameERK7TDesC16R4TBufILi256EE @ 284 NONAME
	_ZN9BaflUtils30ValidateFolderNameTypedByUserLERK3RFsRK7TDesC16S5_R4TBufILi256EE @ 285 NONAME
	_ZN9BaflUtils34CheckWhetherFullNameRefersToFolderERK7TDesC16Ri @ 286 NONAME
	_ZN9BaflUtils5ParseERK7TDesC16 @ 287 NONAME
	_ZN9BaflUtils8CopyFileER3RFsRK7TDesC16S4_j @ 288 NONAME
	_ZN9BaflUtils8IsFolderERK3RFsRK7TDesC16Ri @ 289 NONAME
	_ZN9TRangeRef12InternalizeLER11RReadStream @ 290 NONAME
	_ZN9TRangeRef5TIterC1ERKS_ @ 291 NONAME
	_ZN9TRangeRef5TIterC2ERKS_ @ 292 NONAME
	_ZN9TRangeRef5TIterppEv @ 293 NONAME
	_ZNK11CDesC8Array4FindERK6TDesC8Ri11TKeyCmpText @ 294 NONAME
	_ZNK11CDesC8Array7FindIsqERK6TDesC8Ri11TKeyCmpText @ 295 NONAME
	_ZNK11CDesC8Array9MdcaCountEv @ 296 NONAME
	_ZNK11CDesC8Array9MdcaPointEi @ 297 NONAME
	_ZNK11CPtrC8Array9MdcaCountEv @ 298 NONAME
	_ZNK11CPtrC8Array9MdcaPointEi @ 299 NONAME
	_ZNK11RStringBase16OriginalTableRefEv @ 300 NONAME
	_ZNK11RStringBase4DesCEv @ 301 NONAME
	_ZNK11RStringBase5IndexERK12TStringTable @ 302 NONAME
	_ZNK11RStringPool11OpenStringLERK6TDesC8 @ 303 NONAME
	_ZNK11RStringPool12OpenFStringLERK6TDesC8 @ 304 NONAME
	_ZNK11RStringPool6StringE12RStringToken @ 305 NONAME
	_ZNK11RStringPool6StringEiRK12TStringTable @ 306 NONAME
	_ZNK11RStringPool7StringFE13RStringTokenF @ 307 NONAME
	_ZNK11RStringPool7StringFEiRK12TStringTable @ 308 NONAME
	_ZNK12CDesC16Array4FindERK7TDesC16Ri11TKeyCmpText @ 309 NONAME
	_ZNK12CDesC16Array7FindIsqERK7TDesC16Ri11TKeyCmpText @ 310 NONAME
	_ZNK12CDesC16Array9MdcaCountEv @ 311 NONAME
	_ZNK12CDesC16Array9MdcaPointEi @ 312 NONAME
	_ZNK12CPtrC16Array9MdcaCountEv @ 313 NONAME
	_ZNK12CPtrC16Array9MdcaPointEi @ 314 NONAME
	_ZNK13CResourceFile10AllocReadLEi @ 315 NONAME
	_ZNK13CResourceFile10SignatureLEv @ 316 NONAME
	_ZNK13CResourceFile11AllocReadLCEi @ 317 NONAME
	_ZNK13CResourceFile15OwnsResourceIdLEi @ 318 NONAME
	_ZNK13CResourceFile5ReadLER5TDes8i @ 319 NONAME
	_ZNK13CResourceFile6OffsetEv @ 320 NONAME
	_ZNK13CResourceFile7UidTypeEv @ 321 NONAME
	_ZNK13RResourceFile10AllocReadLEi @ 322 NONAME
	_ZNK13RResourceFile10SignatureLEv @ 323 NONAME
	_ZNK13RResourceFile11AllocReadLCEi @ 324 NONAME
	_ZNK13RResourceFile14OwnsResourceIdEi @ 325 NONAME
	_ZNK13RResourceFile5ReadLER5TDes8i @ 326 NONAME
	_ZNK13RResourceFile7Offset2Ev @ 327 NONAME
	_ZNK13RResourceFile7UidTypeEv @ 328 NONAME
	_ZNK15CBaNamedPlugins10IndexOfUidE4TUid @ 329 NONAME
	_ZNK15CBaNamedPlugins10UidAtIndexEi @ 330 NONAME
	_ZNK15CBaNamedPlugins17IdentifierAtIndexEi @ 331 NONAME
	_ZNK15CBaNamedPlugins17IndexOfIdentifierERK7TDesC16PFiS2_S2_E @ 332 NONAME
	_ZNK15CBaNamedPlugins9MdcaCountEv @ 333 NONAME
	_ZNK15CBaNamedPlugins9MdcaPointEi @ 334 NONAME
	_ZNK15CFindFileByType5EntryEv @ 335 NONAME
	_ZNK15RIncrMatcherPtr8MatchDesEv @ 336 NONAME
	_ZNK16RIncrMatcherBase18FirstMatchingIndexERiRK12MDesC16Arrayi @ 337 NONAME
	_ZNK16RIncrMatcherBase19FirstMatchingIndexCERiRK12MDesC16Arrayi @ 338 NONAME
	_ZNK16RIncrMatcherBase19FirstMatchingIndexFERiRK12MDesC16Arrayi @ 339 NONAME
	_ZNK16RIncrMatcherBase7IsMatchERK7TDesC16 @ 340 NONAME
	_ZNK16RIncrMatcherBase8IsMatchCERK7TDesC16 @ 341 NONAME
	_ZNK16RIncrMatcherBase8IsMatchFERK7TDesC16 @ 342 NONAME
	_ZNK18CBaActiveScheduler12DisplayErrorEi @ 343 NONAME
	_ZNK18CBaActiveScheduler5ErrorEi @ 344 NONAME
	_ZNK18TBaSystemSoundInfo13SoundCategoryEv @ 345 NONAME
	_ZNK18TBaSystemSoundTypeeqERKS_ @ 346 NONAME
	_ZNK19RIncrMatcherTextBuf8MatchDesEv @ 347 NONAME
	_ZNK20TBaSoundPriorityBase18PriorityPreferenceEv @ 348 NONAME
	_ZNK21CCommandLineArguments3ArgEi @ 349 NONAME
	_ZNK21CCommandLineArguments5CountEv @ 350 NONAME
	_ZNK23CBaBackupSessionWrapper24IsBackupOperationRunningEv @ 351 NONAME
	_ZNK9TRangeRef12ExternalizeLER12RWriteStream @ 352 NONAME
	_ZNK9TRangeRef7NoCellsEv @ 353 NONAME
	_ZNK9TRangeRef8ContainsERK8TCellRef @ 354 NONAME
	_ZNK9TRangeRefeqERKS_ @ 355 NONAME
	_ZTI11CDesC8Array @ 356 NONAME ; #<TI>#
	_ZTI11CPtrC8Array @ 357 NONAME ; #<TI>#
	_ZTI12CDesC16Array @ 358 NONAME ; #<TI>#
	_ZTI12CPtrC16Array @ 359 NONAME ; #<TI>#
	_ZTI13CResourceFile @ 360 NONAME ; #<TI>#
	_ZTI14CDesC8ArraySeg @ 361 NONAME ; #<TI>#
	_ZTI15CBaNamedPlugins @ 362 NONAME ; #<TI>#
	_ZTI15CDesC16ArraySeg @ 363 NONAME ; #<TI>#
	_ZTI15CDesC8ArrayFlat @ 364 NONAME ; #<TI>#
	_ZTI15CFindFileByType @ 365 NONAME ; #<TI>#
	_ZTI15RIncrMatcherPtr @ 366 NONAME ; #<TI>#
	_ZTI16CDesC16ArrayFlat @ 367 NONAME ; #<TI>#
	_ZTI16RIncrMatcherBase @ 368 NONAME ; #<TI>#
	_ZTI18CBaActiveScheduler @ 369 NONAME ; #<TI>#
	_ZTV26TNearestLanguageFileFinder @ 370 NONAME ABSENT ; #<VT>#
	_ZTI19RIncrMatcherTextBuf @ 371 NONAME ; #<TI>#
	_ZTI24MBackupOperationObserver @ 372 NONAME ; #<TI>#
	_ZTIN15CBaNamedPlugins11CParametersE @ 373 NONAME ; #<TI>#
	_ZTIN15CBaNamedPlugins13MFallBackNameE @ 374 NONAME ; #<TI>#
	_ZTV11CDesC8Array @ 375 NONAME ; #<VT>#
	_ZTV11CPtrC8Array @ 376 NONAME ; #<VT>#
	_ZTV12CDesC16Array @ 377 NONAME ; #<VT>#
	_ZTV12CPtrC16Array @ 378 NONAME ; #<VT>#
	_ZTV13CResourceFile @ 379 NONAME ; #<VT>#
	_ZTV14CDesC8ArraySeg @ 380 NONAME ; #<VT>#
	_ZTV15CBaNamedPlugins @ 381 NONAME ; #<VT>#
	_ZTV15CDesC16ArraySeg @ 382 NONAME ; #<VT>#
	_ZTV15CDesC8ArrayFlat @ 383 NONAME ; #<VT>#
	_ZTV15CFindFileByType @ 384 NONAME ; #<VT>#
	_ZTV15RIncrMatcherPtr @ 385 NONAME ; #<VT>#
	_ZTV16CDesC16ArrayFlat @ 386 NONAME ; #<VT>#
	_ZTV16RIncrMatcherBase @ 387 NONAME ; #<VT>#
	_ZTV18CBaActiveScheduler @ 388 NONAME ; #<VT>#
	_ZTV19RIncrMatcherTextBuf @ 389 NONAME ; #<VT>#
	_ZTV24MBackupOperationObserver @ 390 NONAME ; #<VT>#
	_ZTVN15CBaNamedPlugins11CParametersE @ 391 NONAME ; #<VT>#
	_ZTVN15CBaNamedPlugins13MFallBackNameE @ 392 NONAME ; #<VT>#
	_ZThn24_N11CDesC8ArrayD0Ev @ 393 NONAME ; #<thunk>#
	_ZThn24_N11CDesC8ArrayD1Ev @ 394 NONAME ; #<thunk>#
	_ZThn24_N11CPtrC8ArrayD0Ev @ 395 NONAME ; #<thunk>#
	_ZThn24_N11CPtrC8ArrayD1Ev @ 396 NONAME ; #<thunk>#
	_ZThn24_N12CDesC16ArrayD0Ev @ 397 NONAME ; #<thunk>#
	_ZThn24_N12CDesC16ArrayD1Ev @ 398 NONAME ; #<thunk>#
	_ZThn24_N12CPtrC16ArrayD0Ev @ 399 NONAME ; #<thunk>#
	_ZThn24_N12CPtrC16ArrayD1Ev @ 400 NONAME ; #<thunk>#
	_ZThn24_N14CDesC8ArraySegD0Ev @ 401 NONAME ; #<thunk>#
	_ZThn24_N14CDesC8ArraySegD1Ev @ 402 NONAME ; #<thunk>#
	_ZThn24_N15CDesC16ArraySegD0Ev @ 403 NONAME ; #<thunk>#
	_ZThn24_N15CDesC16ArraySegD1Ev @ 404 NONAME ; #<thunk>#
	_ZThn24_N15CDesC8ArrayFlatD0Ev @ 405 NONAME ; #<thunk>#
	_ZThn24_N15CDesC8ArrayFlatD1Ev @ 406 NONAME ; #<thunk>#
	_ZThn24_N16CDesC16ArrayFlatD0Ev @ 407 NONAME ; #<thunk>#
	_ZThn24_N16CDesC16ArrayFlatD1Ev @ 408 NONAME ; #<thunk>#
	_ZThn24_NK11CDesC8Array9MdcaCountEv @ 409 NONAME ; #<thunk>#
	_ZThn24_NK11CDesC8Array9MdcaPointEi @ 410 NONAME ; #<thunk>#
	_ZThn24_NK11CPtrC8Array9MdcaCountEv @ 411 NONAME ; #<thunk>#
	_ZThn24_NK11CPtrC8Array9MdcaPointEi @ 412 NONAME ; #<thunk>#
	_ZThn24_NK12CDesC16Array9MdcaCountEv @ 413 NONAME ; #<thunk>#
	_ZThn24_NK12CDesC16Array9MdcaPointEi @ 414 NONAME ; #<thunk>#
	_ZThn24_NK12CPtrC16Array9MdcaCountEv @ 415 NONAME ; #<thunk>#
	_ZThn24_NK12CPtrC16Array9MdcaPointEi @ 416 NONAME ; #<thunk>#
	_ZThn4_N15CBaNamedPluginsD0Ev @ 417 NONAME ; #<thunk>#
	_ZThn4_N15CBaNamedPluginsD1Ev @ 418 NONAME ; #<thunk>#
	_ZThn4_NK15CBaNamedPlugins9MdcaCountEv @ 419 NONAME ; #<thunk>#
	_ZThn4_NK15CBaNamedPlugins9MdcaPointEi @ 420 NONAME ; #<thunk>#
	_ZmiRK8TCellRefS1_ @ 421 NONAME
	_ZplRK8TCellRefS1_ @ 422 NONAME
	_ZNK13RResourceFile15OwnsResourceIdLEi @ 423 NONAME
	_ZTI10CClipboard @ 424 NONAME ; #<TI>#
	_ZTI14TKeyDesC8Array @ 425 NONAME ABSENT ; #<TI>#
	_ZTI15CStringPoolNode @ 426 NONAME ABSENT ; #<TI>#
	_ZTI15TKeyDesC16Array @ 427 NONAME ABSENT ; #<TI>#
	_ZTI19CBaSystemSoundArray @ 428 NONAME ; #<TI>#
	_ZTI21CBaLockChangeNotifier @ 429 NONAME ABSENT ; #<TI>#
	_ZTI21CCommandLineArguments @ 430 NONAME ; #<TI>#
	_ZTI21RRealDirectoryScanner @ 431 NONAME ABSENT ; #<TI>#
	_ZTI23CBaBackupSessionWrapper @ 432 NONAME ; #<TI>#
	_ZTI25CStringPoolImplementation @ 433 NONAME ABSENT ; #<TI>#
	_ZTI26CBaBackupOperationNotifier @ 434 NONAME ABSENT ; #<TI>#
	_ZTI26CEnvironmentChangeNotifier @ 435 NONAME ; #<TI>#
	_ZTI26TNearestLanguageFileFinder @ 436 NONAME ABSENT ; #<TI>#
	_ZTV10CClipboard @ 437 NONAME ; #<VT>#
	_ZTV14TKeyDesC8Array @ 438 NONAME ABSENT ; #<VT>#
	_ZTV15CStringPoolNode @ 439 NONAME ABSENT ; #<VT>#
	_ZTV15TKeyDesC16Array @ 440 NONAME ABSENT ; #<VT>#
	_ZTV19CBaSystemSoundArray @ 441 NONAME ; #<VT>#
	_ZTV21CBaLockChangeNotifier @ 442 NONAME ABSENT ; #<VT>#
	_ZTV21CCommandLineArguments @ 443 NONAME ; #<VT>#
	_ZTV21RRealDirectoryScanner @ 444 NONAME ABSENT ; #<VT>#
	_ZTV23CBaBackupSessionWrapper @ 445 NONAME ; #<VT>#
	_ZTV25CStringPoolImplementation @ 446 NONAME ABSENT ; #<VT>#
	_ZTV26CBaBackupOperationNotifier @ 447 NONAME ABSENT ; #<VT>#
	_ZTV26CEnvironmentChangeNotifier @ 448 NONAME ; #<VT>#
	_ZN15RResourceReader5OpenLERK6TDesC8 @ 449 NONAME
	_ZN15RResourceReader6OpenLCERK6TDesC8 @ 450 NONAME
	_ZN9BaflUtils13IdealLanguageEv @ 451 NONAME
	_ZN9BaflUtils16SetIdealLanguageE9TLanguage @ 452 NONAME
	_ZN9BaflUtils19NearestLanguageFileERK3RFsR4TBufILi256EER9TLanguage @ 453 NONAME
	_ZN9BaflUtils20ReleaseIdealLanguageEv @ 454 NONAME
	_ZN9BaflUtils23DriveIsReadOnlyInternalER3RFsRK7TDesC16Ri @ 455 NONAME
	_ZN13CResourceFile4NewLERK6TDesC8 @ 456 NONAME
	_ZN16RResourceArchive4TypeEv @ 457 NONAME
	_ZN16RResourceArchive5CloseEv @ 458 NONAME
	_ZN16RResourceArchive5NextLERP7HBufC16 @ 459 NONAME
	_ZN16RResourceArchive5OpenLER3RFsRK7TDesC16 @ 460 NONAME
	_ZN16RResourceArchive5ResetEv @ 461 NONAME
	_ZN16RResourceArchiveC1Ev @ 462 NONAME
	_ZN16RResourceArchiveC2Ev @ 463 NONAME
	_ZTI20CResourceArchiveImpl @ 464 NONAME ABSENT ; #<TI>#
	_ZTV20CResourceArchiveImpl @ 465 NONAME ABSENT ; #<VT>#
	_ZN16RResourceArchive3EndEv @ 466 NONAME
	_ZN9BaflUtils12GetDiskListLERK3RFsR12CDesC16Array @ 467 NONAME
	_ZN16RResourceArchive5OpenLER3RFsRK7TDesC16S4_ @ 468 NONAME
	_ZN18CBaActiveSchedulerC1Ev @ 469 NONAME
	_ZN18CBaActiveSchedulerC2Ev @ 470 NONAME
	_ZN18CBaActiveSchedulerD0Ev @ 471 NONAME
	_ZN18CBaActiveSchedulerD1Ev @ 472 NONAME
	_ZN18CBaActiveSchedulerD2Ev @ 473 NONAME
	_ZN9BaflUtils21NearestLanguageFileV2ERK3RFsR4TBufILi256EER9TLanguage @ 474 NONAME
	_ZN9BaflUtils25GetEquivalentLanguageListE9TLanguageRA17_S0_ @ 475 NONAME

