Certificate:
    Data:
        Version: 1 (0x0)
        Serial Number: 1 (0x1)
        Signature Algorithm: sha1WithRSAEncryption
        Issuer: O=Symbian Software Ltd, CN=OCSPSigningRoot-RSA
        Validity
            Not Before: Mar  3 16:34:57 2004 GMT
            Not After : Mar  1 16:34:57 2014 GMT
        Subject: O=Symbian Software Ltd, CN=Signer-OCSPR
        Subject Public Key Info:
            Public Key Algorithm: rsaEncryption
            RSA Public Key: (1024 bit)
                Modulus (1024 bit):
                    00:cb:cc:34:96:9f:92:a2:08:28:e2:43:13:c8:d2:
                    c7:2f:45:b3:68:2b:6c:9b:fb:42:46:9e:d2:42:30:
                    3e:14:2e:d5:bc:4d:dd:b3:dd:34:c7:a3:76:cf:9b:
                    51:dd:c6:28:05:1a:f3:19:dd:3d:6e:e1:ad:9f:f8:
                    08:04:0e:94:da:5e:f2:19:73:8b:8f:8c:9c:03:f2:
                    8f:96:7a:64:9c:99:bf:cd:1c:5f:4f:10:9e:86:19:
                    22:58:4c:f8:74:73:d8:7d:b4:e8:3b:21:de:4f:94:
                    b0:65:4b:a3:3b:5c:02:47:f2:f7:e5:d1:36:c0:7f:
                    cb:4d:00:28:01:9b:ad:41:03
                Exponent: 65537 (0x10001)
    Signature Algorithm: sha1WithRSAEncryption
        3e:d2:26:f1:8b:ee:3d:e4:cc:34:38:8a:03:3d:6a:98:81:dc:
        7a:bf:ba:39:c0:3b:78:6e:eb:00:de:51:2e:8e:f0:da:45:47:
        f5:2f:8c:29:db:f2:67:9e:d8:2c:72:7b:0d:d5:83:e1:dd:50:
        39:e1:c1:fc:8f:5a:33:76:b1:fd:b7:40:54:58:9f:a5:6f:34:
        75:f6:0f:23:c2:af:77:94:0f:00:a3:ad:cf:cd:94:2e:6f:e4:
        70:70:fb:19:5b:5e:8c:93:8f:70:e1:aa:5d:2f:58:81:90:79:
        f3:9d:9f:4c:06:8e:28:57:09:00:76:52:73:87:01:be:b5:8d:
        44:25
-----BEGIN CERTIFICATE-----
MIIB4jCCAUsCAQEwDQYJKoZIhvcNAQEFBQAwPTEdMBsGA1UEChMUU3ltYmlhbiBT
b2Z0d2FyZSBMdGQxHDAaBgNVBAMTE09DU1BTaWduaW5nUm9vdC1SU0EwHhcNMDQw
MzAzMTYzNDU3WhcNMTQwMzAxMTYzNDU3WjA2MR0wGwYDVQQKExRTeW1iaWFuIFNv
ZnR3YXJlIEx0ZDEVMBMGA1UEAxMMU2lnbmVyLU9DU1BSMIGfMA0GCSqGSIb3DQEB
AQUAA4GNADCBiQKBgQDLzDSWn5KiCCjiQxPI0scvRbNoK2yb+0JGntJCMD4ULtW8
Td2z3TTHo3bPm1HdxigFGvMZ3T1u4a2f+AgEDpTaXvIZc4uPjJwD8o+WemScmb/N
HF9PEJ6GGSJYTPh0c9h9tOg7Id5PlLBlS6M7XAJH8vfl0TbAf8tNACgBm61BAwID
AQABMA0GCSqGSIb3DQEBBQUAA4GBAD7SJvGL7j3kzDQ4igM9apiB3Hq/ujnAO3hu
6wDeUS6O8NpFR/UvjCnb8mee2Cxyew3Vg+HdUDnhwfyPWjN2sf23QFRYn6VvNHX2
DyPCr3eUDwCjrc/NlC5v5HBw+xlbXoyTj3Dhql0vWIGQefOdn0wGjihXCQB2UnOH
Ab61jUQl
-----END CERTIFICATE-----
