Certificate:
    Data:
        Version: 1 (0x0)
        Serial Number: 1 (0x1)
        Signature Algorithm: md5WithRSAEncryption
        Issuer: O=Symbian Software Ltd, CN=Root1-RSA
        Validity
            Not Before: Feb  3 12:00:00 1982 GMT
            Not After : Feb  3 12:00:01 1982 GMT
        Subject: O=Symbian Software Ltd, CN=Expired-R1
        Subject Public Key Info:
            Public Key Algorithm: rsaEncryption
            RSA Public Key: (1024 bit)
                Modulus (1024 bit):
                    00:ad:0e:8d:c3:ca:ae:ab:e2:d1:29:81:45:75:01:
                    48:d3:36:d3:9f:07:7c:ea:71:9f:47:ca:b5:0d:32:
                    16:6c:dd:66:6c:20:fb:56:4e:9e:09:49:f9:81:44:
                    5b:44:09:67:d1:e8:c0:be:99:36:b6:93:fa:de:4d:
                    ab:08:31:a9:b5:72:a2:08:bc:5c:c2:3b:d2:08:c6:
                    01:60:4d:74:04:98:84:06:61:33:e8:eb:7f:e1:94:
                    7b:5a:11:6e:a7:5d:c0:f5:e8:98:c7:3b:f4:f6:08:
                    96:35:4e:77:a8:a5:49:25:60:e5:76:d3:1f:15:46:
                    28:36:2b:aa:18:32:99:e2:c5
                Exponent: 65537 (0x10001)
    Signature Algorithm: md5WithRSAEncryption
        91:ab:ff:f1:8a:04:4d:87:01:9d:52:53:87:f5:06:be:b8:95:
        58:34:2f:54:18:5b:fb:e1:76:01:e0:ad:d1:08:11:ee:db:15:
        29:b3:1d:f5:0e:9b:ba:92:d5:7b:50:2b:40:04:b0:64:81:70:
        c8:63:f3:ee:0d:9e:3e:c3:d1:ca:9f:93:1a:8b:c9:a5:0f:2a:
        40:4b:48:b6:27:ab:dd:64:9d:bd:3c:2f:f7:d8:46:5b:8f:b4:
        55:ea:62:0b:aa:ab:6a:b1:f3:02:7a:db:bc:08:64:58:fd:02:
        36:41:18:ec:1a:21:1f:a4:7e:82:cc:e3:99:8d:25:78:c2:6f:
        c0:4f
-----BEGIN CERTIFICATE-----
MIIB1jCCAT8CAQEwDQYJKoZIhvcNAQEEBQAwMzEdMBsGA1UEChMUU3ltYmlhbiBT
b2Z0d2FyZSBMdGQxEjAQBgNVBAMTCVJvb3QxLVJTQTAeFw04MjAyMDMxMjAwMDBa
Fw04MjAyMDMxMjAwMDFaMDQxHTAbBgNVBAoTFFN5bWJpYW4gU29mdHdhcmUgTHRk
MRMwEQYDVQQDEwpFeHBpcmVkLVIxMIGfMA0GCSqGSIb3DQEBAQUAA4GNADCBiQKB
gQCtDo3Dyq6r4tEpgUV1AUjTNtOfB3zqcZ9HyrUNMhZs3WZsIPtWTp4JSfmBRFtE
CWfR6MC+mTa2k/reTasIMam1cqIIvFzCO9IIxgFgTXQEmIQGYTPo63/hlHtaEW6n
XcD16JjHO/T2CJY1TneopUklYOV20x8VRig2K6oYMpnixQIDAQABMA0GCSqGSIb3
DQEBBAUAA4GBAJGr//GKBE2HAZ1SU4f1Br64lVg0L1QYW/vhdgHgrdEIEe7bFSmz
HfUOm7qS1XtQK0AEsGSBcMhj8+4Nnj7D0cqfkxqLyaUPKkBLSLYnq91knb08L/fY
RluPtFXqYguqq2qx8wJ627wIZFj9AjZBGOwaIR+kfoLM45mNJXjCb8BP
-----END CERTIFICATE-----
