Certificate:
    Data:
        Version: 1 (0x0)
        Serial Number: 2 (0x2)
        Signature Algorithm: md5WithRSAEncryption
        Issuer: O=Symbian Software Ltd, CN=Root1-RSA
        Validity
            Not Before: Mar  1 14:39:58 2004 GMT
            Not After : Feb 27 14:39:58 2014 GMT
        Subject: O=Symbian Software Ltd, CN=Good-R1
        Subject Public Key Info:
            Public Key Algorithm: rsaEncryption
            RSA Public Key: (1024 bit)
                Modulus (1024 bit):
                    00:f0:ff:55:8a:55:25:97:ad:7c:50:82:63:fe:fa:
                    72:e4:ce:9c:ad:54:48:d8:bb:1c:9c:2b:83:19:e4:
                    fe:68:7c:80:a6:a0:94:bd:a6:3d:f4:18:8e:0f:11:
                    fe:c4:83:2f:24:4a:66:75:da:0b:d4:d4:bb:c6:25:
                    5d:a1:ea:40:95:61:82:2e:92:09:11:58:cb:66:25:
                    0a:d3:05:f6:ec:b9:8d:17:ea:ac:b9:60:0d:dc:56:
                    fb:dd:6b:7f:0b:e7:bc:10:62:81:fa:d8:fc:5b:fd:
                    8d:83:4c:74:23:de:9a:b0:d8:2f:9d:00:d0:f2:b6:
                    85:c1:d5:f4:ae:6e:bb:73:75
                Exponent: 65537 (0x10001)
    Signature Algorithm: md5WithRSAEncryption
        d3:f0:5f:9e:09:5a:c2:36:f4:02:a8:a3:22:ea:1a:e3:85:ab:
        74:d3:5d:56:93:49:e6:db:44:a2:ec:93:ae:52:8e:63:93:fc:
        c5:94:4a:05:50:39:d5:67:6e:7c:83:7d:09:ca:4b:ba:91:ed:
        00:f4:36:3e:58:ee:07:ac:a8:09:63:a6:c7:09:36:f1:c3:24:
        8b:25:51:85:06:ff:07:f8:37:02:6e:5a:dc:43:94:bb:06:68:
        60:38:cb:68:17:2f:03:0d:ac:59:70:20:c8:ad:92:3b:37:1a:
        16:c1:12:89:69:b8:b8:66:d6:bc:27:2b:de:81:e4:03:bb:cb:
        74:fd
-----BEGIN CERTIFICATE-----
MIIB0zCCATwCAQIwDQYJKoZIhvcNAQEEBQAwMzEdMBsGA1UEChMUU3ltYmlhbiBT
b2Z0d2FyZSBMdGQxEjAQBgNVBAMTCVJvb3QxLVJTQTAeFw0wNDAzMDExNDM5NTha
Fw0xNDAyMjcxNDM5NThaMDExHTAbBgNVBAoTFFN5bWJpYW4gU29mdHdhcmUgTHRk
MRAwDgYDVQQDEwdHb29kLVIxMIGfMA0GCSqGSIb3DQEBAQUAA4GNADCBiQKBgQDw
/1WKVSWXrXxQgmP++nLkzpytVEjYuxycK4MZ5P5ofICmoJS9pj30GI4PEf7Egy8k
SmZ12gvU1LvGJV2h6kCVYYIukgkRWMtmJQrTBfbsuY0X6qy5YA3cVvvda38L57wQ
YoH62Pxb/Y2DTHQj3pqw2C+dANDytoXB1fSubrtzdQIDAQABMA0GCSqGSIb3DQEB
BAUAA4GBANPwX54JWsI29AKooyLqGuOFq3TTXVaTSebbRKLsk65SjmOT/MWUSgVQ
OdVnbnyDfQnKS7qR7QD0Nj5Y7gesqAljpscJNvHDJIslUYUG/wf4NwJuWtxDlLsG
aGA4y2gXLwMNrFlwIMitkjs3GhbBEolpuLhm1rwnK96B5AO7y3T9
-----END CERTIFICATE-----
