Certificate:
    Data:
        Version: 1 (0x0)
        Serial Number: 3 (0x3)
        Signature Algorithm: md5WithRSAEncryption
        Issuer: O=Symbian Software Ltd, CN=Root1-RSA
        Validity
            Not Before: Mar  1 14:40:00 2004 GMT
            Not After : Feb 27 14:40:00 2014 GMT
        Subject: O=Symbian Software Ltd, CN=Revoked-R1
        Subject Public Key Info:
            Public Key Algorithm: rsaEncryption
            RSA Public Key: (1024 bit)
                Modulus (1024 bit):
                    00:a5:c0:b6:0c:e8:e5:ba:5f:05:96:bb:0e:a3:58:
                    bd:2f:a1:66:94:9e:34:76:a9:84:88:a8:cd:fb:e2:
                    d5:14:b8:ce:15:76:d0:03:0a:aa:bc:1c:ff:c4:d9:
                    53:96:b7:aa:28:b1:3b:30:a3:3d:e6:88:08:32:a1:
                    92:2d:d5:7b:85:3e:93:6a:52:dd:cb:2d:b7:99:59:
                    da:4c:08:12:62:c6:57:77:ab:d5:10:8f:2c:0b:39:
                    16:c0:5e:87:7d:40:31:f0:34:4e:75:5f:42:28:56:
                    cd:e4:60:c9:a0:b3:cc:08:d0:a7:2d:4d:19:56:95:
                    82:4d:18:26:37:4c:78:b3:21
                Exponent: 65537 (0x10001)
    Signature Algorithm: md5WithRSAEncryption
        32:96:f8:f3:29:b3:f7:d4:31:4f:60:e4:86:f5:b8:ad:cd:9d:
        be:ac:d7:c6:87:80:4f:ff:df:4c:26:b0:9f:8d:ed:48:8d:39:
        50:28:3f:57:d9:d0:d4:98:96:f2:b9:fb:6b:98:77:a2:12:2d:
        83:64:bd:72:ca:1b:84:3f:b1:02:9e:92:63:59:54:af:ff:1e:
        61:6d:8e:1f:b6:2c:e5:d7:3f:b6:df:df:47:6a:31:99:54:04:
        e5:c1:ee:a7:9c:74:2f:62:9a:4b:96:f2:d5:a6:5b:b5:d3:50:
        40:2e:24:ed:cd:09:da:9f:6e:5c:92:4a:a5:1a:1b:a5:33:4b:
        55:4b
-----BEGIN CERTIFICATE-----
MIIB1jCCAT8CAQMwDQYJKoZIhvcNAQEEBQAwMzEdMBsGA1UEChMUU3ltYmlhbiBT
b2Z0d2FyZSBMdGQxEjAQBgNVBAMTCVJvb3QxLVJTQTAeFw0wNDAzMDExNDQwMDBa
Fw0xNDAyMjcxNDQwMDBaMDQxHTAbBgNVBAoTFFN5bWJpYW4gU29mdHdhcmUgTHRk
MRMwEQYDVQQDEwpSZXZva2VkLVIxMIGfMA0GCSqGSIb3DQEBAQUAA4GNADCBiQKB
gQClwLYM6OW6XwWWuw6jWL0voWaUnjR2qYSIqM374tUUuM4VdtADCqq8HP/E2VOW
t6oosTswoz3miAgyoZIt1XuFPpNqUt3LLbeZWdpMCBJixld3q9UQjywLORbAXod9
QDHwNE51X0IoVs3kYMmgs8wI0KctTRlWlYJNGCY3THizIQIDAQABMA0GCSqGSIb3
DQEBBAUAA4GBADKW+PMps/fUMU9g5Ib1uK3Nnb6s18aHgE//30wmsJ+N7UiNOVAo
P1fZ0NSYlvK5+2uYd6ISLYNkvXLKG4Q/sQKekmNZVK//HmFtjh+2LOXXP7bf30dq
MZlUBOXB7qecdC9imkuW8tWmW7XTUEAuJO3NCdqfblySSqUaG6UzS1VL
-----END CERTIFICATE-----
