Certificate:
    Data:
        Version: 1 (0x0)
        Serial Number: 4 (0x4)
        Signature Algorithm: md5WithRSAEncryption
        Issuer: O=Symbian Software Ltd, CN=Root1-RSA
        Validity
            Not Before: Mar  1 14:40:01 2004 GMT
            Not After : Feb 27 14:40:01 2014 GMT
        Subject: O=Symbian Software Ltd, CN=Unknown-R1
        Subject Public Key Info:
            Public Key Algorithm: rsaEncryption
            RSA Public Key: (1024 bit)
                Modulus (1024 bit):
                    00:ea:0f:71:8a:e7:17:38:37:06:16:18:62:be:0e:
                    8a:07:7d:06:34:ad:1f:6d:c9:3c:05:14:3a:0a:75:
                    d9:20:9e:75:21:b7:1b:af:2e:39:e2:68:76:c7:27:
                    97:af:f2:f4:2a:10:1e:51:92:10:73:99:8e:20:af:
                    ee:1f:b7:26:47:72:00:d7:8c:a5:17:85:a1:b4:20:
                    83:6c:91:17:0e:64:3a:b1:ee:5a:13:4b:39:43:f4:
                    7f:6a:60:72:cf:9a:32:8c:cf:a3:73:5d:b1:28:b8:
                    e2:6f:bf:92:46:9d:b7:83:5e:0a:9c:61:19:3d:86:
                    32:7d:29:43:5b:32:31:3f:33
                Exponent: 65537 (0x10001)
    Signature Algorithm: md5WithRSAEncryption
        4a:7b:ab:cf:90:81:ce:3b:bf:0e:87:fa:fb:fd:31:73:e6:62:
        fb:6f:7c:0e:45:74:16:c0:c5:32:0c:eb:e3:e4:c1:0c:2f:5f:
        46:f8:29:bb:33:59:f3:73:1b:c9:e1:58:a5:58:66:d1:6f:88:
        64:c8:80:74:8c:8e:0d:be:ea:32:fa:36:be:2f:16:8b:c4:f3:
        56:13:bc:c6:7a:d4:3d:6f:81:fd:79:20:54:ef:9f:fc:d6:9a:
        41:d1:46:6d:d7:d5:aa:78:76:28:44:5a:15:33:ab:fa:cc:f3:
        4a:19:92:67:5e:48:4d:f6:76:7f:67:d1:02:b9:0d:3f:99:5b:
        42:72
-----BEGIN CERTIFICATE-----
MIIB1jCCAT8CAQQwDQYJKoZIhvcNAQEEBQAwMzEdMBsGA1UEChMUU3ltYmlhbiBT
b2Z0d2FyZSBMdGQxEjAQBgNVBAMTCVJvb3QxLVJTQTAeFw0wNDAzMDExNDQwMDFa
Fw0xNDAyMjcxNDQwMDFaMDQxHTAbBgNVBAoTFFN5bWJpYW4gU29mdHdhcmUgTHRk
MRMwEQYDVQQDEwpVbmtub3duLVIxMIGfMA0GCSqGSIb3DQEBAQUAA4GNADCBiQKB
gQDqD3GK5xc4NwYWGGK+DooHfQY0rR9tyTwFFDoKddkgnnUhtxuvLjniaHbHJ5ev
8vQqEB5RkhBzmY4gr+4ftyZHcgDXjKUXhaG0IINskRcOZDqx7loTSzlD9H9qYHLP
mjKMz6NzXbEouOJvv5JGnbeDXgqcYRk9hjJ9KUNbMjE/MwIDAQABMA0GCSqGSIb3
DQEBBAUAA4GBAEp7q8+Qgc47vw6H+vv9MXPmYvtvfA5FdBbAxTIM6+PkwQwvX0b4
KbszWfNzG8nhWKVYZtFviGTIgHSMjg2+6jL6Nr4vFovE81YTvMZ61D1vgf15IFTv
n/zWmkHRRm3X1ap4dihEWhUzq/rM80oZkmdeSE32dn9n0QK5DT+ZW0Jy
-----END CERTIFICATE-----
