Certificate:
    Data:
        Version: 3 (0x2)
        Serial Number: 5 (0x5)
        Signature Algorithm: md5WithRSAEncryption
        Issuer: O=Symbian Software Ltd, CN=Root1-RSA
        Validity
            Not Before: Mar  1 14:40:02 2004 GMT
            Not After : Feb 27 14:40:02 2014 GMT
        Subject: O=Symbian Software Ltd, CN=OCSPSigner-R1
        Subject Public Key Info:
            Public Key Algorithm: rsaEncryption
            RSA Public Key: (1024 bit)
                Modulus (1024 bit):
                    00:cd:d2:c5:76:31:8c:1c:e9:5b:90:b0:2e:3f:0f:
                    07:9d:d2:55:4f:27:b2:a1:0f:56:17:5e:aa:14:38:
                    17:2a:44:91:22:5e:52:4d:b9:c2:62:2e:e9:ea:09:
                    35:4e:fa:03:9c:f2:7f:e2:ee:8f:5e:fc:de:60:cc:
                    a2:40:41:b6:fc:df:77:10:3f:a1:8e:4d:db:f1:94:
                    04:a3:ad:23:85:c5:b2:29:54:49:b5:8e:fc:15:a3:
                    9f:f3:15:e8:91:14:bb:b1:cc:c8:5d:b1:37:74:03:
                    70:65:89:a7:7f:89:0e:60:dc:b1:5a:71:2a:b6:f7:
                    61:0f:5e:c0:7c:3b:c0:72:03
                Exponent: 65537 (0x10001)
        X509v3 extensions:
            OCSP No Check: 

    Signature Algorithm: md5WithRSAEncryption
        63:04:47:0e:8c:2c:21:7b:d7:ff:29:cd:a4:54:97:51:fd:87:
        69:b7:d4:05:5f:4e:f9:ef:9d:c5:64:03:59:f8:85:c5:e3:9f:
        41:63:ee:eb:32:0b:b8:b2:97:11:af:3c:a7:2c:d3:d2:a5:c3:
        94:63:3f:4a:21:01:74:68:0b:8d:10:ed:ae:fa:b8:27:86:06:
        9f:cc:ed:ee:c2:db:89:45:9c:a8:c6:01:67:1e:f5:0c:72:3b:
        0c:44:13:5a:86:af:16:3f:84:b8:46:11:fd:11:51:fd:d6:27:
        26:81:c1:3a:ba:dc:42:b3:3c:79:41:48:74:0a:82:9c:ea:7f:
        27:6a
-----BEGIN CERTIFICATE-----
MIIB8zCCAVygAwIBAgIBBTANBgkqhkiG9w0BAQQFADAzMR0wGwYDVQQKExRTeW1i
aWFuIFNvZnR3YXJlIEx0ZDESMBAGA1UEAxMJUm9vdDEtUlNBMB4XDTA0MDMwMTE0
NDAwMloXDTE0MDIyNzE0NDAwMlowNzEdMBsGA1UEChMUU3ltYmlhbiBTb2Z0d2Fy
ZSBMdGQxFjAUBgNVBAMTDU9DU1BTaWduZXItUjEwgZ8wDQYJKoZIhvcNAQEBBQAD
gY0AMIGJAoGBAM3SxXYxjBzpW5CwLj8PB53SVU8nsqEPVhdeqhQ4FypEkSJeUk25
wmIu6eoJNU76A5zyf+Luj1783mDMokBBtvzfdxA/oY5N2/GUBKOtI4XFsilUSbWO
/BWjn/MV6JEUu7HMyF2xN3QDcGWJp3+JDmDcsVpxKrb3YQ9ewHw7wHIDAgMBAAGj
EzARMA8GCSsGAQUFBzABBQQCBQAwDQYJKoZIhvcNAQEEBQADgYEAYwRHDowsIXvX
/ynNpFSXUf2HabfUBV9O+e+dxWQDWfiFxeOfQWPu6zILuLKXEa88pyzT0qXDlGM/
SiEBdGgLjRDtrvq4J4YGn8zt7sLbiUWcqMYBZx71DHI7DEQTWoavFj+EuEYR/RFR
/dYnJoHBOrrcQrM8eUFIdAqCnOp/J2o=
-----END CERTIFICATE-----
