Certificate:
    Data:
        Version: 3 (0x2)
        Serial Number: 6 (0x6)
        Signature Algorithm: md5WithRSAEncryption
        Issuer: O=Symbian Ltd, CN=TOCSP-Root5-RSA
        Validity
            Not Before: Mar  1 16:37:23 2004 GMT
            Not After : Feb 27 16:37:23 2014 GMT
        Subject: O=Symbian Ltd, CN=OCSPSigner-R1
        Subject Public Key Info:
            Public Key Algorithm: rsaEncryption
            RSA Public Key: (1024 bit)
                Modulus (1024 bit):
                    00:d6:30:e1:71:05:a4:f6:a1:b4:f6:6c:09:50:e8:
                    65:1b:7c:08:49:e8:39:d9:ae:16:7f:c7:59:8c:20:
                    64:88:69:84:03:2d:87:4a:3d:52:6b:92:40:12:b1:
                    21:02:dd:57:79:5b:a1:24:70:8e:66:ed:c5:ae:9a:
                    0c:d4:5b:68:b7:ae:0e:78:c1:82:1d:e3:5c:33:1c:
                    42:3f:52:46:33:7e:e4:48:19:c4:a1:91:77:ac:cb:
                    d7:74:e4:8d:d7:91:1e:e5:d5:91:3a:d0:d7:e6:a5:
                    02:bd:0b:09:62:f3:c8:89:2a:fb:e9:e2:77:b6:91:
                    d0:84:4a:9c:05:da:fa:dd:19
                Exponent: 65537 (0x10001)
        X509v3 extensions:
            OCSP No Check: 

    Signature Algorithm: md5WithRSAEncryption
        2f:7a:f2:9f:e7:a4:de:5f:71:10:a6:fa:68:bc:67:0f:ad:57:
        44:78:70:41:99:af:a8:cc:bd:73:ef:68:a3:51:6e:39:a8:e4:
        62:0a:6e:6f:5c:20:36:e7:0e:09:40:b5:e9:29:e6:fd:ca:51:
        43:2b:8e:2d:d1:9e:c8:b3:a9:cd:02:57:31:c1:47:fa:a8:01:
        0e:b8:ee:4a:dc:f8:b9:e4:5b:7d:17:25:2e:57:53:2d:d8:9e:
        49:56:e8:eb:b0:9f:b0:f4:9f:1c:03:26:ba:42:63:89:4a:2d:
        e2:50:18:4d:88:59:09:16:82:df:e0:3a:38:5b:c6:d1:64:80:
        30:3f
-----BEGIN CERTIFICATE-----
MIIB5zCCAVCgAwIBAgIBBjANBgkqhkiG9w0BAQQFADAwMRQwEgYDVQQKEwtTeW1i
aWFuIEx0ZDEYMBYGA1UEAxMPVE9DU1AtUm9vdDUtUlNBMB4XDTA0MDMwMTE2Mzcy
M1oXDTE0MDIyNzE2MzcyM1owLjEUMBIGA1UEChMLU3ltYmlhbiBMdGQxFjAUBgNV
BAMTDU9DU1BTaWduZXItUjEwgZ8wDQYJKoZIhvcNAQEBBQADgY0AMIGJAoGBANYw
4XEFpPahtPZsCVDoZRt8CEnoOdmuFn/HWYwgZIhphAMth0o9UmuSQBKxIQLdV3lb
oSRwjmbtxa6aDNRbaLeuDnjBgh3jXDMcQj9SRjN+5EgZxKGRd6zL13TkjdeRHuXV
kTrQ1+alAr0LCWLzyIkq++nid7aR0IRKnAXa+t0ZAgMBAAGjEzARMA8GCSsGAQUF
BzABBQQCBQAwDQYJKoZIhvcNAQEEBQADgYEAL3ryn+ek3l9xEKb6aLxnD61XRHhw
QZmvqMy9c+9oo1FuOajkYgpub1wgNucOCUC16Snm/cpRQyuOLdGeyLOpzQJXMcFH
+qgBDrjuStz4ueRbfRclLldTLdieSVbo67CfsPSfHAMmukJjiUot4lAYTYhZCRaC
3+A6OFvG0WSAMD8=
-----END CERTIFICATE-----
