EXPORTS
	_ZN13ContentAccess10CAttribute4GetLEv @ 1 NONAME
	_ZN13ContentAccess10CAttribute5ResetEv @ 2 NONAME
	_ZN13ContentAccess10CAttribute8QuerySetEv @ 3 NONAME
	_ZN13ContentAccess5CData13ExecuteIntentENS_7TIntentE @ 4 NONAME
	_ZN13ContentAccess5CData14EvaluateIntentENS_7TIntentE @ 5 NONAME
	_ZN13ContentAccess5CData7SetQosLENS_13TQosAttributeEi @ 6 NONAME
	_ZN13ContentAccess5CData9DataSizeLERi @ 7 NONAME
	_ZN13ContentAccess8CContent12OpenContentLENS_7TIntentE @ 8 NONAME
	_ZN13ContentAccess8CContent13NewAttributeLEi @ 9 NONAME
	_ZN13ContentAccess8CContent4NewLERK7TDesC16 @ 10 NONAME
	_ZN13ContentAccess8CContent5NewLCERK7TDesC16 @ 11 NONAME
	_ZNK13ContentAccess10CAttribute11ResponseSetEv @ 12 NONAME
	_ZNK13ContentAccess5CData4ReadER5TDes8 @ 13 NONAME
	_ZNK13ContentAccess5CData4ReadER5TDes8R14TRequestStatus @ 14 NONAME
	_ZNK13ContentAccess5CData4ReadER5TDes8i @ 15 NONAME
	_ZNK13ContentAccess5CData4ReadER5TDes8iR14TRequestStatus @ 16 NONAME
	_ZNK13ContentAccess5CData4SeekE5TSeekRi @ 17 NONAME
	_ZN13ContentAccess11CImportFile17WriteDataCompleteER14TRequestStatus @ 18 NONAME
	_ZN13ContentAccess11CImportFile17WriteDataCompleteEv @ 19 NONAME
	_ZN13ContentAccess11CImportFile9WriteDataERK6TDesC8 @ 20 NONAME
	_ZN13ContentAccess11CImportFile9WriteDataERK6TDesC8R14TRequestStatus @ 21 NONAME
	_ZN13ContentAccess14CAgentResolver12DoRecognizeLERK7TDesC16RK6TDesC8R5TDes8S8_ @ 22 NONAME
	_ZN13ContentAccess14CAgentResolver19PreferredBufferSizeEv @ 23 NONAME
	_ZN13ContentAccess14CAgentResolver4NewLEi @ 24 NONAME
	_ZN13ContentAccess14CAgentResolver5NewLCEi @ 25 NONAME
	_ZN13ContentAccess19CSupplierOutputFile11AttributesLEi @ 26 NONAME
	_ZN13ContentAccess19CSupplierOutputFile4NewLERK7TDesC16NS_11TOutputTypeE @ 27 NONAME
	_ZN13ContentAccess19CSupplierOutputFile9MimeTypeLEv @ 28 NONAME
	_ZN13ContentAccess8CManager11DeleteFileLERK7TDesC16 @ 29 NONAME
	_ZN13ContentAccess9CSupplier11ImportFileLERNS_14CCafMimeHeaderERK7TDesC16 @ 30 NONAME
	_ZN13ContentAccess9CSupplier17IsImportSupportedERK6TDesC8 @ 31 NONAME
	_ZN13ContentAccess9CSupplier19SetOutputDirectoryLERK7TDesC16 @ 32 NONAME
	_ZN13ContentAccess9CSupplier4NewLEv @ 33 NONAME
	_ZN13ContentAccess9CSupplier5NewLCEv @ 34 NONAME
	_ZNK13ContentAccess11CImportFile11OutputFileLEi @ 35 NONAME
	_ZNK13ContentAccess11CImportFile16OutputFileCountLEv @ 36 NONAME
	_ZNK13ContentAccess14CAgentResolver17ConsumerMimeTypesEv @ 37 NONAME
	_ZNK13ContentAccess14CAgentResolver17SupplierMimeTypesEv @ 38 NONAME
	_ZNK13ContentAccess19CSupplierOutputFile10OutputTypeEv @ 39 NONAME
	_ZNK13ContentAccess19CSupplierOutputFile8FileNameEv @ 40 NONAME
	_ZNK13ContentAccess5CData12GetMimeTypeLER5TDes8 @ 41 NONAME
	_ZN13ContentAccess8CContent12OpenContentLENS_7TIntentENS_17TContentShareModeE @ 42 NONAME
	_ZN13ContentAccess8CContent13NewAttributeLEiNS_17TContentShareModeE @ 43 NONAME
	_ZTIN13ContentAccess10CAgentInfoE @ 44 NONAME ; #<TI>#
	_ZTIN13ContentAccess10CAttributeE @ 45 NONAME ; #<TI>#
	_ZTIN13ContentAccess11CImportFileE @ 46 NONAME ; #<TI>#
	_ZTIN13ContentAccess14CAgentResolverE @ 47 NONAME ; #<TI>#
	_ZTIN13ContentAccess19CSupplierOutputFileE @ 48 NONAME ; #<TI>#
	_ZTIN13ContentAccess5CDataE @ 49 NONAME ; #<TI>#
	_ZTIN13ContentAccess8CContentE @ 50 NONAME ; #<TI>#
	_ZTIN13ContentAccess9CSupplierE @ 51 NONAME ; #<TI>#
	_ZTVN13ContentAccess10CAgentInfoE @ 52 NONAME ; #<VT>#
	_ZTVN13ContentAccess10CAttributeE @ 53 NONAME ; #<VT>#
	_ZTVN13ContentAccess11CImportFileE @ 54 NONAME ; #<VT>#
	_ZTVN13ContentAccess14CAgentResolverE @ 55 NONAME ; #<VT>#
	_ZTVN13ContentAccess19CSupplierOutputFileE @ 56 NONAME ; #<VT>#
	_ZTVN13ContentAccess5CDataE @ 57 NONAME ; #<VT>#
	_ZTVN13ContentAccess8CContentE @ 58 NONAME ; #<VT>#
	_ZTVN13ContentAccess9CSupplierE @ 59 NONAME ; #<VT>#
	_ZN13ContentAccess8CContent4NewLER5RFile @ 60 NONAME
	_ZN13ContentAccess8CContent5NewLCER5RFile @ 61 NONAME
	_ZN13ContentAccess11CImportFile25ContinueWithNewOutputFileER5RFileRK7TDesC16 @ 62 NONAME
	_ZN13ContentAccess11CImportFile25ContinueWithNewOutputFileER5RFileRK7TDesC16R14TRequestStatus @ 63 NONAME
	_ZN13ContentAccess11CImportFile26GetSuggestedOutputFileNameER6TDes16 @ 64 NONAME
	_ZN13ContentAccess11CImportFile31GetSuggestedOutputFileExtensionER6TDes16 @ 65 NONAME
	_ZN13ContentAccess13CAgentFactoryD0Ev @ 66 NONAME
	_ZN13ContentAccess13CAgentFactoryD1Ev @ 67 NONAME
	_ZN13ContentAccess13CAgentFactoryD2Ev @ 68 NONAME
	_ZN13ContentAccess14CRightsManager11SetPropertyENS_14TAgentPropertyEi @ 69 NONAME
	_ZN13ContentAccess14CRightsManager18DeleteRightsObjectERKNS_11CRightsInfoE @ 70 NONAME
	_ZN13ContentAccess14CRightsManager22DeleteAllRightsObjectsERKNS_15TVirtualPathPtrE @ 71 NONAME
	_ZN13ContentAccess19CSupplierOutputFile4NewLER11RReadStream @ 72 NONAME
	_ZN13ContentAccess19CSupplierOutputFile4NewLERK7TDesC16NS_11TOutputTypeERK6TDesC8 @ 73 NONAME
	_ZN13ContentAccess5CData11SetPropertyENS_14TAgentPropertyEi @ 74 NONAME
	_ZN13ContentAccess8CContent11SetPropertyENS_14TAgentPropertyEi @ 75 NONAME
	_ZN13ContentAccess8CContent12OpenContentLENS_7TIntentERK7TDesC16 @ 76 NONAME
	_ZN13ContentAccess8CContent13OpenContainerERK7TDesC16 @ 77 NONAME
	_ZN13ContentAccess8CContent13RequestRightsER14TRequestStatus @ 78 NONAME
	_ZN13ContentAccess8CContent13RequestRightsER14TRequestStatusRK7TDesC16 @ 79 NONAME
	_ZN13ContentAccess8CContent14CloseContainerEv @ 80 NONAME
	_ZN13ContentAccess8CContent18NotifyStatusChangeENS_10TEventMaskER14TRequestStatus @ 81 NONAME
	_ZN13ContentAccess8CContent18NotifyStatusChangeENS_10TEventMaskER14TRequestStatusRK7TDesC16 @ 82 NONAME
	_ZN13ContentAccess8CContent19CancelRequestRightsER14TRequestStatus @ 83 NONAME
	_ZN13ContentAccess8CContent19CancelRequestRightsER14TRequestStatusRK7TDesC16 @ 84 NONAME
	_ZN13ContentAccess8CContent20AgentSpecificCommandEiRK6TDesC8R5TDes8 @ 85 NONAME
	_ZN13ContentAccess8CContent20AgentSpecificCommandEiRK6TDesC8R5TDes8R14TRequestStatus @ 86 NONAME
	_ZN13ContentAccess8CContent24CancelNotifyStatusChangeER14TRequestStatus @ 87 NONAME
	_ZN13ContentAccess8CContent24CancelNotifyStatusChangeER14TRequestStatusRK7TDesC16 @ 88 NONAME
	_ZN13ContentAccess8CContent4NewLERK7TDesC16NS_17TContentShareModeE @ 89 NONAME
	_ZN13ContentAccess8CContent5NewLCERK7TDesC16NS_17TContentShareModeE @ 90 NONAME
	_ZN13ContentAccess8CContent6SearchERNS_19RStreamablePtrArrayINS_15CEmbeddedObjectEEERK6TDesC8i @ 91 NONAME
	_ZN13ContentAccess8CManager11ListAgentsLER6RArrayINS_6TAgentEE @ 92 NONAME
	_ZN13ContentAccess8CManager11SetPropertyENS_14TAgentPropertyEi @ 93 NONAME
	_ZN13ContentAccess8CManager12DisplayInfoLENS_12TDisplayInfoERKNS_15TVirtualPathPtrE @ 94 NONAME
	_ZN13ContentAccess8CManager18NotifyStatusChangeERK7TDesC16NS_10TEventMaskER14TRequestStatus @ 95 NONAME
	_ZN13ContentAccess8CManager20AgentSpecificCommandERNS_6TAgentEiRK6TDesC8R5TDes8 @ 96 NONAME
	_ZN13ContentAccess8CManager20AgentSpecificCommandERNS_6TAgentEiRK6TDesC8R5TDes8R14TRequestStatus @ 97 NONAME
	_ZN13ContentAccess8CManager22DisplayManagementInfoLERNS_6TAgentE @ 98 NONAME
	_ZN13ContentAccess8CManager24CancelNotifyStatusChangeERK7TDesC16R14TRequestStatus @ 99 NONAME
	_ZN13ContentAccess8CManager4NewLEv @ 100 NONAME
	_ZN13ContentAccess8CManager5NewLCEv @ 101 NONAME
	_ZN13ContentAccess9CSupplier11ImportFileLERK6TDesC8RKNS_14CMetaDataArrayE @ 102 NONAME
	_ZN13ContentAccess9CSupplier11ImportFileLERK6TDesC8RKNS_14CMetaDataArrayERK7TDesC16 @ 103 NONAME
	_ZNK13ContentAccess11CImportFile15GetImportStatusEv @ 104 NONAME
	_ZNK13ContentAccess14CRightsManager11ListRightsLERNS_19RStreamablePtrArrayINS_11CRightsInfoEEERK7TDesC16 @ 105 NONAME
	_ZNK13ContentAccess14CRightsManager11ListRightsLERNS_19RStreamablePtrArrayINS_11CRightsInfoEEERNS_15TVirtualPathPtrE @ 106 NONAME
	_ZNK13ContentAccess14CRightsManager12ListContentLERNS_19RStreamablePtrArrayINS_12CVirtualPathEEERNS_11CRightsInfoE @ 107 NONAME
	_ZNK13ContentAccess14CRightsManager14GetRightsDataLERKNS_11CRightsInfoE @ 108 NONAME
	_ZNK13ContentAccess14CRightsManager14ListAllRightsLERNS_19RStreamablePtrArrayINS_11CRightsInfoEEE @ 109 NONAME
	_ZNK13ContentAccess19CSupplierOutputFile12ExternalizeLER12RWriteStream @ 110 NONAME
	_ZNK13ContentAccess5CData12GetAttributeEiRi @ 111 NONAME
	_ZNK13ContentAccess5CData15GetAttributeSetERNS_13RAttributeSetE @ 112 NONAME
	_ZNK13ContentAccess5CData18GetStringAttributeEiR6TDes16 @ 113 NONAME
	_ZNK13ContentAccess5CData21GetStringAttributeSetERNS_19RStringAttributeSetE @ 114 NONAME
	_ZNK13ContentAccess6TAgent4NameEv @ 115 NONAME
	_ZNK13ContentAccess8CContent12DisplayInfoLENS_12TDisplayInfoE @ 116 NONAME
	_ZNK13ContentAccess8CContent12DisplayInfoLENS_12TDisplayInfoERK7TDesC16 @ 117 NONAME
	_ZNK13ContentAccess8CContent12GetAttributeEiRi @ 118 NONAME
	_ZNK13ContentAccess8CContent12GetAttributeEiRiRK7TDesC16 @ 119 NONAME
	_ZNK13ContentAccess8CContent15GetAttributeSetERNS_13RAttributeSetE @ 120 NONAME
	_ZNK13ContentAccess8CContent15GetAttributeSetERNS_13RAttributeSetERK7TDesC16 @ 121 NONAME
	_ZNK13ContentAccess8CContent18GetStringAttributeEiR6TDes16 @ 122 NONAME
	_ZNK13ContentAccess8CContent18GetStringAttributeEiR6TDes16RK7TDesC16 @ 123 NONAME
	_ZNK13ContentAccess8CContent19GetEmbeddedObjectsLERNS_19RStreamablePtrArrayINS_15CEmbeddedObjectEEE @ 124 NONAME
	_ZNK13ContentAccess8CContent19GetEmbeddedObjectsLERNS_19RStreamablePtrArrayINS_15CEmbeddedObjectEEENS_13TEmbeddedTypeE @ 125 NONAME
	_ZNK13ContentAccess8CContent21GetStringAttributeSetERNS_19RStringAttributeSetE @ 126 NONAME
	_ZNK13ContentAccess8CContent21GetStringAttributeSetERNS_19RStringAttributeSetERK7TDesC16 @ 127 NONAME
	_ZNK13ContentAccess8CContent5AgentEv @ 128 NONAME
	_ZNK13ContentAccess8CManager10DeleteFileERK7TDesC16 @ 129 NONAME
	_ZNK13ContentAccess8CManager10RenameFileERK7TDesC16S3_ @ 130 NONAME
	_ZNK13ContentAccess8CManager12GetAttributeEiRiRKNS_15TVirtualPathPtrE @ 131 NONAME
	_ZNK13ContentAccess8CManager15GetAttributeSetERNS_13RAttributeSetERKNS_15TVirtualPathPtrE @ 132 NONAME
	_ZNK13ContentAccess8CManager18GetStringAttributeEiR6TDes16RKNS_15TVirtualPathPtrE @ 133 NONAME
	_ZNK13ContentAccess8CManager20CreateRightsManagerLERNS_6TAgentE @ 134 NONAME
	_ZNK13ContentAccess8CManager21GetStringAttributeSetERNS_19RStringAttributeSetERKNS_15TVirtualPathPtrE @ 135 NONAME
	_ZNK13ContentAccess8CManager5MkDirERK7TDesC16 @ 136 NONAME
	_ZNK13ContentAccess8CManager5RmDirERK7TDesC16 @ 137 NONAME
	_ZNK13ContentAccess8CManager6GetDirERK7TDesC16RK8TUidTypejRP4CDir @ 138 NONAME
	_ZNK13ContentAccess8CManager6GetDirERK7TDesC16jjRP4CDir @ 139 NONAME
	_ZNK13ContentAccess8CManager6GetDirERK7TDesC16jjRP4CDirS6_ @ 140 NONAME
	_ZNK13ContentAccess8CManager8CopyFileERK7TDesC16S3_ @ 141 NONAME
	_ZNK13ContentAccess8CManager8MkDirAllERK7TDesC16 @ 142 NONAME
	_ZTIN13ContentAccess13CAgentFactoryE @ 143 NONAME ; #<TI>#
	_ZTIN13ContentAccess14CRightsManagerE @ 144 NONAME ; #<TI>#
	_ZTIN13ContentAccess8CManagerE @ 145 NONAME ; #<TI>#
	_ZTVN13ContentAccess13CAgentFactoryE @ 146 NONAME ; #<VT>#
	_ZTVN13ContentAccess14CRightsManagerE @ 147 NONAME ; #<VT>#
	_ZTVN13ContentAccess8CManagerE @ 148 NONAME ; #<VT>#
	_ZNK13ContentAccess9CSupplier25PrepareHTTPRequestHeadersER11RStringPoolR12RHTTPHeaders @ 149 NONAME
	_ZN13ContentAccess5CData4NewLER5RFileRK7TDesC16NS_7TIntentE @ 150 NONAME
	_ZN13ContentAccess5CData4NewLERKNS_15TVirtualPathPtrENS_7TIntentENS_17TContentShareModeE @ 151 NONAME
	_ZN13ContentAccess5CData5NewLCER5RFileRK7TDesC16NS_7TIntentE @ 152 NONAME
	_ZN13ContentAccess5CData5NewLCERKNS_15TVirtualPathPtrENS_7TIntentENS_17TContentShareModeE @ 153 NONAME
	_ZN13ContentAccess8CContent13OpenContentLCENS_7TIntentE @ 154 NONAME
	_ZN13ContentAccess8CContent13OpenContentLCENS_7TIntentERK7TDesC16 @ 155 NONAME
	_ZNK13ContentAccess8CManager9RenameDirERK7TDesC16S3_ @ 156 NONAME
	_ZTIN13ContentAccess13CAgentManagerE @ 157 NONAME ; #<TI>#
	_ZTVN13ContentAccess13CAgentManagerE @ 158 NONAME ; #<VT>#
	_ZN13ContentAccess13CAgentManager9RenameDirERK7TDesC16S3_ @ 159 NONAME
	_ZN13ContentAccess11CImportFile6CancelEv @ 160 NONAME
	_ZN13ContentAccess16CAgentImportFile6CancelEv @ 161 NONAME
	_ZTIN13ContentAccess16CAgentImportFileE @ 162 NONAME ; #<TI>#
	_ZTVN13ContentAccess16CAgentImportFileE @ 163 NONAME ; #<VT>#
	_ZN13ContentAccess5CData4NewLER5RFileRK7TDesC16 @ 164 NONAME
	_ZN13ContentAccess5CData4NewLERKNS_15TVirtualPathPtrENS_17TContentShareModeE @ 165 NONAME
	_ZN13ContentAccess5CData5NewLCER5RFileRK7TDesC16 @ 166 NONAME
	_ZN13ContentAccess5CData5NewLCERKNS_15TVirtualPathPtrENS_17TContentShareModeE @ 167 NONAME
	_ZN13ContentAccess13CAgentManager8CopyFileER5RFileRK7TDesC16 @ 168 NONAME
	_ZNK13ContentAccess8CManager8CopyFileER5RFileRK7TDesC16 @ 169 NONAME
	_ZN13ContentAccess10CAgentData4ReadEiR5TDes8iR14TRequestStatus @ 170 NONAME
	_ZNK13ContentAccess5CData4ReadEiR5TDes8iR14TRequestStatus @ 171 NONAME
	_ZTIN13ContentAccess10CAgentDataE @ 172 NONAME ; #<TI>#
	_ZTVN13ContentAccess10CAgentDataE @ 173 NONAME ; #<VT>#
	KCafLoadPostProductionAgents @ 174 NONAME DATA 1
	_ZNK13ContentAccess5CData10ReadCancelER14TRequestStatus @ 175 NONAME
	_ZN13ContentAccess10CAgentData10ReadCancelER14TRequestStatus @ 176 NONAME
	_ZN13ContentAccess13CAgentManager12DisplayInfoLENS_12TDisplayInfoER5RFileRK7TDesC16 @ 177 NONAME
	_ZN13ContentAccess13CAgentManager12GetAttributeEiRiR5RFileRK7TDesC16 @ 178 NONAME
	_ZN13ContentAccess13CAgentManager15GetAttributeSetERNS_13RAttributeSetER5RFileRK7TDesC16 @ 179 NONAME
	_ZN13ContentAccess13CAgentManager18GetStringAttributeEiR6TDes16R5RFileRK7TDesC16 @ 180 NONAME
	_ZN13ContentAccess13CAgentManager21GetStringAttributeSetERNS_19RStringAttributeSetER5RFileRK7TDesC16 @ 181 NONAME
	_ZN13ContentAccess14CRightsManager22DeleteAllRightsObjectsER5RFileRK7TDesC16 @ 182 NONAME
	_ZN13ContentAccess19CAgentRightsManager22DeleteAllRightsObjectsER5RFileRK7TDesC16 @ 183 NONAME
	_ZN13ContentAccess8CManager12DisplayInfoLENS_12TDisplayInfoER5RFileRK7TDesC16 @ 184 NONAME
	_ZN13ContentAccess8CManager12GetAttributeEiRiR5RFileRK7TDesC16 @ 185 NONAME
	_ZN13ContentAccess8CManager15GetAttributeSetERNS_13RAttributeSetER5RFileRK7TDesC16 @ 186 NONAME
	_ZN13ContentAccess8CManager18GetStringAttributeEiR6TDes16R5RFileRK7TDesC16 @ 187 NONAME
	_ZN13ContentAccess8CManager21GetStringAttributeSetERNS_19RStringAttributeSetER5RFileRK7TDesC16 @ 188 NONAME
	_ZNK13ContentAccess14CRightsManager11ListRightsLERNS_19RStreamablePtrArrayINS_11CRightsInfoEEER5RFileRK7TDesC16 @ 189 NONAME
	_ZNK13ContentAccess19CAgentRightsManager11ListRightsLERNS_19RStreamablePtrArrayINS_11CRightsInfoEEER5RFileRK7TDesC16 @ 190 NONAME
	_ZTIN13ContentAccess19CAgentRightsManagerE @ 191 NONAME
	_ZTVN13ContentAccess19CAgentRightsManagerE @ 192 NONAME
	_ZN13ContentAccess11CImportFile16ContentMimeTypeLER5TDes8 @ 193 NONAME
	_ZN13ContentAccess16CAgentImportFile16ContentMimeTypeLER5TDes8 @ 194 NONAME

