EXPORTS
	_ZN13ContentAccess7CBitset12InternalizeLER11RReadStream @ 1 NONAME
	_ZN13ContentAccess7CBitset3SetEi @ 2 NONAME
	_ZN13ContentAccess7CBitset4NewLERKS0_ @ 3 NONAME
	_ZN13ContentAccess7CBitset4NewLEi @ 4 NONAME
	_ZN13ContentAccess7CBitset5NewLCERKS0_ @ 5 NONAME
	_ZN13ContentAccess7CBitset5NewLCEi @ 6 NONAME
	_ZN13ContentAccess7CBitset5ResetEv @ 7 NONAME
	_ZN13ContentAccess7CBitset5UnsetEi @ 8 NONAME
	_ZN13ContentAccess7CBitset6InvertEv @ 9 NONAME
	_ZN13ContentAccess7CBitset6SetAllEv @ 10 NONAME
	_ZN13ContentAccess7CBitset8SetListLEiz @ 11 NONAME
	_ZN13ContentAccess7CBitsetaSERKS0_ @ 12 NONAME
	_ZNK13ContentAccess7CBitset12ExternalizeLER12RWriteStream @ 13 NONAME
	_ZNK13ContentAccess7CBitset5IsSetEi @ 14 NONAME
	_ZNK13ContentAccess7CBitset7MaxBitsEv @ 15 NONAME
	_ZNK13ContentAccess7CBitset9IsSetListEiz @ 16 NONAME
	_ZNK13ContentAccess7CBitseteqERKS0_ @ 17 NONAME
	_ZN13ContentAccess14CCafMimeHeader12InternalizeLER11RReadStream @ 18 NONAME
	_ZN13ContentAccess14CCafMimeHeader19AddNonStandardMimeLERK6TDesC8S3_ @ 19 NONAME
	_ZN13ContentAccess14CCafMimeHeader20SetStandardMimeDataLERKNS_11TMimeFieldsERK6TDesC8 @ 20 NONAME
	_ZN13ContentAccess14CCafMimeHeader4NewLERK6TDesC8 @ 21 NONAME
	_ZN13ContentAccess14CCafMimeHeaderD0Ev @ 22 NONAME
	_ZN13ContentAccess14CCafMimeHeaderD1Ev @ 23 NONAME
	_ZN13ContentAccess14CCafMimeHeaderD2Ev @ 24 NONAME
	_ZNK13ContentAccess14CCafMimeHeader12ExternalizeLER12RWriteStream @ 25 NONAME
	_ZNK13ContentAccess14CCafMimeHeader16StandardMimeDataERKNS_11TMimeFieldsE @ 26 NONAME
	_ZNK13ContentAccess14CCafMimeHeader19NonStandardMimeDataEi @ 27 NONAME
	_ZNK13ContentAccess14CCafMimeHeader20NonStandardMimeCountEv @ 28 NONAME
	_ZNK13ContentAccess14CCafMimeHeader20NonStandardMimeFieldEi @ 29 NONAME
	_ZTIN13ContentAccess14CCafMimeHeaderE @ 30 NONAME ; #<TI>#
	_ZTVN13ContentAccess14CCafMimeHeaderE @ 31 NONAME ; #<VT>#
	_ZTIN13ContentAccess7CBitsetE @ 32 NONAME ; #<TI>#
	_ZTVN13ContentAccess7CBitsetE @ 33 NONAME ; #<VT>#
	_ZN13ContentAccess11CRightsInfo4NewLER11RReadStream @ 34 NONAME
	_ZN13ContentAccess11CRightsInfo4NewLERK7TDesC16S3_iNS_13TRightsStatusE @ 35 NONAME
	_ZN13ContentAccess12CVirtualPath22GetCombinedUriUniqueIdEv @ 36 NONAME
	_ZN13ContentAccess12CVirtualPath4NewLER11RReadStream @ 37 NONAME
	_ZN13ContentAccess12CVirtualPath4NewLERK7TDesC16 @ 38 NONAME
	_ZN13ContentAccess12CVirtualPath4NewLERK7TDesC16S3_ @ 39 NONAME
	_ZN13ContentAccess12CVirtualPath4NewLERKNS_15TVirtualPathPtrE @ 40 NONAME
	_ZN13ContentAccess13RAttributeSet12InternalizeLER11RReadStream @ 41 NONAME
	_ZN13ContentAccess13RAttributeSet4AddLEi @ 42 NONAME
	_ZN13ContentAccess13RAttributeSet5CloseEv @ 43 NONAME
	_ZN13ContentAccess13RAttributeSet8SetValueEiii @ 44 NONAME
	_ZN13ContentAccess13RAttributeSetC1Ev @ 45 NONAME
	_ZN13ContentAccess13RAttributeSetC2Ev @ 46 NONAME
	_ZN13ContentAccess14CDirStreamable4AddLERK6TEntry @ 47 NONAME
	_ZN13ContentAccess14CDirStreamable4NewLE11RReadStream @ 48 NONAME
	_ZN13ContentAccess14CDirStreamable4NewLER4CDir @ 49 NONAME
	_ZN13ContentAccess14CDirStreamable4NewLEv @ 50 NONAME
	_ZN13ContentAccess14CDirStreamable4SortEj @ 51 NONAME
	_ZN13ContentAccess14CMetaDataArray4AddLERK6TDesC8S3_ @ 52 NONAME
	_ZN13ContentAccess14CMetaDataArray4AddLERK7TDesC16S3_ @ 53 NONAME
	_ZN13ContentAccess14CMetaDataArray4NewLER11RReadStream @ 54 NONAME
	_ZN13ContentAccess14CMetaDataArray4NewLEv @ 55 NONAME
	_ZN13ContentAccess14CMetaDataArray5NewLCEv @ 56 NONAME
	_ZN13ContentAccess15CEmbeddedObject4NewLER11RReadStream @ 57 NONAME
	_ZN13ContentAccess15CEmbeddedObject4NewLERK7TDesC16RK6TDesC8NS_13TEmbeddedTypeE @ 58 NONAME
	_ZN13ContentAccess15CEmbeddedObject4NewLERK7TDesC16S3_RK6TDesC8NS_13TEmbeddedTypeE @ 59 NONAME
	_ZN13ContentAccess15TVirtualPathPtrC1ERK7TDesC16 @ 60 NONAME
	_ZN13ContentAccess15TVirtualPathPtrC1ERK7TDesC16S3_ @ 61 NONAME
	_ZN13ContentAccess15TVirtualPathPtrC1ERKS0_ @ 62 NONAME
	_ZN13ContentAccess15TVirtualPathPtrC2ERK7TDesC16 @ 63 NONAME
	_ZN13ContentAccess15TVirtualPathPtrC2ERK7TDesC16S3_ @ 64 NONAME
	_ZN13ContentAccess15TVirtualPathPtrC2ERKS0_ @ 65 NONAME
	_ZN13ContentAccess15TVirtualPathPtraSERK7TDesC16 @ 66 NONAME
	_ZN13ContentAccess15TVirtualPathPtraSERKS0_ @ 67 NONAME
	_ZN13ContentAccess19RStringAttributeSet12InternalizeLER11RReadStream @ 68 NONAME
	_ZN13ContentAccess19RStringAttributeSet4AddLEi @ 69 NONAME
	_ZN13ContentAccess19RStringAttributeSet5CloseEv @ 70 NONAME
	_ZN13ContentAccess19RStringAttributeSet8SetValueEiRK7TDesC16i @ 71 NONAME
	_ZN13ContentAccess19RStringAttributeSetC1Ev @ 72 NONAME
	_ZN13ContentAccess19RStringAttributeSetC2Ev @ 73 NONAME
	_ZNK13ContentAccess11CRightsInfo10RightsTypeEv @ 74 NONAME
	_ZNK13ContentAccess11CRightsInfo11DescriptionEv @ 75 NONAME
	_ZNK13ContentAccess11CRightsInfo12ExternalizeLER12RWriteStream @ 76 NONAME
	_ZNK13ContentAccess11CRightsInfo12RightsStatusEv @ 77 NONAME
	_ZNK13ContentAccess11CRightsInfo8UniqueIdEv @ 78 NONAME
	_ZNK13ContentAccess12CVirtualPath12ExternalizeLER12RWriteStream @ 79 NONAME
	_ZNK13ContentAccess12CVirtualPath3URIEv @ 80 NONAME
	_ZNK13ContentAccess12CVirtualPath8UniqueIdEv @ 81 NONAME
	_ZNK13ContentAccess13RAttributeSet12ExternalizeLER12RWriteStream @ 82 NONAME
	_ZNK13ContentAccess13RAttributeSet5CountEv @ 83 NONAME
	_ZNK13ContentAccess13RAttributeSet8GetValueEiRi @ 84 NONAME
	_ZNK13ContentAccess13RAttributeSetixEi @ 85 NONAME
	_ZNK13ContentAccess14CDirStreamable12ExternalizeLER12RWriteStream @ 86 NONAME
	_ZNK13ContentAccess14CDirStreamable5CountEv @ 87 NONAME
	_ZNK13ContentAccess14CDirStreamableixEi @ 88 NONAME
	_ZNK13ContentAccess14CMetaDataArray12ExternalizeLER12RWriteStream @ 89 NONAME
	_ZNK13ContentAccess14CMetaDataArray5CountEv @ 90 NONAME
	_ZNK13ContentAccess14CMetaDataArray7SearchLERK6TDesC8i @ 91 NONAME
	_ZNK13ContentAccess14CMetaDataArray7SearchLERK7TDesC16i @ 92 NONAME
	_ZNK13ContentAccess14CMetaDataArrayixEi @ 93 NONAME
	_ZNK13ContentAccess15CEmbeddedObject12ExternalizeLER12RWriteStream @ 94 NONAME
	_ZNK13ContentAccess15CEmbeddedObject4NameEv @ 95 NONAME
	_ZNK13ContentAccess15CEmbeddedObject4TypeEv @ 96 NONAME
	_ZNK13ContentAccess15CEmbeddedObject8MimeTypeEv @ 97 NONAME
	_ZNK13ContentAccess15CEmbeddedObject8UniqueIdEv @ 98 NONAME
	_ZNK13ContentAccess15TVirtualPathPtr3URIEv @ 99 NONAME
	_ZNK13ContentAccess15TVirtualPathPtr8UniqueIdEv @ 100 NONAME
	_ZNK13ContentAccess19RStringAttributeSet12ExternalizeLER12RWriteStream @ 101 NONAME
	_ZNK13ContentAccess19RStringAttributeSet14GetValueLengthEi @ 102 NONAME
	_ZNK13ContentAccess19RStringAttributeSet5CountEv @ 103 NONAME
	_ZNK13ContentAccess19RStringAttributeSet8GetValueEiR6TDes16 @ 104 NONAME
	_ZNK13ContentAccess19RStringAttributeSetixEi @ 105 NONAME
	_ZNK13ContentAccess9CMetaData4DataEv @ 106 NONAME
	_ZNK13ContentAccess9CMetaData5Data8Ev @ 107 NONAME
	_ZNK13ContentAccess9CMetaData5FieldEv @ 108 NONAME
	_ZNK13ContentAccess9CMetaData6Field8Ev @ 109 NONAME
	_ZTIN13ContentAccess11CRightsInfoE @ 110 NONAME ; #<TI>#
	_ZTIN13ContentAccess12CVirtualPathE @ 111 NONAME ; #<TI>#
	_ZTIN13ContentAccess14CDirStreamableE @ 112 NONAME ; #<TI>#
	_ZTIN13ContentAccess14CMetaDataArrayE @ 113 NONAME ; #<TI>#
	_ZTIN13ContentAccess15CEmbeddedObjectE @ 114 NONAME ; #<TI>#
	_ZTIN13ContentAccess16CStringAttributeE @ 115 NONAME ; #<TI>#
	_ZTIN13ContentAccess9CMetaDataE @ 116 NONAME ; #<TI>#
	_ZTVN13ContentAccess11CRightsInfoE @ 117 NONAME ; #<VT>#
	_ZTVN13ContentAccess12CVirtualPathE @ 118 NONAME ; #<VT>#
	_ZTVN13ContentAccess14CDirStreamableE @ 119 NONAME ; #<VT>#
	_ZTVN13ContentAccess14CMetaDataArrayE @ 120 NONAME ; #<VT>#
	_ZTVN13ContentAccess15CEmbeddedObjectE @ 121 NONAME ; #<VT>#
	_ZTVN13ContentAccess16CStringAttributeE @ 122 NONAME ; #<VT>#
	_ZTVN13ContentAccess9CMetaDataE @ 123 NONAME ; #<VT>#

