EXPORTS
	_ZN12StreamAccess18CTestKeyStreamSink23SetEncryptionAlgorithmLERKNS_20TEncryptionAlgorithmE @ 1 NONAME
	_ZN12StreamAccess18CTestKeyStreamSink25ProcessNewKeyAssociationLERKNS_15CKeyAssociationE @ 2 NONAME
	_ZN12StreamAccess18CTestKeyStreamSink27SetAuthenticationAlgorithmLERKNS_24TAuthenticationAlgorithmE @ 3 NONAME
	_ZN12StreamAccess18CTestKeyStreamSink4NewLER11RReadStream @ 4 NONAME
	_ZN12StreamAccess18CTestKeyStreamSink4NewLERK7TDesC16 @ 5 NONAME
	_ZN12StreamAccess18CTestKeyStreamSinkD0Ev @ 6 NONAME
	_ZN12StreamAccess18CTestKeyStreamSinkD1Ev @ 7 NONAME
	_ZN12StreamAccess18CTestKeyStreamSinkD2Ev @ 8 NONAME
	_ZN12StreamAccess19CTestKeyAssociation4NewLER11RReadStream @ 9 NONAME
	_ZN12StreamAccess19CTestKeyAssociation4NewLERK6TDesC8 @ 10 NONAME
	_ZN12StreamAccess19CTestKeyAssociationD0Ev @ 11 NONAME
	_ZN12StreamAccess19CTestKeyAssociationD1Ev @ 12 NONAME
	_ZN12StreamAccess19CTestKeyAssociationD2Ev @ 13 NONAME
	_ZN12StreamAccess24CTestProtectedStreamDesc4NewLERK7TDesC16 @ 14 NONAME
	_ZN12StreamAccess24CTestProtectedStreamDescD0Ev @ 15 NONAME
	_ZN12StreamAccess24CTestProtectedStreamDescD1Ev @ 16 NONAME
	_ZN12StreamAccess24CTestProtectedStreamDescD2Ev @ 17 NONAME
	_ZN12StreamAccess26CTestAgentKeyStreamDecoder13GetAttributeLERKNS_10TAttributeERi @ 18 NONAME
	_ZN12StreamAccess26CTestAgentKeyStreamDecoder20GetStringAttributeLCERKNS_16TStringAttributeE @ 19 NONAME
	_ZN12StreamAccess26CTestAgentKeyStreamDecoder22GetPostDeliveryRightsLER5RFileR5TDes8S4_S4_ @ 20 NONAME
	_ZN12StreamAccess26CTestAgentKeyStreamDecoder4NewLERKNS_14CKeyStreamSinkERK14CSdpMediaFieldRK12CSdpDocument @ 21 NONAME
	_ZN12StreamAccess26CTestAgentKeyStreamDecoder5NewLCERKNS_14CKeyStreamSinkERK14CSdpMediaFieldRK12CSdpDocument @ 22 NONAME
	_ZN12StreamAccess34CTestSingleProcessKeyStreamDecoder13GetAttributeLERKNS_10TAttributeERi @ 23 NONAME
	_ZN12StreamAccess34CTestSingleProcessKeyStreamDecoder20GetStringAttributeLCERKNS_16TStringAttributeE @ 24 NONAME
	_ZN12StreamAccess34CTestSingleProcessKeyStreamDecoder22GetPostDeliveryRightsLER5RFileR5TDes8S4_S4_ @ 25 NONAME
	_ZN12StreamAccess34CTestSingleProcessKeyStreamDecoder4NewLERKNS_14CKeyStreamSinkERK14CSdpMediaFieldRK12CSdpDocument @ 26 NONAME
	_ZN12StreamAccess34CTestSingleProcessKeyStreamDecoder5NewLCERKNS_14CKeyStreamSinkERK14CSdpMediaFieldRK12CSdpDocument @ 27 NONAME
	_ZNK12StreamAccess18CTestKeyStreamSink14DoExternalizeLER12RWriteStream @ 28 NONAME
	_ZNK12StreamAccess18CTestKeyStreamSink7CloneLCEv @ 29 NONAME
	_ZNK12StreamAccess19CTestKeyAssociation10GetTestKeyEv @ 30 NONAME
	_ZNK12StreamAccess19CTestKeyAssociation12ExternalizeLER12RWriteStream @ 31 NONAME
	_ZNK12StreamAccess24CTestProtectedStreamDesc21CreateKeyStreamSinkLCEv @ 32 NONAME
	_ZNK12StreamAccess26CTestAgentKeyStreamDecoder14SendKeyStreamLERK6TDesC8 @ 33 NONAME
	_ZNK12StreamAccess26CTestAgentKeyStreamDecoder21SendIpSecAssociationLElP6HBufC8S2_ @ 34 NONAME
	_ZNK12StreamAccess34CTestSingleProcessKeyStreamDecoder14SendKeyStreamLERK6TDesC8 @ 35 NONAME
	_ZNK12StreamAccess34CTestSingleProcessKeyStreamDecoder21SendIpSecAssociationLElP6HBufC8S2_ @ 36 NONAME

