EXPORTS
	KCafLoadPostProductionAgents @ 1 NONAME DATA 1
	_ZN12StreamAccess14CKeyStreamSink13InternalizeLCERK6TDesC8 @ 2 NONAME
	_ZN12StreamAccess15CKeyAssociationD0Ev @ 3 NONAME
	_ZN12StreamAccess15CKeyAssociationD1Ev @ 4 NONAME
	_ZN12StreamAccess15CKeyAssociationD2Ev @ 5 NONAME
	_ZN12StreamAccess17CKeyStreamDecoder4NewLERKNS_20CProtectedStreamDescERK14CSdpMediaFieldRK12CSdpDocument @ 6 NONAME
	_ZN12StreamAccess17CKeyStreamDecoder5NewLCERKNS_20CProtectedStreamDescERK14CSdpMediaFieldRK12CSdpDocument @ 7 NONAME
	_ZN12StreamAccess19CStreamAgentFactoryC2Ev @ 8 NONAME
	_ZN12StreamAccess19CStreamAgentFactoryD0Ev @ 9 NONAME
	_ZN12StreamAccess19CStreamAgentFactoryD1Ev @ 10 NONAME
	_ZN12StreamAccess19CStreamAgentFactoryD2Ev @ 11 NONAME
	_ZN12StreamAccess20CIpSecKeyAssociation4NewLElP6HBufC8S2_ @ 12 NONAME
	_ZN12StreamAccess20CIpSecKeyAssociation5NewLCElP6HBufC8S2_ @ 13 NONAME
	_ZN12StreamAccess22CAgentKeyStreamDecoderC2Ev @ 14 NONAME
	_ZN12StreamAccess22CAgentKeyStreamDecoderD0Ev @ 15 NONAME
	_ZN12StreamAccess22CAgentKeyStreamDecoderD1Ev @ 16 NONAME
	_ZN12StreamAccess22CAgentKeyStreamDecoderD2Ev @ 17 NONAME
	_ZN12StreamAccess25CIpSecProtectedStreamDesc5NewLCERK9TInetAddrS3_ @ 18 NONAME
	_ZNK12StreamAccess14CKeyStreamSink13ExternalizeLCEv @ 19 NONAME
	_ZNK12StreamAccess17CKeyStreamDecoder13GetAttributeLERKNS_10TAttributeERi @ 20 NONAME
	_ZNK12StreamAccess17CKeyStreamDecoder20GetStringAttributeLCERKNS_16TStringAttributeE @ 21 NONAME
	_ZNK12StreamAccess17CKeyStreamDecoder21CreateImportSessionLCERK6TDesC8 @ 22 NONAME
	_ZNK12StreamAccess17CKeyStreamDecoder21CreateImportSessionLCERK6TDesC8RK7TDesC16S6_ @ 23 NONAME
	_ZNK12StreamAccess25CIpSecProtectedStreamDesc21CreateKeyStreamSinkLCEv @ 24 NONAME
	_ZTIN12StreamAccess15CKeyAssociationE @ 25 NONAME
	_ZTIN12StreamAccess16CStreamAgentInfoE @ 26 NONAME
	_ZTIN12StreamAccess17CKeyStreamDecoderE @ 27 NONAME
	_ZTIN12StreamAccess19CStreamAgentFactoryE @ 28 NONAME
	_ZTIN12StreamAccess20CStreamAgentResolverE @ 29 NONAME
	_ZTIN12StreamAccess22CAgentKeyStreamDecoderE @ 30 NONAME
	_ZTVN12StreamAccess15CKeyAssociationE @ 31 NONAME
	_ZTVN12StreamAccess16CStreamAgentInfoE @ 32 NONAME
	_ZTVN12StreamAccess17CKeyStreamDecoderE @ 33 NONAME
	_ZTVN12StreamAccess19CStreamAgentFactoryE @ 34 NONAME
	_ZTVN12StreamAccess20CStreamAgentResolverE @ 35 NONAME
	_ZTVN12StreamAccess22CAgentKeyStreamDecoderE @ 36 NONAME

