EXPORTS
	??1CCnvCharacterSetConverter@@UAE@XZ @ 1 NONAME ; public: virtual __thiscall CCnvCharacterSetConverter::~CCnvCharacterSetConverter(void)
	?ConvertCharacterSetIdentifierToMibEnumL@CCnvCharacterSetConverter@@QAEHIAAVRFs@@@Z @ 2 NONAME ; public: int __thiscall CCnvCharacterSetConverter::ConvertCharacterSetIdentifierToMibEnumL(unsigned int,class RFs &)
	?ConvertCharacterSetIdentifierToStandardNameL@CCnvCharacterSetConverter@@QAEPAVHBufC8@@IAAVRFs@@@Z @ 3 NONAME ; public: class HBufC8 * __thiscall CCnvCharacterSetConverter::ConvertCharacterSetIdentifierToStandardNameL(unsigned int,class RFs &)
	?ConvertFromUnicode@CCnvCharacterSetConverter@@QBEHAAVTDes8@@ABVTDesC16@@@Z @ 4 NONAME ; public: int __thiscall CCnvCharacterSetConverter::ConvertFromUnicode(class TDes8 &,class TDesC16 const &)const 
	?ConvertFromUnicode@CCnvCharacterSetConverter@@QBEHAAVTDes8@@ABVTDesC16@@AAH2@Z @ 5 NONAME ; public: int __thiscall CCnvCharacterSetConverter::ConvertFromUnicode(class TDes8 &,class TDesC16 const &,int &,int &)const 
	?ConvertFromUnicode@CCnvCharacterSetConverter@@QBEHAAVTDes8@@ABVTDesC16@@AAH@Z @ 6 NONAME ; public: int __thiscall CCnvCharacterSetConverter::ConvertFromUnicode(class TDes8 &,class TDesC16 const &,int &)const 
	?ConvertFromUnicodeToUtf7@CnvUtfConverter@@SAHAAVTDes8@@ABVTDesC16@@H@Z @ 7 NONAME ; public: static int __cdecl CnvUtfConverter::ConvertFromUnicodeToUtf7(class TDes8 &,class TDesC16 const &,int)
	?ConvertFromUnicodeToUtf8@CnvUtfConverter@@SAHAAVTDes8@@ABVTDesC16@@@Z @ 8 NONAME ; public: static int __cdecl CnvUtfConverter::ConvertFromUnicodeToUtf8(class TDes8 &,class TDesC16 const &)
	?ConvertMibEnumOfCharacterSetToIdentifierL@CCnvCharacterSetConverter@@QAEIHAAVRFs@@@Z @ 9 NONAME ; public: unsigned int __thiscall CCnvCharacterSetConverter::ConvertMibEnumOfCharacterSetToIdentifierL(int,class RFs &)
	?ConvertStandardNameOfCharacterSetToIdentifierL@CCnvCharacterSetConverter@@QAEIABVTDesC8@@AAVRFs@@@Z @ 10 NONAME ; public: unsigned int __thiscall CCnvCharacterSetConverter::ConvertStandardNameOfCharacterSetToIdentifierL(class TDesC8 const &,class RFs &)
	?ConvertToUnicode@CCnvCharacterSetConverter@@QBEHAAVTDes16@@ABVTDesC8@@AAH22@Z @ 11 NONAME ; public: int __thiscall CCnvCharacterSetConverter::ConvertToUnicode(class TDes16 &,class TDesC8 const &,int &,int &,int &)const 
	?ConvertToUnicode@CCnvCharacterSetConverter@@QBEHAAVTDes16@@ABVTDesC8@@AAH2@Z @ 12 NONAME ; public: int __thiscall CCnvCharacterSetConverter::ConvertToUnicode(class TDes16 &,class TDesC8 const &,int &,int &)const 
	?ConvertToUnicode@CCnvCharacterSetConverter@@QBEHAAVTDes16@@ABVTDesC8@@AAH@Z @ 13 NONAME ; public: int __thiscall CCnvCharacterSetConverter::ConvertToUnicode(class TDes16 &,class TDesC8 const &,int &)const 
	?ConvertToUnicodeFromUtf7@CnvUtfConverter@@SAHAAVTDes16@@ABVTDesC8@@AAH@Z @ 14 NONAME ; public: static int __cdecl CnvUtfConverter::ConvertToUnicodeFromUtf7(class TDes16 &,class TDesC8 const &,int &)
	?ConvertToUnicodeFromUtf8@CnvUtfConverter@@SAHAAVTDes16@@ABVTDesC8@@@Z @ 15 NONAME ; public: static int __cdecl CnvUtfConverter::ConvertToUnicodeFromUtf8(class TDes16 &,class TDesC8 const &)
	?CreateArrayOfCharacterSetsAvailableL@CCnvCharacterSetConverter@@SAPAV?$CArrayFix@USCharacterSet@CCnvCharacterSetConverter@@@@AAVRFs@@@Z @ 16 NONAME ; public: static class CArrayFix<struct CCnvCharacterSetConverter::SCharacterSet> * __cdecl CCnvCharacterSetConverter::CreateArrayOfCharacterSetsAvailableL(class RFs &)
	?CreateArrayOfCharacterSetsAvailableLC@CCnvCharacterSetConverter@@SAPAV?$CArrayFix@USCharacterSet@CCnvCharacterSetConverter@@@@AAVRFs@@@Z @ 17 NONAME ; public: static class CArrayFix<struct CCnvCharacterSetConverter::SCharacterSet> * __cdecl CCnvCharacterSetConverter::CreateArrayOfCharacterSetsAvailableLC(class RFs &)
	?NewL@CCnvCharacterSetConverter@@SAPAV1@XZ @ 18 NONAME ; public: static class CCnvCharacterSetConverter * __cdecl CCnvCharacterSetConverter::NewL(void)
	?NewLC@CCnvCharacterSetConverter@@SAPAV1@XZ @ 19 NONAME ; public: static class CCnvCharacterSetConverter * __cdecl CCnvCharacterSetConverter::NewLC(void)
	?PrepareToConvertToOrFromL@CCnvCharacterSetConverter@@QAE?AW4TAvailability@1@IAAVRFs@@@Z @ 20 NONAME ; public: enum CCnvCharacterSetConverter::TAvailability  __thiscall CCnvCharacterSetConverter::PrepareToConvertToOrFromL(unsigned int,class RFs &)
	?PrepareToConvertToOrFromL@CCnvCharacterSetConverter@@QAEXIABV?$CArrayFix@USCharacterSet@CCnvCharacterSetConverter@@@@AAVRFs@@@Z @ 21 NONAME ; public: void __thiscall CCnvCharacterSetConverter::PrepareToConvertToOrFromL(unsigned int,class CArrayFix<struct CCnvCharacterSetConverter::SCharacterSet> const &,class RFs &)
	?SetDefaultEndiannessOfForeignCharacters@CCnvCharacterSetConverter@@QAEXW4TEndianness@1@@Z @ 22 NONAME ; public: void __thiscall CCnvCharacterSetConverter::SetDefaultEndiannessOfForeignCharacters(enum CCnvCharacterSetConverter::TEndianness)
	?SetReplacementForUnconvertibleUnicodeCharactersL@CCnvCharacterSetConverter@@QAEXABVTDesC8@@@Z @ 23 NONAME ; public: void __thiscall CCnvCharacterSetConverter::SetReplacementForUnconvertibleUnicodeCharactersL(class TDesC8 const &)
	?ConvertFromUnicode@CCnvCharacterSetConverter@@QBEHAAVTDes8@@ABVTDesC16@@AAVTArrayOfAscendingIndices@1@@Z @ 24 NONAME ; public: int __thiscall CCnvCharacterSetConverter::ConvertFromUnicode(class TDes8 &,class TDesC16 const &,class CCnvCharacterSetConverter::TArrayOfAscendingIndices &)const 
	?DoConvertFromUnicode@CCnvCharacterSetConverter@@SAHABUSCnvConversionData@@W4TEndianness@1@ABVTDesC8@@AAVTDes8@@ABVTDesC16@@AAVTArrayOfAscendingIndices@1@@Z @ 25 NONAME ; public: static int __cdecl CCnvCharacterSetConverter::DoConvertFromUnicode(struct SCnvConversionData const &,enum CCnvCharacterSetConverter::TEndianness,class TDesC8 const &,class TDes8 &,class TDesC16 const &,class CCnvCharacterSetConverter::TArrayOfAscendingIndices &)
	?DoConvertFromUnicode@CCnvCharacterSetConverter@@SAHABUSCnvConversionData@@W4TEndianness@1@ABVTDesC8@@AAVTDes8@@ABVTDesC16@@AAVTArrayOfAscendingIndices@1@AAII@Z @ 26 NONAME ; public: static int __cdecl CCnvCharacterSetConverter::DoConvertFromUnicode(struct SCnvConversionData const &,enum CCnvCharacterSetConverter::TEndianness,class TDesC8 const &,class TDes8 &,class TDesC16 const &,class CCnvCharacterSetConverter::TArrayOfAscendingIndices &,unsigned int &,unsigned int)
	?DoConvertToUnicode@CCnvCharacterSetConverter@@SAHABUSCnvConversionData@@W4TEndianness@1@AAVTDes16@@ABVTDesC8@@AAH4@Z @ 27 NONAME ; public: static int __cdecl CCnvCharacterSetConverter::DoConvertToUnicode(struct SCnvConversionData const &,enum CCnvCharacterSetConverter::TEndianness,class TDes16 &,class TDesC8 const &,int &,int &)
	?DoConvertToUnicode@CCnvCharacterSetConverter@@SAHABUSCnvConversionData@@W4TEndianness@1@AAVTDes16@@ABVTDesC8@@AAH4AAII@Z @ 28 NONAME ; public: static int __cdecl CCnvCharacterSetConverter::DoConvertToUnicode(struct SCnvConversionData const &,enum CCnvCharacterSetConverter::TEndianness,class TDes16 &,class TDesC8 const &,int &,int &,unsigned int &,unsigned int)
	?AsciiConversionData@CCnvCharacterSetConverter@@SAABUSCnvConversionData@@XZ @ 29 NONAME ; public: static struct SCnvConversionData const & __cdecl CCnvCharacterSetConverter::AsciiConversionData(void)
	?AppendIndex@TArrayOfAscendingIndices@CCnvCharacterSetConverter@@QAE?AW4TAppendResult@12@H@Z @ 30 NONAME ; public: enum CCnvCharacterSetConverter::TArrayOfAscendingIndices::TAppendResult  __thiscall CCnvCharacterSetConverter::TArrayOfAscendingIndices::AppendIndex(int)
	?SetDowngradeForExoticLineTerminatingCharacters@CCnvCharacterSetConverter@@QAEXW4TDowngradeForExoticLineTerminatingCharacters@1@@Z @ 31 NONAME ; public: void __thiscall CCnvCharacterSetConverter::SetDowngradeForExoticLineTerminatingCharacters(enum CCnvCharacterSetConverter::TDowngradeForExoticLineTerminatingCharacters)
	?AutoDetectCharacterSetL@CCnvCharacterSetConverter@@SAXAAHAAIABV?$CArrayFix@USCharacterSet@CCnvCharacterSetConverter@@@@ABVTDesC8@@@Z @ 32 NONAME ; public: static void __cdecl CCnvCharacterSetConverter::AutoDetectCharacterSetL(int &,unsigned int &,class CArrayFix<struct CCnvCharacterSetConverter::SCharacterSet> const &,class TDesC8 const &)	
	?ConvertibleToCharacterSetL@CCnvCharacterSetConverter@@SAXAAHIABV?$CArrayFix@USCharacterSet@CCnvCharacterSetConverter@@@@ABVTDesC8@@@Z @ 33 NONAME ; public: static void __cdecl CCnvCharacterSetConverter::ConvertibleToCharacterSetL(int &,unsigned int,class CArrayFix<struct CCnvCharacterSetConverter::SCharacterSet> const &,class TDesC8 const &)
	?ConvertFromUnicodeToUtf8L@CnvUtfConverter@@SAPAVHBufC8@@ABVTDesC16@@@Z @ 34 NONAME ; public: static class HBufC8 * __cdecl CnvUtfConverter::ConvertFromUnicodeToUtf8L(class TDesC16 const &)
	?ConvertToUnicodeFromUtf8L@CnvUtfConverter@@SAPAVHBufC16@@ABVTDesC8@@@Z @ 35 NONAME ; public: static class HBufC16 * __cdecl CnvUtfConverter::ConvertToUnicodeFromUtf8L(class TDesC8 const &)
	?ConvertFromUnicodeToUtf7L@CnvUtfConverter@@SAPAVHBufC8@@ABVTDesC16@@H@Z @ 36 NONAME ; public: static class HBufC8 * __cdecl CnvUtfConverter::ConvertFromUnicodeToUtf7L(class TDesC16 const &,int)
	?ConvertToUnicodeFromUtf7L@CnvUtfConverter@@SAPAVHBufC16@@ABVTDesC8@@@Z @ 37 NONAME ; public: static class HBufC16 * __cdecl CnvUtfConverter::ConvertToUnicodeFromUtf7L(class TDesC8 const &)
	?AutoDetectCharSetL@CCnvCharacterSetConverter@@QAEXAAHAAIABV?$CArrayFix@USCharacterSet@CCnvCharacterSetConverter@@@@ABVTDesC8@@@Z @ 38 NONAME ; void CCnvCharacterSetConverter::AutoDetectCharSetL(int &, unsigned int &, class CArrayFix<struct CCnvCharacterSetConverter::SCharacterSet> const &, class TDesC8 const &)
	?ConvertibleToCharSetL@CCnvCharacterSetConverter@@QAEXAAHIABV?$CArrayFix@USCharacterSet@CCnvCharacterSetConverter@@@@ABVTDesC8@@@Z @ 39 NONAME ; void CCnvCharacterSetConverter::ConvertibleToCharSetL(int &, unsigned int, class CArrayFix<struct CCnvCharacterSetConverter::SCharacterSet> const &, class TDesC8 const &)
	?SetMaxCacheSize@CCnvCharacterSetConverter@@QAEXH@Z @ 40 NONAME ; void CCnvCharacterSetConverter::SetMaxCacheSize(int)
	?CurrentCharacterSetConverter@TTlsData@@SAPBVCCnvCharacterSetConverter@@XZ @ 41 NONAME ; class CCnvCharacterSetConverter const * TTlsData::CurrentCharacterSetConverter(void)

