EXPORTS
	??1CPKIXCertChain@@UAE@XZ @ 1 NONAME ; public: virtual __thiscall CPKIXCertChain::~CPKIXCertChain(void)
	??1CPKIXValidationResult@@UAE@XZ @ 2 NONAME ; public: virtual __thiscall CPKIXValidationResult::~CPKIXValidationResult(void)
	?AddCertL@CPKIXCertChain@@QAEXABVTPtrC8@@@Z @ 3 NONAME ; public: void __thiscall CPKIXCertChain::AddCertL(class TPtrC8 const &)
	?ChainHasRoot@CPKIXCertChain@@QBEHXZ @ 4 NONAME ; public: int __thiscall CPKIXCertChain::ChainHasRoot(void)const 
	?Error@CPKIXValidationResult@@QBE?BVTValidationStatus@@XZ @ 5 NONAME ; public: class TValidationStatus const  __thiscall CPKIXValidationResult::Error(void)const 
	?NewL@CPKIXCertChain@@SAPAV1@AAVRFs@@ABVTPtrC8@@ABV?$RPointerArray@VCX509Certificate@@@@@Z @ 6 NONAME ; public: static class CPKIXCertChain * __cdecl CPKIXCertChain::NewL(class RFs &,class TPtrC8 const &,class RPointerArray<class CX509Certificate> const &)
	?NewL@CPKIXCertChain@@SAPAV1@AAVRFs@@ABVTPtrC8@@VTUid@@@Z @ 7 NONAME ; public: static class CPKIXCertChain * __cdecl CPKIXCertChain::NewL(class RFs &,class TPtrC8 const &,class TUid)
	?NewL@CPKIXValidationResult@@SAPAV1@XZ @ 8 NONAME ; public: static class CPKIXValidationResult * __cdecl CPKIXValidationResult::NewL(void)
	?NewLC@CPKIXCertChain@@SAPAV1@AAVRFs@@ABVTPtrC8@@ABV?$RPointerArray@VCX509Certificate@@@@@Z @ 9 NONAME ; public: static class CPKIXCertChain * __cdecl CPKIXCertChain::NewLC(class RFs &,class TPtrC8 const &,class RPointerArray<class CX509Certificate> const &)
	?NewLC@CPKIXCertChain@@SAPAV1@AAVRFs@@ABVTPtrC8@@VTUid@@@Z @ 10 NONAME ; public: static class CPKIXCertChain * __cdecl CPKIXCertChain::NewLC(class RFs &,class TPtrC8 const &,class TUid)
	?NewLC@CPKIXValidationResult@@SAPAV1@XZ @ 11 NONAME ; public: static class CPKIXValidationResult * __cdecl CPKIXValidationResult::NewLC(void)
	?Policies@CPKIXValidationResult@@QBEABV?$CArrayPtrFlat@VCX509CertPolicyInfo@@@@XZ @ 12 NONAME ; public: class CArrayPtrFlat<class CX509CertPolicyInfo> const & __thiscall CPKIXValidationResult::Policies(void)const 
	?ValidateL@CPKIXCertChain@@QAEXAAVCPKIXValidationResult@@ABVTTime@@AAVTRequestStatus@@@Z @ 13 NONAME ; public: void __thiscall CPKIXCertChain::ValidateL(class CPKIXValidationResult &,class TTime const &,class TRequestStatus &)
	?ValidateL@CPKIXCertChain@@QAEXAAVCPKIXValidationResult@@ABVTTime@@ABV?$CArrayPtr@VHBufC16@@@@AAVTRequestStatus@@@Z @ 14 NONAME ; public: void __thiscall CPKIXCertChain::ValidateL(class CPKIXValidationResult &,class TTime const &,class CArrayPtr<class HBufC16> const &,class TRequestStatus &)
	?Warnings@CPKIXValidationResult@@QBEABV?$CArrayFixFlat@VTValidationStatus@@@@XZ @ 15 NONAME ; public: class CArrayFixFlat<class TValidationStatus> const & __thiscall CPKIXValidationResult::Warnings(void)const 
	?CancelValidate@CPKIXCertChain@@QAEXXZ @ 16 NONAME ; public: void __thiscall CPKIXCertChain::CancelValidate(void)
	?AddSupportedCriticalExtensionsL@CPKIXCertChain@@QAEXABV?$RPointerArray@VTDesC16@@@@@Z @ 17 NONAME ; void CPKIXCertChain::AddSupportedCriticalExtensionsL(class RPointerArray<class TDesC16> const &)
	?RemoveSupportedCriticalExtensions@CPKIXCertChain@@QAEXABV?$RPointerArray@VTDesC16@@@@@Z @ 18 NONAME ; void CPKIXCertChain::RemoveSupportedCriticalExtensions(class RPointerArray<class TDesC16> const &)
	?ResetSupportedCriticalExtsToDefaultL@CPKIXCertChain@@QAEXXZ @ 19 NONAME ; void CPKIXCertChain::ResetSupportedCriticalExtsToDefaultL(void)
	?SetSupportedCriticalExtensionsL@CPKIXCertChain@@QAEXABV?$RPointerArray@VTDesC16@@@@@Z @ 20 NONAME ; void CPKIXCertChain::SetSupportedCriticalExtensionsL(class RPointerArray<class TDesC16> const &)
	?SetValidityPeriodCheckFatal@CPKIXCertChain@@QAEXH@Z @ 21 NONAME ; void CPKIXCertChain::SetValidityPeriodCheckFatal(int)
	?SupportedCriticalExtensions@CPKIXCertChain@@QBEABV?$RPointerArray@VTDesC16@@@@XZ @ 22 NONAME ; class RPointerArray<class TDesC16> const & CPKIXCertChain::SupportedCriticalExtensions(void) const
	?ValidationWarnings@CPKIXValidationResult@@QBEABV?$RPointerArray@VCCertificateValidationWarnings@@@@XZ @ 23 NONAME ; class RPointerArray<class CCertificateValidationWarnings> const & CPKIXValidationResult::ValidationWarnings(void) const

