EXPORTS
	??0TValidationStatus@@QAE@W4TValidationError@@H@Z @ 1 NONAME ; public: __thiscall TValidationStatus::TValidationStatus(enum TValidationError,int)
	??1CX509CertChain@@UAE@XZ @ 2 NONAME ; public: virtual __thiscall CX509CertChain::~CX509CertChain(void)
	??1CX509CertExtension@@UAE@XZ @ 3 NONAME ; public: virtual __thiscall CX509CertExtension::~CX509CertExtension(void)
	??1CX509Certificate@@UAE@XZ @ 4 NONAME ; public: virtual __thiscall CX509Certificate::~CX509Certificate(void)
	??1CX509DHPublicKey@@UAE@XZ @ 5 NONAME ; public: virtual __thiscall CX509DHPublicKey::~CX509DHPublicKey(void)
	??1CX509DomainName@@UAE@XZ @ 6 NONAME ; public: virtual __thiscall CX509DomainName::~CX509DomainName(void)
	??1CX509ExtendedKeyUsageExt@@UAE@XZ @ 7 NONAME ; public: virtual __thiscall CX509ExtendedKeyUsageExt::~CX509ExtendedKeyUsageExt(void)
	??1CX509GeneralName@@UAE@XZ @ 8 NONAME ; public: virtual __thiscall CX509GeneralName::~CX509GeneralName(void)
	??1CX509IPAddress@@UAE@XZ @ 9 NONAME ; public: virtual __thiscall CX509IPAddress::~CX509IPAddress(void)
	??1CX509IPBasedURI@@UAE@XZ @ 10 NONAME ; public: virtual __thiscall CX509IPBasedURI::~CX509IPBasedURI(void)
	??1CX509IPSubnetMask@@UAE@XZ @ 11 NONAME ; public: virtual __thiscall CX509IPSubnetMask::~CX509IPSubnetMask(void)
	??1CX509NameConstraintsExt@@UAE@XZ @ 12 NONAME ; public: virtual __thiscall CX509NameConstraintsExt::~CX509NameConstraintsExt(void)
	??1CX509PolicyConstraintsExt@@UAE@XZ @ 13 NONAME ; public: virtual __thiscall CX509PolicyConstraintsExt::~CX509PolicyConstraintsExt(void)
	??1CX509SubjectKeyIdExt@@UAE@XZ @ 14 NONAME ; public: virtual __thiscall CX509SubjectKeyIdExt::~CX509SubjectKeyIdExt(void)
	?Address@CX509IPAddress@@QBE?AVTPtrC8@@XZ @ 15 NONAME ; public: class TPtrC8  __thiscall CX509IPAddress::Address(void)const 
	?AltName@CX509AltNameExt@@QBEABV?$CArrayPtrFlat@VCX509GeneralName@@@@XZ @ 16 NONAME ; public: class CArrayPtrFlat<class CX509GeneralName> const & __thiscall CX509AltNameExt::AltName(void)const 
	?AuthorityCertSerialNumber@CX509AuthorityKeyIdExt@@QBE?AVTPtrC8@@XZ @ 17 NONAME ; public: class TPtrC8  __thiscall CX509AuthorityKeyIdExt::AuthorityCertSerialNumber(void)const 
	?AuthorityName@CX509AuthorityKeyIdExt@@QBEABV?$CArrayPtrFlat@VCX509GeneralName@@@@XZ @ 18 NONAME ; public: class CArrayPtrFlat<class CX509GeneralName> const & __thiscall CX509AuthorityKeyIdExt::AuthorityName(void)const 
	?BaseAddress@CX509IPSubnetMask@@QBE?AVTPtrC8@@XZ @ 19 NONAME ; public: class TPtrC8  __thiscall CX509IPSubnetMask::BaseAddress(void)const 
	?Cert@CX509CertChain@@QBEABVCX509Certificate@@H@Z @ 20 NONAME ; public: class CX509Certificate const & __thiscall CX509CertChain::Cert(int)const 
	?Count@CX509CertChain@@QBEHXZ @ 21 NONAME ; public: int __thiscall CX509CertChain::Count(void)const 
	?Critical@CX509CertExtension@@QBEHXZ @ 22 NONAME ; public: int __thiscall CX509CertExtension::Critical(void)const 
	?DSAParametersL@TX509KeyFactory@@UBEPAVCDSAParameters@@ABVTDesC8@@@Z @ 23 NONAME ; public: virtual class CDSAParameters * __thiscall TX509KeyFactory::DSAParametersL(class TDesC8 const &)const 
	?DSAPublicKeyL@TX509KeyFactory@@UBEPAVCDSAPublicKey@@ABVCDSAParameters@@ABVTDesC8@@@Z @ 24 NONAME ; public: virtual class CDSAPublicKey * __thiscall TX509KeyFactory::DSAPublicKeyL(class CDSAParameters const &,class TDesC8 const &)const 
	?DSASignatureL@TX509KeyFactory@@UBEPAVCDSASignature@@ABVTDesC8@@@Z @ 25 NONAME ; public: virtual class CDSASignature * __thiscall TX509KeyFactory::DSASignatureL(class TDesC8 const &)const 
	?Data@CX509CertExtension@@QBE?AVTPtrC8@@XZ @ 26 NONAME ; public: class TPtrC8  __thiscall CX509CertExtension::Data(void)const 
	?Data@CX509GeneralName@@QBE?AVTPtrC8@@XZ @ 27 NONAME ; public: class TPtrC8  __thiscall CX509GeneralName::Data(void)const 
	?Data@CX509PolicyQualifierInfo@@QBE?AVTPtrC8@@XZ @ 28 NONAME ; public: class TPtrC8  __thiscall CX509PolicyQualifierInfo::Data(void)const 
	?DataElementEncoding@CX509Certificate@@UBEPBVTPtrC8@@I@Z @ 29 NONAME ; public: virtual class TPtrC8 const * __thiscall CX509Certificate::DataElementEncoding(unsigned int)const 
	?DecodeCertsL@CX509CertChain@@QAEPAV?$CArrayPtrFlat@VCX509Certificate@@@@ABVTDesC8@@@Z @ 30 NONAME ; public: class CArrayPtrFlat<class CX509Certificate> * __thiscall CX509CertChain::DecodeCertsL(class TDesC8 const &)
	?ExactMatch@CX509GeneralName@@QBEHABV1@@Z @ 31 NONAME ; public: int __thiscall CX509GeneralName::ExactMatch(class CX509GeneralName const &)const 
	?ExcludedSubtrees@CX509NameConstraintsExt@@QBEABV?$CArrayPtrFlat@VCX509GeneralSubtree@@@@XZ @ 32 NONAME ; public: class CArrayPtrFlat<class CX509GeneralSubtree> const & __thiscall CX509NameConstraintsExt::ExcludedSubtrees(void)const 
	?ExplicitPolicyRequired@CX509PolicyConstraintsExt@@QBE?AVTX509PolicyConstraint@@XZ @ 33 NONAME ; public: class TX509PolicyConstraint  __thiscall CX509PolicyConstraintsExt::ExplicitPolicyRequired(void)const 
	?Extension@CX509Certificate@@QBEPBVCX509CertExtension@@ABVTDesC16@@@Z @ 34 NONAME ; public: class CX509CertExtension const * __thiscall CX509Certificate::Extension(class TDesC16 const &)const 
	?Extensions@CX509Certificate@@QBEABV?$CArrayPtrFlat@VCX509CertExtension@@@@XZ @ 35 NONAME ; public: class CArrayPtrFlat<class CX509CertExtension> const & __thiscall CX509Certificate::Extensions(void)const 
	?G@CX509DHDomainParams@@QBEABVTInteger@@XZ @ 36 NONAME ; public: class TInteger const & __thiscall CX509DHDomainParams::G(void)const 
	?Host@CX509IPBasedURI@@QBEABVCX509DNSName@@XZ @ 37 NONAME ; public: class CX509DNSName const & __thiscall CX509IPBasedURI::Host(void)const 
	?Id@CX509CertExtension@@QBE?AVTPtrC16@@XZ @ 38 NONAME ; public: class TPtrC16  __thiscall CX509CertExtension::Id(void)const 
	?Id@CX509CertPolicyInfo@@QBE?AVTPtrC16@@XZ @ 39 NONAME ; public: class TPtrC16  __thiscall CX509CertPolicyInfo::Id(void)const 
	?Id@CX509PolicyQualifierInfo@@QBE?AVTPtrC16@@XZ @ 40 NONAME ; public: class TPtrC16  __thiscall CX509PolicyQualifierInfo::Id(void)const 
	?InhibitPolicyMapping@CX509PolicyConstraintsExt@@QBE?AVTX509PolicyConstraint@@XZ @ 41 NONAME ; public: class TX509PolicyConstraint  __thiscall CX509PolicyConstraintsExt::InhibitPolicyMapping(void)const 
	?InternalizeL@CX509Certificate@@UAEXAAVRReadStream@@@Z @ 42 NONAME ; public: virtual void __thiscall CX509Certificate::InternalizeL(class RReadStream &)
	?IsCA@CX509BasicConstraintsExt@@QBEHXZ @ 43 NONAME ; public: int __thiscall CX509BasicConstraintsExt::IsCA(void)const 
	?IsEqualL@CX509CertChain@@QBEHABV1@@Z @ 44 NONAME ; public: int __thiscall CX509CertChain::IsEqualL(class CX509CertChain const &)const 
	?IsEqualL@CX509Certificate@@QBEHABV1@@Z @ 45 NONAME ; public: int __thiscall CX509Certificate::IsEqualL(class CX509Certificate const &)const 
	?IsSelfSignedL@CX509Certificate@@UBEHXZ @ 46 NONAME ; public: virtual int __thiscall CX509Certificate::IsSelfSignedL(void)const 
	?IsSet@CX509KeyUsageExt@@QBEHW4TX509KeyUsage@@@Z @ 47 NONAME ; public: int __thiscall CX509KeyUsageExt::IsSet(enum TX509KeyUsage)const 
	?IsWithinSubtree@CX509DomainName@@QBEHABV1@@Z @ 48 NONAME ; public: int __thiscall CX509DomainName::IsWithinSubtree(class CX509DomainName const &)const 
	?IsWithinSubtree@CX509IPAddress@@QBEHABVCX509IPSubnetMask@@@Z @ 49 NONAME ; public: int __thiscall CX509IPAddress::IsWithinSubtree(class CX509IPSubnetMask const &)const 
	?IssuerL@CX509Certificate@@UBEPAVHBufC16@@XZ @ 50 NONAME ; public: virtual class HBufC16 * __thiscall CX509Certificate::IssuerL(void)const 
	?IssuerName@CX509Certificate@@QBEABVCX500DistinguishedName@@XZ @ 51 NONAME ; public: class CX500DistinguishedName const & __thiscall CX509Certificate::IssuerName(void)const 
	?IssuerPolicy@CX509PolicyMapping@@QBE?AVTPtrC16@@XZ @ 52 NONAME ; public: class TPtrC16  __thiscall CX509PolicyMapping::IssuerPolicy(void)const 
	?J@CX509DHDomainParams@@QBEABVTInteger@@XZ @ 53 NONAME ; public: class TInteger const & __thiscall CX509DHDomainParams::J(void)const 
	?KeyId@CX509AuthorityKeyIdExt@@QBE?AVTPtrC8@@XZ @ 54 NONAME ; public: class TPtrC8  __thiscall CX509AuthorityKeyIdExt::KeyId(void)const 
	?KeyId@CX509SubjectKeyIdExt@@QBE?AVTPtrC8@@XZ @ 55 NONAME ; public: class TPtrC8  __thiscall CX509SubjectKeyIdExt::KeyId(void)const 
	?KeyUsages@CX509ExtendedKeyUsageExt@@QBEABV?$CArrayPtrFlat@VHBufC16@@@@XZ @ 56 NONAME ; public: class CArrayPtrFlat<class HBufC16> const & __thiscall CX509ExtendedKeyUsageExt::KeyUsages(void)const 
	?Mappings@CX509PolicyMappingExt@@QBEABV?$CArrayPtrFlat@VCX509PolicyMapping@@@@XZ @ 57 NONAME ; public: class CArrayPtrFlat<class CX509PolicyMapping> const & __thiscall CX509PolicyMappingExt::Mappings(void)const 
	?Mask@CX509IPSubnetMask@@QBE?AVTPtrC8@@XZ @ 58 NONAME ; public: class TPtrC8  __thiscall CX509IPSubnetMask::Mask(void)const 
	?Match@CX509AltNameExt@@QBEHABV1@@Z @ 59 NONAME ; public: int __thiscall CX509AltNameExt::Match(class CX509AltNameExt const &)const 
	?MaxChainLength@CX509BasicConstraintsExt@@QBEHXZ @ 60 NONAME ; public: int __thiscall CX509BasicConstraintsExt::MaxChainLength(void)const 
	?MaxDistance@CX509GeneralSubtree@@QBEHXZ @ 61 NONAME ; public: int __thiscall CX509GeneralSubtree::MaxDistance(void)const 
	?MinDistance@CX509GeneralSubtree@@QBEHXZ @ 62 NONAME ; public: int __thiscall CX509GeneralSubtree::MinDistance(void)const 
	?Name@CX509DomainName@@QBE?AVTPtrC16@@XZ @ 63 NONAME ; public: class TPtrC16  __thiscall CX509DomainName::Name(void)const 
	?Name@CX509GeneralSubtree@@QBEABVCX509GeneralName@@XZ @ 64 NONAME ; public: class CX509GeneralName const & __thiscall CX509GeneralSubtree::Name(void)const 
	?Name@CX509IPBasedURI@@QBE?AVTPtrC16@@XZ @ 65 NONAME ; public: class TPtrC16  __thiscall CX509IPBasedURI::Name(void)const 
	?NewL@CPKCS1SignatureResult@@SAPAV1@ABVCAlgorithmIdentifier@@ABVTDesC8@@@Z @ 66 NONAME ; public: static class CPKCS1SignatureResult * __cdecl CPKCS1SignatureResult::NewL(class CAlgorithmIdentifier const &,class TDesC8 const &)
	?NewL@CX509AlgorithmIdentifier@@SAPAV1@ABVTDesC8@@@Z @ 67 NONAME ; public: static class CX509AlgorithmIdentifier * __cdecl CX509AlgorithmIdentifier::NewL(class TDesC8 const &)
	?NewL@CX509AlgorithmIdentifier@@SAPAV1@ABVTDesC8@@AAH@Z @ 68 NONAME ; public: static class CX509AlgorithmIdentifier * __cdecl CX509AlgorithmIdentifier::NewL(class TDesC8 const &,int &)
	?NewL@CX509AltNameExt@@SAPAV1@ABVTDesC8@@@Z @ 69 NONAME ; public: static class CX509AltNameExt * __cdecl CX509AltNameExt::NewL(class TDesC8 const &)
	?NewL@CX509AltNameExt@@SAPAV1@ABVTDesC8@@AAH@Z @ 70 NONAME ; public: static class CX509AltNameExt * __cdecl CX509AltNameExt::NewL(class TDesC8 const &,int &)
	?NewL@CX509AuthorityKeyIdExt@@SAPAV1@ABVTDesC8@@@Z @ 71 NONAME ; public: static class CX509AuthorityKeyIdExt * __cdecl CX509AuthorityKeyIdExt::NewL(class TDesC8 const &)
	?NewL@CX509AuthorityKeyIdExt@@SAPAV1@ABVTDesC8@@AAH@Z @ 72 NONAME ; public: static class CX509AuthorityKeyIdExt * __cdecl CX509AuthorityKeyIdExt::NewL(class TDesC8 const &,int &)
	?NewL@CX509BasicConstraintsExt@@SAPAV1@ABVTDesC8@@@Z @ 73 NONAME ; public: static class CX509BasicConstraintsExt * __cdecl CX509BasicConstraintsExt::NewL(class TDesC8 const &)
	?NewL@CX509BasicConstraintsExt@@SAPAV1@ABVTDesC8@@AAH@Z @ 74 NONAME ; public: static class CX509BasicConstraintsExt * __cdecl CX509BasicConstraintsExt::NewL(class TDesC8 const &,int &)
	?NewL@CX509CertExtension@@SAPAV1@ABV1@@Z @ 75 NONAME ; public: static class CX509CertExtension * __cdecl CX509CertExtension::NewL(class CX509CertExtension const &)
	?NewL@CX509CertExtension@@SAPAV1@ABVTDesC8@@@Z @ 76 NONAME ; public: static class CX509CertExtension * __cdecl CX509CertExtension::NewL(class TDesC8 const &)
	?NewL@CX509CertExtension@@SAPAV1@ABVTDesC8@@AAH@Z @ 77 NONAME ; public: static class CX509CertExtension * __cdecl CX509CertExtension::NewL(class TDesC8 const &,int &)
	?NewL@CX509CertPoliciesExt@@SAPAV1@ABVTDesC8@@@Z @ 78 NONAME ; public: static class CX509CertPoliciesExt * __cdecl CX509CertPoliciesExt::NewL(class TDesC8 const &)
	?NewL@CX509CertPoliciesExt@@SAPAV1@ABVTDesC8@@AAH@Z @ 79 NONAME ; public: static class CX509CertPoliciesExt * __cdecl CX509CertPoliciesExt::NewL(class TDesC8 const &,int &)
	?NewL@CX509CertPolicyInfo@@SAPAV1@ABV1@@Z @ 80 NONAME ; public: static class CX509CertPolicyInfo * __cdecl CX509CertPolicyInfo::NewL(class CX509CertPolicyInfo const &)
	?NewL@CX509Certificate@@SAPAV1@AAVRReadStream@@@Z @ 81 NONAME ; public: static class CX509Certificate * __cdecl CX509Certificate::NewL(class RReadStream &)
	?NewL@CX509Certificate@@SAPAV1@ABV1@@Z @ 82 NONAME ; public: static class CX509Certificate * __cdecl CX509Certificate::NewL(class CX509Certificate const &)
	?NewL@CX509Certificate@@SAPAV1@ABVTDesC8@@@Z @ 83 NONAME ; public: static class CX509Certificate * __cdecl CX509Certificate::NewL(class TDesC8 const &)
	?NewL@CX509Certificate@@SAPAV1@ABVTDesC8@@AAH@Z @ 84 NONAME ; public: static class CX509Certificate * __cdecl CX509Certificate::NewL(class TDesC8 const &,int &)
	?NewL@CX509DHDomainParams@@SAPAV1@ABVTDesC8@@@Z @ 85 NONAME ; public: static class CX509DHDomainParams * __cdecl CX509DHDomainParams::NewL(class TDesC8 const &)
	?NewL@CX509DHDomainParams@@SAPAV1@ABVTDesC8@@AAH@Z @ 86 NONAME ; public: static class CX509DHDomainParams * __cdecl CX509DHDomainParams::NewL(class TDesC8 const &,int &)
	?NewL@CX509DHKeyPair@@SAPAV1@ABVTDesC8@@@Z @ 87 NONAME ; public: static class CX509DHKeyPair * __cdecl CX509DHKeyPair::NewL(class TDesC8 const &)
	?NewL@CX509DHPublicKey@@SAPAV1@ABVTDesC8@@0@Z @ 88 NONAME ; public: static class CX509DHPublicKey * __cdecl CX509DHPublicKey::NewL(class TDesC8 const &,class TDesC8 const &)
	?NewL@CX509DHValidationParams@@SAPAV1@ABVTDesC8@@@Z @ 89 NONAME ; public: static class CX509DHValidationParams * __cdecl CX509DHValidationParams::NewL(class TDesC8 const &)
	?NewL@CX509DHValidationParams@@SAPAV1@ABVTDesC8@@AAH@Z @ 90 NONAME ; public: static class CX509DHValidationParams * __cdecl CX509DHValidationParams::NewL(class TDesC8 const &,int &)
	?NewL@CX509DNSName@@SAPAV1@ABV1@@Z @ 91 NONAME ; public: static class CX509DNSName * __cdecl CX509DNSName::NewL(class CX509DNSName const &)
	?NewL@CX509DNSName@@SAPAV1@ABVTDesC16@@@Z @ 92 NONAME ; public: static class CX509DNSName * __cdecl CX509DNSName::NewL(class TDesC16 const &)
	?NewL@CX509DNSName@@SAPAV1@ABVTDesC8@@@Z @ 93 NONAME ; public: static class CX509DNSName * __cdecl CX509DNSName::NewL(class TDesC8 const &)
	?NewL@CX509DNSNameSubtree@@SAPAV1@ABVTDesC8@@@Z @ 94 NONAME ; public: static class CX509DNSNameSubtree * __cdecl CX509DNSNameSubtree::NewL(class TDesC8 const &)
	?NewL@CX509DSAPublicKey@@SAPAV1@ABVTDesC8@@0@Z @ 95 NONAME ; public: static class CX509DSAPublicKey * __cdecl CX509DSAPublicKey::NewL(class TDesC8 const &,class TDesC8 const &)
	?NewL@CX509DSAPublicKey@@SAPAV1@ABVTDesC8@@0AAH@Z @ 96 NONAME ; public: static class CX509DSAPublicKey * __cdecl CX509DSAPublicKey::NewL(class TDesC8 const &,class TDesC8 const &,int &)
	?NewL@CX509DSAPublicKey@@SAPAV1@ABVCDSAParameters@@ABVTDesC8@@@Z @ 97 NONAME ; public: static class CX509DSAPublicKey * __cdecl CX509DSAPublicKey::NewL(class CDSAParameters const &,class TDesC8 const &)
	?NewL@CX509DSAPublicKey@@SAPAV1@ABVCDSAParameters@@ABVTDesC8@@AAH@Z @ 98 NONAME ; public: static class CX509DSAPublicKey * __cdecl CX509DSAPublicKey::NewL(class CDSAParameters const &,class TDesC8 const &,int &)
	?NewL@CX509DSASignature@@SAPAV1@ABVTDesC8@@@Z @ 99 NONAME ; public: static class CX509DSASignature * __cdecl CX509DSASignature::NewL(class TDesC8 const &)
	?NewL@CX509DSASignature@@SAPAV1@ABVTDesC8@@AAH@Z @ 100 NONAME ; public: static class CX509DSASignature * __cdecl CX509DSASignature::NewL(class TDesC8 const &,int &)
	?NewL@CX509ExtendedKeyUsageExt@@SAPAV1@ABVTDesC8@@@Z @ 101 NONAME ; public: static class CX509ExtendedKeyUsageExt * __cdecl CX509ExtendedKeyUsageExt::NewL(class TDesC8 const &)
	?NewL@CX509ExtendedKeyUsageExt@@SAPAV1@ABVTDesC8@@AAH@Z @ 102 NONAME ; public: static class CX509ExtendedKeyUsageExt * __cdecl CX509ExtendedKeyUsageExt::NewL(class TDesC8 const &,int &)
	?NewL@CX509GeneralName@@SAPAV1@ABV1@@Z @ 103 NONAME ; public: static class CX509GeneralName * __cdecl CX509GeneralName::NewL(class CX509GeneralName const &)
	?NewL@CX509GeneralName@@SAPAV1@ABVTDesC8@@@Z @ 104 NONAME ; public: static class CX509GeneralName * __cdecl CX509GeneralName::NewL(class TDesC8 const &)
	?NewL@CX509GeneralName@@SAPAV1@ABVTDesC8@@AAH@Z @ 105 NONAME ; public: static class CX509GeneralName * __cdecl CX509GeneralName::NewL(class TDesC8 const &,int &)
	?NewL@CX509IPAddress@@SAPAV1@ABVTDesC8@@@Z @ 106 NONAME ; public: static class CX509IPAddress * __cdecl CX509IPAddress::NewL(class TDesC8 const &)
	?NewL@CX509IPBasedURI@@SAPAV1@ABVTDesC8@@@Z @ 107 NONAME ; public: static class CX509IPBasedURI * __cdecl CX509IPBasedURI::NewL(class TDesC8 const &)
	?NewL@CX509IPSubnetMask@@SAPAV1@ABVTDesC8@@@Z @ 108 NONAME ; public: static class CX509IPSubnetMask * __cdecl CX509IPSubnetMask::NewL(class TDesC8 const &)
	?NewL@CX509KeyUsageExt@@SAPAV1@ABVTDesC8@@@Z @ 109 NONAME ; public: static class CX509KeyUsageExt * __cdecl CX509KeyUsageExt::NewL(class TDesC8 const &)
	?NewL@CX509KeyUsageExt@@SAPAV1@ABVTDesC8@@AAH@Z @ 110 NONAME ; public: static class CX509KeyUsageExt * __cdecl CX509KeyUsageExt::NewL(class TDesC8 const &,int &)
	?NewL@CX509NameConstraintsExt@@SAPAV1@ABVTDesC8@@@Z @ 111 NONAME ; public: static class CX509NameConstraintsExt * __cdecl CX509NameConstraintsExt::NewL(class TDesC8 const &)
	?NewL@CX509NameConstraintsExt@@SAPAV1@ABVTDesC8@@AAH@Z @ 112 NONAME ; public: static class CX509NameConstraintsExt * __cdecl CX509NameConstraintsExt::NewL(class TDesC8 const &,int &)
	?NewL@CX509PolicyConstraintsExt@@SAPAV1@ABVTDesC8@@@Z @ 113 NONAME ; public: static class CX509PolicyConstraintsExt * __cdecl CX509PolicyConstraintsExt::NewL(class TDesC8 const &)
	?NewL@CX509PolicyConstraintsExt@@SAPAV1@ABVTDesC8@@AAH@Z @ 114 NONAME ; public: static class CX509PolicyConstraintsExt * __cdecl CX509PolicyConstraintsExt::NewL(class TDesC8 const &,int &)
	?NewL@CX509PolicyMapping@@SAPAV1@ABV1@@Z @ 115 NONAME ; public: static class CX509PolicyMapping * __cdecl CX509PolicyMapping::NewL(class CX509PolicyMapping const &)
	?NewL@CX509PolicyMappingExt@@SAPAV1@ABVTDesC8@@@Z @ 116 NONAME ; public: static class CX509PolicyMappingExt * __cdecl CX509PolicyMappingExt::NewL(class TDesC8 const &)
	?NewL@CX509PolicyMappingExt@@SAPAV1@ABVTDesC8@@AAH@Z @ 117 NONAME ; public: static class CX509PolicyMappingExt * __cdecl CX509PolicyMappingExt::NewL(class TDesC8 const &,int &)
	?NewL@CX509RFC822Name@@SAPAV1@ABVTDesC8@@@Z @ 118 NONAME ; public: static class CX509RFC822Name * __cdecl CX509RFC822Name::NewL(class TDesC8 const &)
	?NewL@CX509RFC822NameSubtree@@SAPAV1@ABVTDesC8@@@Z @ 119 NONAME ; public: static class CX509RFC822NameSubtree * __cdecl CX509RFC822NameSubtree::NewL(class TDesC8 const &)
	?NewL@CX509RSAPublicKey@@SAPAV1@ABVTDesC8@@@Z @ 120 NONAME ; public: static class CX509RSAPublicKey * __cdecl CX509RSAPublicKey::NewL(class TDesC8 const &)
	?NewL@CX509RSAPublicKey@@SAPAV1@ABVTDesC8@@AAH@Z @ 121 NONAME ; public: static class CX509RSAPublicKey * __cdecl CX509RSAPublicKey::NewL(class TDesC8 const &,int &)
	?NewL@CX509SigningAlgorithmIdentifier@@SAPAV1@ABVTDesC8@@@Z @ 122 NONAME ; public: static class CX509SigningAlgorithmIdentifier * __cdecl CX509SigningAlgorithmIdentifier::NewL(class TDesC8 const &)
	?NewL@CX509SigningAlgorithmIdentifier@@SAPAV1@ABVTDesC8@@AAH@Z @ 123 NONAME ; public: static class CX509SigningAlgorithmIdentifier * __cdecl CX509SigningAlgorithmIdentifier::NewL(class TDesC8 const &,int &)
	?NewL@CX509SubjectKeyIdExt@@SAPAV1@ABVTDesC8@@@Z @ 124 NONAME ; public: static class CX509SubjectKeyIdExt * __cdecl CX509SubjectKeyIdExt::NewL(class TDesC8 const &)
	?NewL@CX509SubjectKeyIdExt@@SAPAV1@ABVTDesC8@@AAH@Z @ 125 NONAME ; public: static class CX509SubjectKeyIdExt * __cdecl CX509SubjectKeyIdExt::NewL(class TDesC8 const &,int &)
	?NewL@CX509SubjectPublicKeyInfo@@SAPAV1@ABVTDesC8@@@Z @ 126 NONAME ; public: static class CX509SubjectPublicKeyInfo * __cdecl CX509SubjectPublicKeyInfo::NewL(class TDesC8 const &)
	?NewL@CX509SubjectPublicKeyInfo@@SAPAV1@ABVTDesC8@@AAH@Z @ 127 NONAME ; public: static class CX509SubjectPublicKeyInfo * __cdecl CX509SubjectPublicKeyInfo::NewL(class TDesC8 const &,int &)
	?NewL@CX509ValidityPeriod@@SAPAV1@ABVTDesC8@@@Z @ 128 NONAME ; public: static class CX509ValidityPeriod * __cdecl CX509ValidityPeriod::NewL(class TDesC8 const &)
	?NewL@CX509ValidityPeriod@@SAPAV1@ABVTDesC8@@AAH@Z @ 129 NONAME ; public: static class CX509ValidityPeriod * __cdecl CX509ValidityPeriod::NewL(class TDesC8 const &,int &)
	?NewLC@CPKCS1SignatureResult@@SAPAV1@ABVCAlgorithmIdentifier@@ABVTDesC8@@@Z @ 130 NONAME ; public: static class CPKCS1SignatureResult * __cdecl CPKCS1SignatureResult::NewLC(class CAlgorithmIdentifier const &,class TDesC8 const &)
	?NewLC@CX509AlgorithmIdentifier@@SAPAV1@ABVTDesC8@@@Z @ 131 NONAME ; public: static class CX509AlgorithmIdentifier * __cdecl CX509AlgorithmIdentifier::NewLC(class TDesC8 const &)
	?NewLC@CX509AlgorithmIdentifier@@SAPAV1@ABVTDesC8@@AAH@Z @ 132 NONAME ; public: static class CX509AlgorithmIdentifier * __cdecl CX509AlgorithmIdentifier::NewLC(class TDesC8 const &,int &)
	?NewLC@CX509AltNameExt@@SAPAV1@ABVTDesC8@@@Z @ 133 NONAME ; public: static class CX509AltNameExt * __cdecl CX509AltNameExt::NewLC(class TDesC8 const &)
	?NewLC@CX509AltNameExt@@SAPAV1@ABVTDesC8@@AAH@Z @ 134 NONAME ; public: static class CX509AltNameExt * __cdecl CX509AltNameExt::NewLC(class TDesC8 const &,int &)
	?NewLC@CX509AuthorityKeyIdExt@@SAPAV1@ABVTDesC8@@@Z @ 135 NONAME ; public: static class CX509AuthorityKeyIdExt * __cdecl CX509AuthorityKeyIdExt::NewLC(class TDesC8 const &)
	?NewLC@CX509AuthorityKeyIdExt@@SAPAV1@ABVTDesC8@@AAH@Z @ 136 NONAME ; public: static class CX509AuthorityKeyIdExt * __cdecl CX509AuthorityKeyIdExt::NewLC(class TDesC8 const &,int &)
	?NewLC@CX509BasicConstraintsExt@@SAPAV1@ABVTDesC8@@@Z @ 137 NONAME ; public: static class CX509BasicConstraintsExt * __cdecl CX509BasicConstraintsExt::NewLC(class TDesC8 const &)
	?NewLC@CX509BasicConstraintsExt@@SAPAV1@ABVTDesC8@@AAH@Z @ 138 NONAME ; public: static class CX509BasicConstraintsExt * __cdecl CX509BasicConstraintsExt::NewLC(class TDesC8 const &,int &)
	?NewLC@CX509CertExtension@@SAPAV1@ABV1@@Z @ 139 NONAME ; public: static class CX509CertExtension * __cdecl CX509CertExtension::NewLC(class CX509CertExtension const &)
	?NewLC@CX509CertExtension@@SAPAV1@ABVTDesC8@@@Z @ 140 NONAME ; public: static class CX509CertExtension * __cdecl CX509CertExtension::NewLC(class TDesC8 const &)
	?NewLC@CX509CertExtension@@SAPAV1@ABVTDesC8@@AAH@Z @ 141 NONAME ; public: static class CX509CertExtension * __cdecl CX509CertExtension::NewLC(class TDesC8 const &,int &)
	?NewLC@CX509CertPoliciesExt@@SAPAV1@ABVTDesC8@@@Z @ 142 NONAME ; public: static class CX509CertPoliciesExt * __cdecl CX509CertPoliciesExt::NewLC(class TDesC8 const &)
	?NewLC@CX509CertPoliciesExt@@SAPAV1@ABVTDesC8@@AAH@Z @ 143 NONAME ; public: static class CX509CertPoliciesExt * __cdecl CX509CertPoliciesExt::NewLC(class TDesC8 const &,int &)
	?NewLC@CX509CertPolicyInfo@@SAPAV1@ABV1@@Z @ 144 NONAME ; public: static class CX509CertPolicyInfo * __cdecl CX509CertPolicyInfo::NewLC(class CX509CertPolicyInfo const &)
	?NewLC@CX509Certificate@@SAPAV1@AAVRReadStream@@@Z @ 145 NONAME ; public: static class CX509Certificate * __cdecl CX509Certificate::NewLC(class RReadStream &)
	?NewLC@CX509Certificate@@SAPAV1@ABV1@@Z @ 146 NONAME ; public: static class CX509Certificate * __cdecl CX509Certificate::NewLC(class CX509Certificate const &)
	?NewLC@CX509Certificate@@SAPAV1@ABVTDesC8@@@Z @ 147 NONAME ; public: static class CX509Certificate * __cdecl CX509Certificate::NewLC(class TDesC8 const &)
	?NewLC@CX509Certificate@@SAPAV1@ABVTDesC8@@AAH@Z @ 148 NONAME ; public: static class CX509Certificate * __cdecl CX509Certificate::NewLC(class TDesC8 const &,int &)
	?NewLC@CX509DHDomainParams@@SAPAV1@ABVTDesC8@@@Z @ 149 NONAME ; public: static class CX509DHDomainParams * __cdecl CX509DHDomainParams::NewLC(class TDesC8 const &)
	?NewLC@CX509DHDomainParams@@SAPAV1@ABVTDesC8@@AAH@Z @ 150 NONAME ; public: static class CX509DHDomainParams * __cdecl CX509DHDomainParams::NewLC(class TDesC8 const &,int &)
	?NewLC@CX509DHKeyPair@@SAPAV1@ABVTDesC8@@@Z @ 151 NONAME ; public: static class CX509DHKeyPair * __cdecl CX509DHKeyPair::NewLC(class TDesC8 const &)
	?NewLC@CX509DHPublicKey@@SAPAV1@ABVTDesC8@@0@Z @ 152 NONAME ; public: static class CX509DHPublicKey * __cdecl CX509DHPublicKey::NewLC(class TDesC8 const &,class TDesC8 const &)
	?NewLC@CX509DHValidationParams@@SAPAV1@ABVTDesC8@@@Z @ 153 NONAME ; public: static class CX509DHValidationParams * __cdecl CX509DHValidationParams::NewLC(class TDesC8 const &)
	?NewLC@CX509DHValidationParams@@SAPAV1@ABVTDesC8@@AAH@Z @ 154 NONAME ; public: static class CX509DHValidationParams * __cdecl CX509DHValidationParams::NewLC(class TDesC8 const &,int &)
	?NewLC@CX509DNSName@@SAPAV1@ABV1@@Z @ 155 NONAME ; public: static class CX509DNSName * __cdecl CX509DNSName::NewLC(class CX509DNSName const &)
	?NewLC@CX509DNSName@@SAPAV1@ABVTDesC16@@@Z @ 156 NONAME ; public: static class CX509DNSName * __cdecl CX509DNSName::NewLC(class TDesC16 const &)
	?NewLC@CX509DNSName@@SAPAV1@ABVTDesC8@@@Z @ 157 NONAME ; public: static class CX509DNSName * __cdecl CX509DNSName::NewLC(class TDesC8 const &)
	?NewLC@CX509DNSNameSubtree@@SAPAV1@ABVTDesC8@@@Z @ 158 NONAME ; public: static class CX509DNSNameSubtree * __cdecl CX509DNSNameSubtree::NewLC(class TDesC8 const &)
	?NewLC@CX509DSAPublicKey@@SAPAV1@ABVTDesC8@@0@Z @ 159 NONAME ; public: static class CX509DSAPublicKey * __cdecl CX509DSAPublicKey::NewLC(class TDesC8 const &,class TDesC8 const &)
	?NewLC@CX509DSAPublicKey@@SAPAV1@ABVTDesC8@@0AAH@Z @ 160 NONAME ; public: static class CX509DSAPublicKey * __cdecl CX509DSAPublicKey::NewLC(class TDesC8 const &,class TDesC8 const &,int &)
	?NewLC@CX509DSAPublicKey@@SAPAV1@ABVCDSAParameters@@ABVTDesC8@@@Z @ 161 NONAME ; public: static class CX509DSAPublicKey * __cdecl CX509DSAPublicKey::NewLC(class CDSAParameters const &,class TDesC8 const &)
	?NewLC@CX509DSAPublicKey@@SAPAV1@ABVCDSAParameters@@ABVTDesC8@@AAH@Z @ 162 NONAME ; public: static class CX509DSAPublicKey * __cdecl CX509DSAPublicKey::NewLC(class CDSAParameters const &,class TDesC8 const &,int &)
	?NewLC@CX509DSASignature@@SAPAV1@ABVTDesC8@@@Z @ 163 NONAME ; public: static class CX509DSASignature * __cdecl CX509DSASignature::NewLC(class TDesC8 const &)
	?NewLC@CX509DSASignature@@SAPAV1@ABVTDesC8@@AAH@Z @ 164 NONAME ; public: static class CX509DSASignature * __cdecl CX509DSASignature::NewLC(class TDesC8 const &,int &)
	?NewLC@CX509ExtendedKeyUsageExt@@SAPAV1@ABVTDesC8@@@Z @ 165 NONAME ; public: static class CX509ExtendedKeyUsageExt * __cdecl CX509ExtendedKeyUsageExt::NewLC(class TDesC8 const &)
	?NewLC@CX509ExtendedKeyUsageExt@@SAPAV1@ABVTDesC8@@AAH@Z @ 166 NONAME ; public: static class CX509ExtendedKeyUsageExt * __cdecl CX509ExtendedKeyUsageExt::NewLC(class TDesC8 const &,int &)
	?NewLC@CX509GeneralName@@SAPAV1@ABV1@@Z @ 167 NONAME ; public: static class CX509GeneralName * __cdecl CX509GeneralName::NewLC(class CX509GeneralName const &)
	?NewLC@CX509GeneralName@@SAPAV1@ABVTDesC8@@@Z @ 168 NONAME ; public: static class CX509GeneralName * __cdecl CX509GeneralName::NewLC(class TDesC8 const &)
	?NewLC@CX509GeneralName@@SAPAV1@ABVTDesC8@@AAH@Z @ 169 NONAME ; public: static class CX509GeneralName * __cdecl CX509GeneralName::NewLC(class TDesC8 const &,int &)
	?NewLC@CX509IPAddress@@SAPAV1@ABVTDesC8@@@Z @ 170 NONAME ; public: static class CX509IPAddress * __cdecl CX509IPAddress::NewLC(class TDesC8 const &)
	?NewLC@CX509IPBasedURI@@SAPAV1@ABVTDesC8@@@Z @ 171 NONAME ; public: static class CX509IPBasedURI * __cdecl CX509IPBasedURI::NewLC(class TDesC8 const &)
	?NewLC@CX509IPSubnetMask@@SAPAV1@ABVTDesC8@@@Z @ 172 NONAME ; public: static class CX509IPSubnetMask * __cdecl CX509IPSubnetMask::NewLC(class TDesC8 const &)
	?NewLC@CX509KeyUsageExt@@SAPAV1@ABVTDesC8@@@Z @ 173 NONAME ; public: static class CX509KeyUsageExt * __cdecl CX509KeyUsageExt::NewLC(class TDesC8 const &)
	?NewLC@CX509KeyUsageExt@@SAPAV1@ABVTDesC8@@AAH@Z @ 174 NONAME ; public: static class CX509KeyUsageExt * __cdecl CX509KeyUsageExt::NewLC(class TDesC8 const &,int &)
	?NewLC@CX509NameConstraintsExt@@SAPAV1@ABVTDesC8@@@Z @ 175 NONAME ; public: static class CX509NameConstraintsExt * __cdecl CX509NameConstraintsExt::NewLC(class TDesC8 const &)
	?NewLC@CX509NameConstraintsExt@@SAPAV1@ABVTDesC8@@AAH@Z @ 176 NONAME ; public: static class CX509NameConstraintsExt * __cdecl CX509NameConstraintsExt::NewLC(class TDesC8 const &,int &)
	?NewLC@CX509PolicyConstraintsExt@@SAPAV1@ABVTDesC8@@@Z @ 177 NONAME ; public: static class CX509PolicyConstraintsExt * __cdecl CX509PolicyConstraintsExt::NewLC(class TDesC8 const &)
	?NewLC@CX509PolicyConstraintsExt@@SAPAV1@ABVTDesC8@@AAH@Z @ 178 NONAME ; public: static class CX509PolicyConstraintsExt * __cdecl CX509PolicyConstraintsExt::NewLC(class TDesC8 const &,int &)
	?NewLC@CX509PolicyMapping@@SAPAV1@ABV1@@Z @ 179 NONAME ; public: static class CX509PolicyMapping * __cdecl CX509PolicyMapping::NewLC(class CX509PolicyMapping const &)
	?NewLC@CX509PolicyMappingExt@@SAPAV1@ABVTDesC8@@@Z @ 180 NONAME ; public: static class CX509PolicyMappingExt * __cdecl CX509PolicyMappingExt::NewLC(class TDesC8 const &)
	?NewLC@CX509PolicyMappingExt@@SAPAV1@ABVTDesC8@@AAH@Z @ 181 NONAME ; public: static class CX509PolicyMappingExt * __cdecl CX509PolicyMappingExt::NewLC(class TDesC8 const &,int &)
	?NewLC@CX509RFC822Name@@SAPAV1@ABVTDesC8@@@Z @ 182 NONAME ; public: static class CX509RFC822Name * __cdecl CX509RFC822Name::NewLC(class TDesC8 const &)
	?NewLC@CX509RFC822NameSubtree@@SAPAV1@ABVTDesC8@@@Z @ 183 NONAME ; public: static class CX509RFC822NameSubtree * __cdecl CX509RFC822NameSubtree::NewLC(class TDesC8 const &)
	?NewLC@CX509RSAPublicKey@@SAPAV1@ABVTDesC8@@@Z @ 184 NONAME ; public: static class CX509RSAPublicKey * __cdecl CX509RSAPublicKey::NewLC(class TDesC8 const &)
	?NewLC@CX509RSAPublicKey@@SAPAV1@ABVTDesC8@@AAH@Z @ 185 NONAME ; public: static class CX509RSAPublicKey * __cdecl CX509RSAPublicKey::NewLC(class TDesC8 const &,int &)
	?NewLC@CX509SigningAlgorithmIdentifier@@SAPAV1@ABVTDesC8@@@Z @ 186 NONAME ; public: static class CX509SigningAlgorithmIdentifier * __cdecl CX509SigningAlgorithmIdentifier::NewLC(class TDesC8 const &)
	?NewLC@CX509SigningAlgorithmIdentifier@@SAPAV1@ABVTDesC8@@AAH@Z @ 187 NONAME ; public: static class CX509SigningAlgorithmIdentifier * __cdecl CX509SigningAlgorithmIdentifier::NewLC(class TDesC8 const &,int &)
	?NewLC@CX509SubjectKeyIdExt@@SAPAV1@ABVTDesC8@@@Z @ 188 NONAME ; public: static class CX509SubjectKeyIdExt * __cdecl CX509SubjectKeyIdExt::NewLC(class TDesC8 const &)
	?NewLC@CX509SubjectKeyIdExt@@SAPAV1@ABVTDesC8@@AAH@Z @ 189 NONAME ; public: static class CX509SubjectKeyIdExt * __cdecl CX509SubjectKeyIdExt::NewLC(class TDesC8 const &,int &)
	?NewLC@CX509SubjectPublicKeyInfo@@SAPAV1@ABVTDesC8@@@Z @ 190 NONAME ; public: static class CX509SubjectPublicKeyInfo * __cdecl CX509SubjectPublicKeyInfo::NewLC(class TDesC8 const &)
	?NewLC@CX509SubjectPublicKeyInfo@@SAPAV1@ABVTDesC8@@AAH@Z @ 191 NONAME ; public: static class CX509SubjectPublicKeyInfo * __cdecl CX509SubjectPublicKeyInfo::NewLC(class TDesC8 const &,int &)
	?NewLC@CX509ValidityPeriod@@SAPAV1@ABVTDesC8@@@Z @ 192 NONAME ; public: static class CX509ValidityPeriod * __cdecl CX509ValidityPeriod::NewLC(class TDesC8 const &)
	?NewLC@CX509ValidityPeriod@@SAPAV1@ABVTDesC8@@AAH@Z @ 193 NONAME ; public: static class CX509ValidityPeriod * __cdecl CX509ValidityPeriod::NewLC(class TDesC8 const &,int &)
	?P@CX509DHDomainParams@@QBEABVTInteger@@XZ @ 194 NONAME ; public: class TInteger const & __thiscall CX509DHDomainParams::P(void)const 
	?PGenCounter@CX509DHValidationParams@@QBEABVTInteger@@XZ @ 195 NONAME ; public: class TInteger const & __thiscall CX509DHValidationParams::PGenCounter(void)const 
	?PermittedSubtrees@CX509NameConstraintsExt@@QBEABV?$CArrayPtrFlat@VCX509GeneralSubtree@@@@XZ @ 196 NONAME ; public: class CArrayPtrFlat<class CX509GeneralSubtree> const & __thiscall CX509NameConstraintsExt::PermittedSubtrees(void)const 
	?Policies@CX509CertPoliciesExt@@QBEABV?$CArrayPtrFlat@VCX509CertPolicyInfo@@@@XZ @ 197 NONAME ; public: class CArrayPtrFlat<class CX509CertPolicyInfo> const & __thiscall CX509CertPoliciesExt::Policies(void)const 
	?Q@CX509DHDomainParams@@QBEABVTInteger@@XZ @ 198 NONAME ; public: class TInteger const & __thiscall CX509DHDomainParams::Q(void)const 
	?Qualifiers@CX509CertPolicyInfo@@QBEABV?$CArrayPtrFlat@VCX509PolicyQualifierInfo@@@@XZ @ 199 NONAME ; public: class CArrayPtrFlat<class CX509PolicyQualifierInfo> const & __thiscall CX509CertPolicyInfo::Qualifiers(void)const 
	?RSAPublicKeyL@TX509KeyFactory@@UBEPAVCRSAPublicKey@@ABVTDesC8@@@Z @ 200 NONAME ; public: virtual class CRSAPublicKey * __thiscall TX509KeyFactory::RSAPublicKeyL(class TDesC8 const &)const 
	?RSASignatureResultL@TX509KeyFactory@@UBEPAVCRSASignatureResult@@ABVCAlgorithmIdentifier@@AAVTDesC8@@@Z @ 201 NONAME ; public: virtual class CRSASignatureResult * __thiscall TX509KeyFactory::RSASignatureResultL(class CAlgorithmIdentifier const &,class TDesC8 &)const 
	?Rep@CX509DNSNameSubtree@@QBEABV?$RArray@VTPtrC16@@@@XZ @ 202 NONAME ; class RArray<class TPtrC16> const & CX509DNSNameSubtree::Rep(void) const
	?Rep@CX509RFC822NameSubtree@@QBEABV?$RArray@VTPtrC16@@@@XZ @ 203 NONAME ; class RArray<class TPtrC16> const & CX509RFC822NameSubtree::Rep(void) const
	?Seed@CX509DHValidationParams@@QBE?BVTPtrC8@@XZ @ 204 NONAME ; public: class TPtrC8 const  __thiscall CX509DHValidationParams::Seed(void)const 
	?SignedDataL@CX509Certificate@@UBE?BVTPtrC8@@XZ @ 205 NONAME ; public: virtual class TPtrC8 const  __thiscall CX509Certificate::SignedDataL(void)const 
	?SubjectL@CX509Certificate@@UBEPAVHBufC16@@XZ @ 206 NONAME ; public: virtual class HBufC16 * __thiscall CX509Certificate::SubjectL(void)const 
	?SubjectName@CX509Certificate@@QBEABVCX500DistinguishedName@@XZ @ 207 NONAME ; public: class CX500DistinguishedName const & __thiscall CX509Certificate::SubjectName(void)const 
	?SubjectPolicy@CX509PolicyMapping@@QBE?AVTPtrC16@@XZ @ 208 NONAME ; public: class TPtrC16  __thiscall CX509PolicyMapping::SubjectPolicy(void)const 
	?Tag@CX509GeneralName@@QBEIXZ @ 209 NONAME ; public: unsigned int __thiscall CX509GeneralName::Tag(void)const 
	?ValidationParams@CX509DHDomainParams@@QBEPBVCX509DHValidationParams@@XZ @ 210 NONAME ; public: class CX509DHValidationParams const * __thiscall CX509DHDomainParams::ValidationParams(void)const 
	?VerifyL@CPKCS1SignatureResult@@UAEHABVTDesC8@@@Z @ 211 NONAME ; public: virtual int __thiscall CPKCS1SignatureResult::VerifyL(class TDesC8 const &)
	?Version@CX509Certificate@@QBEHXZ @ 212 NONAME ; public: int __thiscall CX509Certificate::Version(void)const 
	?DSAParametersL@CX509DSAPublicKey@@SAPAVCDSAParameters@@ABVTDesC8@@@Z @ 213 NONAME ; public: static class CDSAParameters * __cdecl CX509DSAPublicKey::DSAParametersL(class TDesC8 const &)
	?KeyIdentifierL@CX509Certificate@@UBE?AV?$TBuf8@$0BE@@@XZ @ 214 NONAME ; public: virtual class TBuf8<20>  __thiscall CX509Certificate::KeyIdentifierL(void)const 
	??1CX509AuthInfoAccessExt@@UAE@XZ @ 215 NONAME ; public: virtual __thiscall CX509AuthInfoAccessExt::~CX509AuthInfoAccessExt(void)
	?AccessDescriptions@CX509AuthInfoAccessExt@@QBEABV?$CArrayPtrFlat@VCX509AccessDescription@@@@XZ @ 216 NONAME ; public: class CArrayPtrFlat<class CX509AccessDescription> const & __thiscall CX509AuthInfoAccessExt::AccessDescriptions(void)const 
	?Location@CX509AccessDescription@@QBEABVCX509GeneralName@@XZ @ 217 NONAME ; public: class CX509GeneralName const & __thiscall CX509AccessDescription::Location(void)const 
	?Method@CX509AccessDescription@@QBE?AVTPtrC16@@XZ @ 218 NONAME ; public: class TPtrC16  __thiscall CX509AccessDescription::Method(void)const 
	?NewL@CX509AuthInfoAccessExt@@SAPAV1@ABVTDesC8@@@Z @ 219 NONAME ; public: static class CX509AuthInfoAccessExt * __cdecl CX509AuthInfoAccessExt::NewL(class TDesC8 const &)
	?NewL@CX509AuthInfoAccessExt@@SAPAV1@ABVTDesC8@@AAH@Z @ 220 NONAME ; public: static class CX509AuthInfoAccessExt * __cdecl CX509AuthInfoAccessExt::NewL(class TDesC8 const &,int &)
	?NewLC@CX509AuthInfoAccessExt@@SAPAV1@ABVTDesC8@@@Z @ 221 NONAME ; public: static class CX509AuthInfoAccessExt * __cdecl CX509AuthInfoAccessExt::NewLC(class TDesC8 const &)
	?NewLC@CX509AuthInfoAccessExt@@SAPAV1@ABVTDesC8@@AAH@Z @ 222 NONAME ; public: static class CX509AuthInfoAccessExt * __cdecl CX509AuthInfoAccessExt::NewLC(class TDesC8 const &,int &)
	??0TX509DSAKeyEncoder@@QAE@ABVCDSAPublicKey@@W4TAlgorithmId@@@Z @ 223 NONAME ; public: __thiscall TX509DSAKeyEncoder::TX509DSAKeyEncoder(class CDSAPublicKey const &,enum TAlgorithmId)
	??0TX509KeyEncoder@@QAE@W4TAlgorithmId@@@Z @ 224 NONAME ABSENT ; public: __thiscall TX509KeyEncoder::TX509KeyEncoder(enum TAlgorithmId)
	??0TX509RSAKeyEncoder@@QAE@ABVCRSAPublicKey@@W4TAlgorithmId@@@Z @ 225 NONAME ; public: __thiscall TX509RSAKeyEncoder::TX509RSAKeyEncoder(class CRSAPublicKey const &,enum TAlgorithmId)
	?RemovedExport1@@YAXXZ @ 226 NONAME ; Export has been removed - see comments in removedExports.cpp
	??1CX509DHKeyPair@@UAE@XZ @ 227 NONAME ; public: virtual __thiscall CX509DHKeyPair::~CX509DHKeyPair(void)
	?RemovedExport2@@YAXXZ @ 228 NONAME ; Export has been removed - see comments in removedExports.cpp
	?RemovedExport3@@YAXXZ @ 229 NONAME ; Export has been removed - see comments in removedExports.cpp
	?DSAPublicKeyL@TX509KeyFactory@@UBEPAVCDSAPublicKey@@ABVTDesC8@@0@Z @ 230 NONAME ; public: virtual class CDSAPublicKey * __thiscall TX509KeyFactory::DSAPublicKeyL(class TDesC8 const &,class TDesC8 const &)const 
	?DecodeDERL@TASN1DecDSAKeyPair@@QAEXABVTDesC8@@AAHAAPAVCDSAPublicKey@@AAPAVCDSAPrivateKey@@@Z @ 231 NONAME ; public: void __thiscall TASN1DecDSAKeyPair::DecodeDERL(class TDesC8 const &,int &,class CDSAPublicKey * &,class CDSAPrivateKey * &)
	?DecodeDERL@TASN1DecRSAKeyPair@@QAEXABVTDesC8@@AAHAAPAVCRSAPublicKey@@AAPAVCRSAPrivateKey@@W4TRSAPrivateKeyType@@@Z @ 232 NONAME ; public: void __thiscall TASN1DecRSAKeyPair::DecodeDERL(class TDesC8 const &,int &,class CRSAPublicKey * &,class CRSAPrivateKey * &,enum TRSAPrivateKeyType)
	?DecodeDERL@TASN1DecRSAPublicKey@@QBEPAVCRSAPublicKey@@ABVTDesC8@@AAH@Z @ 233 NONAME ; public: class CRSAPublicKey * __thiscall TASN1DecRSAPublicKey::DecodeDERL(class TDesC8 const &,int &)const 
	?EncodeDERL@TASN1EncDSAPublicKey@@QBEPAVCASN1EncSequence@@ABVCDSAPublicKey@@@Z @ 234 NONAME ; public: class CASN1EncSequence * __thiscall TASN1EncDSAPublicKey::EncodeDERL(class CDSAPublicKey const &)const 
	?EncodeDERL@TASN1EncRSAPublicKey@@QBEPAVHBufC8@@ABVCRSAPublicKey@@@Z @ 235 NONAME ; public: class HBufC8 * __thiscall TASN1EncRSAPublicKey::EncodeDERL(class CRSAPublicKey const &)const 
	?EncodeKeyLC@TX509DSAKeyEncoder@@UBEPAVCASN1EncBase@@XZ @ 236 NONAME ; public: virtual class CASN1EncBase * __thiscall TX509DSAKeyEncoder::EncodeKeyLC(void)const 
	?EncodeKeyLC@TX509RSAKeyEncoder@@UBEPAVCASN1EncBase@@XZ @ 237 NONAME ; public: virtual class CASN1EncBase * __thiscall TX509RSAKeyEncoder::EncodeKeyLC(void)const 
	?EncodeParamsLC@TASN1EncDSAPublicKey@@QBEPAVCASN1EncSequence@@ABVCDSAPublicKey@@@Z @ 238 NONAME ; public: class CASN1EncSequence * __thiscall TASN1EncDSAPublicKey::EncodeParamsLC(class CDSAPublicKey const &)const 
	?EncodePublicValueLC@TASN1EncDSAPublicKey@@QBEPAVCASN1EncBitString@@ABVCDSAPublicKey@@@Z @ 239 NONAME ; public: class CASN1EncBitString * __thiscall TASN1EncDSAPublicKey::EncodePublicValueLC(class CDSAPublicKey const &)const 
	?EncodeSignatureAlgorithmLC@TX509DSAKeyEncoder@@UBEPAVCASN1EncSequence@@XZ @ 240 NONAME ; public: virtual class CASN1EncSequence * __thiscall TX509DSAKeyEncoder::EncodeSignatureAlgorithmLC(void)const 
	?EncodeSignatureAlgorithmLC@TX509RSAKeyEncoder@@UBEPAVCASN1EncSequence@@XZ @ 241 NONAME ; public: virtual class CASN1EncSequence * __thiscall TX509RSAKeyEncoder::EncodeSignatureAlgorithmLC(void)const 
	?RemovedExport4@@YAXXZ @ 242 NONAME ; Export has been removed - see comments in removedExports.cpp
	?RemovedExport5@@YAXXZ @ 243 NONAME ; Export has been removed - see comments in removedExports.cpp
	?RemovedExport6@@YAXXZ @ 244 NONAME ; Export has been removed - see comments in removedExports.cpp
	?RemovedExport7@@YAXXZ @ 245 NONAME ; Export has been removed - see comments in removedExports.cpp
	?RemovedExport8@@YAXXZ @ 246 NONAME ; Export has been removed - see comments in removedExports.cpp
	?RemovedExport9@@YAXXZ @ 247 NONAME ; Export has been removed - see comments in removedExports.cpp
	?NewL@CX509SigningAlgorithmIdentifier@@SAPAV1@ABVCAlgorithmIdentifier@@0@Z @ 248 NONAME ; class CX509SigningAlgorithmIdentifier * CX509SigningAlgorithmIdentifier::NewL(class CAlgorithmIdentifier const &, class CAlgorithmIdentifier const &)
	?NewLC@CX509SigningAlgorithmIdentifier@@SAPAV1@ABVCAlgorithmIdentifier@@0@Z @ 249 NONAME ; class CX509SigningAlgorithmIdentifier * CX509SigningAlgorithmIdentifier::NewLC(class CAlgorithmIdentifier const &, class CAlgorithmIdentifier const &)
	?EncodeDigestAlgorithmLC@TX509KeyEncoder@@UBEPAVCASN1EncSequence@@XZ @ 250 NONAME ; class CASN1EncSequence * TX509KeyEncoder::EncodeDigestAlgorithmLC(void)const
	?ExternalizeL@CX509CertPolicyInfo@@QBEXAAVRWriteStream@@@Z @ 251 NONAME ; void CX509CertPolicyInfo::ExternalizeL(class RWriteStream &) const
	?InternalizeL@CX509CertPolicyInfo@@QAEXAAVRReadStream@@@Z @ 252 NONAME ; void CX509CertPolicyInfo::InternalizeL(class RReadStream &)
	?NewL@CX509CertPolicyInfo@@SAPAV1@AAVRReadStream@@@Z @ 253 NONAME ; class CX509CertPolicyInfo * CX509CertPolicyInfo::NewL(class RReadStream &)
	?NewLC@CX509CertPolicyInfo@@SAPAV1@AAVRReadStream@@@Z @ 254 NONAME ; class CX509CertPolicyInfo * CX509CertPolicyInfo::NewLC(class RReadStream &)
	?CapabilitySet@CX509CapabilitySetExt@@QBEABVTCapabilitySet@@XZ @ 255 NONAME ; class TCapabilitySet const & CX509CapabilitySetExt::CapabilitySet(void) const
	?IntArray@CX509IntListExt@@QBEABV?$RArray@H@@XZ @ 256 NONAME ; class RArray<int> const & CX509IntListExt::IntArray(void) const
	?NewL@CX509CapabilitySetExt@@SAPAV1@ABVTDesC8@@@Z @ 257 NONAME ; class CX509CapabilitySetExt * CX509CapabilitySetExt::NewL(class TDesC8 const &)
	?NewL@CX509IntListExt@@SAPAV1@ABVTDesC8@@@Z @ 258 NONAME ; class CX509IntListExt * CX509IntListExt::NewL(class TDesC8 const &)
	?NewL@CX509Utf8StringListExt@@SAPAV1@ABVTDesC8@@@Z @ 259 NONAME ; class CX509Utf8StringListExt * CX509Utf8StringListExt::NewL(class TDesC8 const &)
	?NewLC@CX509CapabilitySetExt@@SAPAV1@ABVTDesC8@@@Z @ 260 NONAME ; class CX509CapabilitySetExt * CX509CapabilitySetExt::NewLC(class TDesC8 const &)
	?NewLC@CX509IntListExt@@SAPAV1@ABVTDesC8@@@Z @ 261 NONAME ; class CX509IntListExt * CX509IntListExt::NewLC(class TDesC8 const &)
	?NewLC@CX509Utf8StringListExt@@SAPAV1@ABVTDesC8@@@Z @ 262 NONAME ; class CX509Utf8StringListExt * CX509Utf8StringListExt::NewLC(class TDesC8 const &)
	?StringArray@CX509Utf8StringListExt@@QBEABV?$RPointerArray@VHBufC16@@@@XZ @ 263 NONAME ; class RPointerArray<class HBufC16> const & CX509Utf8StringListExt::StringArray(void) const
	?EncodeASN1DERLC@CX509AlgorithmIdentifier@@QBEPAVCASN1EncSequence@@XZ @ 264 NONAME ; class CASN1EncSequence * CX509AlgorithmIdentifier::EncodeASN1DERLC(void) const
	?NewL@CX509AlgorithmIdentifier@@SAPAV1@W4TAlgorithmId@@ABVTDesC8@@@Z @ 265 NONAME ; class CX509AlgorithmIdentifier * CX509AlgorithmIdentifier::NewL(enum TAlgorithmId, class TDesC8 const &)
	?NewLC@CX509AlgorithmIdentifier@@SAPAV1@W4TAlgorithmId@@ABVTDesC8@@@Z @ 266 NONAME ; class CX509AlgorithmIdentifier * CX509AlgorithmIdentifier::NewLC(enum TAlgorithmId, class TDesC8 const &)
	?EncodeASN1DERLC@CX509CertExtension@@QBEPAVCASN1EncSequence@@XZ @ 267 NONAME ; class CASN1EncSequence * CX509CertExtension::EncodeASN1DERLC(void) const
	?NewL@CX509CertExtension@@SAPAV1@ABVTDesC16@@HABVTDesC8@@@Z @ 268 NONAME ; class CX509CertExtension * CX509CertExtension::NewL(class TDesC16 const &, int, class TDesC8 const &)
	?NewLC@CX509CertExtension@@SAPAV1@ABVTDesC16@@HABVTDesC8@@@Z @ 269 NONAME ; class CX509CertExtension * CX509CertExtension::NewLC(class TDesC16 const &, int, class TDesC8 const &)
	?SubjectKeyIdentifierL@CX509Certificate@@QBE?AV?$TBuf8@$0BE@@@XZ @ 270 NONAME ; public: virtual class TBuf8<20>  __thiscall CX509Certificate::SubjectKeyIdentifierL(void)const 
	??1CCertificateValidationWarnings@@UAE@XZ @ 271 NONAME ; CCertificateValidationWarnings::~CCertificateValidationWarnings(void)
	?AppendCriticalExtensionWarningL@CCertificateValidationWarnings@@QAEXAAVTDesC16@@@Z @ 272 NONAME ; void CCertificateValidationWarnings::AppendCriticalExtensionWarningL(class TDesC16 &)
	?AppendWarningL@CCertificateValidationWarnings@@QAEXVTValidationStatus@@@Z @ 273 NONAME ; void CCertificateValidationWarnings::AppendWarningL(class TValidationStatus)
	?CertIndex@CCertificateValidationWarnings@@QBEHXZ @ 274 NONAME ; int CCertificateValidationWarnings::CertIndex(void) const
	?CriticalExtensionsFound@CCertificateValidationWarnings@@QBEABV?$RPointerArray@VTDesC16@@@@XZ @ 275 NONAME ; class RPointerArray<class TDesC16> const & CCertificateValidationWarnings::CriticalExtensionsFound(void) const
	?ExternalizeL@CCertificateValidationWarnings@@QBEXAAVRWriteStream@@@Z @ 276 NONAME ; void CCertificateValidationWarnings::ExternalizeL(class RWriteStream &) const
	?InternalizeL@CCertificateValidationWarnings@@SAPAV1@AAVRReadStream@@@Z @ 277 NONAME ; class CCertificateValidationWarnings * CCertificateValidationWarnings::InternalizeL(class RReadStream &)
	?NewL@CCertificateValidationWarnings@@SAPAV1@H@Z @ 278 NONAME ; class CCertificateValidationWarnings * CCertificateValidationWarnings::NewL(int)
	?NewLC@CCertificateValidationWarnings@@SAPAV1@H@Z @ 279 NONAME ; class CCertificateValidationWarnings * CCertificateValidationWarnings::NewLC(int)
	?Warnings@CCertificateValidationWarnings@@QBEABV?$RArray@VTValidationStatus@@@@XZ @ 280 NONAME ; class RArray<class TValidationStatus> const & CCertificateValidationWarnings::Warnings(void) const
	?SubjectKeyIdL@CX509Certificate@@QBE?AV?$TBuf8@$0BE@@@XZ @ 281 NONAME ; class TBuf8<20> CX509Certificate::SubjectKeyIdL(void) const

