EXPORTS
	_ZN15CnvUtfConverter24ConvertFromUnicodeToUtf7ER5TDes8RK7TDesC16i @ 1 NONAME
	_ZN15CnvUtfConverter24ConvertFromUnicodeToUtf8ER5TDes8RK7TDesC16 @ 2 NONAME
	_ZN15CnvUtfConverter24ConvertToUnicodeFromUtf7ER6TDes16RK6TDesC8Ri @ 3 NONAME
	_ZN15CnvUtfConverter24ConvertToUnicodeFromUtf8ER6TDes16RK6TDesC8 @ 4 NONAME
	_ZN15CnvUtfConverter25ConvertFromUnicodeToUtf7LERK7TDesC16i @ 5 NONAME
	_ZN15CnvUtfConverter25ConvertFromUnicodeToUtf8LERK7TDesC16 @ 6 NONAME
	_ZN15CnvUtfConverter25ConvertToUnicodeFromUtf7LERK6TDesC8 @ 7 NONAME
	_ZN15CnvUtfConverter25ConvertToUnicodeFromUtf8LERK6TDesC8 @ 8 NONAME
	_ZN25CCnvCharacterSetConverter18DoConvertToUnicodeERK18SCnvConversionDataNS_11TEndiannessER6TDes16RK6TDesC8RiS9_ @ 9 NONAME
	_ZN25CCnvCharacterSetConverter18DoConvertToUnicodeERK18SCnvConversionDataNS_11TEndiannessER6TDes16RK6TDesC8RiS9_Rjj @ 10 NONAME
	_ZN25CCnvCharacterSetConverter19AsciiConversionDataEv @ 11 NONAME
	_ZN25CCnvCharacterSetConverter20DoConvertFromUnicodeERK18SCnvConversionDataNS_11TEndiannessERK6TDesC8R5TDes8RK7TDesC16RNS_24TArrayOfAscendingIndicesE @ 12 NONAME
	_ZN25CCnvCharacterSetConverter20DoConvertFromUnicodeERK18SCnvConversionDataNS_11TEndiannessERK6TDesC8R5TDes8RK7TDesC16RNS_24TArrayOfAscendingIndicesERjj @ 13 NONAME
	_ZN25CCnvCharacterSetConverter23AutoDetectCharacterSetLERiRjRK9CArrayFixINS_13SCharacterSetEERK6TDesC8 @ 14 NONAME
	_ZN25CCnvCharacterSetConverter24TArrayOfAscendingIndices11AppendIndexEi @ 15 NONAME
	_ZN25CCnvCharacterSetConverter25PrepareToConvertToOrFromLEjR3RFs @ 16 NONAME
	_ZN25CCnvCharacterSetConverter25PrepareToConvertToOrFromLEjRK9CArrayFixINS_13SCharacterSetEER3RFs @ 17 NONAME
	_ZN25CCnvCharacterSetConverter26ConvertibleToCharacterSetLERijRK9CArrayFixINS_13SCharacterSetEERK6TDesC8 @ 18 NONAME
	_ZN25CCnvCharacterSetConverter36CreateArrayOfCharacterSetsAvailableLER3RFs @ 19 NONAME
	_ZN25CCnvCharacterSetConverter37CreateArrayOfCharacterSetsAvailableLCER3RFs @ 20 NONAME
	_ZN25CCnvCharacterSetConverter39ConvertCharacterSetIdentifierToMibEnumLEjR3RFs @ 21 NONAME
	_ZN25CCnvCharacterSetConverter39SetDefaultEndiannessOfForeignCharactersENS_11TEndiannessE @ 22 NONAME
	_ZN25CCnvCharacterSetConverter41ConvertMibEnumOfCharacterSetToIdentifierLEiR3RFs @ 23 NONAME
	_ZN25CCnvCharacterSetConverter44ConvertCharacterSetIdentifierToStandardNameLEjR3RFs @ 24 NONAME
	_ZN25CCnvCharacterSetConverter46ConvertStandardNameOfCharacterSetToIdentifierLERK6TDesC8R3RFs @ 25 NONAME
	_ZN25CCnvCharacterSetConverter46SetDowngradeForExoticLineTerminatingCharactersENS_44TDowngradeForExoticLineTerminatingCharactersE @ 26 NONAME
	_ZN25CCnvCharacterSetConverter48SetReplacementForUnconvertibleUnicodeCharactersLERK6TDesC8 @ 27 NONAME
	_ZN25CCnvCharacterSetConverter4NewLEv @ 28 NONAME
	_ZN25CCnvCharacterSetConverter5NewLCEv @ 29 NONAME
	_ZN25CCnvCharacterSetConverterD0Ev @ 30 NONAME
	_ZN25CCnvCharacterSetConverterD1Ev @ 31 NONAME
	_ZN25CCnvCharacterSetConverterD2Ev @ 32 NONAME
	_ZNK25CCnvCharacterSetConverter16ConvertToUnicodeER6TDes16RK6TDesC8Ri @ 33 NONAME
	_ZNK25CCnvCharacterSetConverter16ConvertToUnicodeER6TDes16RK6TDesC8RiS5_ @ 34 NONAME
	_ZNK25CCnvCharacterSetConverter16ConvertToUnicodeER6TDes16RK6TDesC8RiS5_S5_ @ 35 NONAME
	_ZNK25CCnvCharacterSetConverter18ConvertFromUnicodeER5TDes8RK7TDesC16 @ 36 NONAME
	_ZNK25CCnvCharacterSetConverter18ConvertFromUnicodeER5TDes8RK7TDesC16RNS_24TArrayOfAscendingIndicesE @ 37 NONAME
	_ZNK25CCnvCharacterSetConverter18ConvertFromUnicodeER5TDes8RK7TDesC16Ri @ 38 NONAME
	_ZNK25CCnvCharacterSetConverter18ConvertFromUnicodeER5TDes8RK7TDesC16RiS5_ @ 39 NONAME
	_ZTI25CCnvCharacterSetConverter @ 40 NONAME ; #<TI>#
	_ZTV25CCnvCharacterSetConverter @ 41 NONAME ; #<VT>#
	_ZTI11CFileReader @ 42 NONAME ABSENT ; #<TI>#
	_ZTI25CStandardNamesAndMibEnums @ 43 NONAME ABSENT ; #<TI>#
	_ZTI37CDeepDestructingArrayOfCharactersSets @ 44 NONAME ABSENT ; #<TI>#
	_ZTV11CFileReader @ 45 NONAME ABSENT ; #<VT>#
	_ZTV25CStandardNamesAndMibEnums @ 46 NONAME ABSENT ; #<VT>#
	_ZTV37CDeepDestructingArrayOfCharactersSets @ 47 NONAME ABSENT ; #<VT>#
	_ZN25CCnvCharacterSetConverter18AutoDetectCharSetLERiRjRK9CArrayFixINS_13SCharacterSetEERK6TDesC8 @ 48 NONAME
	_ZN25CCnvCharacterSetConverter21ConvertibleToCharSetLERijRK9CArrayFixINS_13SCharacterSetEERK6TDesC8 @ 49 NONAME
	_ZN25CCnvCharacterSetConverter15SetMaxCacheSizeEi @ 50 NONAME
	_ZN8TTlsData28CurrentCharacterSetConverterEv @ 51 NONAME

