EXPORTS
	??0CLogActive@@IAE@H@Z @ 1 NONAME ; protected: __thiscall CLogActive::CLogActive(int)
	??0CLogBase@@QAE@H@Z @ 2 NONAME ; public: __thiscall CLogBase::CLogBase(int)
	??1CLogActive@@UAE@XZ @ 3 NONAME ; public: virtual __thiscall CLogActive::~CLogActive(void)
	??1CLogBase@@UAE@XZ @ 4 NONAME ; public: virtual __thiscall CLogBase::~CLogBase(void)
	??1CLogEvent@@UAE@XZ @ 5 NONAME ; public: virtual __thiscall CLogEvent::~CLogEvent(void)
	??1CLogWrapper@@UAE@XZ @ 6 NONAME ; public: virtual __thiscall CLogWrapper::~CLogWrapper(void)
	?AddEvent@CLogBase@@UAEXAAVCLogEvent@@AAVTRequestStatus@@@Z @ 7 NONAME ; public: virtual void __thiscall CLogBase::AddEventL(class CLogEvent &,class TRequestStatus &)
	?ChangeEvent@CLogBase@@UAEXABVCLogEvent@@AAVTRequestStatus@@@Z @ 8 NONAME ; public: virtual void __thiscall CLogBase::ChangeEventL(class CLogEvent const &,class TRequestStatus &)
	?Complete@CLogActive@@IAEXH@Z @ 9 NONAME ; protected: void __thiscall CLogActive::Complete(int)
	?CopyL@CLogEvent@@QAEXABV1@@Z @ 10 NONAME ; public: void __thiscall CLogEvent::CopyL(class CLogEvent const &)
	?DeleteEvent@CLogBase@@UAEXJAAVTRequestStatus@@@Z @ 11 NONAME ; public: virtual void __thiscall CLogBase::DeleteEventL(long,class TRequestStatus &)
	?DoCancel@CLogActive@@MAEXXZ @ 12 NONAME ; protected: virtual void __thiscall CLogActive::DoCancel(void)
	?DoComplete@CLogActive@@EAEXAAH@Z @ 13 NONAME ; private: virtual void __thiscall CLogActive::DoComplete(int &)
	?GetEvent@CLogBase@@UAEXAAVCLogEvent@@AAVTRequestStatus@@@Z @ 14 NONAME ; public: virtual void __thiscall CLogBase::GetEventL(class CLogEvent &,class TRequestStatus &)
	?GetString@CLogBase@@UBEHAAVTDes16@@H@Z @ 15 NONAME ; public: virtual int __thiscall CLogBase::GetString(class TDes16 &,int)const 
	?LoadResourcesL@CLogBase@@IAEXAAVRFs@@@Z @ 16 NONAME ; protected: void __thiscall CLogBase::LoadResourcesL(class RFs &)
	?NewL@CLogEvent@@SAPAV1@XZ @ 17 NONAME ; public: static class CLogEvent * __cdecl CLogEvent::NewL(void)
	?NewL@CLogWrapper@@SAPAV1@AAVRFs@@H@Z @ 18 NONAME ; public: static class CLogWrapper * __cdecl CLogWrapper::NewL(class RFs &,int)
	?Queue@CLogActive@@IAEXAAVTRequestStatus@@@Z @ 19 NONAME ; protected: void __thiscall CLogActive::Queue(class TRequestStatus &)
	?RunL@CLogActive@@EAEXXZ @ 20 NONAME ; private: virtual void __thiscall CLogActive::RunL(void)
	?SetDataL@CLogEvent@@QAEXAAVRReadStream@@H@Z @ 21 NONAME ; public: void __thiscall CLogEvent::SetDataL(class RReadStream &,int)
	?SetDataL@CLogEvent@@QAEXABVTDesC8@@@Z @ 22 NONAME ; public: void __thiscall CLogEvent::SetDataL(class TDesC8 const &)
	?ClientAvailable@CLogWrapper@@QBEHXZ @ 23 NONAME ; public: int __thiscall CLogWrapper::ClientAvailable(void)const 
	?CLogBase_Reserved1@CLogBase@@EAEXXZ @ 24 NONAME ; private: virtual void __thiscall CLogBase::CLogBase_Reserved1(void)
	?ExternalizeL@CLogEvent@@QBEXAAVRWriteStream@@@Z @ 25 NONAME ; public: void __thiscall CLogEvent::ExternalizeL(class RWriteStream &)const 
	?InternalizeL@CLogEvent@@QAEXAAVRReadStream@@@Z @ 26 NONAME ; public: void __thiscall CLogEvent::InternalizeL(class RReadStream &)
	?SetSimId@CLogEvent@@QAEXK@Z @ 27 NONAME ; void CLogEvent::SetSimId(unsigned long)
	?SimId@CLogEvent@@QBEKXZ @ 28 NONAME ; unsigned long CLogEvent::SimId(void) const

