Certificate:
    Data:
        Version: 3 (0x2)
        Serial Number: 1 (0x1)
        Signature Algorithm: md5WithRSAEncryption
        Issuer: O=Symbian Software Ltd, CN=Root5-RSA
        Validity
            Not Before: Feb  3 12:00:00 1982 GMT
            Not After : Feb  3 12:00:01 1982 GMT
        Subject: O=Symbian Software Ltd, CN=Expired-R5
        Subject Public Key Info:
            Public Key Algorithm: rsaEncryption
            RSA Public Key: (1024 bit)
                Modulus (1024 bit):
                    00:d3:10:17:e4:19:39:27:f2:0a:ba:4e:5d:5f:8a:
                    7d:43:f5:18:99:4a:16:5c:21:71:1f:5f:ff:44:5c:
                    24:f1:89:ff:7b:60:b1:27:15:f5:42:a6:a9:15:61:
                    bb:04:a3:e3:b5:ef:9c:44:90:fd:a4:c8:2e:0d:1d:
                    15:25:8c:cc:ea:ca:46:58:00:11:8d:35:ec:49:65:
                    a1:f5:ff:df:d5:8b:a6:bf:f2:ac:f1:bf:ff:04:e1:
                    18:07:55:97:06:1c:75:b7:0f:bf:04:65:56:33:b5:
                    6c:e4:11:c8:6d:88:43:f0:20:42:9c:18:67:c6:de:
                    f7:9f:9f:10:21:63:74:0d:91
                Exponent: 65537 (0x10001)
        X509v3 extensions:
            X509v3 Extended Key Usage: 
                Code Signing
            X509v3 Certificate Policies: 
                Policy: 1.2.826.0.1.1796587.1

    Signature Algorithm: md5WithRSAEncryption
        59:ab:2d:9d:6f:6a:d4:b7:e7:2c:fe:e3:c6:15:ac:7b:aa:bf:
        d0:40:96:d2:c3:44:e7:3c:46:33:ea:64:8b:2a:85:82:fc:89:
        43:05:de:fa:83:b1:94:83:09:1b:53:5c:54:ad:99:0a:8c:38:
        e5:0b:d6:59:ca:c9:18:8d:8d:7a:35:04:0e:5e:36:b2:d8:a4:
        a0:48:f5:92:ab:80:c5:30:b3:96:39:f3:1b:2e:d4:5d:47:cc:
        c3:31:b0:cc:3b:2c:df:93:2d:34:b2:76:14:55:6c:59:ff:5f:
        97:f9:bc:68:ed:07:d9:1d:2c:73:70:1d:f5:30:ec:9f:a1:f8:
        e0:ed
-----BEGIN CERTIFICATE-----
MIICDDCCAXWgAwIBAgIBATANBgkqhkiG9w0BAQQFADAzMR0wGwYDVQQKExRTeW1i
aWFuIFNvZnR3YXJlIEx0ZDESMBAGA1UEAxMJUm9vdDUtUlNBMB4XDTgyMDIwMzEy
MDAwMFoXDTgyMDIwMzEyMDAwMVowNDEdMBsGA1UEChMUU3ltYmlhbiBTb2Z0d2Fy
ZSBMdGQxEzARBgNVBAMTCkV4cGlyZWQtUjUwgZ8wDQYJKoZIhvcNAQEBBQADgY0A
MIGJAoGBANMQF+QZOSfyCrpOXV+KfUP1GJlKFlwhcR9f/0RcJPGJ/3tgsScV9UKm
qRVhuwSj47XvnESQ/aTILg0dFSWMzOrKRlgAEY017EllofX/39WLpr/yrPG//wTh
GAdVlwYcdbcPvwRlVjO1bOQRyG2IQ/AgQpwYZ8be95+fECFjdA2RAgMBAAGjLzAt
MBMGA1UdJQQMMAoGCCsGAQUFBwMDMBYGA1UdIAQPMA0wCwYJKoY6AAHt02sBMA0G
CSqGSIb3DQEBBAUAA4GBAFmrLZ1vatS35yz+48YVrHuqv9BAltLDROc8RjPqZIsq
hYL8iUMF3vqDsZSDCRtTXFStmQqMOOUL1lnKyRiNjXo1BA5eNrLYpKBI9ZKrgMUw
s5Y58xsu1F1HzMMxsMw7LN+TLTSydhRVbFn/X5f5vGjtB9kdLHNwHfUw7J+h+ODt
-----END CERTIFICATE-----
