Certificate:
    Data:
        Version: 3 (0x2)
        Serial Number: 2 (0x2)
        Signature Algorithm: md5WithRSAEncryption
        Issuer: O=Symbian Software Ltd, CN=Root5-RSA
        Validity
            Not Before: Mar  3 16:34:45 2004 GMT
            Not After : Mar  1 16:34:45 2014 GMT
        Subject: O=Symbian Software Ltd, CN=Good-R5
        Subject Public Key Info:
            Public Key Algorithm: rsaEncryption
            RSA Public Key: (1024 bit)
                Modulus (1024 bit):
                    00:d6:5d:a1:96:59:9f:1c:b8:3d:78:c5:34:f0:c0:
                    e2:74:33:27:b4:de:68:f1:aa:2c:9b:e4:71:11:8b:
                    f0:61:b5:22:45:9a:c8:7d:80:2e:6b:b5:ff:2f:64:
                    ce:e6:de:65:ec:43:8b:1c:9c:61:63:2d:17:97:ed:
                    a6:48:5d:02:5f:ae:b8:45:29:99:90:0b:14:d6:4d:
                    55:11:36:59:41:c6:c0:b2:38:6f:22:b8:71:17:a6:
                    93:28:34:9a:96:88:d4:38:fb:47:29:19:94:38:b5:
                    1b:af:2e:64:fc:18:ab:d3:f4:cf:0d:68:2c:c7:47:
                    a0:1a:57:a0:a5:18:29:7c:05
                Exponent: 65537 (0x10001)
        X509v3 extensions:
            X509v3 Extended Key Usage: 
                Code Signing
            X509v3 Certificate Policies: 
                Policy: 1.2.826.0.1.1796587.1

    Signature Algorithm: md5WithRSAEncryption
        27:e6:f5:a6:55:4b:d0:89:28:a7:08:c6:a9:b2:86:73:a1:34:
        31:e1:90:ef:fa:73:4a:53:33:72:14:2b:44:19:49:2a:13:f6:
        00:fd:f8:c5:5f:c7:62:17:e3:7f:a4:fd:e3:ee:e3:11:de:49:
        8f:fb:70:95:ee:5a:05:96:ee:75:4a:c2:4f:dd:6b:de:a1:45:
        c4:cf:33:58:a7:ea:f6:f4:dd:ae:4e:0a:c9:c2:ed:6f:5c:23:
        ae:44:0b:65:af:c4:8e:e1:b6:78:9c:62:0d:d7:64:21:38:d8:
        91:f1:d0:e7:ca:62:b5:1f:12:69:00:4f:bc:6a:50:db:d6:df:
        56:fb
-----BEGIN CERTIFICATE-----
MIICCTCCAXKgAwIBAgIBAjANBgkqhkiG9w0BAQQFADAzMR0wGwYDVQQKExRTeW1i
aWFuIFNvZnR3YXJlIEx0ZDESMBAGA1UEAxMJUm9vdDUtUlNBMB4XDTA0MDMwMzE2
MzQ0NVoXDTE0MDMwMTE2MzQ0NVowMTEdMBsGA1UEChMUU3ltYmlhbiBTb2Z0d2Fy
ZSBMdGQxEDAOBgNVBAMTB0dvb2QtUjUwgZ8wDQYJKoZIhvcNAQEBBQADgY0AMIGJ
AoGBANZdoZZZnxy4PXjFNPDA4nQzJ7TeaPGqLJvkcRGL8GG1IkWayH2ALmu1/y9k
zubeZexDixycYWMtF5ftpkhdAl+uuEUpmZALFNZNVRE2WUHGwLI4byK4cRemkyg0
mpaI1Dj7RykZlDi1G68uZPwYq9P0zw1oLMdHoBpXoKUYKXwFAgMBAAGjLzAtMBMG
A1UdJQQMMAoGCCsGAQUFBwMDMBYGA1UdIAQPMA0wCwYJKoY6AAHt02sBMA0GCSqG
SIb3DQEBBAUAA4GBACfm9aZVS9CJKKcIxqmyhnOhNDHhkO/6c0pTM3IUK0QZSSoT
9gD9+MVfx2IX43+k/ePu4xHeSY/7cJXuWgWW7nVKwk/da96hRcTPM1in6vb03a5O
CsnC7W9cI65EC2WvxI7htnicYg3XZCE42JHx0OfKYrUfEmkAT7xqUNvW31b7
-----END CERTIFICATE-----
