Certificate:
    Data:
        Version: 3 (0x2)
        Serial Number: 3 (0x3)
        Signature Algorithm: md5WithRSAEncryption
        Issuer: O=Symbian Software Ltd, CN=Root5-RSA
        Validity
            Not Before: Mar  3 16:34:47 2004 GMT
            Not After : Mar  1 16:34:47 2014 GMT
        Subject: O=Symbian Software Ltd, CN=Revoked-R5
        Subject Public Key Info:
            Public Key Algorithm: rsaEncryption
            RSA Public Key: (1024 bit)
                Modulus (1024 bit):
                    00:d9:bf:f3:b5:f0:ad:82:64:4d:c5:d4:e6:49:b0:
                    2a:f0:fa:b9:2c:b1:47:12:c9:5c:fb:85:21:c6:35:
                    89:dd:fb:03:01:e6:b7:ef:94:4d:14:60:f3:85:ff:
                    be:ef:87:8f:23:18:40:a9:99:3c:72:a8:44:81:22:
                    fe:2e:d7:a4:e5:00:48:4d:ed:a7:fc:68:07:6e:8f:
                    78:67:7d:43:0b:80:b4:86:00:8e:55:5d:12:c4:d0:
                    e5:68:97:fe:3f:21:37:bb:b3:cd:23:2b:36:70:dd:
                    3e:41:82:86:24:0a:56:59:5f:f4:4e:cd:08:39:5c:
                    8a:5e:79:99:13:98:3f:37:f1
                Exponent: 65537 (0x10001)
        X509v3 extensions:
            X509v3 Extended Key Usage: 
                Code Signing
            X509v3 Certificate Policies: 
                Policy: 1.2.826.0.1.1796587.1

    Signature Algorithm: md5WithRSAEncryption
        59:92:c7:0e:41:39:3a:9e:62:5a:28:7d:63:77:57:02:f0:66:
        32:00:91:4d:1b:c6:e1:fa:0e:31:bb:20:96:49:0a:36:71:48:
        1b:3c:19:40:ad:0d:56:b9:9e:c3:ed:e9:a5:d4:4a:af:40:c5:
        ee:67:c8:06:a7:d7:bf:4c:40:8b:3e:0e:11:45:dc:3d:69:95:
        67:dc:2b:74:f1:d1:d5:75:15:d7:46:13:36:5b:b5:8d:b5:d1:
        28:35:41:fc:e1:a4:af:2b:1f:82:75:62:66:db:80:1f:87:96:
        8e:e7:f9:0c:e6:b6:d9:36:1d:68:ea:b4:33:7d:c3:97:1f:68:
        3f:af
-----BEGIN CERTIFICATE-----
MIICDDCCAXWgAwIBAgIBAzANBgkqhkiG9w0BAQQFADAzMR0wGwYDVQQKExRTeW1i
aWFuIFNvZnR3YXJlIEx0ZDESMBAGA1UEAxMJUm9vdDUtUlNBMB4XDTA0MDMwMzE2
MzQ0N1oXDTE0MDMwMTE2MzQ0N1owNDEdMBsGA1UEChMUU3ltYmlhbiBTb2Z0d2Fy
ZSBMdGQxEzARBgNVBAMTClJldm9rZWQtUjUwgZ8wDQYJKoZIhvcNAQEBBQADgY0A
MIGJAoGBANm/87XwrYJkTcXU5kmwKvD6uSyxRxLJXPuFIcY1id37AwHmt++UTRRg
84X/vu+HjyMYQKmZPHKoRIEi/i7XpOUASE3tp/xoB26PeGd9QwuAtIYAjlVdEsTQ
5WiX/j8hN7uzzSMrNnDdPkGChiQKVllf9E7NCDlcil55mROYPzfxAgMBAAGjLzAt
MBMGA1UdJQQMMAoGCCsGAQUFBwMDMBYGA1UdIAQPMA0wCwYJKoY6AAHt02sBMA0G
CSqGSIb3DQEBBAUAA4GBAFmSxw5BOTqeYloofWN3VwLwZjIAkU0bxuH6DjG7IJZJ
CjZxSBs8GUCtDVa5nsPt6aXUSq9Axe5nyAan179MQIs+DhFF3D1plWfcK3Tx0dV1
FddGEzZbtY210Sg1QfzhpK8rH4J1YmbbgB+Hlo7n+Qzmttk2HWjqtDN9w5cfaD+v
-----END CERTIFICATE-----
