Certificate:
    Data:
        Version: 3 (0x2)
        Serial Number: 5 (0x5)
        Signature Algorithm: md5WithRSAEncryption
        Issuer: O=Symbian Software Ltd, CN=Root5-RSA
        Validity
            Not Before: Mar  3 16:34:50 2004 GMT
            Not After : Mar  1 16:34:50 2014 GMT
        Subject: O=Symbian Software Ltd, CN=Mid-R5
        Subject Public Key Info:
            Public Key Algorithm: rsaEncryption
            RSA Public Key: (1024 bit)
                Modulus (1024 bit):
                    00:ab:91:02:0d:a3:d4:8c:8a:0b:16:e3:dc:88:c8:
                    a3:64:be:07:e9:b1:64:61:e4:0a:af:90:21:74:ef:
                    20:a3:13:98:d0:df:c7:a0:c4:73:25:d4:84:19:e8:
                    29:34:32:ca:1b:83:2b:20:87:20:e8:12:98:c0:ba:
                    f0:ff:c5:10:d2:f3:30:d5:f1:17:45:47:43:ef:26:
                    63:2e:21:87:89:75:46:01:3a:5e:d7:bd:04:30:df:
                    1e:5c:6d:f7:80:87:3a:8b:58:a3:a3:f7:f0:43:d1:
                    12:93:d6:52:c7:23:f6:2b:87:d0:79:40:a3:7c:7e:
                    ec:ba:39:22:78:6d:39:06:41
                Exponent: 65537 (0x10001)
        X509v3 extensions:
            X509v3 Key Usage: critical
                Certificate Sign
            X509v3 Basic Constraints: critical
                CA:TRUE, pathlen:5
            X509v3 Subject Key Identifier: 
                7B:87:EE:22:1A:C5:10:17:A6:CD:C7:40:D2:F0:57:2E:AD:8E:51:B1
    Signature Algorithm: md5WithRSAEncryption
        a5:36:76:77:f2:fb:e4:ad:bb:9d:46:39:9b:d2:bd:1c:ea:00:
        b9:0d:e9:a0:45:4b:33:6c:a2:f5:fe:d0:e0:e5:5e:29:85:0b:
        af:1d:4a:16:e2:ba:8d:14:91:75:b5:ba:97:84:c3:a4:fa:76:
        76:d3:3d:6b:68:5a:af:bf:da:c5:70:94:0c:1f:ae:06:bd:67:
        67:7f:9a:c2:e0:a5:7c:fe:b9:0b:a5:3a:4b:3e:7c:75:6e:b7:
        63:18:3e:e4:69:fa:9f:de:c9:4a:4a:58:90:cb:da:94:37:6e:
        0c:7f:7d:da:5e:51:a3:01:4b:88:0a:88:17:b4:e2:13:66:c3:
        3f:0c
-----BEGIN CERTIFICATE-----
MIICHjCCAYegAwIBAgIBBTANBgkqhkiG9w0BAQQFADAzMR0wGwYDVQQKExRTeW1i
aWFuIFNvZnR3YXJlIEx0ZDESMBAGA1UEAxMJUm9vdDUtUlNBMB4XDTA0MDMwMzE2
MzQ1MFoXDTE0MDMwMTE2MzQ1MFowMDEdMBsGA1UEChMUU3ltYmlhbiBTb2Z0d2Fy
ZSBMdGQxDzANBgNVBAMTBk1pZC1SNTCBnzANBgkqhkiG9w0BAQEFAAOBjQAwgYkC
gYEAq5ECDaPUjIoLFuPciMijZL4H6bFkYeQKr5AhdO8goxOY0N/HoMRzJdSEGegp
NDLKG4MrIIcg6BKYwLrw/8UQ0vMw1fEXRUdD7yZjLiGHiXVGATpe170EMN8eXG33
gIc6i1ijo/fwQ9ESk9ZSxyP2K4fQeUCjfH7sujkieG05BkECAwEAAaNFMEMwDgYD
VR0PAQH/BAQDAgIEMBIGA1UdEwEB/wQIMAYBAf8CAQUwHQYDVR0OBBYEFHuH7iIa
xRAXps3HQNLwVy6tjlGxMA0GCSqGSIb3DQEBBAUAA4GBAKU2dnfy++Stu51GOZvS
vRzqALkN6aBFSzNsovX+0ODlXimFC68dShbiuo0UkXW1upeEw6T6dnbTPWtoWq+/
2sVwlAwfrga9Z2d/msLgpXz+uQulOks+fHVut2MYPuRp+p/eyUpKWJDL2pQ3bgx/
fdpeUaMBS4gKiBe04hNmwz8M
-----END CERTIFICATE-----
