Certificate:
    Data:
        Version: 3 (0x2)
        Serial Number: 7 (0x7)
        Signature Algorithm: md5WithRSAEncryption
        Issuer: O=Symbian Software Ltd, CN=Root5-RSA
        Validity
            Not Before: Mar  3 16:34:52 2004 GMT
            Not After : Aug  6 16:34:52 2020 GMT
        Subject: O=Symbian Software Ltd, CN=OCSPSigner-R5
        Subject Public Key Info:
            Public Key Algorithm: rsaEncryption
            RSA Public Key: (1024 bit)
                Modulus (1024 bit):
                    00:a8:95:e1:f6:c6:50:e3:7e:09:ac:84:e5:78:51:
                    71:27:50:c4:43:d5:80:55:c9:00:40:35:c4:d6:70:
                    87:86:85:56:2e:0d:c6:91:ee:a8:5c:4a:c8:cf:d1:
                    d4:42:34:be:90:4e:09:d4:58:e6:da:cf:e3:0c:ca:
                    b1:19:7a:8a:a9:5f:7c:59:f7:be:64:07:f6:81:7b:
                    51:de:53:9b:bd:7c:f3:c0:1f:e3:fd:b1:b5:0f:33:
                    49:c1:32:3f:1d:b5:dc:6c:8b:c5:a3:c6:28:67:77:
                    ad:61:e2:23:4a:e5:1e:51:11:26:d6:49:5a:6b:67:
                    12:f4:d3:d3:47:24:68:f6:9f
                Exponent: 65537 (0x10001)
        X509v3 extensions:
            OCSP No Check: 

    Signature Algorithm: md5WithRSAEncryption
        59:79:91:29:ad:29:3b:2d:6a:14:2a:07:be:76:60:82:b0:4a:
        ab:a0:f8:e6:89:07:49:d6:75:2b:66:1d:a6:ea:0c:bd:2f:4d:
        81:57:10:3d:bf:4d:ab:b2:6d:d8:bd:82:dd:c6:3b:51:80:39:
        66:7e:8b:b0:f8:f9:90:06:c6:65:33:49:af:e7:58:b0:66:1b:
        10:fa:00:52:a5:d0:3b:e3:75:3b:d9:d2:77:85:e5:c6:fe:c5:
        e6:42:32:2c:82:eb:be:ab:f1:e0:f3:91:6b:49:c7:54:b8:9a:
        c4:b6:33:83:c5:98:f4:28:fc:76:ff:21:c1:81:b0:40:11:75:
        3d:8c
-----BEGIN CERTIFICATE-----
MIIB8zCCAVygAwIBAgIBBzANBgkqhkiG9w0BAQQFADAzMR0wGwYDVQQKExRTeW1i
aWFuIFNvZnR3YXJlIEx0ZDESMBAGA1UEAxMJUm9vdDUtUlNBMB4XDTA0MDMwMzE2
MzQ1MloXDTIwMDgwNjE2MzQ1MlowNzEdMBsGA1UEChMUU3ltYmlhbiBTb2Z0d2Fy
ZSBMdGQxFjAUBgNVBAMTDU9DU1BTaWduZXItUjUwgZ8wDQYJKoZIhvcNAQEBBQAD
gY0AMIGJAoGBAKiV4fbGUON+CayE5XhRcSdQxEPVgFXJAEA1xNZwh4aFVi4NxpHu
qFxKyM/R1EI0vpBOCdRY5trP4wzKsRl6iqlffFn3vmQH9oF7Ud5Tm71888Af4/2x
tQ8zScEyPx213GyLxaPGKGd3rWHiI0rlHlERJtZJWmtnEvTT00ckaPafAgMBAAGj
EzARMA8GCSsGAQUFBzABBQQCBQAwDQYJKoZIhvcNAQEEBQADgYEAWXmRKa0pOy1q
FCoHvnZggrBKq6D45okHSdZ1K2YdpuoMvS9NgVcQPb9Nq7Jt2L2C3cY7UYA5Zn6L
sPj5kAbGZTNJr+dYsGYbEPoAUqXQO+N1O9nSd4Xlxv7F5kIyLILrvqvx4PORa0nH
VLiaxLYzg8WY9Cj8dv8hwYGwQBF1PYw=
-----END CERTIFICATE-----
