Certificate:
    Data:
        Version: 3 (0x2)
        Serial Number: 8 (0x8)
        Signature Algorithm: md5WithRSAEncryption
        Issuer: O=Symbian Software Ltd, CN=Root5-RSA
        Validity
            Not Before: Mar  3 16:34:54 2004 GMT
            Not After : Mar  1 16:34:54 2014 GMT
        Subject: O=Symbian Software Ltd, CN=GoodAIA-R5
        Subject Public Key Info:
            Public Key Algorithm: rsaEncryption
            RSA Public Key: (1024 bit)
                Modulus (1024 bit):
                    00:e2:8f:16:ec:7c:f4:ae:d4:ed:fd:68:c8:21:e1:
                    33:47:cd:d6:75:7b:84:9f:38:48:19:ef:d1:d0:aa:
                    34:a1:6a:19:f9:90:c7:99:ea:14:a3:76:67:7e:b6:
                    22:02:5f:aa:bb:e5:31:51:3a:5b:0a:b0:a5:e1:ec:
                    68:19:62:4f:9e:18:8e:61:ed:24:6f:05:87:50:1c:
                    06:9a:79:82:cd:b3:0f:d0:3f:63:ee:49:72:da:ab:
                    3a:ea:bc:00:f0:87:07:a2:de:49:50:cd:1d:83:bc:
                    30:20:3e:ff:50:b0:79:4c:bd:7d:0a:03:e9:64:a1:
                    d3:71:e4:64:5b:82:b9:ed:05
                Exponent: 65537 (0x10001)
        X509v3 extensions:
            Authority Information Access: 
                OCSP - URI:http://cam-ocsptest01.intra:19003

    Signature Algorithm: md5WithRSAEncryption
        9b:46:1c:54:29:41:ed:17:46:69:e4:6e:34:e9:6a:ed:e2:7f:
        3b:db:5a:fe:ad:1c:4f:07:77:70:52:57:91:57:c8:92:f6:a6:
        39:1e:d9:f6:4d:14:98:3a:b6:63:af:a1:9a:f6:ba:0d:78:e1:
        4a:92:c5:e3:4b:19:88:40:0f:4f:e1:46:2c:5c:f1:12:c5:c7:
        14:67:94:64:0a:3d:88:0c:a9:d4:10:35:f7:77:e8:7e:55:6f:
        f1:f2:d1:f4:0e:d3:79:d7:d2:a4:d3:5d:53:e9:f9:b1:cf:d6:
        1c:38:74:1e:83:b5:92:47:5f:8c:50:38:78:75:9f:e0:45:f5:
        a0:21
-----BEGIN CERTIFICATE-----
MIICHjCCAYegAwIBAgIBCDANBgkqhkiG9w0BAQQFADAzMR0wGwYDVQQKExRTeW1i
aWFuIFNvZnR3YXJlIEx0ZDESMBAGA1UEAxMJUm9vdDUtUlNBMB4XDTA0MDMwMzE2
MzQ1NFoXDTE0MDMwMTE2MzQ1NFowNDEdMBsGA1UEChMUU3ltYmlhbiBTb2Z0d2Fy
ZSBMdGQxEzARBgNVBAMTCkdvb2RBSUEtUjUwgZ8wDQYJKoZIhvcNAQEBBQADgY0A
MIGJAoGBAOKPFux89K7U7f1oyCHhM0fN1nV7hJ84SBnv0dCqNKFqGfmQx5nqFKN2
Z362IgJfqrvlMVE6WwqwpeHsaBliT54YjmHtJG8Fh1AcBpp5gs2zD9A/Y+5Jctqr
Ouq8APCHB6LeSVDNHYO8MCA+/1CweUy9fQoD6WSh03HkZFuCue0FAgMBAAGjQTA/
MD0GCCsGAQUFBwEBBDEwLzAtBggrBgEFBQcwAYYhaHR0cDovL2xvbi1zeXNidWls
ZDAzLmludHJhOjE5MDAzMA0GCSqGSIb3DQEBBAUAA4GBAJtGHFQpQe0XRmnkbjTp
au3ifzvbWv6tHE8Hd3BSV5FXyJL2pjke2fZNFJg6tmOvoZr2ug144UqSxeNLGYhA
D0/hRixc8RLFxxRnlGQKPYgMqdQQNfd36H5Vb/Hy0fQO03nX0qTTXVPp+bHP1hw4
dB6DtZJHX4xQOHh1n+BF9aAh
-----END CERTIFICATE-----
