Certificate:
    Data:
        Version: 1 (0x0)
        Serial Number: 9 (0x9)
        Signature Algorithm: md5WithRSAEncryption
        Issuer: O=Symbian Software Ltd, CN=Root5-RSA
        Validity
            Not Before: Mar  3 16:34:55 2004 GMT
            Not After : Aug  6 16:34:55 2020 GMT
        Subject: O=Symbian Software Ltd, CN=cam-ocsptest01.intra
        Subject Public Key Info:
            Public Key Algorithm: rsaEncryption
            RSA Public Key: (1024 bit)
                Modulus (1024 bit):
                    00:b2:4e:0f:6d:9b:fa:5c:7c:a3:cb:94:a5:97:b0:
                    03:27:bf:49:3d:56:ab:a4:03:11:62:82:d4:c7:da:
                    1c:e3:57:78:b8:9b:b5:9f:70:a8:0e:33:9d:e7:3c:
                    16:bb:04:af:d9:28:fd:36:4b:c9:5d:7c:d1:02:ba:
                    8f:e4:aa:b9:f1:97:7b:84:a1:88:4e:32:fb:37:f9:
                    ec:b8:c4:a2:77:81:de:b2:8c:17:4e:1b:29:4d:e4:
                    7b:33:fe:1f:71:cf:04:00:f6:2b:f3:53:04:7d:1d:
                    27:2e:3e:74:17:a1:4f:7f:0d:1a:b9:3f:23:10:8d:
                    19:cc:62:95:5b:d2:6f:d8:91
                Exponent: 65537 (0x10001)
    Signature Algorithm: md5WithRSAEncryption
        74:e6:5f:15:e6:40:17:79:58:34:a4:e9:fd:bd:88:2c:4e:58:
        d9:66:85:b7:39:9a:c1:3b:05:66:93:6b:66:3a:f0:e5:bd:cc:
        67:7e:7f:65:71:af:34:86:3c:06:d8:c4:7a:12:de:ea:fb:0d:
        93:ef:55:30:a0:5a:9d:77:0d:c0:b3:f8:2a:8a:a5:01:6d:20:
        bf:76:f1:7e:1e:0c:5d:b0:40:cd:99:89:6c:ca:37:b9:ec:d8:
        aa:b0:bf:89:b9:80:d0:2f:80:f1:88:57:78:4e:61:9a:3e:87:
        b8:ab:f1:63:42:3a:10:e3:c4:1a:8e:d5:93:62:7a:4e:31:57:
        9b:4a
-----BEGIN CERTIFICATE-----
MIIB4DCCAUkCAQkwDQYJKoZIhvcNAQEEBQAwMzEdMBsGA1UEChMUU3ltYmlhbiBT
b2Z0d2FyZSBMdGQxEjAQBgNVBAMTCVJvb3Q1LVJTQTAeFw0wNDAzMDMxNjM0NTVa
Fw0yMDA4MDYxNjM0NTVaMD4xHTAbBgNVBAoTFFN5bWJpYW4gU29mdHdhcmUgTHRk
MR0wGwYDVQQDExRsb24tc3lzYnVpbGQwMy5pbnRyYTCBnzANBgkqhkiG9w0BAQEF
AAOBjQAwgYkCgYEAsk4PbZv6XHyjy5Sll7ADJ79JPVarpAMRYoLUx9oc41d4uJu1
n3CoDjOd5zwWuwSv2Sj9NkvJXXzRArqP5Kq58Zd7hKGITjL7N/nsuMSid4HesowX
ThspTeR7M/4fcc8EAPYr81MEfR0nLj50F6FPfw0auT8jEI0ZzGKVW9Jv2JECAwEA
ATANBgkqhkiG9w0BAQQFAAOBgQB05l8V5kAXeVg0pOn9vYgsTljZZoW3OZrBOwVm
k2tmOvDlvcxnfn9lca80hjwG2MR6Et7q+w2T71UwoFqddw3As/gqiqUBbSC/dvF+
HgxdsEDNmYlsyje57NiqsL+JuYDQL4DxiFd4TmGaPoe4q/FjQjoQ48QajtWTYnpO
MVebSg==
-----END CERTIFICATE-----
