EXPORTS
	_ZN10CFontStore10RemoveFileE4TUid @ 1 NONAME
	_ZN10CFontStore11GetFontByIdERP5CFont4TUidRK9TAlgStyle @ 2 NONAME
	_ZN10CFontStore18DeleteSessionCacheEi @ 3 NONAME
	_ZN10CFontStore18InstallRasterizerLEP19COpenFontRasterizer @ 4 NONAME
	_ZN10CFontStore21GetNearestFontInTwipsERP5CFontRK13TOpenFontSpec @ 5 NONAME
	_ZN10CFontStore21GetNearestFontInTwipsERP5CFontRK9TFontSpec @ 6 NONAME
	_ZN10CFontStore22GetNearestFontInPixelsERP5CFontRK13TOpenFontSpec @ 7 NONAME
	_ZN10CFontStore22GetNearestFontInPixelsERP5CFontRK9TFontSpec @ 8 NONAME
	_ZN10CFontStore4NewLEP5RHeap @ 9 NONAME
	_ZN10CFontStore8AddFileLERK7TDesC16 @ 10 NONAME
	_ZN10CFontStoreD0Ev @ 11 NONAME
	_ZN10CFontStoreD1Ev @ 12 NONAME
	_ZN10CFontStoreD2Ev @ 13 NONAME
	_ZN11CBitmapFont4NewLEP5RHeapRK9TFontSpecRK9TAlgStyleP11CFontBitmap @ 14 NONAME ABSENT
	_ZN11CBitmapFontdlEPv @ 15 NONAME
	_ZN13COpenFontFile8AddFaceLERK19TOpenFontFaceAttrib @ 16 NONAME
	_ZN13COpenFontFile17ExtendedInterfaceE4TUidRPv @ 17 NONAME
	_ZTV9COpenFont @ 18 NONAME ; #<VT>#
	_ZN13COpenFontFileC2EiRK7TDesC16 @ 19 NONAME
	_ZN13COpenFontFileD0Ev @ 20 NONAME
	_ZN13COpenFontFileD1Ev @ 21 NONAME
	_ZN13COpenFontFileD2Ev @ 22 NONAME
	_ZN13TOpenFontSpec24CompensateForAspectRatioERK18MGraphicsDeviceMap @ 23 NONAME
	_ZN13TOpenFontSpec24CompensateForAspectRatioEii @ 24 NONAME
	_ZN13TOpenFontSpec9SetAttribERK23TOpenFontFaceAttribBase @ 25 NONAME
	_ZN13TOpenFontSpecC1ERK9TFontSpec @ 26 NONAME
	_ZN13TOpenFontSpecC1Ev @ 27 NONAME
	_ZN13TOpenFontSpecC2ERK9TFontSpec @ 28 NONAME
	_ZN13TOpenFontSpecC2Ev @ 29 NONAME
	_ZN13TOpenFontSpecaSERK9TFontSpec @ 30 NONAME
	_ZN16TOpenFontMetricsC1EPK5CFont @ 31 NONAME
	_ZN16TOpenFontMetricsC2EPK5CFont @ 32 NONAME
	_ZN17TCharacterMetricsC1Ev @ 33 NONAME
	_ZN17TCharacterMetricsC2Ev @ 34 NONAME
	_ZN18TOpenFontGlyphData3NewEP5RHeapi @ 35 NONAME
	_ZN19COpenFontRasterizer17ExtendedInterfaceE4TUidRPv @ 36 NONAME
	_ZN20TOpenFontCharMetricsC1ERK17TCharacterMetrics @ 37 NONAME
	_ZN20TOpenFontCharMetricsC2ERK17TCharacterMetrics @ 38 NONAME
	_ZN9COpenFont17ExtendedInterfaceE4TUidRPv @ 39 NONAME
	_ZTV19COpenFontRasterizer @ 40 NONAME ; #<VT>#
	_ZTV13COpenFontFile @ 41 NONAME ; #<VT>#
	_ZN9COpenFontC2EP5RHeapP25COpenFontSessionCacheListP13COpenFontFile @ 42 NONAME
	_ZN9COpenFontC2EP5RHeapP25COpenFontSessionCacheListP13COpenFontFilei @ 43 NONAME
	_ZN9COpenFontD0Ev @ 44 NONAME
	_ZN9COpenFontD1Ev @ 45 NONAME
	_ZN9COpenFontD2Ev @ 46 NONAME
	_ZN9COpenFontdlEPv @ 47 NONAME
	_ZN9TAlgStyle11SetIsItalicEi @ 48 NONAME
	_ZN9TAlgStyle14SetWidthFactorEi @ 49 NONAME
	_ZN9TAlgStyle15SetHeightFactorEi @ 50 NONAME
	_ZN9TAlgStyle9SetIsBoldEi @ 51 NONAME
	_ZN9TAlgStyle9SetIsMonoEi @ 52 NONAME
	_ZN9TAlgStyleC1Ev @ 53 NONAME
	_ZN9TAlgStyleC2Ev @ 54 NONAME
	_ZNK10CFontStore12NumTypefacesEv @ 55 NONAME
	_ZNK10CFontStore15TypefaceSupportER16TTypefaceSupporti @ 56 NONAME
	_ZNK10CFontStore17FontHeightInTwipsEii @ 57 NONAME
	_ZNK10CFontStore18FontHeightInPixelsEii @ 58 NONAME
	_ZNK11CBitmapFont13GetFaceAttribER19TOpenFontFaceAttrib @ 59 NONAME
	_ZNK11CBitmapFont13HasCharacterLEi @ 60 NONAME
	_ZNK11CBitmapFont16DoAscentInPixelsEv @ 61 NONAME
	_ZNK11CBitmapFont14BitmapEncodingEv @ 62 NONAME
	_ZNK11CBitmapFont14GetFontMetricsER16TOpenFontMetrics @ 63 NONAME
	_ZNK11CBitmapFont16DoHeightInPixelsEv @ 64 NONAME
	_ZNK11CBitmapFont17DoFontSpecInTwipsEv @ 65 NONAME
	_ZNK11CBitmapFont16CharacterMetricsEiRPKh @ 66 NONAME
	_ZNK11CBitmapFont16GetCharacterDataEiiR20TOpenFontCharMetricsRPKh @ 67 NONAME
	_ZNK11CBitmapFont19DoCharWidthInPixelsE5TChar @ 68 NONAME
	_ZNK11CBitmapFont19DoTextWidthInPixelsERK7TDesC16 @ 69 NONAME
	_ZNK11CBitmapFont22DoMaxCharWidthInPixelsEv @ 70 NONAME
	_ZNK11CBitmapFont24DoBaselineOffsetInPixelsEv @ 71 NONAME
	_ZNK11CBitmapFont28DoMaxNormalCharWidthInPixelsEv @ 72 NONAME
	_ZNK11CBitmapFont28CharacterNeedsToBeRasterizedEii @ 73 NONAME
	_ZNK11CBitmapFont9DoTypeUidEv @ 74 NONAME
	_ZNK11CBitmapFont9RasterizeEiiP18TOpenFontGlyphData @ 75 NONAME
	_ZNK11CBitmapFont11DoTextCountERK7TDesC16i @ 76 NONAME
	_ZNK11CBitmapFont11DoTextCountERK7TDesC16iRi @ 77 NONAME
	_ZNK13COpenFontFile20GetNearestFontHelperERK13TOpenFontSpeciiRiRS0_ @ 78 NONAME
	_ZNK13COpenFontFile23GetNearestFontHelperOldERK13TOpenFontSpeciiRiRS0_ @ 79 NONAME
	_ZNK13TOpenFontSpec12GetTFontSpecER9TFontSpec @ 80 NONAME
	_ZNK20TOpenFontCharMetrics20GetTCharacterMetricsER17TCharacterMetrics @ 81 NONAME
	_ZNK9TAlgStyle11WidthFactorEv @ 82 NONAME
	_ZNK9TAlgStyle12HeightFactorEv @ 83 NONAME
	_ZNK9TAlgStyle6IsBoldEv @ 84 NONAME
	_ZNK9TAlgStyle6IsMonoEv @ 85 NONAME
	_ZNK9TAlgStyle8IsItalicEv @ 86 NONAME
	_ZNK9TAlgStyleeqERKS_ @ 87 NONAME
	_ZTI13COpenFontFile @ 88 NONAME ; #<TI>#
	_ZTI19COpenFontRasterizer @ 89 NONAME ; #<TI>#
	_ZTI9COpenFont @ 90 NONAME ; #<TI>#
	_ZTI10CFontStore @ 91 NONAME ; #<TI>#
	_ZTI11CBitmapFont @ 92 NONAME ; #<TI>#
	_ZTI11CFontBitmap @ 93 NONAME ABSENT ; #<TI>#
	_ZTI14CFontStoreFile @ 94 NONAME ABSENT ; #<TI>#
	_ZTI19COpenFontPositioner @ 95 NONAME ABSENT ; #<TI>#
	_ZTV10CFontStore @ 96 NONAME ; #<VT>#
	_ZTV11CBitmapFont @ 97 NONAME ; #<VT>#
	_ZTV11CFontBitmap @ 98 NONAME ABSENT ; #<VT>#
	_ZTV14CFontStoreFile @ 99 NONAME ABSENT ; #<VT>#
	_ZTV19COpenFontPositioner @ 100 NONAME ABSENT ; #<VT>#
	_ZN10CFontStore32GetNearestFontToMaxHeightInTwipsERP5CFontRK13TOpenFontSpeci @ 101 NONAME
	_ZN10CFontStore32GetNearestFontToMaxHeightInTwipsERP5CFontRK9TFontSpeci @ 102 NONAME
	_ZN10CFontStore33GetNearestFontToMaxHeightInPixelsERP5CFontRK13TOpenFontSpeci @ 103 NONAME
	_ZN10CFontStore33GetNearestFontToMaxHeightInPixelsERP5CFontRK9TFontSpeci @ 104 NONAME
	_ZN10CFontStore35GetNearestFontToDesignHeightInTwipsERP5CFontRK13TOpenFontSpec @ 105 NONAME
	_ZN10CFontStore35GetNearestFontToDesignHeightInTwipsERP5CFontRK9TFontSpec @ 106 NONAME
	_ZN10CFontStore36GetNearestFontToDesignHeightInPixelsERP5CFontRK13TOpenFontSpec @ 107 NONAME
	_ZN10CFontStore36GetNearestFontToDesignHeightInPixelsERP5CFontRK9TFontSpec @ 108 NONAME
	_ZNK11CBitmapFont18DoExtendedFunctionE4TUidPv @ 109 NONAME
	_ZN13TOpenFontSpec10SetEffectsEN10FontEffect7TEffectEi @ 110 NONAME
	_ZNK13TOpenFontSpec10IsEffectOnEN10FontEffect7TEffectE @ 111 NONAME
	_ZN13TOpenFontSpec23SetScriptTypeForMetricsE9TLanguage @ 112 NONAME
	_ZNK13TOpenFontSpec20ScriptTypeForMetricsEv @ 113 NONAME
	_ZNK13TOpenFontSpec16OperatorEqualityERKS_ @ 114 NONAME
	_ZN13TOpenFontSpec12DoSetEffectsEm @ 115 NONAME
	_ZNK13TOpenFontSpec9DoEffectsEv @ 116 NONAME
	_ZN11CBitmapFont10ShapeTextLERK7TDesC16iRK23TShapeMessageParameters @ 117 NONAME
	_ZN11CBitmapFont11DeleteShapeEiP12TShapeHeader @ 118 NONAME
	_ZN10CFontStore21InstallShaperFactoryLEP14CShaperFactory @ 119 NONAME
	_ZN7CShaper17ExtendedInterfaceE4TUid @ 120 NONAME
	_ZN7CShaperC2Ev @ 121 NONAME
	_ZN7CShaperD0Ev @ 122 NONAME
	_ZN7CShaperD1Ev @ 123 NONAME
	_ZN7CShaperD2Ev @ 124 NONAME
	_ZTI7CShaper @ 125 NONAME ; #<TI>#
	_ZTV7CShaper @ 126 NONAME ; #<VT>#
	_ZN10CFontStore16RemoveLinkedFontEP11CBitmapFont @ 127 NONAME ABSENT
	_ZN10CFontStore20CreateLinkedTypefaceERK23TLinkedTypefaceSpecArgsiRi @ 128 NONAME ABSENT
	_ZN22CLinkedTypefaceElement10ConstructLERK7TDesC16N28CLinkedTypefaceSpecification20TVerticalPositioningE @ 129 NONAME ABSENT
	_ZN22CLinkedTypefaceElement23SetSizeAdjustmentFactorEi @ 130 NONAME ABSENT
	_ZN22CLinkedTypefaceElement4NewLERK7TDesC16N28CLinkedTypefaceSpecification20TVerticalPositioningE @ 131 NONAME ABSENT
	_ZN22CLinkedTypefaceElement8SetRangeEii @ 132 NONAME ABSENT
	_ZN22CLinkedTypefaceElementD0Ev @ 133 NONAME ABSENT
	_ZN22CLinkedTypefaceElementD1Ev @ 134 NONAME ABSENT
	_ZN22CLinkedTypefaceElementD2Ev @ 135 NONAME ABSENT
	_ZN28CLinkedTypefaceSpecification11AddTypefaceERK7TDesC16iNS_20TVerticalPositioningERKNS_23TRangeMappingParametersE @ 136 NONAME ABSENT
	_ZN28CLinkedTypefaceSpecification11AddTypefaceERK7TDesC16iNS_20TVerticalPositioningEi @ 137 NONAME ABSENT
	_ZN28CLinkedTypefaceSpecification4NewLERK7TDesC16 @ 138 NONAME ABSENT
	_ZN28CLinkedTypefaceSpecification5NewLCERK7TDesC16 @ 139 NONAME
	_ZN28CLinkedTypefaceSpecificationD0Ev @ 140 NONAME
	_ZN28CLinkedTypefaceSpecificationD1Ev @ 141 NONAME
	_ZN28CLinkedTypefaceSpecificationD2Ev @ 142 NONAME
	_ZNK11CBitmapFont12IsLinkedFontEv @ 143 NONAME ABSENT
	_ZNK11CBitmapFont17FontWithCharacterEiRP22CLinkedFontInformationii @ 144 NONAME ABSENT
	_ZNK11CBitmapFont19NextFontClientSpaceEv @ 145 NONAME ABSENT
	_ZNK11CBitmapFont21LinkedFontInformationEv @ 146 NONAME ABSENT
	_ZNK22CLinkedTypefaceElement12TypefaceTypeEv @ 147 NONAME ABSENT
	_ZNK22CLinkedTypefaceElement19VerticalPositioningEv @ 148 NONAME ABSENT
	_ZNK22CLinkedTypefaceElement20SizeAdjustmentFactorEv @ 149 NONAME ABSENT
	_ZNK22CLinkedTypefaceElement4NameEv @ 150 NONAME ABSENT
	_ZNK22CLinkedTypefaceElement5RangeERiS0_ @ 151 NONAME ABSENT
	_ZNK28CLinkedTypefaceSpecification17NumberOfTypefacesEv @ 152 NONAME ABSENT
	_ZNK28CLinkedTypefaceSpecification4NameEv @ 153 NONAME
	_ZNK28CLinkedTypefaceSpecification8TypeFaceEi @ 154 NONAME ABSENT
	_ZTI17COpenFontForCache @ 155 NONAME ABSENT ; #<TI>#
	_ZTI22CLinkedFontInformation @ 156 NONAME ABSENT ; #<TI>#
	_ZTI22CLinkedTypefaceElement @ 157 NONAME ABSENT ; #<TI>#
	_ZTI24CLinkedFontSpecification @ 158 NONAME ABSENT ; #<TI>#
	_ZTI32CLinkedTypefaceSpecificationBody @ 159 NONAME ; #<TI>#
	_ZTV17COpenFontForCache @ 160 NONAME ABSENT ; #<VT>#
	_ZTV22CLinkedFontInformation @ 161 NONAME ABSENT ; #<VT>#
	_ZTV22CLinkedTypefaceElement @ 162 NONAME ABSENT ; #<VT>#
	_ZTV24CLinkedFontSpecification @ 163 NONAME ABSENT ; #<VT>#
	_ZTV32CLinkedTypefaceSpecificationBody @ 164 NONAME ; #<VT>#
	_ZN10CFontStore30IsValidLinkedFontSpecificationEi @ 165 NONAME ABSENT
	_ZN11CBitmapFont12UniqueFontIdEv @ 166 NONAME
	_ZN10CFontStore18GetLinkedTypefaceLER32TLinkedTypefaceSpecificationArgs @ 167 NONAME
	_ZN10CFontStore20CreateLinkedTypefaceERK32TLinkedTypefaceSpecificationArgsiRi @ 168 NONAME
	_ZNPlaceholderAbsent @ 169 NONAME ABSENT
	_ZN20CLinkedTypefaceGroup14SetItalicAngleEi @ 170 NONAME
	_ZN20CLinkedTypefaceGroup16SetBaselineShiftENS_14TBaselineShiftE @ 171 NONAME
	_ZN20CLinkedTypefaceGroup16SetScalingOptionENS_14TScalingOptionE @ 172 NONAME
	_ZN20CLinkedTypefaceGroup21SetBoldnessPercentageEi @ 173 NONAME
	_ZN20CLinkedTypefaceGroup24SetAntiAliasingThresholdEi @ 174 NONAME ABSENT
	_ZN20CLinkedTypefaceGroup5NewLCEi @ 175 NONAME
	_ZN20TOpenFontCharMetrics12SetGlyphTypeE16TGlyphBitmapType @ 176 NONAME
	_ZN20TOpenFontCharMetrics21SetBaselineCorrectionEi @ 177 NONAME ABSENT
	_ZN26CLinkedTypefaceElementSpec12SetCanonicalEi @ 178 NONAME
	_ZN26CLinkedTypefaceElementSpec5NewLCERK7TDesC16i @ 179 NONAME
	_ZN26CLinkedTypefaceElementSpecD0Ev @ 180 NONAME
	_ZN26CLinkedTypefaceElementSpecD1Ev @ 181 NONAME
	_ZN26CLinkedTypefaceElementSpecD2Ev @ 182 NONAME
	_ZN28CLinkedTypefaceSpecification14CanonicalIndexEv @ 183 NONAME
	_ZN28CLinkedTypefaceSpecification14RemoveTypefaceEi @ 184 NONAME
	_ZN28CLinkedTypefaceSpecification18AddTypefaceAtBackLER26CLinkedTypefaceElementSpec @ 185 NONAME
	_ZN28CLinkedTypefaceSpecification19AddTypefaceAtIndexLER26CLinkedTypefaceElementSpeci @ 186 NONAME
	_ZN28CLinkedTypefaceSpecification23AddLinkedTypefaceGroupLER20CLinkedTypefaceGroup @ 187 NONAME
	_ZN28CLinkedTypefaceSpecification23RegisterLinkedTypefaceLER17CFbsTypefaceStore @ 188 NONAME
	_ZN28CLinkedTypefaceSpecification25RemoveLinkedTypefaceGroupEi @ 189 NONAME
	_ZN28CLinkedTypefaceSpecification33FetchLinkedTypefaceSpecificationLER17CFbsTypefaceStore @ 190 NONAME
	_ZN28CLinkedTypefaceSpecification5ClearEv @ 191 NONAME
	_ZN32TLinkedTypefaceSpecificationArgsaSERK28CLinkedTypefaceSpecification @ 192 NONAME
	_ZN32TLinkedTypefaceSpecificationArgsaSERK36COpenFontLinkedTypefaceSpecification @ 193 NONAME
	_ZN34COpenFontLinkedTypefaceElementSpec12SetCanonicalEi @ 194 NONAME
	_ZN34COpenFontLinkedTypefaceElementSpec12SetFileNameLERK7TDesC16 @ 195 NONAME
	_ZN34COpenFontLinkedTypefaceElementSpec5NewLCERK7TDesC16i @ 196 NONAME
	_ZN34COpenFontLinkedTypefaceElementSpecD0Ev @ 197 NONAME
	_ZN34COpenFontLinkedTypefaceElementSpecD1Ev @ 198 NONAME
	_ZN34COpenFontLinkedTypefaceElementSpecD2Ev @ 199 NONAME
	_ZN36COpenFontLinkedTypefaceSpecification14RemoveTypefaceEi @ 200 NONAME
	_ZN36COpenFontLinkedTypefaceSpecification18AddTypefaceAtBackLER34COpenFontLinkedTypefaceElementSpec @ 201 NONAME
	_ZN36COpenFontLinkedTypefaceSpecification19AddTypefaceAtIndexLER34COpenFontLinkedTypefaceElementSpeci @ 202 NONAME
	_ZN36COpenFontLinkedTypefaceSpecification23AddLinkedTypefaceGroupLER20CLinkedTypefaceGroup @ 203 NONAME
	_ZN36COpenFontLinkedTypefaceSpecification25RemoveLinkedTypefaceGroupEi @ 204 NONAME
	_ZN36COpenFontLinkedTypefaceSpecification5NewLCERK32TLinkedTypefaceSpecificationArgs @ 205 NONAME
	_ZN36COpenFontLinkedTypefaceSpecification5NewLCERK7TDesC16 @ 206 NONAME
	_ZN36COpenFontLinkedTypefaceSpecificationD0Ev @ 207 NONAME
	_ZN36COpenFontLinkedTypefaceSpecificationD1Ev @ 208 NONAME
	_ZN36COpenFontLinkedTypefaceSpecificationD2Ev @ 209 NONAME
	_ZNK20CLinkedTypefaceGroup11ItalicAngleEv @ 210 NONAME
	_ZNK20CLinkedTypefaceGroup13BaselineShiftEv @ 211 NONAME
	_ZNK20CLinkedTypefaceGroup13ScalingOptionEv @ 212 NONAME
	_ZNK20CLinkedTypefaceGroup18BoldnessPercentageEv @ 213 NONAME
	_ZNK20CLinkedTypefaceGroup21AntiAliasingThresholdEv @ 214 NONAME ABSENT
	_ZNK20CLinkedTypefaceGroup7GroupIdEv @ 215 NONAME
	_ZNK20TOpenFontCharMetrics18BaselineCorrectionEv @ 216 NONAME ABSENT
	_ZNK20TOpenFontCharMetrics9GlyphTypeEv @ 217 NONAME
	_ZNK26CLinkedTypefaceElementSpec11ElementNameEv @ 218 NONAME
	_ZNK26CLinkedTypefaceElementSpec7GroupIdEv @ 219 NONAME
	_ZNK26CLinkedTypefaceElementSpec9CanonicalEv @ 220 NONAME
	_ZNK28CLinkedTypefaceSpecification10GroupCountEv @ 221 NONAME
	_ZNK28CLinkedTypefaceSpecification13TypefaceCountEv @ 222 NONAME
	_ZNK28CLinkedTypefaceSpecification5GroupEi @ 223 NONAME
	_ZNK28CLinkedTypefaceSpecification8TypefaceEi @ 224 NONAME
	_ZNK28CLinkedTypefaceSpecification9GroupByIdEi @ 225 NONAME
	_ZNK34COpenFontLinkedTypefaceElementSpec11ElementNameEv @ 226 NONAME
	_ZNK34COpenFontLinkedTypefaceElementSpec7GroupIdEv @ 227 NONAME
	_ZNK34COpenFontLinkedTypefaceElementSpec8FileNameEv @ 228 NONAME
	_ZNK34COpenFontLinkedTypefaceElementSpec9CanonicalEv @ 229 NONAME
	_ZNK36COpenFontLinkedTypefaceSpecification10GroupCountEv @ 230 NONAME
	_ZNK36COpenFontLinkedTypefaceSpecification13TypefaceCountEv @ 231 NONAME
	_ZNK36COpenFontLinkedTypefaceSpecification4NameEv @ 232 NONAME
	_ZNK36COpenFontLinkedTypefaceSpecification5GroupEi @ 233 NONAME
	_ZNK36COpenFontLinkedTypefaceSpecification8TypefaceEi @ 234 NONAME
	_ZNK36COpenFontLinkedTypefaceSpecification9GroupByIdEi @ 235 NONAME
	_ZTI40COpenFontLinkedTypefaceSpecificationBody @ 236 NONAME
	_ZTV40COpenFontLinkedTypefaceSpecificationBody @ 237 NONAME
	_ZNK36COpenFontLinkedTypefaceSpecification14CanonicalIndexEv @ 238 NONAME
	_ZN10CFontStore22HaveTypefaceFamilyNameERK7TDesC16 @ 239 NONAME
	_ZN16TOpenFontMetrics18BaselineCorrectionEv @ 240 NONAME
	_ZN16TOpenFontMetrics21SetBaselineCorrectionEi @ 241 NONAME
	KLinkedFontDrive @ 242 NONAME DATA 1
	_ZN10CFontStore19LoadFontsAtStartupLEv @ 243 NONAME
	_ZN10CFontStore21UpdateLinkedTypefaceLERK32TLinkedTypefaceSpecificationArgs @ 244 NONAME
	_ZN28CLinkedTypefaceSpecification21UpdateLinkedTypefaceLER17CFbsTypefaceStore @ 245 NONAME
	_ZNK10CFontStore15GetFontFilePathERK7TDesC16R4TBufILi256EE @ 246 NONAME
	KFontTable_GlyphOutline_CacheMaxMem @ 247 NONAME DATA 4
	_ZN10CFontStore35CleanupCacheOnFbsSessionTerminationEi @ 248 NONAME
	_ZN11CBitmapFont12GetFontTableEmRPvRii @ 249 NONAME
	_ZN11CBitmapFont15GetGlyphOutlineEjiRPvRii @ 250 NONAME
	_ZN11CBitmapFont16ReleaseFontTableEmi @ 251 NONAME
	_ZN11CBitmapFont20ReleaseGlyphOutlinesEiPKjii @ 252 NONAME

