Certificate:
    Data:
        Version: 3 (0x2)
        Serial Number: 19 (0x13)
        Signature Algorithm: md5WithRSAEncryption
        Issuer: C=AU, ST=NSW, L=Neutral Bay, O=AdvansysCorp, CN=Jo Stichbury/Email=JoS@test.com
        Validity
            Not Before: Nov 14 12:57:39 2002 GMT
            Not After : Nov 13 12:57:39 2004 GMT
        Subject: C=UK, ST=London, L=London, O=Lovells, CN=Wibble/Email=wibble@lovells.com
        Subject Public Key Info:
            Public Key Algorithm: rsaEncryption
            RSA Public Key: (1024 bit)
                Modulus (1024 bit):
                    00:e3:a8:23:04:e1:44:41:e7:88:96:76:0f:f5:84:
                    60:eb:b9:70:3d:39:a6:bd:cc:22:de:90:b4:a7:64:
                    9c:68:a7:bd:00:cc:04:2d:65:b5:f2:98:4e:bd:4c:
                    a5:98:6c:90:fd:e6:70:c4:11:7b:dc:a0:e3:c8:cf:
                    84:db:99:39:51:fc:a1:5c:6c:57:3f:64:02:f3:c8:
                    4a:75:38:06:5a:c5:34:c4:09:a2:63:a8:00:30:be:
                    57:c1:f3:b2:cb:ec:6e:c2:b8:1f:ef:d1:96:48:26:
                    f0:3a:03:c7:5c:c2:41:68:06:87:0f:12:85:72:48:
                    db:cc:3e:56:73:dd:c3:c6:af
                Exponent: 65537 (0x10001)
        X509v3 extensions:
            X509v3 Subject Key Identifier: 
                22:D7:B5:12:5E:39:D0:89:8A:6A:48:AF:51:5E:07:C5:D8:2C:29:A1
            X509v3 Authority Key Identifier: 
                keyid:41:4D:37:FF:44:2A:E7:08:C6:BA:F3:95:46:D2:B8:4B:68:8F:E6:4A
                DirName:/C=AU/ST=NSW/L=Neutral Bay/O=AdvansysCorp/CN=Jo Stichbury/Email=JoS@test.com
                serial:00

            X509v3 Basic Constraints: 
                CA:TRUE
            X509v3 Key Usage: 
                Key Encipherment, Certificate Sign
    Signature Algorithm: md5WithRSAEncryption
        9c:15:23:10:11:82:95:4f:95:3d:50:64:54:c4:38:75:00:32:
        71:01:54:63:26:e5:e1:b5:ca:7b:cb:33:d3:98:a6:01:0d:a9:
        f5:07:9e:a4:36:ee:5c:7f:56:bd:41:3f:3e:5a:2f:8f:5b:4b:
        73:3e:77:4e:88:6b:03:51:af:ce:de:66:2e:4e:b9:c6:d9:51:
        ee:4d:56:d0:63:84:e6:f2:83:68:54:9b:e5:84:f9:5e:bb:95:
        03:bf:84:74:a6:11:b9:46:39:09:b0:ee:db:06:e5:b6:74:74:
        b1:31:18:66:e2:ab:d5:8e:a6:2f:23:d1:31:2b:9e:95:1e:8b:
        c7:35
-----BEGIN CERTIFICATE-----
MIIDTzCCArigAwIBAgIBEzANBgkqhkiG9w0BAQQFADB8MQswCQYDVQQGEwJBVTEM
MAoGA1UECBMDTlNXMRQwEgYDVQQHEwtOZXV0cmFsIEJheTEVMBMGA1UEChMMQWR2
YW5zeXNDb3JwMRUwEwYDVQQDEwxKbyBTdGljaGJ1cnkxGzAZBgkqhkiG9w0BCQEW
DEpvU0B0ZXN0LmNvbTAeFw0wMjExMTQxMjU3MzlaFw0wNDExMTMxMjU3MzlaMHUx
CzAJBgNVBAYTAlVLMQ8wDQYDVQQIEwZMb25kb24xDzANBgNVBAcTBkxvbmRvbjEQ
MA4GA1UEChMHTG92ZWxsczEPMA0GA1UEAxMGV2liYmxlMSEwHwYJKoZIhvcNAQkB
FhJ3aWJibGVAbG92ZWxscy5jb20wgZ8wDQYJKoZIhvcNAQEBBQADgY0AMIGJAoGB
AOOoIwThREHniJZ2D/WEYOu5cD05pr3MIt6QtKdknGinvQDMBC1ltfKYTr1MpZhs
kP3mcMQRe9yg48jPhNuZOVH8oVxsVz9kAvPISnU4BlrFNMQJomOoADC+V8Hzssvs
bsK4H+/Rlkgm8DoDx1zCQWgGhw8ShXJI28w+VnPdw8avAgMBAAGjgecwgeQwHQYD
VR0OBBYEFCLXtRJeOdCJimpIr1FeB8XYLCmhMIGnBgNVHSMEgZ8wgZyAFEFNN/9E
KucIxrrzlUbSuEtoj+ZKoYGApH4wfDELMAkGA1UEBhMCQVUxDDAKBgNVBAgTA05T
VzEUMBIGA1UEBxMLTmV1dHJhbCBCYXkxFTATBgNVBAoTDEFkdmFuc3lzQ29ycDEV
MBMGA1UEAxMMSm8gU3RpY2hidXJ5MRswGQYJKoZIhvcNAQkBFgxKb1NAdGVzdC5j
b22CAQAwDAYDVR0TBAUwAwEB/zALBgNVHQ8EBAMCAiQwDQYJKoZIhvcNAQEEBQAD
gYEAnBUjEBGClU+VPVBkVMQ4dQAycQFUYybl4bXKe8sz05imAQ2p9QeepDbuXH9W
vUE/Plovj1tLcz53TohrA1Gvzt5mLk65xtlR7k1W0GOE5vKDaFSb5YT5XruVA7+E
dKYRuUY5CbDu2wbltnR0sTEYZuKr1Y6mLyPRMSuelR6LxzU=
-----END CERTIFICATE-----
