EXPORTS
	_ZN10CTestSetup11GetArgumentEi @ 1 NONAME
	_ZN10CTestSetup18CreateAndRunTestsLEP12TScriptTestsRK7TDesC16S4_iP12CConsoleBasePi @ 2 NONAME
	_ZN10CTestSetup18CreateAndRunTestsLEP15THardcodedTestsRK7TDesC16 @ 3 NONAME
	_ZN10FileOutputC1ER5RFile @ 4 NONAME
	_ZN10FileOutputC2ER5RFile @ 5 NONAME
	_ZN10NullOutputC1Ev @ 6 NONAME
	_ZN10NullOutputC2Ev @ 7 NONAME
	_ZN11CSyncAction10ConstructLERK15TTestActionSpec @ 8 NONAME
	_ZN11CSyncAction11FailTestNowER14TRequestStatus @ 9 NONAME
	_ZN11CSyncAction13PerformActionER14TRequestStatus @ 10 NONAME
	_ZN11CSyncActionC2ER12CConsoleBaseR6Output @ 11 NONAME
	_ZN11CTestAction10ConstructLERK15TTestActionSpec @ 12 NONAME
	_ZN11CTestAction11CheckResultEi @ 13 NONAME
	_ZN11CTestAction11FailTestNowER14TRequestStatus @ 14 NONAME
	_ZN11CTestAction11ScriptErrorER6TDes16 @ 15 NONAME
	_ZN11CTestAction11ScriptErrorEv @ 16 NONAME
	_ZN11CTestAction12ReportActionEv @ 17 NONAME
	_ZN11CTestAction13PerformCancelEv @ 18 NONAME
	_ZN11CTestAction13SetSharedDataEP5CBase @ 19 NONAME
	_ZN11CTestAction14SetScriptErrorERKNS_12TScriptErrorERK7TDesC16 @ 20 NONAME
	_ZN11CTestAction15AfterOOMFailureEv @ 21 NONAME
	_ZN11CTestAction19PerformPrerequisiteER14TRequestStatus @ 22 NONAME
	_ZN11CTestAction20PerformPostrequisiteER14TRequestStatus @ 23 NONAME
	_ZN11CTestAction21DoPerformPrerequisiteER14TRequestStatus @ 24 NONAME
	_ZN11CTestAction22DoPerformPostrequisiteER14TRequestStatus @ 25 NONAME
	_ZN11CTestAction5ResetEv @ 26 NONAME
	_ZN11CTestActionC2ER12CConsoleBaseR6Output @ 27 NONAME
	_ZN11CTestActionD0Ev @ 28 NONAME
	_ZN11CTestActionD1Ev @ 29 NONAME
	_ZN11CTestActionD2Ev @ 30 NONAME
	_ZN12CScriptSetup11InitialiseLER3RFsRK7TDesC16S4_i @ 31 NONAME
	_ZN12CScriptSetup11SetupTestsLER3RFsR9CTestSpecP12TScriptTestsRK20CTestHandlerSettings @ 32 NONAME
	_ZN12CScriptSetup5NewLCEP12CConsoleBase @ 33 NONAME
	_ZN12CTestHandler5NewLCER3RFsR9MTestSpecR20CTestHandlerSettingsP12CConsoleBaseP6Output @ 34 NONAME
	_ZN12CTestHandler9RunTestsLEv @ 35 NONAME
	_ZN13ConsoleOutputC1ER12CConsoleBase @ 36 NONAME
	_ZN13ConsoleOutputC2ER12CConsoleBase @ 37 NONAME
	_ZN15CErrorConverter12AddErrorItemERK7TDesC16RKi @ 38 NONAME
	_ZN15CErrorConverter18GetExpectedResultLERK7TDesC16Ri @ 39 NONAME
	_ZN15CErrorConverter18GetExpectedResultLERKiRP7HBufC16 @ 40 NONAME
	_ZN15CErrorConverter4NewLEv @ 41 NONAME
	_ZN15CErrorConverter5NewLCEv @ 42 NONAME
	_ZN15CErrorConverterD0Ev @ 43 NONAME
	_ZN15CErrorConverterD1Ev @ 44 NONAME
	_ZN15CErrorConverterD2Ev @ 45 NONAME
	_ZN15CHardcodedSetup11InitialiseLER3RFsRK7TDesC16 @ 46 NONAME
	_ZN15CHardcodedSetup11SetupTestsLER3RFsR9CTestSpecP15THardcodedTestsRK20CTestHandlerSettings @ 47 NONAME
	_ZN15CHardcodedSetup5NewLCEv @ 48 NONAME
	_ZN20CTestHandlerSettings4NewLERKS_ @ 49 NONAME
	_ZN20CTestHandlerSettings5NewLCEv @ 50 NONAME
	_ZN20CTestHandlerSettingsD1Ev @ 51 NONAME
	_ZN20CTestHandlerSettingsD2Ev @ 52 NONAME
	_ZN5Input10ReadFileLCERK7TDesC16R3RFs @ 53 NONAME
	_ZN5Input10ReadFileLCERK7TDesC16S2_R3RFs @ 54 NONAME
	_ZN5Input12ParseElementERK6TDesC8S2_ @ 55 NONAME
	_ZN5Input12ParseElementERK6TDesC8S2_S2_ @ 56 NONAME
	_ZN5Input12ParseElementERK6TDesC8S2_S2_Ri @ 57 NONAME
	_ZN5Input12ParseElementERK6TDesC8S2_S2_RiS3_ @ 58 NONAME
	_ZN5Input12ParseElementERK7TDesC16S2_ @ 59 NONAME
	_ZN5Input12ParseElementERK7TDesC16S2_Ri @ 60 NONAME
	_ZN5Input12ParseElementERK7TDesC16S2_RiS3_ @ 61 NONAME
	_ZN5Input12ParseElementERK7TDesC16S2_S2_ @ 62 NONAME
	_ZN5Input12ParseElementERK7TDesC16S2_S2_Ri @ 63 NONAME
	_ZN5Input12ParseElementERK7TDesC16S2_S2_RiS3_ @ 64 NONAME
	_ZN5Input13ParseElementLERP6HBufC8RK7TDesC16S5_ @ 65 NONAME
	_ZN5Input13ParseElementLERP6HBufC8RK7TDesC16S5_Ri @ 66 NONAME
	_ZN5Input13ParseElementLERP6HBufC8RK7TDesC16S5_RiS6_ @ 67 NONAME
	_ZN5Input13ParseElementLERP7HBufC16RK7TDesC16S5_ @ 68 NONAME
	_ZN5Input13ParseElementLERP7HBufC16RK7TDesC16S5_Ri @ 69 NONAME
	_ZN5Input13ParseElementLERP7HBufC16RK7TDesC16S5_RiS6_ @ 70 NONAME
	_ZN5Input15ParseIntElementERK6TDesC8S2_S2_ @ 71 NONAME
	_ZN5Input15ParseIntElementERK6TDesC8S2_S2_Ri @ 72 NONAME
	_ZN5Input15ParseIntElementERK6TDesC8S2_S2_RiS3_ @ 73 NONAME
	_ZN5Input15ParseIntElementERK7TDesC16S2_ @ 74 NONAME
	_ZN5Input15ParseIntElementERK7TDesC16S2_Ri @ 75 NONAME
	_ZN5Input15ParseIntElementERK7TDesC16S2_RiS3_ @ 76 NONAME
	_ZN5Input15ParseIntElementERK7TDesC16S2_S2_ @ 77 NONAME
	_ZN5Input15ParseIntElementERK7TDesC16S2_S2_Ri @ 78 NONAME
	_ZN5Input15ParseIntElementERK7TDesC16S2_S2_RiS3_ @ 79 NONAME
	_ZN5Input16ParseElementHexLERK6TDesC8S2_ @ 80 NONAME
	_ZN5Input17ParseElementBoolLERK6TDesC8S2_ @ 81 NONAME
	_ZN5Input17ParseElementListLERK7TDesC16S2_S2_R13RPointerArrayI7HBufC16ERi @ 82 NONAME
	_ZN5Input18GetExpectedResultLERK7TDesC16Ri @ 83 NONAME
	_ZN5Input18GetExpectedResultLERKiRP7HBufC16 @ 84 NONAME
	_ZN5Input19ParseCapabilitySetLERK6TDesC8R14TCapabilitySet @ 85 NONAME
	_ZN5Input20ParseCapabilityNameLERK6TDesC8 @ 86 NONAME
	_ZN5Input20ParseSecurityPolicyLERK6TDesC8R15TSecurityPolicy @ 87 NONAME
	_ZN5Input9ReadFileLERK7TDesC16R3RFs @ 88 NONAME
	_ZN5Input9ReadFileLERK7TDesC16S2_R3RFs @ 89 NONAME
	_ZN5Utils12CompareFileLERK7TDesC16S2_Ri @ 90 NONAME
	_ZN6Output10writeBoolLEi @ 91 NONAME
	_ZN6Output10writeErrorEi @ 92 NONAME
	_ZN6Output11writeSpacesEi @ 93 NONAME
	_ZN6Output11writeStringERK6TDesC8 @ 94 NONAME
	_ZN6Output11writeStringERK7TDesC16 @ 95 NONAME
	_ZN6Output12writeNewLineEv @ 96 NONAME
	_ZN6Output16writeCapabilityLE11TCapability @ 97 NONAME
	_ZN6Output16writeOctetStringERK6TDesC8 @ 98 NONAME
	_ZN6Output17writeOctetStringLERK6TDesC8 @ 99 NONAME
	_ZN6Output19writeCapabilitySetLERK14TCapabilitySet @ 100 NONAME
	_ZN6Output20writeSecurityPolicyLERK15TSecurityPolicy @ 101 NONAME
	_ZN6Output5writeE11TRefByValueIK7TDesC16Ez @ 102 NONAME
	_ZN6Output8writeHexEi @ 103 NONAME
	_ZN6Output8writeNumEi @ 104 NONAME
	_ZN9CTestSpec11AddNextTestEP11CTestAction @ 105 NONAME
	_ZN9CTestSpec11GetNextTestERP11CTestAction @ 106 NONAME
	_ZN9CTestSpec4NewLEv @ 107 NONAME
	_ZNK11CTestAction10SharedDataEv @ 108 NONAME
	_ZNK12CScriptSetup13CreateActionLER3RFsRK15TTestActionSpecPK12TScriptTests @ 109 NONAME
	_ZTI10FileOutput @ 110 NONAME ; #<TI>#
	_ZTI10NullOutput @ 111 NONAME ; #<TI>#
	_ZTI11CSyncAction @ 112 NONAME ; #<TI>#
	_ZTI11CTestAction @ 113 NONAME ; #<TI>#
	_ZTI12CScriptSetup @ 114 NONAME ; #<TI>#
	_ZTI13ConsoleOutput @ 115 NONAME ; #<TI>#
	_ZTI15CErrorConverter @ 116 NONAME ; #<TI>#
	_ZTI15CHardcodedSetup @ 117 NONAME ; #<TI>#
	_ZTI9CTestSpec @ 118 NONAME ; #<TI>#
	_ZTV10FileOutput @ 119 NONAME ; #<VT>#
	_ZTV10NullOutput @ 120 NONAME ; #<VT>#
	_ZTV11CSyncAction @ 121 NONAME ; #<VT>#
	_ZTV11CTestAction @ 122 NONAME ; #<VT>#
	_ZTV12CScriptSetup @ 123 NONAME ; #<VT>#
	_ZTV13ConsoleOutput @ 124 NONAME ; #<VT>#
	_ZTV15CErrorConverter @ 125 NONAME ; #<VT>#
	_ZTV15CHardcodedSetup @ 126 NONAME ; #<VT>#
	_ZTV9CTestSpec @ 127 NONAME ; #<VT>#
	_ZThn4_N9CTestSpec11GetNextTestERP11CTestAction @ 128 NONAME ; #<thunk>#
	_ZTI10COutputTee @ 129 NONAME ; #<TI>#
	_ZTI10CTestSetup @ 130 NONAME ; #<TI>#
	_ZTI11CCancelStop @ 131 NONAME ; #<TI>#
	_ZTI11CPolicyTest @ 132 NONAME ; #<TI>#
	_ZTI11CTestRunner @ 133 NONAME ; #<TI>#
	_ZTI12CCancelStart @ 134 NONAME ; #<TI>#
	_ZTI12CMemFailStop @ 135 NONAME ; #<TI>#
	_ZTI12CTestHandler @ 136 NONAME ; #<TI>#
	_ZTI13CMemFailStart @ 137 NONAME ; #<TI>#
	_ZTI14COOMTestRunner @ 138 NONAME ; #<TI>#
	_ZTI17CCancelTestRunner @ 139 NONAME ; #<TI>#
	_ZTI18CTestActionMessage @ 140 NONAME ; #<TI>#
	_ZTI21CCommandLineArguments @ 141 NONAME ; #<TI>#
	_ZTI6CSleep @ 142 NONAME ; #<TI>#
	_ZTV10COutputTee @ 143 NONAME ; #<VT>#
	_ZTV10CTestSetup @ 144 NONAME ; #<VT>#
	_ZTV11CCancelStop @ 145 NONAME ; #<VT>#
	_ZTV11CPolicyTest @ 146 NONAME ; #<VT>#
	_ZTV11CTestRunner @ 147 NONAME ; #<VT>#
	_ZTV12CCancelStart @ 148 NONAME ; #<VT>#
	_ZTV12CMemFailStop @ 149 NONAME ; #<VT>#
	_ZTV12CTestHandler @ 150 NONAME ; #<VT>#
	_ZTV13CMemFailStart @ 151 NONAME ; #<VT>#
	_ZTV14COOMTestRunner @ 152 NONAME ; #<VT>#
	_ZTV17CCancelTestRunner @ 153 NONAME ; #<VT>#
	_ZTV18CTestActionMessage @ 154 NONAME ; #<VT>#
	_ZTV21CCommandLineArguments @ 155 NONAME ; #<VT>#
	_ZTV6CSleep @ 156 NONAME ; #<VT>#
	_ZN11CTestRunner14PerformActionLEP11CTestAction @ 157 NONAME
	_ZN11CTestRunner20PerformPrerequisiteLEP11CTestAction @ 158 NONAME
	_ZN11CTestRunner21PerformPostrequisiteLEP11CTestActioni @ 159 NONAME
	_ZN11CTestRunner4RunLEv @ 160 NONAME
	_ZN11CTestRunner8DoCancelEv @ 161 NONAME
	_ZN11CTestRunner8RunErrorEi @ 162 NONAME
	_ZN11CTestRunnerC1ER6Output @ 163 NONAME
	_ZN11CTestRunnerC2ER6Output @ 164 NONAME
	_ZN11CTestRunnerD0Ev @ 165 NONAME
	_ZN11CTestRunnerD1Ev @ 166 NONAME
	_ZN11CTestRunnerD2Ev @ 167 NONAME
	_ZN18COOMTestRunnerBase14PerformActionLEP11CTestAction @ 168 NONAME
	_ZN18COOMTestRunnerBaseC2ER6Output @ 169 NONAME
	_ZN18COOMTestRunnerBaseD0Ev @ 170 NONAME
	_ZN18COOMTestRunnerBaseD1Ev @ 171 NONAME
	_ZN18COOMTestRunnerBaseD2Ev @ 172 NONAME
	_ZTI18COOMTestRunnerBase @ 173 NONAME ; #<TI>#
	_ZTV18COOMTestRunnerBase @ 174 NONAME ; #<VT>#
	_ZN12CTestHandler14SetTestRunnerLEP11CTestRunner @ 175 NONAME
	_ZN11CTestAction10ResetStateEv @ 176 NONAME
	_ZN10CTestSetupD0Ev @ 177 NONAME
	_ZN10CTestSetupD1Ev @ 178 NONAME
	_ZN10CTestSetupD2Ev @ 179 NONAME
	_ZN12CScriptSetupD0Ev @ 180 NONAME
	_ZN12CScriptSetupD1Ev @ 181 NONAME
	_ZN12CScriptSetupD2Ev @ 182 NONAME
	_ZN8Tefinput10GetiniFileER3RFsRK7TDesC16Ri @ 183 NONAME
	_ZN8Tefinput11EndTestCaseERK6TDesC8S2_S2_Ri @ 184 NONAME
	_ZN8Tefinput12ParseiniPathERK6TDesC8RK7TDesC16R6TDes16 @ 185 NONAME
	_ZN8Tefinput14TrimActionTypeERK6TDesC8R5TDes8 @ 186 NONAME
	_ZN8Tefinput15GetActionResultEiR5TDes8 @ 187 NONAME
	_ZN8Tefinput15ParseActionbodyER6TPtrC8RK6TDesC8S1_ @ 188 NONAME
	_ZN8Tefinput15ParseNthElementERK6TDesC8iRi @ 189 NONAME
	_ZN8Tefinput15ParseTestCaseIDERK6TDesC8S2_R5TDes8RiS5_S5_S5_ @ 190 NONAME
	_ZN8Tefinput16ParseRunTestStepERK6TDesC8S2_RiS3_ @ 191 NONAME
	_ZN8Tefinput17ParseActionResultERK6TDesC8R5TDes8 @ 192 NONAME
	_ZN8Tefinput4TrimERK6TDesC8 @ 193 NONAME

