EXPORTS
	_Z11CharToRbuf8PKcR5RBuf8 @ 1 NONAME
	_Z11CharToTbuf8PKcR5TDes8 @ 2 NONAME
	_Z11Rbuf8ToCharR5TDes8PcRi @ 3 NONAME
	_Z11Tbuf8ToCharR5TDes8PcRi @ 4 NONAME
	_Z11Tptr8ToCharRK5TDes8PcRi @ 5 NONAME
	_Z12CharToHbufc8PKcP6HBufC8 @ 6 NONAME
	_Z12CharToRbuf16PKcR6RBuf16 @ 7 NONAME
	_Z12CharToTbuf16PKcR6TDes16 @ 8 NONAME
	_Z12CharpToTptr8PKcR5TPtr8 @ 9 NONAME
	_Z12Hbufc8ToCharP6HBufC8PcRi @ 10 NONAME
	_Z12Rbuf16ToCharR6TDes16PcRi @ 11 NONAME
	_Z12Rbuf8ToWcharR5TDes8PwRi @ 12 NONAME
	_Z12Tbuf16ToCharR6TDes16PcRi @ 13 NONAME
	_Z12Tbuf8ToWcharR5TDes8PwRi @ 14 NONAME
	_Z12Tbufc8ToCharR6TDesC8PcRi @ 15 NONAME
	_Z12Tlitc8ToCharRK6TDesC8PcRi @ 16 NONAME
	_Z12WcharToRbuf8PKwR5RBuf8 @ 17 NONAME
	_Z12WcharToTbuf8PKwR5TDes8 @ 18 NONAME
	_Z13CharToHbufc16PKcP7HBufC16 @ 19 NONAME
	_Z13CharpToTptr16PKcR6TPtr16 @ 20 NONAME 
	_Z13CharpToTptrc8PKcR6TPtrC8 @ 21 NONAME
	_Z13HBufc8ToWcharP6HBufC8PwRi @ 22 NONAME
	_Z13Rbuf16ToWcharR6TDes16PwRi @ 23 NONAME
	_Z13Rbuf8ToStringR5TDes8RSs @ 24 NONAME
	_Z13StringToRbuf8RKSsR5RBuf8 @ 25 NONAME
	_Z13StringToTbuf8RSsR5TDes8 @ 26 NONAME
	_Z13StringToTptr8RSsR5TPtr8 @ 27 NONAME
	_Z13Tbuf16ToWcharRK6TDes16PwRi @ 28 NONAME
	_Z13Tbuf8ToStringR5TDes8RSs @ 29 NONAME
	_Z13Tbufc16ToCharR7TDesC16PcRi @ 30 NONAME
	_Z13Tbufc8ToWcharR6TDesC8PwRi @ 31 NONAME
	_Z13Tlit8ToStringRK6TDesC8RSs @ 32 NONAME
	_Z13Tlitc16ToCharRK7TDesC16PcRi @ 33 NONAME
	_Z13Tlitc8ToWcharRK6TDesC8PwRi @ 34 NONAME
	_Z13Tptr16ToCharpRK6TDes16PcRi @ 35 NONAME
	_Z13Tptr8ToStringR5TDes8RSs @ 36 NONAME
	_Z13Tptr8ToWcharpRK5TPtr8PwRi @ 37 NONAME
	_Z13Tptrc8ToCharpR6TPtrC8PcRi @ 38 NONAME
	_Z13WcharToHbufc8PKwP6HBufC8 @ 39 NONAME
	_Z13WcharToRbuf16PKwR6RBuf16 @ 40 NONAME
	_Z13WcharToTbuf16PKwR6TDes16 @ 41 NONAME
	_Z13WcharpToTptr8PKwPcR5TPtr8 @ 42 NONAME
	_Z14CharpToTptrc16PcPwR7TPtrC16 @ 43 NONAME
	_Z14Hbufc16ToWcharPK7HBufC16PwRi @ 44 NONAME
	_Z14Hbufc8ToStringP6HBufC8RSs @ 45 NONAME
	_Z14Rbuf16ToStringR6TDes16RSs @ 46 NONAME
	_Z14Rbuf8ToWstringR5TDes8RSbIwSt11char_traitsIwESaIwEE @ 47 NONAME
	_Z14StringToHbufc8RSsP6HBufC8 @ 48 NONAME
	_Z14StringToRbuf16RKSsR6RBuf16 @ 49 NONAME
	_Z14StringToTbuf16RSsR6TDes16 @ 50 NONAME
	_Z14StringToTptr16RSsPwR6TPtr16 @ 51 NONAME
	_Z14StringToTptrc8RSsR6TPtrC8 @ 52 NONAME
	_Z14Tbuf16ToStringR6TDes16RSs @ 53 NONAME
	_Z14Tbuf8ToWstringR5TDes8RSbIwSt11char_traitsIwESaIwEE @ 54 NONAME
	_Z14Tbufc16ToWcharR7TDesC16PwRi @ 55 NONAME
	_Z14Tbufc8ToStringR6TDesC8RSs @ 56 NONAME
	_Z14Tlit16ToStringRK7TDesC16RSs @ 57 NONAME
	_Z14Tlitc16ToWcharRK7TDesC16PwRi @ 58 NONAME
	_Z14Tptr16ToStringR6TDes16RSs @ 59 NONAME
	_Z14Tptr16ToWcharpRK6TPtr16PwRi @ 60 NONAME
	_Z14Tptr8ToWstringR5TPtr8RSbIwSt11char_traitsIwESaIwEE @ 61 NONAME
	_Z14Tptrc16ToCharpR7TPtrC16PcRi @ 62 NONAME
	_Z14Tptrc8ToStringRK6TDesC8RSs @ 63 NONAME
	_Z14Tptrc8ToWcharpR6TPtrC8PwRi @ 64 NONAME
	_Z14WcharToHbufc16PKwP7HBufC16 @ 65 NONAME
	_Z14WcharpToTptr16PKwR6TPtr16 @ 66 NONAME
	_Z14WcharpToTptrc8PKwPcR6TPtrC8 @ 67 NONAME
	_Z14WstringToRbuf8RKSbIwSt11char_traitsIwESaIwEER5RBuf8 @ 68 NONAME
	_Z14WstringToTbuf8RSbIwSt11char_traitsIwESaIwEER5TDes8 @ 69 NONAME
	_Z14WstringToTptr8RSbIwSt11char_traitsIwESaIwEEPcR5TPtr8 @ 70 NONAME
	_Z15Hbufc16ToStringP7HBufC16RSsRi @ 71 NONAME
	_Z15Hbufc8ToWstringP6HBufC8RSbIwSt11char_traitsIwESaIwEE @ 72 NONAME
	_Z15Rbuf16ToWstringR6TDes16RSbIwSt11char_traitsIwESaIwEE @ 73 NONAME
	_Z15StringToHbufc16RSsP7HBufC16 @ 74 NONAME
	_Z15StringToTptrc16RSsPwR7TPtrC16 @ 75 NONAME
	_Z15Tbuf16ToWstringR6TDes16RSbIwSt11char_traitsIwESaIwEE @ 76 NONAME
	_Z15Tbufc16ToStringR7TDesC16RSs @ 77 NONAME
	_Z15Tbufc8ToWstringR6TDesC8RSbIwSt11char_traitsIwESaIwEE @ 78 NONAME
	_Z15Tlitc8ToWstringR5TDes8RSbIwSt11char_traitsIwESaIwEE @ 79 NONAME
	_Z15Tptr16ToWstringR6TPtr16RSbIwSt11char_traitsIwESaIwEE @ 80 NONAME
	_Z15Tptrc16ToStringRK7TDesC16RSs @ 81 NONAME
	_Z15Tptrc16ToWcharpR7TPtrC16PwRi @ 82 NONAME
	_Z15Tptrc8ToWstringR6TPtrC8RSbIwSt11char_traitsIwESaIwEE @ 83 NONAME
	_Z15WcharpToTptrc16PKwR7TPtrC16 @ 84 NONAME
	_Z15WstringToHbufc8RSbIwSt11char_traitsIwESaIwEEP6HBufC8 @ 85 NONAME
	_Z15WstringToRbuf16RKSbIwSt11char_traitsIwESaIwEER6RBuf16 @ 86 NONAME
	_Z15WstringToTbuf16RSbIwSt11char_traitsIwESaIwEER6TDes16 @ 87 NONAME
	_Z15WstringToTptr16RSbIwSt11char_traitsIwESaIwEER6TPtr16 @ 88 NONAME
	_Z15WstringToTptrc8RSbIwSt11char_traitsIwESaIwEEPcR6TPtrC8 @ 89 NONAME
	_Z16Hbufc16ToWstringP7HBufC16RSbIwSt11char_traitsIwESaIwEE @ 90 NONAME
	_Z16Tlitc16ToWstringR7TDesC16RSbIwSt11char_traitsIwESaIwEE @ 91 NONAME
	_Z16Tptrc16ToWstringR7TPtrC16RSbIwSt11char_traitsIwESaIwEE @ 92 NONAME
	_Z16WstringToHbufc16RSbIwSt11char_traitsIwESaIwEEP7HBufC16 @ 93 NONAME
	_Z16WstringToTptrc16RSbIwSt11char_traitsIwESaIwEER7TPtrC16 @ 94 NONAME

