EXPORTS
	_ZN10CDHKeyPair10ConstructLER8RIntegerS1_ @ 1 NONAME
	_ZN10CDHKeyPair10ConstructLER8RIntegerS1_S1_ @ 2 NONAME
	_ZN10CDHKeyPair4NewLER8RIntegerS1_ @ 3 NONAME
	_ZN10CDHKeyPair4NewLER8RIntegerS1_S1_ @ 4 NONAME
	_ZN10CDHKeyPair5NewLCER8RIntegerS1_ @ 5 NONAME
	_ZN10CDHKeyPair5NewLCER8RIntegerS1_S1_ @ 6 NONAME
	_ZN10CDHKeyPairC1Ev @ 7 NONAME
	_ZN10CDHKeyPairC2Ev @ 8 NONAME
	_ZN10CDHKeyPairD0Ev @ 9 NONAME
	_ZN10CDHKeyPairD1Ev @ 10 NONAME
	_ZN10CDHKeyPairD2Ev @ 11 NONAME
	_ZN10CDSASigner4NewLERK14CDSAPrivateKey @ 12 NONAME
	_ZN10CDSASigner5NewLCERK14CDSAPrivateKey @ 13 NONAME
	_ZN10CDecryptorC1Ev @ 14 NONAME
	_ZN10CDecryptorC2Ev @ 15 NONAME
	_ZN10CEncryptorC1Ev @ 16 NONAME
	_ZN10CEncryptorC2Ev @ 17 NONAME
	_ZN10CRSASignerC1Ev @ 18 NONAME
	_ZN10CRSASignerC2Ev @ 19 NONAME
	_ZN11CDSAKeyPair4NewLEj @ 20 NONAME
	_ZN11CDSAKeyPair5NewLCEj @ 21 NONAME
	_ZN11CDSAKeyPairC1Ev @ 22 NONAME
	_ZN11CDSAKeyPairC2Ev @ 23 NONAME
	_ZN11CDSAKeyPairD0Ev @ 24 NONAME
	_ZN11CDSAKeyPairD1Ev @ 25 NONAME
	_ZN11CDSAKeyPairD2Ev @ 26 NONAME
	_ZN11CNullCipher4NewLEv @ 27 NONAME
	_ZN11CNullCipher5NewLCEv @ 28 NONAME
	_ZN11CRSAKeyPair4NewLEj18TRSAPrivateKeyType @ 29 NONAME
	_ZN11CRSAKeyPair5NewLCEj18TRSAPrivateKeyType @ 30 NONAME
	_ZN11CRSAKeyPairC1Ev @ 31 NONAME
	_ZN11CRSAKeyPairC2Ev @ 32 NONAME
	_ZN11CRSAKeyPairD0Ev @ 33 NONAME
	_ZN11CRSAKeyPairD1Ev @ 34 NONAME
	_ZN11CRSAKeyPairD2Ev @ 35 NONAME
	_ZN12CDHPublicKey4NewLER8RIntegerS1_S1_ @ 36 NONAME
	_ZN12CDHPublicKey5NewLCER8RIntegerS1_S1_ @ 37 NONAME
	_ZN12CDHPublicKeyC1ER8RIntegerS1_S1_ @ 38 NONAME
	_ZN12CDHPublicKeyC1Ev @ 39 NONAME
	_ZN12CDHPublicKeyC2ER8RIntegerS1_S1_ @ 40 NONAME
	_ZN12CDHPublicKeyC2Ev @ 41 NONAME
	_ZN12CDHPublicKeyD0Ev @ 42 NONAME
	_ZN12CDHPublicKeyD1Ev @ 43 NONAME
	_ZN12CDHPublicKeyD2Ev @ 44 NONAME
	_ZN12CDSAVerifier4NewLERK13CDSAPublicKey @ 45 NONAME
	_ZN12CDSAVerifier5NewLCERK13CDSAPublicKey @ 46 NONAME
	_ZN12CPaddingNone4NewLEi @ 47 NONAME
	_ZN12CPaddingNone5NewLCEi @ 48 NONAME
	_ZN12CPaddingNoneC1Ei @ 49 NONAME
	_ZN12CPaddingNoneC2Ei @ 50 NONAME
	_ZN12CRSAVerifierC1Ev @ 51 NONAME
	_ZN12CRSAVerifierC2Ev @ 52 NONAME
	_ZN13CAESDecryptor4NewLERK6TDesC8 @ 53 NONAME
	_ZN13CAESDecryptor5NewLCERK6TDesC8 @ 54 NONAME
	_ZN13CAESEncryptor4NewLERK6TDesC8 @ 55 NONAME
	_ZN13CAESEncryptor5NewLCERK6TDesC8 @ 56 NONAME
	_ZN13CDESDecryptor4NewLERK6TDesC8i @ 57 NONAME
	_ZN13CDESDecryptor5NewLCERK6TDesC8i @ 58 NONAME
	_ZN13CDESEncryptor4NewLERK6TDesC8i @ 59 NONAME
	_ZN13CDESEncryptor5NewLCERK6TDesC8i @ 60 NONAME
	_ZN13CDHParametersC1ER8RIntegerS1_ @ 61 NONAME
	_ZN13CDHParametersC1Ev @ 62 NONAME
	_ZN13CDHParametersC2ER8RIntegerS1_ @ 63 NONAME
	_ZN13CDHParametersC2Ev @ 64 NONAME
	_ZN13CDHParametersD0Ev @ 65 NONAME
	_ZN13CDHParametersD1Ev @ 66 NONAME
	_ZN13CDHParametersD2Ev @ 67 NONAME
	_ZN13CDHPrivateKey4NewLER8RIntegerS1_S1_ @ 68 NONAME
	_ZN13CDHPrivateKey5NewLCER8RIntegerS1_S1_ @ 69 NONAME
	_ZN13CDHPrivateKeyC1ER8RIntegerS1_S1_ @ 70 NONAME
	_ZN13CDHPrivateKeyC1Ev @ 71 NONAME
	_ZN13CDHPrivateKeyC2ER8RIntegerS1_S1_ @ 72 NONAME
	_ZN13CDHPrivateKeyC2Ev @ 73 NONAME
	_ZN13CDHPrivateKeyD0Ev @ 74 NONAME
	_ZN13CDHPrivateKeyD1Ev @ 75 NONAME
	_ZN13CDHPrivateKeyD2Ev @ 76 NONAME
	_ZN13CDSAPublicKey4NewLER8RIntegerS1_S1_S1_ @ 77 NONAME
	_ZN13CDSAPublicKey5NewLCER8RIntegerS1_S1_S1_ @ 78 NONAME
	_ZN13CDSAPublicKeyC1ER8RIntegerS1_S1_S1_ @ 79 NONAME
	_ZN13CDSAPublicKeyC1Ev @ 80 NONAME
	_ZN13CDSAPublicKeyC2ER8RIntegerS1_S1_S1_ @ 81 NONAME
	_ZN13CDSAPublicKeyC2Ev @ 82 NONAME
	_ZN13CDSAPublicKeyD0Ev @ 83 NONAME
	_ZN13CDSAPublicKeyD1Ev @ 84 NONAME
	_ZN13CDSAPublicKeyD2Ev @ 85 NONAME
	_ZN13CDSASignature4NewLER8RIntegerS1_ @ 86 NONAME
	_ZN13CDSASignature5NewLCER8RIntegerS1_ @ 87 NONAME
	_ZN13CDSASignatureC1ER8RIntegerS1_ @ 88 NONAME
	_ZN13CDSASignatureC1Ev @ 89 NONAME
	_ZN13CDSASignatureC2ER8RIntegerS1_ @ 90 NONAME
	_ZN13CDSASignatureC2Ev @ 91 NONAME
	_ZN13CDSASignatureD0Ev @ 92 NONAME
	_ZN13CDSASignatureD1Ev @ 93 NONAME
	_ZN13CDSASignatureD2Ev @ 94 NONAME
	_ZN13CPaddingPKCS74NewLEi @ 95 NONAME
	_ZN13CPaddingPKCS75NewLCEi @ 96 NONAME
	_ZN13CPaddingPKCS7C1Ei @ 97 NONAME
	_ZN13CPaddingPKCS7C2Ei @ 98 NONAME
	_ZN13CPaddingSSLv34NewLEi @ 99 NONAME
	_ZN13CPaddingSSLv35NewLCEi @ 100 NONAME
	_ZN13CPaddingSSLv3C1Ei @ 101 NONAME
	_ZN13CPaddingSSLv3C2Ei @ 102 NONAME
	_ZN13CRC2Decryptor4NewLERK6TDesC8i @ 103 NONAME
	_ZN13CRC2Decryptor5NewLCERK6TDesC8i @ 104 NONAME
	_ZN13CRC2Encryptor4NewLERK6TDesC8i @ 105 NONAME
	_ZN13CRC2Encryptor5NewLCERK6TDesC8i @ 106 NONAME
	_ZN13CRSAPublicKey4NewLER8RIntegerS1_ @ 107 NONAME
	_ZN13CRSAPublicKey5NewLCER8RIntegerS1_ @ 108 NONAME
	_ZN13CRSAPublicKeyC1ER8RIntegerS1_ @ 109 NONAME
	_ZN13CRSAPublicKeyC1Ev @ 110 NONAME
	_ZN13CRSAPublicKeyC2ER8RIntegerS1_ @ 111 NONAME
	_ZN13CRSAPublicKeyC2Ev @ 112 NONAME
	_ZN13CRSAPublicKeyD0Ev @ 113 NONAME
	_ZN13CRSAPublicKeyD1Ev @ 114 NONAME
	_ZN13CRSAPublicKeyD2Ev @ 115 NONAME
	_ZN13CRSASignature4NewLER8RInteger @ 116 NONAME
	_ZN13CRSASignature5NewLCER8RInteger @ 117 NONAME
	_ZN13CRSASignatureC1ER8RInteger @ 118 NONAME
	_ZN13CRSASignatureC2ER8RInteger @ 119 NONAME
	_ZN13CRSASignatureD0Ev @ 120 NONAME
	_ZN13CRSASignatureD1Ev @ 121 NONAME
	_ZN13CRSASignatureD2Ev @ 122 NONAME
	_ZN13CStreamCipher13ProcessFinalLERK6TDesC8R5TDes8 @ 123 NONAME
	_ZN13CStreamCipher7ProcessERK6TDesC8R5TDes8 @ 124 NONAME
	_ZN13MCryptoSystemC1Ev @ 125 NONAME
	_ZN13MCryptoSystemC2Ev @ 126 NONAME
	_ZN14C3DESDecryptor4NewLERK6TDesC8 @ 127 NONAME
	_ZN14C3DESDecryptor5NewLCERK6TDesC8 @ 128 NONAME
	_ZN14C3DESEncryptor4NewLERK6TDesC8 @ 129 NONAME
	_ZN14C3DESEncryptor5NewLCERK6TDesC8 @ 130 NONAME
	_ZN14CDSAParameters16ValidPrimeLengthEj @ 131 NONAME
	_ZN14CDSAParameters4NewLER8RIntegerS1_S1_ @ 132 NONAME
	_ZN14CDSAParametersC1ER8RIntegerS1_S1_ @ 133 NONAME
	_ZN14CDSAParametersC1Ev @ 134 NONAME
	_ZN14CDSAParametersC2ER8RIntegerS1_S1_ @ 135 NONAME
	_ZN14CDSAParametersC2Ev @ 136 NONAME
	_ZN14CDSAParametersD0Ev @ 137 NONAME
	_ZN14CDSAParametersD1Ev @ 138 NONAME
	_ZN14CDSAParametersD2Ev @ 139 NONAME
	_ZN14CDSAPrivateKey4NewLER8RIntegerS1_S1_S1_ @ 140 NONAME
	_ZN14CDSAPrivateKey5NewLCER8RIntegerS1_S1_S1_ @ 141 NONAME
	_ZN14CDSAPrivateKeyC1Ev @ 142 NONAME
	_ZN14CDSAPrivateKeyC2Ev @ 143 NONAME
	_ZN14CDSAPrivateKeyD0Ev @ 144 NONAME
	_ZN14CDSAPrivateKeyD1Ev @ 145 NONAME
	_ZN14CDSAPrivateKeyD2Ev @ 146 NONAME
	_ZN14CRSAParametersC1ER8RInteger @ 147 NONAME
	_ZN14CRSAParametersC1Ev @ 148 NONAME
	_ZN14CRSAParametersC2ER8RInteger @ 149 NONAME
	_ZN14CRSAParametersC2Ev @ 150 NONAME
	_ZN14CRSAParametersD0Ev @ 151 NONAME
	_ZN14CRSAParametersD1Ev @ 152 NONAME
	_ZN14CRSAParametersD2Ev @ 153 NONAME
	_ZN16MSignatureSystemC1Ev @ 154 NONAME
	_ZN16MSignatureSystemC2Ev @ 155 NONAME
	_ZN17CModeCBCDecryptor4NewLEP20CBlockTransformationRK6TDesC8 @ 156 NONAME
	_ZN17CModeCBCDecryptor5NewLCEP20CBlockTransformationRK6TDesC8 @ 157 NONAME
	_ZN17CModeCBCEncryptor4NewLEP20CBlockTransformationRK6TDesC8 @ 158 NONAME
	_ZN17CModeCBCEncryptor5NewLCEP20CBlockTransformationRK6TDesC8 @ 159 NONAME
	_ZN17CRSAPrivateKeyCRT4NewLER8RIntegerS1_S1_S1_S1_S1_ @ 160 NONAME
	_ZN17CRSAPrivateKeyCRT5NewLCER8RIntegerS1_S1_S1_S1_S1_ @ 161 NONAME
	_ZN17CRSAPrivateKeyCRTC1ER8RIntegerS1_S1_S1_S1_S1_ @ 162 NONAME
	_ZN17CRSAPrivateKeyCRTC2ER8RIntegerS1_S1_S1_S1_S1_ @ 163 NONAME
	_ZN17CRSAPrivateKeyCRTD0Ev @ 164 NONAME
	_ZN17CRSAPrivateKeyCRTD1Ev @ 165 NONAME
	_ZN17CRSAPrivateKeyCRTD2Ev @ 166 NONAME
	_ZN17KeyIdentifierUtil16DHKeyIdentifierLERK8RIntegerR5TBuf8ILi20EE @ 167 NONAME
	_ZN17KeyIdentifierUtil17DSAKeyIdentifierLERK13CDSAPublicKeyR5TBuf8ILi20EE @ 168 NONAME
	_ZN17KeyIdentifierUtil17RSAKeyIdentifierLERK13CRSAPublicKeyR5TBuf8ILi20EE @ 169 NONAME
	_ZN18CBlockChainingMode10ConstructLEP20CBlockTransformationRK6TDesC8 @ 170 NONAME
	_ZN18CBlockChainingModeC1Ev @ 171 NONAME
	_ZN18CBlockChainingModeC2Ev @ 172 NONAME
	_ZN18CBlockChainingModeD0Ev @ 173 NONAME
	_ZN18CBlockChainingModeD1Ev @ 174 NONAME
	_ZN18CBlockChainingModeD2Ev @ 175 NONAME
	_ZN18CBufferedDecryptor4NewLEP20CBlockTransformationP8CPadding @ 176 NONAME
	_ZN18CBufferedDecryptor5NewLCEP20CBlockTransformationP8CPadding @ 177 NONAME
	_ZN18CBufferedEncryptor4NewLEP20CBlockTransformationP8CPadding @ 178 NONAME
	_ZN18CBufferedEncryptor5NewLCEP20CBlockTransformationP8CPadding @ 179 NONAME
	_ZN18CRSAPKCS1v15Signer4NewLERK14CRSAPrivateKey @ 180 NONAME
	_ZN18CRSAPKCS1v15Signer5NewLCERK14CRSAPrivateKey @ 181 NONAME
	_ZN20CDSAPrimeCertificate4NewLERK6TDesC8j @ 182 NONAME
	_ZN20CDSAPrimeCertificate5NewLCERK6TDesC8j @ 183 NONAME
	_ZN20CDSAPrimeCertificateC1Ej @ 184 NONAME
	_ZN20CDSAPrimeCertificateC1Ev @ 185 NONAME
	_ZN20CDSAPrimeCertificateC2Ej @ 186 NONAME
	_ZN20CDSAPrimeCertificateC2Ev @ 187 NONAME
	_ZN20CDSAPrimeCertificateD0Ev @ 188 NONAME
	_ZN20CDSAPrimeCertificateD1Ev @ 189 NONAME
	_ZN20CDSAPrimeCertificateD2Ev @ 190 NONAME
	_ZN20CRSAPKCS1v15Verifier4NewLERK13CRSAPublicKey @ 191 NONAME
	_ZN20CRSAPKCS1v15Verifier5NewLCERK13CRSAPublicKey @ 192 NONAME
	_ZN21CRSAPKCS1v15Decryptor4NewLERK14CRSAPrivateKey @ 193 NONAME
	_ZN21CRSAPKCS1v15Decryptor5NewLCERK14CRSAPrivateKey @ 194 NONAME
	_ZN21CRSAPKCS1v15Encryptor4NewLERK13CRSAPublicKey @ 195 NONAME
	_ZN21CRSAPKCS1v15Encryptor5NewLCERK13CRSAPublicKey @ 196 NONAME
	_ZN22CPaddingPKCS1Signature4NewLEi @ 197 NONAME
	_ZN22CPaddingPKCS1Signature5NewLCEi @ 198 NONAME
	_ZN22CPaddingPKCS1SignatureC1Ei @ 199 NONAME
	_ZN22CPaddingPKCS1SignatureC2Ei @ 200 NONAME
	_ZN22CRSAPrivateKeyStandard4NewLER8RIntegerS1_ @ 201 NONAME
	_ZN22CRSAPrivateKeyStandard5NewLCER8RIntegerS1_ @ 202 NONAME
	_ZN22CRSAPrivateKeyStandardC1ER8RIntegerS1_ @ 203 NONAME
	_ZN22CRSAPrivateKeyStandardC2ER8RIntegerS1_ @ 204 NONAME
	_ZN22CRSAPrivateKeyStandardD0Ev @ 205 NONAME
	_ZN22CRSAPrivateKeyStandardD1Ev @ 206 NONAME
	_ZN22CRSAPrivateKeyStandardD2Ev @ 207 NONAME
	_ZN23CBufferedTransformationD0Ev @ 208 NONAME
	_ZN23CBufferedTransformationD1Ev @ 209 NONAME
	_ZN23CBufferedTransformationD2Ev @ 210 NONAME
	_ZN23CPaddingPKCS1Encryption4NewLEi @ 211 NONAME
	_ZN23CPaddingPKCS1Encryption5NewLCEi @ 212 NONAME
	_ZN23CPaddingPKCS1EncryptionC1Ei @ 213 NONAME
	_ZN23CPaddingPKCS1EncryptionC2Ei @ 214 NONAME
	_ZN3CDH4NewLERK13CDHPrivateKey @ 215 NONAME
	_ZN3CDH5NewLCERK13CDHPrivateKey @ 216 NONAME
	_ZN3CDHC1ERK13CDHPrivateKey @ 217 NONAME
	_ZN3CDHC2ERK13CDHPrivateKey @ 218 NONAME
	_ZN5CARC44NewLERK6TDesC8j @ 219 NONAME
	_ZN5CARC45NewLCERK6TDesC8j @ 220 NONAME
	_ZN7TCrypto22IsSymmetricWeakEnoughLEi @ 221 NONAME
	_ZN7TCrypto23IsAsymmetricWeakEnoughLEi @ 222 NONAME
	_ZN7TCrypto8StrengthEv @ 223 NONAME
	_ZN8CPadding12SetBlockSizeEi @ 224 NONAME
	_ZN8CPadding4PadLERK6TDesC8R5TDes8 @ 225 NONAME
	_ZN8CPaddingC1Ei @ 226 NONAME
	_ZN8CPaddingC2Ei @ 227 NONAME
	_ZN9CRijndaelC1Ev @ 228 NONAME
	_ZN9CRijndaelC2Ev @ 229 NONAME
	_ZNK10CDHKeyPair10PrivateKeyEv @ 230 NONAME
	_ZNK10CDHKeyPair9PublicKeyEv @ 231 NONAME
	_ZNK11CDSAKeyPair10PrivateKeyEv @ 232 NONAME
	_ZNK11CDSAKeyPair16PrimeCertificateEv @ 233 NONAME
	_ZNK11CDSAKeyPair9PublicKeyEv @ 234 NONAME
	_ZNK11CRSAKeyPair10PrivateKeyEv @ 235 NONAME
	_ZNK11CRSAKeyPair9PublicKeyEv @ 236 NONAME
	_ZNK12CDHPublicKey1XEv @ 237 NONAME
	_ZNK12CRSAVerifier7VerifyLERK6TDesC8RK13CRSASignature @ 238 NONAME
	_ZNK13CDHParameters1GEv @ 239 NONAME
	_ZNK13CDHParameters1NEv @ 240 NONAME
	_ZNK13CDHPrivateKey1xEv @ 241 NONAME
	_ZNK13CDSAPublicKey1YEv @ 242 NONAME
	_ZNK13CDSASignature1REv @ 243 NONAME
	_ZNK13CDSASignature1SEv @ 244 NONAME
	_ZNK13CDSASignatureeqERKS_ @ 245 NONAME
	_ZNK13CRSAPublicKey1EEv @ 246 NONAME
	_ZNK13CRSASignature1SEv @ 247 NONAME
	_ZNK13CRSASignatureeqERKS_ @ 248 NONAME
	_ZNK13CStreamCipher15MaxOutputLengthEi @ 249 NONAME
	_ZNK13CStreamCipher20MaxFinalOutputLengthEi @ 250 NONAME
	_ZNK13CStreamCipher9BlockSizeEv @ 251 NONAME
	_ZNK14CDSAParameters15ValidatePrimesLERK20CDSAPrimeCertificate @ 252 NONAME
	_ZNK14CDSAParameters1GEv @ 253 NONAME
	_ZNK14CDSAParameters1PEv @ 254 NONAME
	_ZNK14CDSAParameters1QEv @ 255 NONAME
	_ZNK14CDSAPrivateKey1XEv @ 256 NONAME
	_ZNK14CRSAParameters1NEv @ 257 NONAME
	_ZNK17CRSAPrivateKeyCRT1PEv @ 258 NONAME
	_ZNK17CRSAPrivateKeyCRT1QEv @ 259 NONAME
	_ZNK17CRSAPrivateKeyCRT2DPEv @ 260 NONAME
	_ZNK17CRSAPrivateKeyCRT2DQEv @ 261 NONAME
	_ZNK17CRSAPrivateKeyCRT4QInvEv @ 262 NONAME
	_ZNK20CDSAPrimeCertificate4SeedEv @ 263 NONAME
	_ZNK20CDSAPrimeCertificate7CounterEv @ 264 NONAME
	_ZNK22CRSAPrivateKeyStandard1DEv @ 265 NONAME
	_ZNK23CBufferedTransformation16BlockTransformerEv @ 266 NONAME
	_ZNK3CDH6AgreeLERK12CDHPublicKey @ 267 NONAME
	_ZNK8CPadding15MaxPaddedLengthEi @ 268 NONAME
	_ZNK8CPadding17MaxUnPaddedLengthEi @ 269 NONAME
	_ZNK8CPadding9BlockSizeEv @ 270 NONAME
	_ZTI10CDHKeyPair @ 271 NONAME ; #<TI>#
	_ZTI10CDecryptor @ 272 NONAME ; #<TI>#
	_ZTI10CEncryptor @ 273 NONAME ; #<TI>#
	_ZTI10CRSASigner @ 274 NONAME ; #<TI>#
	_ZTI11CDSAKeyPair @ 275 NONAME ; #<TI>#
	_ZTI11CRSAKeyPair @ 276 NONAME ; #<TI>#
	_ZTI12CDHPublicKey @ 277 NONAME ; #<TI>#
	_ZTI12CPaddingNone @ 278 NONAME ; #<TI>#
	_ZTI12CRSAVerifier @ 279 NONAME ; #<TI>#
	_ZTI13CDHParameters @ 280 NONAME ; #<TI>#
	_ZTI13CDHPrivateKey @ 281 NONAME ; #<TI>#
	_ZTI13CDSAPublicKey @ 282 NONAME ; #<TI>#
	_ZTI13CDSASignature @ 283 NONAME ; #<TI>#
	_ZTI13CPaddingPKCS7 @ 284 NONAME ; #<TI>#
	_ZTI13CPaddingSSLv3 @ 285 NONAME ; #<TI>#
	_ZTI13CRSAPublicKey @ 286 NONAME ; #<TI>#
	_ZTI13CRSASignature @ 287 NONAME ; #<TI>#
	_ZTI13CStreamCipher @ 288 NONAME ; #<TI>#
	_ZTI13MCryptoSystem @ 289 NONAME ; #<TI>#
	_ZTI14CDSAParameters @ 290 NONAME ; #<TI>#
	_ZTI14CDSAPrivateKey @ 291 NONAME ; #<TI>#
	_ZTI14CRSAParameters @ 292 NONAME ; #<TI>#
	_ZTI16MSignatureSystem @ 293 NONAME ; #<TI>#
	_ZTI17CRSAPrivateKeyCRT @ 294 NONAME ; #<TI>#
	_ZTI18CBlockChainingMode @ 295 NONAME ; #<TI>#
	_ZTI20CDSAPrimeCertificate @ 296 NONAME ; #<TI>#
	_ZTI22CPaddingPKCS1Signature @ 297 NONAME ; #<TI>#
	_ZTI22CRSAPrivateKeyStandard @ 298 NONAME ; #<TI>#
	_ZTI23CBufferedTransformation @ 299 NONAME ; #<TI>#
	_ZTI23CPaddingPKCS1Encryption @ 300 NONAME ; #<TI>#
	_ZTI3CDH @ 301 NONAME ; #<TI>#
	_ZTI8CPadding @ 302 NONAME ; #<TI>#
	_ZTI9CRijndael @ 303 NONAME ; #<TI>#
	_ZTV10CDHKeyPair @ 304 NONAME ; #<VT>#
	_ZTV11CDSAKeyPair @ 305 NONAME ; #<VT>#
	_ZTV11CRSAKeyPair @ 306 NONAME ; #<VT>#
	_ZTV12CDHPublicKey @ 307 NONAME ; #<VT>#
	_ZTV12CPaddingNone @ 308 NONAME ; #<VT>#
	_ZTV12CRSAVerifier @ 309 NONAME ; #<VT>#
	_ZTV13CDHParameters @ 310 NONAME ; #<VT>#
	_ZTV13CDHPrivateKey @ 311 NONAME ; #<VT>#
	_ZTV13CDSAPublicKey @ 312 NONAME ; #<VT>#
	_ZTV13CDSASignature @ 313 NONAME ; #<VT>#
	_ZTV13CPaddingPKCS7 @ 314 NONAME ; #<VT>#
	_ZTV13CPaddingSSLv3 @ 315 NONAME ; #<VT>#
	_ZTV13CRSAPublicKey @ 316 NONAME ; #<VT>#
	_ZTV13CRSASignature @ 317 NONAME ; #<VT>#
	_ZTV13CStreamCipher @ 318 NONAME ; #<VT>#
	_ZTV14CDSAParameters @ 319 NONAME ; #<VT>#
	_ZTV14CDSAPrivateKey @ 320 NONAME ; #<VT>#
	_ZTV14CRSAParameters @ 321 NONAME ; #<VT>#
	_ZTV17CRSAPrivateKeyCRT @ 322 NONAME ; #<VT>#
	_ZTV18CBlockChainingMode @ 323 NONAME ; #<VT>#
	_ZTV20CDSAPrimeCertificate @ 324 NONAME ; #<VT>#
	_ZTV22CPaddingPKCS1Signature @ 325 NONAME ; #<VT>#
	_ZTV22CRSAPrivateKeyStandard @ 326 NONAME ; #<VT>#
	_ZTV23CBufferedTransformation @ 327 NONAME ; #<VT>#
	_ZTV23CPaddingPKCS1Encryption @ 328 NONAME ; #<VT>#
	_ZTV8CPadding @ 329 NONAME ; #<VT>#
	_ZTV9CRijndael @ 330 NONAME ; #<VT>#
	_ZN8RInteger10NewRandomLERK8TIntegerS2_ @ 331 NONAME
	_ZN8RInteger10NewRandomLEjN8TInteger16TRandomAttributeE @ 332 NONAME
	_ZN8RInteger4NewLERK6TDesC8 @ 333 NONAME
	_ZN8RInteger4NewLERK8TInteger @ 334 NONAME
	_ZN8RInteger4NewLEi @ 335 NONAME
	_ZN8RInteger4NewLEj @ 336 NONAME
	_ZN8RInteger4NewLEv @ 337 NONAME
	_ZN8RInteger5CloseEv @ 338 NONAME
	_ZN8RInteger9CallCloseEPv @ 339 NONAME
	_ZN8RInteger9NewEmptyLEj @ 340 NONAME
	_ZN8RInteger9NewPrimeLEjN8TInteger16TRandomAttributeE @ 341 NONAME
	_ZN8RIntegerC1ERKS_ @ 342 NONAME
	_ZN8RIntegerC1Ev @ 343 NONAME
	_ZN8RIntegerC2ERKS_ @ 344 NONAME
	_ZN8RIntegerC2Ev @ 345 NONAME
	_ZN8RIntegeraSERKS_ @ 346 NONAME
	_ZN8RIntegercv12TCleanupItemEv @ 347 NONAME
	_ZN8TInteger20ModularExponentiateLERKS_S1_S1_ @ 348 NONAME
	_ZN8TIntegermmEv @ 349 NONAME
	_ZN8TIntegerppEv @ 350 NONAME
	_ZNK8TInteger11InverseModLERKS_ @ 351 NONAME
	_ZNK8TInteger6TimesLERKS_ @ 352 NONAME
	_ZNK8TInteger8BitCountEv @ 353 NONAME
	_ZNK8TInteger8BufferLCEv @ 354 NONAME
	_ZNK8TInteger9ByteCountEv @ 355 NONAME
	_ZNK8TInteger9WordCountEv @ 356 NONAME
	_ZNK8TIntegerntEv @ 357 NONAME

