EXPORTS
	_ZN11CRepository12NotifyCancelEm @ 1 NONAME
	_ZN11CRepository12NotifyCancelEmm @ 2 NONAME
	_ZN11CRepository13NotifyRequestEmR14TRequestStatus @ 3 NONAME
	_ZN11CRepository13NotifyRequestEmmR14TRequestStatus @ 4 NONAME
	_ZN11CRepository15NotifyCancelAllEv @ 5 NONAME
	_ZN11CRepository3GetEmR5TDes8 @ 6 NONAME
	_ZN11CRepository3GetEmR6TDes16 @ 7 NONAME
	_ZN11CRepository3GetEmRd @ 8 NONAME
	_ZN11CRepository3GetEmRi @ 9 NONAME
	_ZN11CRepository3SetEmRK6TDesC8 @ 10 NONAME
	_ZN11CRepository3SetEmRK7TDesC16 @ 11 NONAME
	_ZN11CRepository3SetEmRKd @ 12 NONAME
	_ZN11CRepository3SetEmi @ 13 NONAME
	_ZN11CRepository4NewLE4TUid @ 14 NONAME
	_ZN11CRepository5FindLEmmR6RArrayImE @ 15 NONAME
	_ZN11CRepository5NewLCE4TUid @ 16 NONAME
	_ZN11CRepository5ResetEm @ 17 NONAME
	_ZN11CRepository5ResetEv @ 18 NONAME
	_ZN11CRepository6CreateEmRK6TDesC8 @ 19 NONAME
	_ZN11CRepository6CreateEmRK7TDesC16 @ 20 NONAME
	_ZN11CRepository6CreateEmRKd @ 21 NONAME
	_ZN11CRepository6CreateEmi @ 22 NONAME
	_ZN11CRepository6DeleteEm @ 23 NONAME
	_ZN11CRepository7FindEqLEmmRK6TDesC8R6RArrayImE @ 24 NONAME
	_ZN11CRepository7FindEqLEmmRK7TDesC16R6RArrayImE @ 25 NONAME
	_ZN11CRepository7FindEqLEmmRKdR6RArrayImE @ 26 NONAME
	_ZN11CRepository7FindEqLEmmiR6RArrayImE @ 27 NONAME
	_ZN11CRepository8FindNeqLEmmRK6TDesC8R6RArrayImE @ 28 NONAME
	_ZN11CRepository8FindNeqLEmmRK7TDesC16R6RArrayImE @ 29 NONAME
	_ZN11CRepository8FindNeqLEmmRKdR6RArrayImE @ 30 NONAME
	_ZN11CRepository8FindNeqLEmmiR6RArrayImE @ 31 NONAME
	_ZN11CRepositoryD0Ev @ 32 NONAME
	_ZN11CRepositoryD1Ev @ 33 NONAME
	_ZN11CRepositoryD2Ev @ 34 NONAME
	_ZTI11CRepository @ 35 NONAME ; #<TI>#
	_ZTV11CRepository @ 36 NONAME ; #<VT>#
	_ZTI17CClientRepository @ 37 NONAME ABSENT ; #<TI>#
	_ZTV17CClientRepository @ 38 NONAME ABSENT ; #<VT>#
	_ZN11CRepository17CommitTransactionERm @ 39 NONAME
	_ZN11CRepository16StartTransactionENS_16TTransactionModeE @ 40 NONAME
	_ZTI12CCommandList @ 41 NONAME ABSENT ; #<TI>#
	_ZTI17CGetRepositoryCmdI5TDes8E @ 42 NONAME ABSENT ; #<TI>#
	_ZTI17CGetRepositoryCmdI6TDes16E @ 43 NONAME ABSENT ; #<TI>#
	_ZTI17CGetRepositoryCmdIdE @ 44 NONAME ABSENT ; #<TI>#
	_ZTI17CGetRepositoryCmdIiE @ 45 NONAME ABSENT ; #<TI>#
	_ZTI17CSetRepositoryCmdI6TPtrC8E @ 46 NONAME ABSENT ; #<TI>#
	_ZTI17CSetRepositoryCmdI7TPtrC16E @ 47 NONAME ABSENT ; #<TI>#
	_ZTI17CSetRepositoryCmdIdE @ 48 NONAME ABSENT ; #<TI>#
	_ZTI17CSetRepositoryCmdIiE @ 49 NONAME ABSENT ; #<TI>#
	_ZTI18CRepositoryCommand @ 50 NONAME ABSENT ; #<TI>#
	_ZTI19CResetRepositoryCmd @ 51 NONAME ABSENT ; #<TI>#
	_ZTI20CCreateRepositoryCmdI6TPtrC8E @ 52 NONAME ABSENT ; #<TI>#
	_ZTI20CCreateRepositoryCmdI7TPtrC16E @ 53 NONAME ABSENT ; #<TI>#
	_ZTI20CCreateRepositoryCmdIdE @ 54 NONAME ABSENT ; #<TI>#
	_ZTI20CCreateRepositoryCmdIiE @ 55 NONAME ABSENT ; #<TI>#
	_ZTI20CDeleteRepositoryCmd @ 56 NONAME ABSENT ; #<TI>#
	_ZTV12CCommandList @ 57 NONAME ABSENT ; #<VT>#
	_ZTV17CGetRepositoryCmdI5TDes8E @ 58 NONAME ABSENT ; #<VT>#
	_ZTV17CGetRepositoryCmdI6TDes16E @ 59 NONAME ABSENT ; #<VT>#
	_ZTV17CGetRepositoryCmdIdE @ 60 NONAME ABSENT ; #<VT>#
	_ZTV17CGetRepositoryCmdIiE @ 61 NONAME ABSENT ; #<VT>#
	_ZTV17CSetRepositoryCmdI6TPtrC8E @ 62 NONAME ABSENT ; #<VT>#
	_ZTV17CSetRepositoryCmdI7TPtrC16E @ 63 NONAME ABSENT ; #<VT>#
	_ZTV17CSetRepositoryCmdIdE @ 64 NONAME ABSENT ; #<VT>#
	_ZTV17CSetRepositoryCmdIiE @ 65 NONAME ABSENT ; #<VT>#
	_ZTV18CRepositoryCommand @ 66 NONAME ABSENT ; #<VT>#
	_ZTV19CResetRepositoryCmd @ 67 NONAME ABSENT ; #<VT>#
	_ZTV20CCreateRepositoryCmdI6TPtrC8E @ 68 NONAME ABSENT ; #<VT>#
	_ZTV20CCreateRepositoryCmdI7TPtrC16E @ 69 NONAME ABSENT ; #<VT>#
	_ZTV20CCreateRepositoryCmdIdE @ 70 NONAME ABSENT ; #<VT>#
	_ZTV20CCreateRepositoryCmdIiE @ 71 NONAME ABSENT ; #<VT>#
	_ZTV20CDeleteRepositoryCmd @ 72 NONAME ABSENT ; #<VT>#
	_ZN11CRepository17CancelTransactionEv @ 73 NONAME
	_ZN11CRepository15CreateSemaphoreEm @ 74 NONAME ABSENT ; #<VT>#
	_ZN11CRepository4MoveEmmmRm @ 75 NONAME
	_ZN11CRepository15FailTransactionEv @ 76 NONAME
	_ZN11CRepository16TransactionStateEv @ 77 NONAME ABSENT ; #<VT>#
	_ZN11CRepository27CleanupFailTransactionPushLEv @ 78 NONAME
	_ZN11CRepository29CleanupCancelTransactionPushLEv @ 79 NONAME
	_ZN11CRepository16StartTransactionENS_16TTransactionModeER14TRequestStatus @ 80 NONAME
	_ZN11CRepository17CommitTransactionER5TDes8R14TRequestStatus @ 81 NONAME
	_ZN11CRepository6DeleteEmmRm @ 82 NONAME
	_ZN11CRepository3GetEmR5TDes8Ri @ 83 NONAME
	_ZN11CRepository3GetEmR6TDes16Ri @ 84 NONAME
	_ZN11CRepository16SetGetParametersERK8TIpcArgs @ 85 NONAME ABSENT ; #<VT>#
	_ZN11CRepository7GetMetaEmRm @ 86 NONAME
