EXPORTS
	??0RSharedDataClient@@QAE@PAVMSharedDataNotifyHandler@@@Z @ 1 NONAME ; public: __thiscall RSharedDataClient::RSharedDataClient(class MSharedDataNotifyHandler *)
	??0RSharedDataClient@@QAE@XZ @ 2 NONAME ; public: __thiscall RSharedDataClient::RSharedDataClient(void)
	??0TProxy@CSharedDataInteger@@QAE@AAV1@@Z @ 3 NONAME ; public: __thiscall CSharedDataInteger::TProxy::TProxy(class TProxy &)
	??0TProxy@CSharedDataString@@QAE@AAV1@@Z @ 4 NONAME ; public: __thiscall CSharedDataString::TProxy::TProxy(class TProxy &)
	??1CFindItemEngine@@UAE@XZ @ 5 NONAME ; public: virtual __thiscall CFindItemEngine::~CFindItemEngine(void)
	??1CSharedDataI@@UAE@XZ @ 6 NONAME ; public: virtual __thiscall CSharedDataI::~CSharedDataI(void)
	??1CSharedDataInteger@@UAE@XZ @ 7 NONAME ; public: virtual __thiscall CSharedDataInteger::~CSharedDataInteger(void)
	??1CSharedDataString@@UAE@XZ @ 8 NONAME ; public: virtual __thiscall CSharedDataString::~CSharedDataString(void)
	??1CTextResolver@@UAE@XZ @ 9 NONAME ; public: virtual __thiscall CTextResolver::~CTextResolver(void)
	??4TProxy@CSharedDataInteger@@QAEAAV01@ABV01@@Z @ 10 NONAME ; public: class CSharedDataInteger::TProxy & __thiscall CSharedDataInteger::TProxy::operator=(class CSharedDataInteger::TProxy const &)
	??4TProxy@CSharedDataInteger@@QAEAAV01@H@Z @ 11 NONAME ; public: class CSharedDataInteger::TProxy & __thiscall CSharedDataInteger::TProxy::operator=(int)
	??4TProxy@CSharedDataString@@QAEAAV01@ABV01@@Z @ 12 NONAME ; public: class CSharedDataString::TProxy & __thiscall CSharedDataString::TProxy::operator=(class CSharedDataString::TProxy const &)
	??4TProxy@CSharedDataString@@QAEAAV01@PAVHBufC16@@@Z @ 13 NONAME ; public: class CSharedDataString::TProxy & __thiscall CSharedDataString::TProxy::operator=(class HBufC16 *)
	??BTProxy@CSharedDataInteger@@QBEHXZ @ 14 NONAME ; public: __thiscall CSharedDataInteger::TProxy::operator int(void)const 
	??BTProxy@CSharedDataString@@QBEPAVHBufC16@@XZ @ 15 NONAME ; public: __thiscall CSharedDataString::TProxy::operator class HBufC16 *(void)const 
	?AddCallBackL@CSharedDataI@@QAEXABVTCallBack@@ABVTDesC16@@@Z @ 16 NONAME ; public: void __thiscall CSharedDataI::AddCallBackL(class TCallBack const &,class TDesC16 const &)
	?AddNotify@CSharedDataI@@QAEXABVTDesC16@@@Z @ 17 NONAME ; public: void __thiscall CSharedDataI::AddNotify(class TDesC16 const &)
	?Assign@RSharedDataClient@@QBEHVTUid@@@Z @ 18 NONAME ; public: int __thiscall RSharedDataClient::Assign(class TUid)const 
	?AssignToTemporaryFile@RSharedDataClient@@QBEHVTUid@@@Z @ 19 NONAME ; public: int __thiscall RSharedDataClient::AssignToTemporaryFile(class TUid)const 
	?CancelAllNotifies@RSharedDataClient@@QAEXXZ @ 20 NONAME ; public: void __thiscall RSharedDataClient::CancelAllNotifies(void)
	?CancelNotify@RSharedDataClient@@QAEXVTUid@@PBVTDesC16@@@Z @ 21 NONAME ; public: void __thiscall RSharedDataClient::CancelNotify(class TUid,class TDesC16 const *)
	?Close@RSharedDataClient@@QAEXXZ @ 22 NONAME ; public: void __thiscall RSharedDataClient::Close(void)
	?Connect@RSharedDataClient@@QAEHH@Z @ 23 NONAME ; public: int __thiscall RSharedDataClient::Connect(int)
	?DoNewSearchL@CFindItemEngine@@QAEHABVTDesC16@@W4TFindItemSearchCase@1@@Z @ 24 NONAME ; public: int __thiscall CFindItemEngine::DoNewSearchL(class TDesC16 const &,enum CFindItemEngine::TFindItemSearchCase)
	?Flush@RSharedDataClient@@QBEHXZ @ 25 NONAME ; public: int __thiscall RSharedDataClient::Flush(void)const 
	?Format@StringLoader@@SAXAAVTDes16@@ABVTDesC16@@H1@Z @ 26 NONAME ; public: static void __cdecl StringLoader::Format(class TDes16 &,class TDesC16 const &,int,class TDesC16 const &)
	?Format@StringLoader@@SAXAAVTDes16@@ABVTDesC16@@HH@Z @ 27 NONAME ; public: static void __cdecl StringLoader::Format(class TDes16 &,class TDesC16 const &,int,int)
	?Get@CSharedDataI@@QAEHABVTDesC16@@AAH@Z @ 28 NONAME ; public: int __thiscall CSharedDataI::Get(class TDesC16 const &,int &)
	?Get@CSharedDataI@@QAEHABVTDesC16@@AAN@Z @ 29 NONAME ; public: int __thiscall CSharedDataI::Get(class TDesC16 const &,double &)
	?Get@CSharedDataI@@QAEHABVTDesC16@@AAVTDes16@@@Z @ 30 NONAME ; public: int __thiscall CSharedDataI::Get(class TDesC16 const &,class TDes16 &)
	?GetInt@RSharedDataClient@@QBEHABVTDesC16@@AAH@Z @ 31 NONAME ; public: int __thiscall RSharedDataClient::GetInt(class TDesC16 const &,int &)const 
	?GetReal@RSharedDataClient@@QBEHABVTDesC16@@AAN@Z @ 32 NONAME ; public: int __thiscall RSharedDataClient::GetReal(class TDesC16 const &,double &)const 
	?GetString@RSharedDataClient@@QBEHABVTDesC16@@AAVTDes16@@@Z @ 33 NONAME ; public: int __thiscall RSharedDataClient::GetString(class TDesC16 const &,class TDes16 &)const 
	?IsValidPhoneNumber@CommonPhoneParser@@SAHABVTDesC16@@W4TPhoneNumberType@1@@Z @ 34 NONAME ; public: static int __cdecl CommonPhoneParser::IsValidPhoneNumber(class TDesC16 const &,enum CommonPhoneParser::TPhoneNumberType)
	?Item@CFindItemEngine@@QAEHAAUSFoundItem@1@@Z @ 35 NONAME ; public: int __thiscall CFindItemEngine::Item(struct CFindItemEngine::SFoundItem &)
	?ItemArray@CFindItemEngine@@QBEPBV?$CArrayFixFlat@USFoundItem@CFindItemEngine@@@@XZ @ 36 NONAME ; public: class CArrayFixFlat<struct CFindItemEngine::SFoundItem> const * __thiscall CFindItemEngine::ItemArray(void)const 
	?ItemCount@CFindItemEngine@@QBE?BHXZ @ 37 NONAME ; public: int const  __thiscall CFindItemEngine::ItemCount(void)const 
	?Load@StringLoader@@SAXAAVTDes16@@HPAVCCoeEnv@@@Z @ 38 NONAME ; public: static void __cdecl StringLoader::Load(class TDes16 &,int,class CCoeEnv *)
	?LoadCommonTextsL@CTextResolver@@QAEXXZ @ 39 NONAME ; public: void __thiscall CTextResolver::LoadCommonTextsL(void)
	?LoadL@StringLoader@@SAPAVHBufC16@@HABV?$CArrayFix@H@@PAVCCoeEnv@@@Z @ 40 NONAME ; public: static class HBufC16 * __cdecl StringLoader::LoadL(int,class CArrayFix<int> const &,class CCoeEnv *)
	?LoadL@StringLoader@@SAPAVHBufC16@@HABVMDesC16Array@@ABV?$CArrayFix@H@@PAVCCoeEnv@@@Z @ 41 NONAME ; public: static class HBufC16 * __cdecl StringLoader::LoadL(int,class MDesC16Array const &,class CArrayFix<int> const &,class CCoeEnv *)
	?LoadL@StringLoader@@SAPAVHBufC16@@HABVMDesC16Array@@PAVCCoeEnv@@@Z @ 42 NONAME ; public: static class HBufC16 * __cdecl StringLoader::LoadL(int,class MDesC16Array const &,class CCoeEnv *)
	?LoadL@StringLoader@@SAPAVHBufC16@@HABVTDesC16@@HPAVCCoeEnv@@@Z @ 43 NONAME ; public: static class HBufC16 * __cdecl StringLoader::LoadL(int,class TDesC16 const &,int,class CCoeEnv *)
	?LoadL@StringLoader@@SAPAVHBufC16@@HABVTDesC16@@PAVCCoeEnv@@@Z @ 44 NONAME ; public: static class HBufC16 * __cdecl StringLoader::LoadL(int,class TDesC16 const &,class CCoeEnv *)
	?LoadL@StringLoader@@SAPAVHBufC16@@HHPAVCCoeEnv@@@Z @ 45 NONAME ; public: static class HBufC16 * __cdecl StringLoader::LoadL(int,int,class CCoeEnv *)
	?LoadL@StringLoader@@SAPAVHBufC16@@HPAVCCoeEnv@@@Z @ 46 NONAME ; public: static class HBufC16 * __cdecl StringLoader::LoadL(int,class CCoeEnv *)
	?LoadLC@StringLoader@@SAPAVHBufC16@@HABV?$CArrayFix@H@@PAVCCoeEnv@@@Z @ 47 NONAME ; public: static class HBufC16 * __cdecl StringLoader::LoadLC(int,class CArrayFix<int> const &,class CCoeEnv *)
	?LoadLC@StringLoader@@SAPAVHBufC16@@HABVMDesC16Array@@ABV?$CArrayFix@H@@PAVCCoeEnv@@@Z @ 48 NONAME ; public: static class HBufC16 * __cdecl StringLoader::LoadLC(int,class MDesC16Array const &,class CArrayFix<int> const &,class CCoeEnv *)
	?LoadLC@StringLoader@@SAPAVHBufC16@@HABVMDesC16Array@@PAVCCoeEnv@@@Z @ 49 NONAME ; public: static class HBufC16 * __cdecl StringLoader::LoadLC(int,class MDesC16Array const &,class CCoeEnv *)
	?LoadLC@StringLoader@@SAPAVHBufC16@@HABVTDesC16@@HPAVCCoeEnv@@@Z @ 50 NONAME ; public: static class HBufC16 * __cdecl StringLoader::LoadLC(int,class TDesC16 const &,int,class CCoeEnv *)
	?LoadLC@StringLoader@@SAPAVHBufC16@@HABVTDesC16@@PAVCCoeEnv@@@Z @ 51 NONAME ; public: static class HBufC16 * __cdecl StringLoader::LoadLC(int,class TDesC16 const &,class CCoeEnv *)
	?LoadLC@StringLoader@@SAPAVHBufC16@@HHPAVCCoeEnv@@@Z @ 52 NONAME ; public: static class HBufC16 * __cdecl StringLoader::LoadLC(int,int,class CCoeEnv *)
	?LoadLC@StringLoader@@SAPAVHBufC16@@HPAVCCoeEnv@@@Z @ 53 NONAME ; public: static class HBufC16 * __cdecl StringLoader::LoadLC(int,class CCoeEnv *)
	?NewL@CFindItemEngine@@SAPAV1@ABVTDesC16@@W4TFindItemSearchCase@1@@Z @ 54 NONAME ; public: static class CFindItemEngine * __cdecl CFindItemEngine::NewL(class TDesC16 const &,enum CFindItemEngine::TFindItemSearchCase)
	?NewL@CSharedDataI@@SAPAV1@ABVTUid@@H@Z @ 55 NONAME ; public: static class CSharedDataI * __cdecl CSharedDataI::NewL(class TUid const &,int)
	?NewL@CSharedDataInteger@@SAPAV1@ABVTDesC16@@PAVCSharedDataI@@H@Z @ 56 NONAME ; public: static class CSharedDataInteger * __cdecl CSharedDataInteger::NewL(class TDesC16 const &,class CSharedDataI *,int)
	?NewL@CSharedDataInteger@@SAPAV1@ABVTDesC16@@PAVCSharedDataI@@VTCallBack@@H@Z @ 57 NONAME ; public: static class CSharedDataInteger * __cdecl CSharedDataInteger::NewL(class TDesC16 const &,class CSharedDataI *,class TCallBack,int)
	?NewL@CSharedDataString@@SAPAV1@ABVTDesC16@@PAVCSharedDataI@@0@Z @ 58 NONAME ; public: static class CSharedDataString * __cdecl CSharedDataString::NewL(class TDesC16 const &,class CSharedDataI *,class TDesC16 const &)
	?NewL@CSharedDataString@@SAPAV1@ABVTDesC16@@PAVCSharedDataI@@VTCallBack@@0@Z @ 59 NONAME ; public: static class CSharedDataString * __cdecl CSharedDataString::NewL(class TDesC16 const &,class CSharedDataI *,class TCallBack,class TDesC16 const &)
	?NewL@CStringResourceReader@@SAPAV1@AAV?$TBuf@$0BAA@@@@Z @ 60 NONAME ; public: static class CStringResourceReader * __cdecl CStringResourceReader::NewL(class TBuf<256> &)
	?NewL@CTextResolver@@SAPAV1@AAVCCoeEnv@@@Z @ 61 NONAME ; public: static class CTextResolver * __cdecl CTextResolver::NewL(class CCoeEnv &)
	?NewL@CTextResolver@@SAPAV1@XZ @ 62 NONAME ; public: static class CTextResolver * __cdecl CTextResolver::NewL(void)
	?NewLC@CSharedDataInteger@@SAPAV1@ABVTDesC16@@PAVCSharedDataI@@H@Z @ 63 NONAME ; public: static class CSharedDataInteger * __cdecl CSharedDataInteger::NewLC(class TDesC16 const &,class CSharedDataI *,int)
	?NewLC@CSharedDataInteger@@SAPAV1@ABVTDesC16@@PAVCSharedDataI@@VTCallBack@@H@Z @ 64 NONAME ; public: static class CSharedDataInteger * __cdecl CSharedDataInteger::NewLC(class TDesC16 const &,class CSharedDataI *,class TCallBack,int)
	?NewLC@CSharedDataString@@SAPAV1@ABVTDesC16@@PAVCSharedDataI@@0@Z @ 65 NONAME ; public: static class CSharedDataString * __cdecl CSharedDataString::NewLC(class TDesC16 const &,class CSharedDataI *,class TDesC16 const &)
	?NewLC@CSharedDataString@@SAPAV1@ABVTDesC16@@PAVCSharedDataI@@VTCallBack@@0@Z @ 66 NONAME ; public: static class CSharedDataString * __cdecl CSharedDataString::NewLC(class TDesC16 const &,class CSharedDataI *,class TCallBack,class TDesC16 const &)
	?NewLC@CStringResourceReader@@SAPAV1@AAV?$TBuf@$0BAA@@@@Z @ 67 NONAME ; public: static class CStringResourceReader * __cdecl CStringResourceReader::NewLC(class TBuf<256> &)
	?NewLC@CTextResolver@@SAPAV1@AAVCCoeEnv@@@Z @ 68 NONAME ; public: static class CTextResolver * __cdecl CTextResolver::NewLC(class CCoeEnv &)
	?NewLC@CTextResolver@@SAPAV1@XZ @ 69 NONAME ; public: static class CTextResolver * __cdecl CTextResolver::NewLC(void)
	?NextItem@CFindItemEngine@@QAEHAAUSFoundItem@1@@Z @ 70 NONAME ; public: int __thiscall CFindItemEngine::NextItem(struct CFindItemEngine::SFoundItem &)
	?NotifyChange@RSharedDataClient@@QAEHVTUid@@PBVTDesC16@@@Z @ 71 NONAME ; public: int __thiscall RSharedDataClient::NotifyChange(class TUid,class TDesC16 const *)
	?NotifySet@RSharedDataClient@@QAEHVTUid@@PBVTDesC16@@@Z @ 72 NONAME ; public: int __thiscall RSharedDataClient::NotifySet(class TUid,class TDesC16 const *)
	?ParsePhoneNumber@CommonPhoneParser@@SAHAAVTDes16@@W4TPhoneNumberType@1@@Z @ 73 NONAME ; public: static int __cdecl CommonPhoneParser::ParsePhoneNumber(class TDes16 &,enum CommonPhoneParser::TPhoneNumberType)
	?Position@CFindItemEngine@@QBE?BHXZ @ 74 NONAME ; public: int const  __thiscall CFindItemEngine::Position(void)const 
	?PrevItem@CFindItemEngine@@QAEHAAUSFoundItem@1@@Z @ 75 NONAME ; public: int __thiscall CFindItemEngine::PrevItem(struct CFindItemEngine::SFoundItem &)
	?ReadString@CStringResourceReader@@QAEABVTDesC16@@H@Z @ 76 NONAME ; public: class TDesC16 const & __thiscall CStringResourceReader::ReadString(int)
	?ResetPosition@CFindItemEngine@@QAEXXZ @ 77 NONAME ; public: void __thiscall CFindItemEngine::ResetPosition(void)
	?ResolveError@CTextResolver@@QAEABVTDesC16@@HAAHAAIW4TErrorContext@1@@Z @ 78 NONAME ; public: class TDesC16 const & __thiscall CTextResolver::ResolveError(int,int &,unsigned int &,enum CTextResolver::TErrorContext)
	?ResolveError@CTextResolver@@QAEABVTDesC16@@HW4TErrorContext@1@@Z @ 79 NONAME ; public: class TDesC16 const & __thiscall CTextResolver::ResolveError(int,enum CTextResolver::TErrorContext)
	?RestoreOriginal@RSharedDataClient@@QAEHVTUid@@PBVMDesC16Array@@@Z @ 80 NONAME ; public: int __thiscall RSharedDataClient::RestoreOriginal(class TUid,class MDesC16Array const *)
	?Set@CSharedDataI@@QAEHABVTDesC16@@0@Z @ 81 NONAME ; public: int __thiscall CSharedDataI::Set(class TDesC16 const &,class TDesC16 const &)
	?Set@CSharedDataI@@QAEHABVTDesC16@@AAH@Z @ 82 NONAME ; public: int __thiscall CSharedDataI::Set(class TDesC16 const &,int &)
	?Set@CSharedDataI@@QAEHABVTDesC16@@AAN@Z @ 83 NONAME ; public: int __thiscall CSharedDataI::Set(class TDesC16 const &,double &)
	?SetInt@RSharedDataClient@@QAEHABVTDesC16@@H@Z @ 84 NONAME ; public: int __thiscall RSharedDataClient::SetInt(class TDesC16 const &,int)
	?SetReal@RSharedDataClient@@QAEHABVTDesC16@@N@Z @ 85 NONAME ; public: int __thiscall RSharedDataClient::SetReal(class TDesC16 const &,double)
	?SetString@RSharedDataClient@@QAEHABVTDesC16@@0@Z @ 86 NONAME ; public: int __thiscall RSharedDataClient::SetString(class TDesC16 const &,class TDesC16 const &)
	?ThreadStart@CSharedDataServer@@SAHAAVTSignal@1@@Z @ 87 NONAME ; public: static int __cdecl CSharedDataServer::ThreadStart(class CSharedDataServer::TSignal &)
	?Value@CSharedDataInteger@@QAE?AVTProxy@1@XZ @ 88 NONAME ; public: class CSharedDataInteger::TProxy  __thiscall CSharedDataInteger::Value(void)
	?Value@CSharedDataInteger@@QBE?BVTProxy@1@XZ @ 89 NONAME ; public: class CSharedDataInteger::TProxy const  __thiscall CSharedDataInteger::Value(void)const 
	?Value@CSharedDataString@@QAE?AVTProxy@1@XZ @ 90 NONAME ; public: class CSharedDataString::TProxy  __thiscall CSharedDataString::Value(void)
	?Value@CSharedDataString@@QBE?BVTProxy@1@XZ @ 91 NONAME ; public: class CSharedDataString::TProxy const  __thiscall CSharedDataString::Value(void)const 
	?FlushAll@SharedDataFlusher@@SAXXZ @ 92 NONAME ; public: static void __cdecl SharedDataFlusher::FlushAll(void)
	??0RConeResourceLoader@@QAE@AAVCCoeEnv@@@Z @ 93 NONAME ; public: __thiscall RConeResourceLoader::RConeResourceLoader(class CCoeEnv &)
	?Close@RConeResourceLoader@@QAEXXZ @ 94 NONAME ; public: void __thiscall RConeResourceLoader::Close(void)
	?Open@RConeResourceLoader@@QAEHAAV?$TBuf@$0BAA@@@@Z @ 95 NONAME ; public: int __thiscall RConeResourceLoader::Open(class TBuf<256> &)
	?OpenL@RConeResourceLoader@@QAEXAAV?$TBuf@$0BAA@@@@Z @ 96 NONAME ; public: void __thiscall RConeResourceLoader::OpenL(class TBuf<256> &)
	?CancelFreeDiskSpaceRequest@RSharedDataClient@@QBEXXZ @ 97 NONAME ; public: void __thiscall RSharedDataClient::CancelFreeDiskSpaceRequest(void)const 
	?RequestFreeDiskSpace@RSharedDataClient@@QBEXH@Z @ 98 NONAME ; public: void __thiscall RSharedDataClient::RequestFreeDiskSpace(int)const 
	?RequestFreeDiskSpaceLC@RSharedDataClient@@QBEXH@Z @ 99 NONAME ; public: void __thiscall RSharedDataClient::RequestFreeDiskSpaceLC(int)const 
	?AddToValue@RSharedDataClient@@QAEHABVTDesC16@@H@Z @ 100 NONAME ; public: int __thiscall RSharedDataClient::AddToValue(class TDesC16 const &,int)
	?CancelAllSignals@RSharedDataClient@@QAEXXZ @ 101 NONAME ; public: void __thiscall RSharedDataClient::CancelAllSignals(void)
	?CancelSignal@RSharedDataClient@@QAEXABVTDesC16@@@Z @ 102 NONAME ; public: void __thiscall RSharedDataClient::CancelSignal(class TDesC16 const &)
	?Signal@RSharedDataClient@@QAEHABVTDesC16@@@Z @ 103 NONAME ; public: int __thiscall RSharedDataClient::Signal(class TDesC16 const &)
	?CancelSignal@CSharedDataI@@QAEXABVTDesC16@@@Z @ 104 NONAME ; public: void __thiscall CSharedDataI::CancelSignal(class TDesC16 const &)
	?Signal@CSharedDataI@@QAEHABVTDesC16@@@Z @ 105 NONAME ; public: int __thiscall CSharedDataI::Signal(class TDesC16 const &)
	??YTProxy@CSharedDataInteger@@QAEAAV01@H@Z @ 106 NONAME ; public: class CSharedDataInteger::TProxy & __thiscall CSharedDataInteger::TProxy::operator+=(int)
	?AddToValue@CSharedDataI@@QAEHABVTDesC16@@AAH@Z @ 107 NONAME ; public: int __thiscall CSharedDataI::AddToValue(class TDesC16 const &,int &)
	??1CCommonContentPolicy@@UAE@XZ @ 108 NONAME ; public: virtual __thiscall CCommonContentPolicy::~CCommonContentPolicy(void)
	?IsClosedExtension@CCommonContentPolicy@@QAEHABVTDesC16@@@Z @ 109 NONAME ; public: int __thiscall CCommonContentPolicy::IsClosedExtension(class TDesC16 const &)
	?IsClosedFileL@CCommonContentPolicy@@QAEHABVTDesC16@@@Z @ 110 NONAME ; public: int __thiscall CCommonContentPolicy::IsClosedFileL(class TDesC16 const &)
	?IsClosedType@CCommonContentPolicy@@QAEHABVTDesC16@@@Z @ 111 NONAME ; public: int __thiscall CCommonContentPolicy::IsClosedType(class TDesC16 const &)
	?IsDRMEnvelopeL@CCommonContentPolicy@@QAEHABVTDesC16@@@Z @ 112 NONAME ; public: int __thiscall CCommonContentPolicy::IsDRMEnvelopeL(class TDesC16 const &)
	?NewL@CCommonContentPolicy@@SAPAV1@XZ @ 113 NONAME ; public: static class CCommonContentPolicy * __cdecl CCommonContentPolicy::NewL(void)
	?NewLC@CCommonContentPolicy@@SAPAV1@XZ @ 114 NONAME ; public: static class CCommonContentPolicy * __cdecl CCommonContentPolicy::NewLC(void)
	?Item@CFindItemEngine@@QAEHAAUSFoundItem@1@AAW4TFindItemSearchCase@1@@Z @ 115 NONAME ; public: int __thiscall CFindItemEngine::Item(struct CFindItemEngine::SFoundItem &,enum CFindItemEngine::TFindItemSearchCase &)
	?NextItem@CFindItemEngine@@QAEHAAUSFoundItem@1@AAW4TFindItemSearchCase@1@@Z @ 116 NONAME ; public: int __thiscall CFindItemEngine::NextItem(struct CFindItemEngine::SFoundItem &,enum CFindItemEngine::TFindItemSearchCase &)
	?PrevItem@CFindItemEngine@@QAEHAAUSFoundItem@1@AAW4TFindItemSearchCase@1@@Z @ 117 NONAME ; public: int __thiscall CFindItemEngine::PrevItem(struct CFindItemEngine::SFoundItem &,enum CFindItemEngine::TFindItemSearchCase &)
	?ResolveErrorUnlimited@CTextResolver@@QAEABVTDesC16@@HAAHAAIW4TErrorContext@1@@Z @ 118 NONAME ; public: class TDesC16 const & __thiscall CTextResolver::ResolveErrorUnlimited(int,int &,unsigned int &,enum CTextResolver::TErrorContext)
	?ResolveErrorUnlimited@CTextResolver@@QAEABVTDesC16@@HW4TErrorContext@1@@Z @ 119 NONAME ; public: class TDesC16 const & __thiscall CTextResolver::ResolveErrorUnlimited(int,enum CTextResolver::TErrorContext)
	?ReadStringUnlimited@CStringResourceReader@@QAEABVTDesC16@@H@Z @ 120 NONAME ; public: class TDesC16 const & __thiscall CStringResourceReader::ReadStringUnlimited(int)

