EXPORTS
	_ZN11CStreamBase12CompleteReadERK8RMessage @ 1 NONAME ABSENT
	_ZN12CRedirServer16SetStreamFactoryEP18CStreamFactoryBase @ 2 NONAME ABSENT
	_ZN12CRedirServer4NewLEP18CStreamFactoryBase @ 3 NONAME ABSENT
	_ZN12CStreamBase212CompleteReadERK9RMessage2 @ 4 NONAME
	_ZN13CRedirServer216SetStreamFactoryEP19CStreamFactoryBase2 @ 5 NONAME
	_ZN13CRedirServer24NewLEP19CStreamFactoryBase2 @ 6 NONAME
	_ZN13RRedirSession4ReadER14TRequestStatusR5TDes8 @ 7 NONAME ABSENT
	_ZN13RRedirSession4ReadER14TRequestStatusR5TDes8i @ 8 NONAME ABSENT
	_ZN13RRedirSession5FlushER14TRequestStatus @ 9 NONAME ABSENT
	_ZN13RRedirSession5WriteER14TRequestStatusRK6TDesC8 @ 10 NONAME ABSENT
	_ZN13RRedirSession5WriteER14TRequestStatusRK6TDesC8i @ 11 NONAME ABSENT
	_ZN13RRedirSession7ConnectEv @ 12 NONAME ABSENT
	_ZN14RRedirSession24ReadER14TRequestStatusR5TDes8 @ 13 NONAME
	_ZN14RRedirSession24ReadER14TRequestStatusR5TDes8i @ 14 NONAME
	_ZN14RRedirSession25FlushER14TRequestStatus @ 15 NONAME
	_ZN14RRedirSession25WriteER14TRequestStatusRK6TDesC8 @ 16 NONAME
	_ZN14RRedirSession25WriteER14TRequestStatusRK6TDesC8i @ 17 NONAME
	_ZN14RRedirSession27ConnectEv @ 18 NONAME
	_ZN18CStreamFactoryBase14AppendToStatusERK7TDesC16 @ 19 NONAME ABSENT
	_ZN19CStreamFactoryBase214AppendToStatusERK7TDesC16 @ 20 NONAME
	_ZNK18CStreamFactoryBase9GetStatusEv @ 21 NONAME ABSENT
	_ZNK19CStreamFactoryBase29GetStatusEv @ 22 NONAME
	_ZTI18CStreamFactoryBase @ 23 NONAME ABSENT ; #<TI>#
	_ZTI19CStreamFactoryBase2 @ 24 NONAME ; #<TI>#
	_ZTV18CStreamFactoryBase @ 25 NONAME ABSENT ; #<VT>#
	_ZTV19CStreamFactoryBase2 @ 26 NONAME ; #<VT>#
	_Z14DummyReserved1v @ 27 NONAME
	_Z14DummyReserved2v @ 28 NONAME
	_Z14DummyReserved3v @ 29 NONAME
	_Z14DummyReserved4v @ 30 NONAME
	_Z14DummyReserved5v @ 31 NONAME
	_Z14DummyReserved6v @ 32 NONAME
	_Z14DummyReserved7v @ 33 NONAME
	_Z14DummyReserved8v @ 34 NONAME
	_Z14DummyReserved9v @ 35 NONAME
	_Z15DummyReserved10v @ 36 NONAME
	_Z15DummyReserved11v @ 37 NONAME
	_ZTI13CRedirServer2 @ 38 NONAME ; #<TI>#
	_ZTV13CRedirServer2 @ 39 NONAME ; #<VT>#

