EXPORTS
	??0?$basic_fstream@DV?$char_traits@D@std@@@std@@QAE@I@Z @ 1 NONAME ; std::basic_fstream<char, class std::char_traits<char> >::basic_fstream<char, class std::char_traits<char> >(unsigned int)
	??0?$basic_fstream@_WV?$char_traits@_W@std@@@std@@QAE@I@Z @ 2 NONAME ; std::basic_fstream<wchar_t, class std::char_traits<wchar_t> >::basic_fstream<wchar_t, class std::char_traits<wchar_t> >(unsigned int)
	??0?$basic_iostream@DV?$char_traits@D@std@@@std@@QAE@IPAV?$basic_streambuf@DV?$char_traits@D@std@@@1@@Z @ 3 NONAME ; std::basic_iostream<char, class std::char_traits<char> >::basic_iostream<char, class std::char_traits<char> >(unsigned int, class std::basic_streambuf<char, class std::char_traits<char> > *)
	??0?$basic_iostream@_WV?$char_traits@_W@std@@@std@@QAE@IPAV?$basic_streambuf@_WV?$char_traits@_W@std@@@1@@Z @ 4 NONAME ; std::basic_iostream<wchar_t, class std::char_traits<wchar_t> >::basic_iostream<wchar_t, class std::char_traits<wchar_t> >(unsigned int, class std::basic_streambuf<wchar_t, class std::char_traits<wchar_t> > *)
	??0?$basic_istream@DV?$char_traits@D@std@@@std@@QAE@IPAV?$basic_streambuf@DV?$char_traits@D@std@@@1@@Z @ 5 NONAME ; std::basic_istream<char, class std::char_traits<char> >::basic_istream<char, class std::char_traits<char> >(unsigned int, class std::basic_streambuf<char, class std::char_traits<char> > *)
	??0?$basic_istream@_WV?$char_traits@_W@std@@@std@@QAE@IPAV?$basic_streambuf@_WV?$char_traits@_W@std@@@1@@Z @ 6 NONAME ; std::basic_istream<wchar_t, class std::char_traits<wchar_t> >::basic_istream<wchar_t, class std::char_traits<wchar_t> >(unsigned int, class std::basic_streambuf<wchar_t, class std::char_traits<wchar_t> > *)
	??0?$basic_ostream@DV?$char_traits@D@std@@@std@@QAE@IPAV?$basic_streambuf@DV?$char_traits@D@std@@@1@@Z @ 7 NONAME ; std::basic_ostream<char, class std::char_traits<char> >::basic_ostream<char, class std::char_traits<char> >(unsigned int, class std::basic_streambuf<char, class std::char_traits<char> > *)
	??0?$basic_ostream@_WV?$char_traits@_W@std@@@std@@QAE@IPAV?$basic_streambuf@_WV?$char_traits@_W@std@@@1@@Z @ 8 NONAME ; std::basic_ostream<wchar_t, class std::char_traits<wchar_t> >::basic_ostream<wchar_t, class std::char_traits<wchar_t> >(unsigned int, class std::basic_streambuf<wchar_t, class std::char_traits<wchar_t> > *)
	??0?$basic_streambuf@DV?$char_traits@D@std@@@std@@QAE@PAU__sFILE@@0@Z @ 9 NONAME ; std::basic_streambuf<char, class std::char_traits<char> >::basic_streambuf<char, class std::char_traits<char> >(struct __sFILE *, struct __sFILE *)
	??0?$basic_streambuf@DV?$char_traits@D@std@@@std@@QAE@XZ @ 10 NONAME ; std::basic_streambuf<char, class std::char_traits<char> >::basic_streambuf<char, class std::char_traits<char> >(void)
	??0?$basic_streambuf@_WV?$char_traits@_W@std@@@std@@IAE@XZ @ 11 NONAME ; std::basic_streambuf<wchar_t, class std::char_traits<wchar_t> >::basic_streambuf<wchar_t, class std::char_traits<wchar_t> >(void)
	??0?$basic_string@DV?$char_traits@D@std@@V?$allocator@D@2@@std@@QAE@ABV01@@Z @ 12 NONAME ; std::basic_string<char, class std::char_traits<char>, class std::allocator<char> >::basic_string<char, class std::char_traits<char>, class std::allocator<char> >(class std::basic_string<char, class std::char_traits<char>, class std::allocator<char> > const &)
	??0?$basic_string@DV?$char_traits@D@std@@V?$allocator@D@2@@std@@QAE@PBDABV?$allocator@D@1@@Z @ 13 NONAME ; std::basic_string<char, class std::char_traits<char>, class std::allocator<char> >::basic_string<char, class std::char_traits<char>, class std::allocator<char> >(char const *, class std::allocator<char> const &)
	??0?$basic_string@DV?$char_traits@D@std@@V?$allocator@D@2@@std@@QAE@XZ @ 14 NONAME ; std::basic_string<char, class std::char_traits<char>, class std::allocator<char> >::basic_string<char, class std::char_traits<char>, class std::allocator<char> >(void)
	??0?$basic_string@_WV?$char_traits@_W@std@@V?$allocator@_W@2@@std@@QAE@ABV01@@Z @ 15 NONAME ; std::basic_string<wchar_t, class std::char_traits<wchar_t>, class std::allocator<wchar_t> >::basic_string<wchar_t, class std::char_traits<wchar_t>, class std::allocator<wchar_t> >(class std::basic_string<wchar_t, class std::char_traits<wchar_t>, class std::allocator<wchar_t> > const &)
	??0?$basic_string@_WV?$char_traits@_W@std@@V?$allocator@_W@2@@std@@QAE@PB_WABV?$allocator@_W@1@@Z @ 16 NONAME ; std::basic_string<wchar_t, class std::char_traits<wchar_t>, class std::allocator<wchar_t> >::basic_string<wchar_t, class std::char_traits<wchar_t>, class std::allocator<wchar_t> >(wchar_t const *, class std::allocator<wchar_t> const &)
	??0?$basic_string@_WV?$char_traits@_W@std@@V?$allocator@_W@2@@std@@QAE@XZ @ 17 NONAME ; std::basic_string<wchar_t, class std::char_traits<wchar_t>, class std::allocator<wchar_t> >::basic_string<wchar_t, class std::char_traits<wchar_t>, class std::allocator<wchar_t> >(void)
	??0?$basic_stringbuf@DV?$char_traits@D@std@@V?$allocator@D@2@@std@@QAE@ABV?$basic_string@DV?$char_traits@D@std@@V?$allocator@D@2@@1@H@Z @ 18 NONAME ; std::basic_stringbuf<char, class std::char_traits<char>, class std::allocator<char> >::basic_stringbuf<char, class std::char_traits<char>, class std::allocator<char> >(class std::basic_string<char, class std::char_traits<char>, class std::allocator<char> > const &, int)
	??0?$basic_stringbuf@DV?$char_traits@D@std@@V?$allocator@D@2@@std@@QAE@H@Z @ 19 NONAME ; std::basic_stringbuf<char, class std::char_traits<char>, class std::allocator<char> >::basic_stringbuf<char, class std::char_traits<char>, class std::allocator<char> >(int)
	??0?$basic_stringbuf@_WV?$char_traits@_W@std@@V?$allocator@_W@2@@std@@QAE@ABV?$basic_string@_WV?$char_traits@_W@std@@V?$allocator@_W@2@@1@H@Z @ 20 NONAME ; std::basic_stringbuf<wchar_t, class std::char_traits<wchar_t>, class std::allocator<wchar_t> >::basic_stringbuf<wchar_t, class std::char_traits<wchar_t>, class std::allocator<wchar_t> >(class std::basic_string<wchar_t, class std::char_traits<wchar_t>, class std::allocator<wchar_t> > const &, int)
	??0?$basic_stringbuf@_WV?$char_traits@_W@std@@V?$allocator@_W@2@@std@@QAE@H@Z @ 21 NONAME ; std::basic_stringbuf<wchar_t, class std::char_traits<wchar_t>, class std::allocator<wchar_t> >::basic_stringbuf<wchar_t, class std::char_traits<wchar_t>, class std::allocator<wchar_t> >(int)
	??0?$basic_stringstream@DV?$char_traits@D@std@@V?$allocator@D@2@@std@@QAE@IABV?$basic_string@DV?$char_traits@D@std@@V?$allocator@D@2@@1@H@Z @ 22 NONAME ; std::basic_stringstream<char, class std::char_traits<char>, class std::allocator<char> >::basic_stringstream<char, class std::char_traits<char>, class std::allocator<char> >(unsigned int, class std::basic_string<char, class std::char_traits<char>, class std::allocator<char> > const &, int)
	??0?$basic_stringstream@DV?$char_traits@D@std@@V?$allocator@D@2@@std@@QAE@IH@Z @ 23 NONAME ; std::basic_stringstream<char, class std::char_traits<char>, class std::allocator<char> >::basic_stringstream<char, class std::char_traits<char>, class std::allocator<char> >(unsigned int, int)
	??0?$basic_stringstream@_WV?$char_traits@_W@std@@V?$allocator@_W@2@@std@@QAE@IABV?$basic_string@_WV?$char_traits@_W@std@@V?$allocator@_W@2@@1@H@Z @ 24 NONAME ; std::basic_stringstream<wchar_t, class std::char_traits<wchar_t>, class std::allocator<wchar_t> >::basic_stringstream<wchar_t, class std::char_traits<wchar_t>, class std::allocator<wchar_t> >(unsigned int, class std::basic_string<wchar_t, class std::char_traits<wchar_t>, class std::allocator<wchar_t> > const &, int)
	??0?$basic_stringstream@_WV?$char_traits@_W@std@@V?$allocator@_W@2@@std@@QAE@IH@Z @ 25 NONAME ; std::basic_stringstream<wchar_t, class std::char_traits<wchar_t>, class std::allocator<wchar_t> >::basic_stringstream<wchar_t, class std::char_traits<wchar_t>, class std::allocator<wchar_t> >(unsigned int, int)
	??0?$codecvt_byname@DDU_mb_state_t@@@std@@QAE@PBDI@Z @ 26 NONAME ; std::codecvt_byname<char, char, struct _mb_state_t>::codecvt_byname<char, char, struct _mb_state_t>(char const *, unsigned int)
	??0?$codecvt_byname@_WDU_mb_state_t@@@std@@QAE@PBDI@Z @ 27 NONAME ; std::codecvt_byname<wchar_t, char, struct _mb_state_t>::codecvt_byname<wchar_t, char, struct _mb_state_t>(char const *, unsigned int)
	??0?$collate_byname@D@std@@QAE@PBDI@Z @ 28 NONAME ; std::collate_byname<char>::collate_byname<char>(char const *, unsigned int)
	??0?$collate_byname@_W@std@@QAE@PBDI@Z @ 29 NONAME ; std::collate_byname<wchar_t>::collate_byname<wchar_t>(char const *, unsigned int)
	??0?$ctype@D@std@@QAE@PBW4mask@ctype_base@1@_NI@Z @ 30 NONAME ; std::ctype<char>::ctype<char>(enum std::ctype_base::mask const *, bool, unsigned int)
	??0?$ctype_byname@D@std@@QAE@PBDI@Z @ 31 NONAME ; std::ctype_byname<char>::ctype_byname<char>(char const *, unsigned int)
	??0?$ctype_byname@_W@std@@QAE@PBDI@Z @ 32 NONAME ; std::ctype_byname<wchar_t>::ctype_byname<wchar_t>(char const *, unsigned int)
	??0?$messages@D@std@@IAE@IPAU_Locale_messages@@@Z @ 33 NONAME ; std::messages<char>::messages<char>(unsigned int, struct _Locale_messages *)
	??0?$messages@D@std@@QAE@I@Z @ 34 NONAME ; std::messages<char>::messages<char>(unsigned int)
	??0?$messages@D@std@@QAE@PAV_Messages@1@@Z @ 35 NONAME ; std::messages<char>::messages<char>(class std::_Messages *)
	??0?$messages@_W@std@@IAE@IPAU_Locale_messages@@@Z @ 36 NONAME ; std::messages<wchar_t>::messages<wchar_t>(unsigned int, struct _Locale_messages *)
	??0?$messages@_W@std@@QAE@I@Z @ 37 NONAME ; std::messages<wchar_t>::messages<wchar_t>(unsigned int)
	??0?$messages@_W@std@@QAE@PAV_Messages@1@@Z @ 38 NONAME ; std::messages<wchar_t>::messages<wchar_t>(class std::_Messages *)
	??0?$messages_byname@D@std@@QAE@PBDI@Z @ 39 NONAME ; std::messages_byname<char>::messages_byname<char>(char const *, unsigned int)
	??0?$messages_byname@_W@std@@QAE@PBDI@Z @ 40 NONAME ; std::messages_byname<wchar_t>::messages_byname<wchar_t>(char const *, unsigned int)
	??0?$moneypunct@D$00@std@@QAE@I@Z @ 41 NONAME ; std::moneypunct<char, 1>::moneypunct<char, 1>(unsigned int)
	??0?$moneypunct@D$0A@@std@@QAE@I@Z @ 42 NONAME ; std::moneypunct<char, 0>::moneypunct<char, 0>(unsigned int)
	??0?$moneypunct@_W$00@std@@QAE@I@Z @ 43 NONAME ; std::moneypunct<wchar_t, 1>::moneypunct<wchar_t, 1>(unsigned int)
	??0?$moneypunct@_W$0A@@std@@QAE@I@Z @ 44 NONAME ; std::moneypunct<wchar_t, 0>::moneypunct<wchar_t, 0>(unsigned int)
	??0?$moneypunct_byname@D$00@std@@QAE@PBDI@Z @ 45 NONAME ; std::moneypunct_byname<char, 1>::moneypunct_byname<char, 1>(char const *, unsigned int)
	??0?$moneypunct_byname@D$0A@@std@@QAE@PBDI@Z @ 46 NONAME ; std::moneypunct_byname<char, 0>::moneypunct_byname<char, 0>(char const *, unsigned int)
	??0?$moneypunct_byname@_W$00@std@@QAE@PBDI@Z @ 47 NONAME ; std::moneypunct_byname<wchar_t, 1>::moneypunct_byname<wchar_t, 1>(char const *, unsigned int)
	??0?$moneypunct_byname@_W$0A@@std@@QAE@PBDI@Z @ 48 NONAME ; std::moneypunct_byname<wchar_t, 0>::moneypunct_byname<wchar_t, 0>(char const *, unsigned int)
	??0?$numpunct_byname@D@std@@QAE@PBDI@Z @ 49 NONAME ; std::numpunct_byname<char>::numpunct_byname<char>(char const *, unsigned int)
	??0?$numpunct_byname@_W@std@@QAE@PBDI@Z @ 50 NONAME ; std::numpunct_byname<wchar_t>::numpunct_byname<wchar_t>(char const *, unsigned int)
	??0Init@ios_base@std@@QAE@XZ @ 51 NONAME ; std::ios_base::Init::Init(void)
	??0_Filebuf_base@std@@QAE@XZ @ 52 NONAME ; std::_Filebuf_base::_Filebuf_base(void)
	??0_Loc_init@ios_base@std@@QAE@XZ @ 53 NONAME ; std::ios_base::_Loc_init::_Loc_init(void)
	??0_Messages@std@@QAE@XZ @ 54 NONAME ; std::_Messages::_Messages(void)
	??0__Named_exception@std@@QAE@ABV?$basic_string@DV?$char_traits@D@std@@V?$allocator@D@2@@1@@Z @ 55 NONAME ; std::__Named_exception::__Named_exception(class std::basic_string<char, class std::char_traits<char>, class std::allocator<char> > const &)
	??0bad_exception@std@@QAE@XZ @ 56 NONAME ; std::bad_exception::bad_exception(void)
	??0domain_error@std@@QAE@ABV?$basic_string@DV?$char_traits@D@std@@V?$allocator@D@2@@1@@Z @ 57 NONAME ; std::domain_error::domain_error(class std::basic_string<char, class std::char_traits<char>, class std::allocator<char> > const &)
	??0exception@std@@QAE@XZ @ 58 NONAME ; std::exception::exception(void)
	??0facet@locale@std@@AAE@ABV012@@Z @ 59 NONAME ABSENT
	??0facet@locale@std@@IAE@I@Z @ 60 NONAME ABSENT
	??0failure@ios_base@std@@QAE@ABV?$basic_string@DV?$char_traits@D@std@@V?$allocator@D@2@@2@@Z @ 61 NONAME ; std::ios_base::failure::failure(class std::basic_string<char, class std::char_traits<char>, class std::allocator<char> > const &)
	??0invalid_argument@std@@QAE@ABV?$basic_string@DV?$char_traits@D@std@@V?$allocator@D@2@@1@@Z @ 62 NONAME ; std::invalid_argument::invalid_argument(class std::basic_string<char, class std::char_traits<char>, class std::allocator<char> > const &)
	??0ios_base@std@@IAE@XZ @ 63 NONAME ; std::ios_base::ios_base(void)
	??0istrstream@std@@QAE@IPAD@Z @ 64 NONAME ; std::istrstream::istrstream(unsigned int, char *)
	??0istrstream@std@@QAE@IPADH@Z @ 65 NONAME ; std::istrstream::istrstream(unsigned int, char *, int)
	??0istrstream@std@@QAE@IPBD@Z @ 66 NONAME ; std::istrstream::istrstream(unsigned int, char const *)
	??0istrstream@std@@QAE@IPBDH@Z @ 67 NONAME ; std::istrstream::istrstream(unsigned int, char const *, int)
	??0length_error@std@@QAE@ABV?$basic_string@DV?$char_traits@D@std@@V?$allocator@D@2@@1@@Z @ 68 NONAME ; std::length_error::length_error(class std::basic_string<char, class std::char_traits<char>, class std::allocator<char> > const &)
	??0locale@std@@QAE@ABV01@0H@Z @ 69 NONAME ; std::locale::locale(class std::locale const &, class std::locale const &, int)
	??0locale@std@@QAE@ABV01@@Z @ 70 NONAME ; std::locale::locale(class std::locale const &)
	??0locale@std@@QAE@ABV01@PBDH@Z @ 71 NONAME ; std::locale::locale(class std::locale const &, char const *, int)
	??0locale@std@@QAE@PAV_Locale_impl@1@@Z @ 72 NONAME ; std::locale::locale(class std::_Locale_impl *)
	??0locale@std@@QAE@PAV_Locale_impl@1@_N@Z @ 73 NONAME ; std::locale::locale(class std::_Locale_impl *, bool)
	??0locale@std@@QAE@PBD@Z @ 74 NONAME ; std::locale::locale(char const *)
	??0locale@std@@QAE@XZ @ 75 NONAME ; std::locale::locale(void)
	??0logic_error@std@@QAE@ABV?$basic_string@DV?$char_traits@D@std@@V?$allocator@D@2@@1@@Z @ 76 NONAME ; std::logic_error::logic_error(class std::basic_string<char, class std::char_traits<char>, class std::allocator<char> > const &)
	??0ostrstream@std@@QAE@I@Z @ 77 NONAME ; std::ostrstream::ostrstream(unsigned int)
	??0ostrstream@std@@QAE@IPADHH@Z @ 78 NONAME ; std::ostrstream::ostrstream(unsigned int, char *, int, int)
	??0out_of_range@std@@QAE@ABV?$basic_string@DV?$char_traits@D@std@@V?$allocator@D@2@@1@@Z @ 79 NONAME ; std::out_of_range::out_of_range(class std::basic_string<char, class std::char_traits<char>, class std::allocator<char> > const &)
	??0overflow_error@std@@QAE@ABV?$basic_string@DV?$char_traits@D@std@@V?$allocator@D@2@@1@@Z @ 80 NONAME ; std::overflow_error::overflow_error(class std::basic_string<char, class std::char_traits<char>, class std::allocator<char> > const &)
	??0range_error@std@@QAE@ABV?$basic_string@DV?$char_traits@D@std@@V?$allocator@D@2@@1@@Z @ 81 NONAME ; std::range_error::range_error(class std::basic_string<char, class std::char_traits<char>, class std::allocator<char> > const &)
	??0runtime_error@std@@QAE@ABV?$basic_string@DV?$char_traits@D@std@@V?$allocator@D@2@@1@@Z @ 82 NONAME ; std::runtime_error::runtime_error(class std::basic_string<char, class std::char_traits<char>, class std::allocator<char> > const &)
	??0strstream@std@@QAE@I@Z @ 83 NONAME ; std::strstream::strstream(unsigned int)
	??0strstream@std@@QAE@IPADHH@Z @ 84 NONAME ; std::strstream::strstream(unsigned int, char *, int, int)
	??0strstreambuf@std@@QAE@H@Z @ 85 NONAME ; std::strstreambuf::strstreambuf(int)
	??0strstreambuf@std@@QAE@P6APAXI@ZP6AXPAX@Z@Z @ 86 NONAME ; std::strstreambuf::strstreambuf(void * (*)(unsigned int), void (*)(void *))
	??0strstreambuf@std@@QAE@PACH0@Z @ 87 NONAME ; std::strstreambuf::strstreambuf(signed char *, int, signed char *)
	??0strstreambuf@std@@QAE@PADH0@Z @ 88 NONAME ; std::strstreambuf::strstreambuf(char *, int, char *)
	??0strstreambuf@std@@QAE@PAEH0@Z @ 89 NONAME ; std::strstreambuf::strstreambuf(unsigned char *, int, unsigned char *)
	??0strstreambuf@std@@QAE@PBCH@Z @ 90 NONAME ; std::strstreambuf::strstreambuf(signed char const *, int)
	??0strstreambuf@std@@QAE@PBDH@Z @ 91 NONAME ; std::strstreambuf::strstreambuf(char const *, int)
	??0strstreambuf@std@@QAE@PBEH@Z @ 92 NONAME ; std::strstreambuf::strstreambuf(unsigned char const *, int)
	??0underflow_error@std@@QAE@ABV?$basic_string@DV?$char_traits@D@std@@V?$allocator@D@2@@1@@Z @ 93 NONAME ; std::underflow_error::underflow_error(class std::basic_string<char, class std::char_traits<char>, class std::allocator<char> > const &)
	??1?$basic_fstream@DV?$char_traits@D@std@@@std@@UAE@XZ @ 94 NONAME ; std::basic_fstream<char, class std::char_traits<char> >::~basic_fstream<char, class std::char_traits<char> >(void)
	??1?$basic_fstream@_WV?$char_traits@_W@std@@@std@@UAE@XZ @ 95 NONAME ; std::basic_fstream<wchar_t, class std::char_traits<wchar_t> >::~basic_fstream<wchar_t, class std::char_traits<wchar_t> >(void)
	??1?$basic_iostream@DV?$char_traits@D@std@@@std@@UAE@XZ @ 96 NONAME ; std::basic_iostream<char, class std::char_traits<char> >::~basic_iostream<char, class std::char_traits<char> >(void)
	??1?$basic_iostream@_WV?$char_traits@_W@std@@@std@@UAE@XZ @ 97 NONAME ; std::basic_iostream<wchar_t, class std::char_traits<wchar_t> >::~basic_iostream<wchar_t, class std::char_traits<wchar_t> >(void)
	??1?$basic_istream@DV?$char_traits@D@std@@@std@@UAE@XZ @ 98 NONAME ; std::basic_istream<char, class std::char_traits<char> >::~basic_istream<char, class std::char_traits<char> >(void)
	??1?$basic_istream@_WV?$char_traits@_W@std@@@std@@UAE@XZ @ 99 NONAME ; std::basic_istream<wchar_t, class std::char_traits<wchar_t> >::~basic_istream<wchar_t, class std::char_traits<wchar_t> >(void)
	??1?$basic_ostream@DV?$char_traits@D@std@@@std@@UAE@XZ @ 100 NONAME ; std::basic_ostream<char, class std::char_traits<char> >::~basic_ostream<char, class std::char_traits<char> >(void)
	??1?$basic_ostream@_WV?$char_traits@_W@std@@@std@@UAE@XZ @ 101 NONAME ; std::basic_ostream<wchar_t, class std::char_traits<wchar_t> >::~basic_ostream<wchar_t, class std::char_traits<wchar_t> >(void)
	??1?$basic_streambuf@DV?$char_traits@D@std@@@std@@UAE@XZ @ 102 NONAME ; std::basic_streambuf<char, class std::char_traits<char> >::~basic_streambuf<char, class std::char_traits<char> >(void)
	??1?$basic_streambuf@_WV?$char_traits@_W@std@@@std@@UAE@XZ @ 103 NONAME ; std::basic_streambuf<wchar_t, class std::char_traits<wchar_t> >::~basic_streambuf<wchar_t, class std::char_traits<wchar_t> >(void)
	??1?$basic_stringbuf@DV?$char_traits@D@std@@V?$allocator@D@2@@std@@UAE@XZ @ 104 NONAME ; std::basic_stringbuf<char, class std::char_traits<char>, class std::allocator<char> >::~basic_stringbuf<char, class std::char_traits<char>, class std::allocator<char> >(void)
	??1?$basic_stringbuf@_WV?$char_traits@_W@std@@V?$allocator@_W@2@@std@@UAE@XZ @ 105 NONAME ; std::basic_stringbuf<wchar_t, class std::char_traits<wchar_t>, class std::allocator<wchar_t> >::~basic_stringbuf<wchar_t, class std::char_traits<wchar_t>, class std::allocator<wchar_t> >(void)
	??1?$codecvt@DDU_mb_state_t@@@std@@MAE@XZ @ 106 NONAME ; std::codecvt<char, char, struct _mb_state_t>::~codecvt<char, char, struct _mb_state_t>(void)
	??1?$codecvt@_WDU_mb_state_t@@@std@@MAE@XZ @ 107 NONAME ; std::codecvt<wchar_t, char, struct _mb_state_t>::~codecvt<wchar_t, char, struct _mb_state_t>(void)
	??1?$codecvt_byname@DDU_mb_state_t@@@std@@UAE@XZ @ 108 NONAME ; std::codecvt_byname<char, char, struct _mb_state_t>::~codecvt_byname<char, char, struct _mb_state_t>(void)
	??1?$codecvt_byname@_WDU_mb_state_t@@@std@@MAE@XZ @ 109 NONAME ; std::codecvt_byname<wchar_t, char, struct _mb_state_t>::~codecvt_byname<wchar_t, char, struct _mb_state_t>(void)
	??1?$collate@D@std@@MAE@XZ @ 110 NONAME ; std::collate<char>::~collate<char>(void)
	??1?$collate@_W@std@@MAE@XZ @ 111 NONAME ; std::collate<wchar_t>::~collate<wchar_t>(void)
	??1?$collate_byname@D@std@@MAE@XZ @ 112 NONAME ; std::collate_byname<char>::~collate_byname<char>(void)
	??1?$collate_byname@_W@std@@MAE@XZ @ 113 NONAME ; std::collate_byname<wchar_t>::~collate_byname<wchar_t>(void)
	??1?$ctype@D@std@@MAE@XZ @ 114 NONAME ; std::ctype<char>::~ctype<char>(void)
	??1?$ctype@_W@std@@MAE@XZ @ 115 NONAME ; std::ctype<wchar_t>::~ctype<wchar_t>(void)
	??1?$ctype_byname@D@std@@UAE@XZ @ 116 NONAME ; std::ctype_byname<char>::~ctype_byname<char>(void)
	??1?$ctype_byname@_W@std@@MAE@XZ @ 117 NONAME ; std::ctype_byname<wchar_t>::~ctype_byname<wchar_t>(void)
	??1?$messages@D@std@@MAE@XZ @ 118 NONAME ; std::messages<char>::~messages<char>(void)
	??1?$messages@_W@std@@MAE@XZ @ 119 NONAME ; std::messages<wchar_t>::~messages<wchar_t>(void)
	??1?$messages_byname@D@std@@MAE@XZ @ 120 NONAME ; std::messages_byname<char>::~messages_byname<char>(void)
	??1?$messages_byname@_W@std@@MAE@XZ @ 121 NONAME ; std::messages_byname<wchar_t>::~messages_byname<wchar_t>(void)
	??1?$moneypunct@D$00@std@@MAE@XZ @ 122 NONAME ; std::moneypunct<char, 1>::~moneypunct<char, 1>(void)
	??1?$moneypunct@D$0A@@std@@MAE@XZ @ 123 NONAME ; std::moneypunct<char, 0>::~moneypunct<char, 0>(void)
	??1?$moneypunct@_W$00@std@@MAE@XZ @ 124 NONAME ; std::moneypunct<wchar_t, 1>::~moneypunct<wchar_t, 1>(void)
	??1?$moneypunct@_W$0A@@std@@MAE@XZ @ 125 NONAME ; std::moneypunct<wchar_t, 0>::~moneypunct<wchar_t, 0>(void)
	??1?$moneypunct_byname@D$00@std@@MAE@XZ @ 126 NONAME ; std::moneypunct_byname<char, 1>::~moneypunct_byname<char, 1>(void)
	??1?$moneypunct_byname@D$0A@@std@@MAE@XZ @ 127 NONAME ; std::moneypunct_byname<char, 0>::~moneypunct_byname<char, 0>(void)
	??1?$moneypunct_byname@_W$00@std@@MAE@XZ @ 128 NONAME ; std::moneypunct_byname<wchar_t, 1>::~moneypunct_byname<wchar_t, 1>(void)
	??1?$moneypunct_byname@_W$0A@@std@@MAE@XZ @ 129 NONAME ; std::moneypunct_byname<wchar_t, 0>::~moneypunct_byname<wchar_t, 0>(void)
	??1?$numpunct_byname@D@std@@MAE@XZ @ 130 NONAME ; std::numpunct_byname<char>::~numpunct_byname<char>(void)
	??1?$numpunct_byname@_W@std@@MAE@XZ @ 131 NONAME ; std::numpunct_byname<wchar_t>::~numpunct_byname<wchar_t>(void)
	??1Init@ios_base@std@@QAE@XZ @ 132 NONAME ; std::ios_base::Init::~Init(void)
	??1_Loc_init@ios_base@std@@QAE@XZ @ 133 NONAME ; std::ios_base::_Loc_init::~_Loc_init(void)
	??1_Messages@std@@UAE@XZ @ 134 NONAME ; std::_Messages::~_Messages(void)
	??1__Named_exception@std@@UAE@XZ @ 135 NONAME ; std::__Named_exception::~__Named_exception(void)
	??1bad_exception@std@@UAE@XZ @ 136 NONAME ; std::bad_exception::~bad_exception(void)
	??1domain_error@std@@UAE@XZ @ 137 NONAME ; std::domain_error::~domain_error(void)
	??1exception@std@@UAE@XZ @ 138 NONAME ; std::exception::~exception(void)
	??1facet@locale@std@@MAE@XZ @ 139 NONAME ; std::locale::facet::~facet(void)
	??1failure@ios_base@std@@UAE@XZ @ 140 NONAME ; std::ios_base::failure::~failure(void)
	??1invalid_argument@std@@UAE@XZ @ 141 NONAME ; std::invalid_argument::~invalid_argument(void)
	??1ios_base@std@@UAE@XZ @ 142 NONAME ; std::ios_base::~ios_base(void)
	??1istrstream@std@@UAE@XZ @ 143 NONAME ; std::istrstream::~istrstream(void)
	??1length_error@std@@UAE@XZ @ 144 NONAME ; std::length_error::~length_error(void)
	??1locale@std@@QAE@XZ @ 145 NONAME ; std::locale::~locale(void)
	??1logic_error@std@@UAE@XZ @ 146 NONAME ; std::logic_error::~logic_error(void)
	??1ostrstream@std@@UAE@XZ @ 147 NONAME ; std::ostrstream::~ostrstream(void)
	??1out_of_range@std@@UAE@XZ @ 148 NONAME ; std::out_of_range::~out_of_range(void)
	??1overflow_error@std@@UAE@XZ @ 149 NONAME ; std::overflow_error::~overflow_error(void)
	??1range_error@std@@UAE@XZ @ 150 NONAME ; std::range_error::~range_error(void)
	??1runtime_error@std@@UAE@XZ @ 151 NONAME ; std::runtime_error::~runtime_error(void)
	??1strstream@std@@UAE@XZ @ 152 NONAME ; std::strstream::~strstream(void)
	??1underflow_error@std@@UAE@XZ @ 153 NONAME ; std::underflow_error::~underflow_error(void)
	??2@YAPAXI@Z @ 154 NONAME ; void * operator new(unsigned int)
	??2@YAPAXIABUnothrow_t@std@@@Z @ 155 NONAME ; void * operator new(unsigned int, struct std::nothrow_t const &)
	??3@YAXPAX@Z @ 156 NONAME ; void operator delete(void *)
	??3@YAXPAXABUnothrow_t@std@@@Z @ 157 NONAME ; void operator delete(void *, struct std::nothrow_t const &)
	??4locale@std@@QAEABV01@ABV01@@Z @ 158 NONAME ; class std::locale const & std::locale::operator=(class std::locale const &)
	??5std@@YAAAV?$basic_istream@DV?$char_traits@D@std@@@0@AAV10@AAU?$complex@M@0@@Z @ 159 NONAME ; class std::basic_istream<char, class std::char_traits<char> > & std::operator>>(class std::basic_istream<char, class std::char_traits<char> > &, struct std::complex<float> &)
	??5std@@YAAAV?$basic_istream@DV?$char_traits@D@std@@@0@AAV10@AAU?$complex@N@0@@Z @ 160 NONAME ; class std::basic_istream<char, class std::char_traits<char> > & std::operator>>(class std::basic_istream<char, class std::char_traits<char> > &, struct std::complex<double> &)
	??6?$basic_ostream@DV?$char_traits@D@std@@@std@@QAEAAV01@PAV?$basic_streambuf@DV?$char_traits@D@std@@@1@@Z @ 161 NONAME ; class std::basic_ostream<char, class std::char_traits<char> > & std::basic_ostream<char, class std::char_traits<char> >::operator<<(class std::basic_streambuf<char, class std::char_traits<char> > *)
	??6?$basic_ostream@_WV?$char_traits@_W@std@@@std@@QAEAAV01@PAV?$basic_streambuf@_WV?$char_traits@_W@std@@@1@@Z @ 162 NONAME ; class std::basic_ostream<wchar_t, class std::char_traits<wchar_t> > & std::basic_ostream<wchar_t, class std::char_traits<wchar_t> >::operator<<(class std::basic_streambuf<wchar_t, class std::char_traits<wchar_t> > *)
	??6std@@YAAAV?$basic_ostream@DV?$char_traits@D@std@@@0@AAV10@ABU?$complex@M@0@@Z @ 163 NONAME ; class std::basic_ostream<char, class std::char_traits<char> > & std::operator<<(class std::basic_ostream<char, class std::char_traits<char> > &, struct std::complex<float> const &)
	??6std@@YAAAV?$basic_ostream@DV?$char_traits@D@std@@@0@AAV10@ABU?$complex@N@0@@Z @ 164 NONAME ; class std::basic_ostream<char, class std::char_traits<char> > & std::operator<<(class std::basic_ostream<char, class std::char_traits<char> > &, struct std::complex<double> const &)
	??8locale@std@@QBE_NABV01@@Z @ 165 NONAME ; bool std::locale::operator==(class std::locale const &) const
	??9locale@std@@QBE_NABV01@@Z @ 166 NONAME ; bool std::locale::operator!=(class std::locale const &) const
	??_Efacet@locale@std@@UAE@I@Z @ 167 NONAME ABSENT
	??_U@YAPAXI@Z @ 168 NONAME ; void * operator new[](unsigned int)
	??_U@YAPAXIABUnothrow_t@std@@@Z @ 169 NONAME ; void * operator new[](unsigned int, struct std::nothrow_t const &)
	??_V@YAXPAX@Z @ 170 NONAME ; void operator delete[](void *)
	??_V@YAXPAXABUnothrow_t@std@@@Z @ 171 NONAME ; void operator delete[](void *, struct std::nothrow_t const &)
	?CloseStdLibCpp@@YAXXZ @ 172 NONAME ; void CloseStdLibCpp(void)
	?Ctype_charT_GetFacetLocaleId@std@@YAAAVid@locale@1@PBD@Z @ 173 NONAME ; class std::locale::id & std::Ctype_charT_GetFacetLocaleId(char const *)
	?GetCErrStream@std@@YAAAV?$basic_ostream@DV?$char_traits@D@std@@@1@XZ @ 174 NONAME ; class std::basic_ostream<char, class std::char_traits<char> > & std::GetCErrStream(void)
	?GetCinStream@std@@YAAAV?$basic_istream@DV?$char_traits@D@std@@@1@XZ @ 175 NONAME ; class std::basic_istream<char, class std::char_traits<char> > & std::GetCinStream(void)
	?GetClogStream@std@@YAAAV?$basic_ostream@DV?$char_traits@D@std@@@1@XZ @ 176 NONAME ; class std::basic_ostream<char, class std::char_traits<char> > & std::GetClogStream(void)
	?GetCoutStream@std@@YAAAV?$basic_ostream@DV?$char_traits@D@std@@@1@XZ @ 177 NONAME ; class std::basic_ostream<char, class std::char_traits<char> > & std::GetCoutStream(void)
	?GetFacetLocaleId@?$codecvt@DDU_mb_state_t@@@std@@SAAAVid@locale@2@XZ @ 178 NONAME ; class std::locale::id & std::codecvt<char, char, struct _mb_state_t>::GetFacetLocaleId(void)
	?GetFacetLocaleId@?$codecvt@_WDU_mb_state_t@@@std@@SAAAVid@locale@2@XZ @ 179 NONAME ; class std::locale::id & std::codecvt<wchar_t, char, struct _mb_state_t>::GetFacetLocaleId(void)
	?GetFacetLocaleId@?$collate@D@std@@SAAAVid@locale@2@XZ @ 180 NONAME ; class std::locale::id & std::collate<char>::GetFacetLocaleId(void)
	?GetFacetLocaleId@?$collate@_W@std@@SAAAVid@locale@2@XZ @ 181 NONAME ; class std::locale::id & std::collate<wchar_t>::GetFacetLocaleId(void)
	?GetFacetLocaleId@?$ctype@D@std@@SAAAVid@locale@2@XZ @ 182 NONAME ; class std::locale::id & std::ctype<char>::GetFacetLocaleId(void)
	?GetFacetLocaleId@?$ctype@_W@std@@SAAAVid@locale@2@XZ @ 183 NONAME ; class std::locale::id & std::ctype<wchar_t>::GetFacetLocaleId(void)
	?GetFacetLocaleId@?$messages@D@std@@SAAAVid@locale@2@XZ @ 184 NONAME ; class std::locale::id & std::messages<char>::GetFacetLocaleId(void)
	?GetFacetLocaleId@?$messages@_W@std@@SAAAVid@locale@2@XZ @ 185 NONAME ; class std::locale::id & std::messages<wchar_t>::GetFacetLocaleId(void)
	?GetFacetLocaleId@?$money_get@DPB$$CBD@std@@SAAAVid@locale@2@PAPBD@Z @ 186 NONAME ; class std::locale::id & std::money_get<char, char const *>::GetFacetLocaleId(char const * *)
	?GetFacetLocaleId@?$money_get@DPB$$CBD@std@@SAAAVid@locale@2@XZ @ 187 NONAME ; class std::locale::id & std::money_get<char, char const *>::GetFacetLocaleId(void)
	?GetFacetLocaleId@?$money_get@DV?$istreambuf_iterator@DV?$char_traits@D@std@@@std@@@std@@SAAAVid@locale@2@PAPBD@Z @ 188 NONAME ; class std::locale::id & std::money_get<char, class std::istreambuf_iterator<char, class std::char_traits<char> > >::GetFacetLocaleId(char const * *)
	?GetFacetLocaleId@?$money_get@DV?$istreambuf_iterator@DV?$char_traits@D@std@@@std@@@std@@SAAAVid@locale@2@PAPB_W@Z @ 189 NONAME ; class std::locale::id & std::money_get<char, class std::istreambuf_iterator<char, class std::char_traits<char> > >::GetFacetLocaleId(wchar_t const * *)
	?GetFacetLocaleId@?$money_get@DV?$istreambuf_iterator@DV?$char_traits@D@std@@@std@@@std@@SAAAVid@locale@2@PAV?$istreambuf_iterator@DV?$char_traits@D@std@@@2@@Z @ 190 NONAME ; class std::locale::id & std::money_get<char, class std::istreambuf_iterator<char, class std::char_traits<char> > >::GetFacetLocaleId(class std::istreambuf_iterator<char, class std::char_traits<char> > *)
	?GetFacetLocaleId@?$money_get@DV?$istreambuf_iterator@DV?$char_traits@D@std@@@std@@@std@@SAAAVid@locale@2@PAV?$istreambuf_iterator@_WV?$char_traits@_W@std@@@2@@Z @ 191 NONAME ; class std::locale::id & std::money_get<char, class std::istreambuf_iterator<char, class std::char_traits<char> > >::GetFacetLocaleId(class std::istreambuf_iterator<wchar_t, class std::char_traits<wchar_t> > *)
	?GetFacetLocaleId@?$money_get@DV?$istreambuf_iterator@DV?$char_traits@D@std@@@std@@@std@@SAAAVid@locale@2@XZ @ 192 NONAME ; class std::locale::id & std::money_get<char, class std::istreambuf_iterator<char, class std::char_traits<char> > >::GetFacetLocaleId(void)
	?GetFacetLocaleId@?$money_get@_WPB$$CB_W@std@@SAAAVid@locale@2@PAPB_W@Z @ 193 NONAME ; class std::locale::id & std::money_get<wchar_t, wchar_t const *>::GetFacetLocaleId(wchar_t const * *)
	?GetFacetLocaleId@?$money_get@_WPB$$CB_W@std@@SAAAVid@locale@2@XZ @ 194 NONAME ; class std::locale::id & std::money_get<wchar_t, wchar_t const *>::GetFacetLocaleId(void)
	?GetFacetLocaleId@?$money_get@_WV?$istreambuf_iterator@_WV?$char_traits@_W@std@@@std@@@std@@SAAAVid@locale@2@PAPBD@Z @ 195 NONAME ; class std::locale::id & std::money_get<wchar_t, class std::istreambuf_iterator<wchar_t, class std::char_traits<wchar_t> > >::GetFacetLocaleId(char const * *)
	?GetFacetLocaleId@?$money_get@_WV?$istreambuf_iterator@_WV?$char_traits@_W@std@@@std@@@std@@SAAAVid@locale@2@PAPB_W@Z @ 196 NONAME ; class std::locale::id & std::money_get<wchar_t, class std::istreambuf_iterator<wchar_t, class std::char_traits<wchar_t> > >::GetFacetLocaleId(wchar_t const * *)
	?GetFacetLocaleId@?$money_get@_WV?$istreambuf_iterator@_WV?$char_traits@_W@std@@@std@@@std@@SAAAVid@locale@2@PAV?$istreambuf_iterator@DV?$char_traits@D@std@@@2@@Z @ 197 NONAME ; class std::locale::id & std::money_get<wchar_t, class std::istreambuf_iterator<wchar_t, class std::char_traits<wchar_t> > >::GetFacetLocaleId(class std::istreambuf_iterator<char, class std::char_traits<char> > *)
	?GetFacetLocaleId@?$money_get@_WV?$istreambuf_iterator@_WV?$char_traits@_W@std@@@std@@@std@@SAAAVid@locale@2@PAV?$istreambuf_iterator@_WV?$char_traits@_W@std@@@2@@Z @ 198 NONAME ; class std::locale::id & std::money_get<wchar_t, class std::istreambuf_iterator<wchar_t, class std::char_traits<wchar_t> > >::GetFacetLocaleId(class std::istreambuf_iterator<wchar_t, class std::char_traits<wchar_t> > *)
	?GetFacetLocaleId@?$money_get@_WV?$istreambuf_iterator@_WV?$char_traits@_W@std@@@std@@@std@@SAAAVid@locale@2@XZ @ 199 NONAME ; class std::locale::id & std::money_get<wchar_t, class std::istreambuf_iterator<wchar_t, class std::char_traits<wchar_t> > >::GetFacetLocaleId(void)
	?GetFacetLocaleId@?$money_put@DPAD@std@@SAAAVid@locale@2@PAPAD@Z @ 200 NONAME ; class std::locale::id & std::money_put<char, char *>::GetFacetLocaleId(char * *)
	?GetFacetLocaleId@?$money_put@DPAD@std@@SAAAVid@locale@2@XZ @ 201 NONAME ; class std::locale::id & std::money_put<char, char *>::GetFacetLocaleId(void)
	?GetFacetLocaleId@?$money_put@DV?$ostreambuf_iterator@DV?$char_traits@D@std@@@std@@@std@@SAAAVid@locale@2@PAPAD@Z @ 202 NONAME ; class std::locale::id & std::money_put<char, class std::ostreambuf_iterator<char, class std::char_traits<char> > >::GetFacetLocaleId(char * *)
	?GetFacetLocaleId@?$money_put@DV?$ostreambuf_iterator@DV?$char_traits@D@std@@@std@@@std@@SAAAVid@locale@2@PAPA_W@Z @ 203 NONAME ; class std::locale::id & std::money_put<char, class std::ostreambuf_iterator<char, class std::char_traits<char> > >::GetFacetLocaleId(wchar_t * *)
	?GetFacetLocaleId@?$money_put@DV?$ostreambuf_iterator@DV?$char_traits@D@std@@@std@@@std@@SAAAVid@locale@2@PAV?$ostreambuf_iterator@DV?$char_traits@D@std@@@2@@Z @ 204 NONAME ; class std::locale::id & std::money_put<char, class std::ostreambuf_iterator<char, class std::char_traits<char> > >::GetFacetLocaleId(class std::ostreambuf_iterator<char, class std::char_traits<char> > *)
	?GetFacetLocaleId@?$money_put@DV?$ostreambuf_iterator@DV?$char_traits@D@std@@@std@@@std@@SAAAVid@locale@2@PAV?$ostreambuf_iterator@_WV?$char_traits@_W@std@@@2@@Z @ 205 NONAME ; class std::locale::id & std::money_put<char, class std::ostreambuf_iterator<char, class std::char_traits<char> > >::GetFacetLocaleId(class std::ostreambuf_iterator<wchar_t, class std::char_traits<wchar_t> > *)
	?GetFacetLocaleId@?$money_put@DV?$ostreambuf_iterator@DV?$char_traits@D@std@@@std@@@std@@SAAAVid@locale@2@XZ @ 206 NONAME ; class std::locale::id & std::money_put<char, class std::ostreambuf_iterator<char, class std::char_traits<char> > >::GetFacetLocaleId(void)
	?GetFacetLocaleId@?$money_put@_WPA_W@std@@SAAAVid@locale@2@PAPA_W@Z @ 207 NONAME ; class std::locale::id & std::money_put<wchar_t, wchar_t *>::GetFacetLocaleId(wchar_t * *)
	?GetFacetLocaleId@?$money_put@_WPA_W@std@@SAAAVid@locale@2@XZ @ 208 NONAME ; class std::locale::id & std::money_put<wchar_t, wchar_t *>::GetFacetLocaleId(void)
	?GetFacetLocaleId@?$money_put@_WV?$ostreambuf_iterator@_WV?$char_traits@_W@std@@@std@@@std@@SAAAVid@locale@2@PAPAD@Z @ 209 NONAME ; class std::locale::id & std::money_put<wchar_t, class std::ostreambuf_iterator<wchar_t, class std::char_traits<wchar_t> > >::GetFacetLocaleId(char * *)
	?GetFacetLocaleId@?$money_put@_WV?$ostreambuf_iterator@_WV?$char_traits@_W@std@@@std@@@std@@SAAAVid@locale@2@PAPA_W@Z @ 210 NONAME ; class std::locale::id & std::money_put<wchar_t, class std::ostreambuf_iterator<wchar_t, class std::char_traits<wchar_t> > >::GetFacetLocaleId(wchar_t * *)
	?GetFacetLocaleId@?$money_put@_WV?$ostreambuf_iterator@_WV?$char_traits@_W@std@@@std@@@std@@SAAAVid@locale@2@PAV?$ostreambuf_iterator@DV?$char_traits@D@std@@@2@@Z @ 211 NONAME ; class std::locale::id & std::money_put<wchar_t, class std::ostreambuf_iterator<wchar_t, class std::char_traits<wchar_t> > >::GetFacetLocaleId(class std::ostreambuf_iterator<char, class std::char_traits<char> > *)
	?GetFacetLocaleId@?$money_put@_WV?$ostreambuf_iterator@_WV?$char_traits@_W@std@@@std@@@std@@SAAAVid@locale@2@PAV?$ostreambuf_iterator@_WV?$char_traits@_W@std@@@2@@Z @ 212 NONAME ; class std::locale::id & std::money_put<wchar_t, class std::ostreambuf_iterator<wchar_t, class std::char_traits<wchar_t> > >::GetFacetLocaleId(class std::ostreambuf_iterator<wchar_t, class std::char_traits<wchar_t> > *)
	?GetFacetLocaleId@?$money_put@_WV?$ostreambuf_iterator@_WV?$char_traits@_W@std@@@std@@@std@@SAAAVid@locale@2@XZ @ 213 NONAME ; class std::locale::id & std::money_put<wchar_t, class std::ostreambuf_iterator<wchar_t, class std::char_traits<wchar_t> > >::GetFacetLocaleId(void)
	?GetFacetLocaleId@?$moneypunct@D$00@std@@SAAAVid@locale@2@XZ @ 214 NONAME ; class std::locale::id & std::moneypunct<char, 1>::GetFacetLocaleId(void)
	?GetFacetLocaleId@?$moneypunct@D$0A@@std@@SAAAVid@locale@2@XZ @ 215 NONAME ; class std::locale::id & std::moneypunct<char, 0>::GetFacetLocaleId(void)
	?GetFacetLocaleId@?$moneypunct@_W$00@std@@SAAAVid@locale@2@XZ @ 216 NONAME ; class std::locale::id & std::moneypunct<wchar_t, 1>::GetFacetLocaleId(void)
	?GetFacetLocaleId@?$moneypunct@_W$0A@@std@@SAAAVid@locale@2@XZ @ 217 NONAME ; class std::locale::id & std::moneypunct<wchar_t, 0>::GetFacetLocaleId(void)
	?GetFacetLocaleId@?$num_get@DPB$$CBD@std@@SAAAVid@locale@2@PAPBD@Z @ 218 NONAME ; class std::locale::id & std::num_get<char, char const *>::GetFacetLocaleId(char const * *)
	?GetFacetLocaleId@?$num_get@DPB$$CBD@std@@SAAAVid@locale@2@XZ @ 219 NONAME ; class std::locale::id & std::num_get<char, char const *>::GetFacetLocaleId(void)
	?GetFacetLocaleId@?$num_get@DV?$istreambuf_iterator@DV?$char_traits@D@std@@@std@@@std@@SAAAVid@locale@2@PAPBD@Z @ 220 NONAME ; class std::locale::id & std::num_get<char, class std::istreambuf_iterator<char, class std::char_traits<char> > >::GetFacetLocaleId(char const * *)
	?GetFacetLocaleId@?$num_get@DV?$istreambuf_iterator@DV?$char_traits@D@std@@@std@@@std@@SAAAVid@locale@2@PAPB_W@Z @ 221 NONAME ; class std::locale::id & std::num_get<char, class std::istreambuf_iterator<char, class std::char_traits<char> > >::GetFacetLocaleId(wchar_t const * *)
	?GetFacetLocaleId@?$num_get@DV?$istreambuf_iterator@DV?$char_traits@D@std@@@std@@@std@@SAAAVid@locale@2@PAV?$istreambuf_iterator@DV?$char_traits@D@std@@@2@@Z @ 222 NONAME ; class std::locale::id & std::num_get<char, class std::istreambuf_iterator<char, class std::char_traits<char> > >::GetFacetLocaleId(class std::istreambuf_iterator<char, class std::char_traits<char> > *)
	?GetFacetLocaleId@?$num_get@DV?$istreambuf_iterator@DV?$char_traits@D@std@@@std@@@std@@SAAAVid@locale@2@PAV?$istreambuf_iterator@_WV?$char_traits@_W@std@@@2@@Z @ 223 NONAME ; class std::locale::id & std::num_get<char, class std::istreambuf_iterator<char, class std::char_traits<char> > >::GetFacetLocaleId(class std::istreambuf_iterator<wchar_t, class std::char_traits<wchar_t> > *)
	?GetFacetLocaleId@?$num_get@DV?$istreambuf_iterator@DV?$char_traits@D@std@@@std@@@std@@SAAAVid@locale@2@XZ @ 224 NONAME ; class std::locale::id & std::num_get<char, class std::istreambuf_iterator<char, class std::char_traits<char> > >::GetFacetLocaleId(void)
	?GetFacetLocaleId@?$num_get@_WPB$$CB_W@std@@SAAAVid@locale@2@PAPB_W@Z @ 225 NONAME ; class std::locale::id & std::num_get<wchar_t, wchar_t const *>::GetFacetLocaleId(wchar_t const * *)
	?GetFacetLocaleId@?$num_get@_WPB$$CB_W@std@@SAAAVid@locale@2@XZ @ 226 NONAME ; class std::locale::id & std::num_get<wchar_t, wchar_t const *>::GetFacetLocaleId(void)
	?GetFacetLocaleId@?$num_get@_WV?$istreambuf_iterator@_WV?$char_traits@_W@std@@@std@@@std@@SAAAVid@locale@2@PAPBD@Z @ 227 NONAME ; class std::locale::id & std::num_get<wchar_t, class std::istreambuf_iterator<wchar_t, class std::char_traits<wchar_t> > >::GetFacetLocaleId(char const * *)
	?GetFacetLocaleId@?$num_get@_WV?$istreambuf_iterator@_WV?$char_traits@_W@std@@@std@@@std@@SAAAVid@locale@2@PAPB_W@Z @ 228 NONAME ; class std::locale::id & std::num_get<wchar_t, class std::istreambuf_iterator<wchar_t, class std::char_traits<wchar_t> > >::GetFacetLocaleId(wchar_t const * *)
	?GetFacetLocaleId@?$num_get@_WV?$istreambuf_iterator@_WV?$char_traits@_W@std@@@std@@@std@@SAAAVid@locale@2@PAV?$istreambuf_iterator@DV?$char_traits@D@std@@@2@@Z @ 229 NONAME ; class std::locale::id & std::num_get<wchar_t, class std::istreambuf_iterator<wchar_t, class std::char_traits<wchar_t> > >::GetFacetLocaleId(class std::istreambuf_iterator<char, class std::char_traits<char> > *)
	?GetFacetLocaleId@?$num_get@_WV?$istreambuf_iterator@_WV?$char_traits@_W@std@@@std@@@std@@SAAAVid@locale@2@PAV?$istreambuf_iterator@_WV?$char_traits@_W@std@@@2@@Z @ 230 NONAME ; class std::locale::id & std::num_get<wchar_t, class std::istreambuf_iterator<wchar_t, class std::char_traits<wchar_t> > >::GetFacetLocaleId(class std::istreambuf_iterator<wchar_t, class std::char_traits<wchar_t> > *)
	?GetFacetLocaleId@?$num_get@_WV?$istreambuf_iterator@_WV?$char_traits@_W@std@@@std@@@std@@SAAAVid@locale@2@XZ @ 231 NONAME ; class std::locale::id & std::num_get<wchar_t, class std::istreambuf_iterator<wchar_t, class std::char_traits<wchar_t> > >::GetFacetLocaleId(void)
	?GetFacetLocaleId@?$num_put@DPAD@std@@SAAAVid@locale@2@PAPAD@Z @ 232 NONAME ; class std::locale::id & std::num_put<char, char *>::GetFacetLocaleId(char * *)
	?GetFacetLocaleId@?$num_put@DPAD@std@@SAAAVid@locale@2@XZ @ 233 NONAME ; class std::locale::id & std::num_put<char, char *>::GetFacetLocaleId(void)
	?GetFacetLocaleId@?$num_put@DV?$back_insert_iterator@V?$basic_string@DV?$char_traits@D@std@@V?$allocator@D@2@@std@@@std@@@std@@SAAAVid@locale@2@PAV?$back_insert_iterator@V?$basic_string@DV?$char_traits@D@std@@V?$allocator@D@2@@std@@@2@@Z @ 234 NONAME ; class std::locale::id & std::num_put<char, class std::back_insert_iterator<class std::basic_string<char, class std::char_traits<char>, class std::allocator<char> > > >::GetFacetLocaleId(class std::back_insert_iterator<class std::basic_string<char, class std::char_traits<char>, class std::allocator<char> > > *)
	?GetFacetLocaleId@?$num_put@DV?$back_insert_iterator@V?$basic_string@DV?$char_traits@D@std@@V?$allocator@D@2@@std@@@std@@@std@@SAAAVid@locale@2@XZ @ 235 NONAME ; class std::locale::id & std::num_put<char, class std::back_insert_iterator<class std::basic_string<char, class std::char_traits<char>, class std::allocator<char> > > >::GetFacetLocaleId(void)
	?GetFacetLocaleId@?$num_put@DV?$ostreambuf_iterator@DV?$char_traits@D@std@@@std@@@std@@SAAAVid@locale@2@PAPAD@Z @ 236 NONAME ; class std::locale::id & std::num_put<char, class std::ostreambuf_iterator<char, class std::char_traits<char> > >::GetFacetLocaleId(char * *)
	?GetFacetLocaleId@?$num_put@DV?$ostreambuf_iterator@DV?$char_traits@D@std@@@std@@@std@@SAAAVid@locale@2@PAPA_W@Z @ 237 NONAME ; class std::locale::id & std::num_put<char, class std::ostreambuf_iterator<char, class std::char_traits<char> > >::GetFacetLocaleId(wchar_t * *)
	?GetFacetLocaleId@?$num_put@DV?$ostreambuf_iterator@DV?$char_traits@D@std@@@std@@@std@@SAAAVid@locale@2@PAV?$back_insert_iterator@V?$basic_string@DV?$char_traits@D@std@@V?$allocator@D@2@@std@@@2@@Z @ 238 NONAME ; class std::locale::id & std::num_put<char, class std::ostreambuf_iterator<char, class std::char_traits<char> > >::GetFacetLocaleId(class std::back_insert_iterator<class std::basic_string<char, class std::char_traits<char>, class std::allocator<char> > > *)
	?GetFacetLocaleId@?$num_put@DV?$ostreambuf_iterator@DV?$char_traits@D@std@@@std@@@std@@SAAAVid@locale@2@PAV?$ostreambuf_iterator@DV?$char_traits@D@std@@@2@@Z @ 239 NONAME ; class std::locale::id & std::num_put<char, class std::ostreambuf_iterator<char, class std::char_traits<char> > >::GetFacetLocaleId(class std::ostreambuf_iterator<char, class std::char_traits<char> > *)
	?GetFacetLocaleId@?$num_put@DV?$ostreambuf_iterator@DV?$char_traits@D@std@@@std@@@std@@SAAAVid@locale@2@PAV?$ostreambuf_iterator@_WV?$char_traits@_W@std@@@2@@Z @ 240 NONAME ; class std::locale::id & std::num_put<char, class std::ostreambuf_iterator<char, class std::char_traits<char> > >::GetFacetLocaleId(class std::ostreambuf_iterator<wchar_t, class std::char_traits<wchar_t> > *)
	?GetFacetLocaleId@?$num_put@DV?$ostreambuf_iterator@DV?$char_traits@D@std@@@std@@@std@@SAAAVid@locale@2@XZ @ 241 NONAME ; class std::locale::id & std::num_put<char, class std::ostreambuf_iterator<char, class std::char_traits<char> > >::GetFacetLocaleId(void)
	?GetFacetLocaleId@?$num_put@_WPA_W@std@@SAAAVid@locale@2@PAPA_W@Z @ 242 NONAME ; class std::locale::id & std::num_put<wchar_t, wchar_t *>::GetFacetLocaleId(wchar_t * *)
	?GetFacetLocaleId@?$num_put@_WPA_W@std@@SAAAVid@locale@2@XZ @ 243 NONAME ; class std::locale::id & std::num_put<wchar_t, wchar_t *>::GetFacetLocaleId(void)
	?GetFacetLocaleId@?$num_put@_WV?$ostreambuf_iterator@_WV?$char_traits@_W@std@@@std@@@std@@SAAAVid@locale@2@PAPAD@Z @ 244 NONAME ; class std::locale::id & std::num_put<wchar_t, class std::ostreambuf_iterator<wchar_t, class std::char_traits<wchar_t> > >::GetFacetLocaleId(char * *)
	?GetFacetLocaleId@?$num_put@_WV?$ostreambuf_iterator@_WV?$char_traits@_W@std@@@std@@@std@@SAAAVid@locale@2@PAPA_W@Z @ 245 NONAME ; class std::locale::id & std::num_put<wchar_t, class std::ostreambuf_iterator<wchar_t, class std::char_traits<wchar_t> > >::GetFacetLocaleId(wchar_t * *)
	?GetFacetLocaleId@?$num_put@_WV?$ostreambuf_iterator@_WV?$char_traits@_W@std@@@std@@@std@@SAAAVid@locale@2@PAV?$back_insert_iterator@V?$basic_string@DV?$char_traits@D@std@@V?$allocator@D@2@@std@@@2@@Z @ 246 NONAME ; class std::locale::id & std::num_put<wchar_t, class std::ostreambuf_iterator<wchar_t, class std::char_traits<wchar_t> > >::GetFacetLocaleId(class std::back_insert_iterator<class std::basic_string<char, class std::char_traits<char>, class std::allocator<char> > > *)
	?GetFacetLocaleId@?$num_put@_WV?$ostreambuf_iterator@_WV?$char_traits@_W@std@@@std@@@std@@SAAAVid@locale@2@PAV?$ostreambuf_iterator@DV?$char_traits@D@std@@@2@@Z @ 247 NONAME ; class std::locale::id & std::num_put<wchar_t, class std::ostreambuf_iterator<wchar_t, class std::char_traits<wchar_t> > >::GetFacetLocaleId(class std::ostreambuf_iterator<char, class std::char_traits<char> > *)
	?GetFacetLocaleId@?$num_put@_WV?$ostreambuf_iterator@_WV?$char_traits@_W@std@@@std@@@std@@SAAAVid@locale@2@PAV?$ostreambuf_iterator@_WV?$char_traits@_W@std@@@2@@Z @ 248 NONAME ; class std::locale::id & std::num_put<wchar_t, class std::ostreambuf_iterator<wchar_t, class std::char_traits<wchar_t> > >::GetFacetLocaleId(class std::ostreambuf_iterator<wchar_t, class std::char_traits<wchar_t> > *)
	?GetFacetLocaleId@?$num_put@_WV?$ostreambuf_iterator@_WV?$char_traits@_W@std@@@std@@@std@@SAAAVid@locale@2@XZ @ 249 NONAME ; class std::locale::id & std::num_put<wchar_t, class std::ostreambuf_iterator<wchar_t, class std::char_traits<wchar_t> > >::GetFacetLocaleId(void)
	?GetFacetLocaleId@?$numpunct@D@std@@SAAAVid@locale@2@XZ @ 250 NONAME ; class std::locale::id & std::numpunct<char>::GetFacetLocaleId(void)
	?GetFacetLocaleId@?$numpunct@_W@std@@SAAAVid@locale@2@XZ @ 251 NONAME ; class std::locale::id & std::numpunct<wchar_t>::GetFacetLocaleId(void)
	?GetFacetLocaleId@?$time_get@DPB$$CBD@std@@SAAAVid@locale@2@PAPBD@Z @ 252 NONAME ; class std::locale::id & std::time_get<char, char const *>::GetFacetLocaleId(char const * *)
	?GetFacetLocaleId@?$time_get@DPB$$CBD@std@@SAAAVid@locale@2@XZ @ 253 NONAME ; class std::locale::id & std::time_get<char, char const *>::GetFacetLocaleId(void)
	?GetFacetLocaleId@?$time_get@DV?$istreambuf_iterator@DV?$char_traits@D@std@@@std@@@std@@SAAAVid@locale@2@PAPBD@Z @ 254 NONAME ; class std::locale::id & std::time_get<char, class std::istreambuf_iterator<char, class std::char_traits<char> > >::GetFacetLocaleId(char const * *)
	?GetFacetLocaleId@?$time_get@DV?$istreambuf_iterator@DV?$char_traits@D@std@@@std@@@std@@SAAAVid@locale@2@PAPB_W@Z @ 255 NONAME ; class std::locale::id & std::time_get<char, class std::istreambuf_iterator<char, class std::char_traits<char> > >::GetFacetLocaleId(wchar_t const * *)
	?GetFacetLocaleId@?$time_get@DV?$istreambuf_iterator@DV?$char_traits@D@std@@@std@@@std@@SAAAVid@locale@2@PAV?$istreambuf_iterator@DV?$char_traits@D@std@@@2@@Z @ 256 NONAME ; class std::locale::id & std::time_get<char, class std::istreambuf_iterator<char, class std::char_traits<char> > >::GetFacetLocaleId(class std::istreambuf_iterator<char, class std::char_traits<char> > *)
	?GetFacetLocaleId@?$time_get@DV?$istreambuf_iterator@DV?$char_traits@D@std@@@std@@@std@@SAAAVid@locale@2@PAV?$istreambuf_iterator@_WV?$char_traits@_W@std@@@2@@Z @ 257 NONAME ; class std::locale::id & std::time_get<char, class std::istreambuf_iterator<char, class std::char_traits<char> > >::GetFacetLocaleId(class std::istreambuf_iterator<wchar_t, class std::char_traits<wchar_t> > *)
	?GetFacetLocaleId@?$time_get@DV?$istreambuf_iterator@DV?$char_traits@D@std@@@std@@@std@@SAAAVid@locale@2@XZ @ 258 NONAME ; class std::locale::id & std::time_get<char, class std::istreambuf_iterator<char, class std::char_traits<char> > >::GetFacetLocaleId(void)
	?GetFacetLocaleId@?$time_get@_WPB$$CB_W@std@@SAAAVid@locale@2@PAPB_W@Z @ 259 NONAME ; class std::locale::id & std::time_get<wchar_t, wchar_t const *>::GetFacetLocaleId(wchar_t const * *)
	?GetFacetLocaleId@?$time_get@_WPB$$CB_W@std@@SAAAVid@locale@2@XZ @ 260 NONAME ; class std::locale::id & std::time_get<wchar_t, wchar_t const *>::GetFacetLocaleId(void)
	?GetFacetLocaleId@?$time_get@_WV?$istreambuf_iterator@_WV?$char_traits@_W@std@@@std@@@std@@SAAAVid@locale@2@PAPBD@Z @ 261 NONAME ; class std::locale::id & std::time_get<wchar_t, class std::istreambuf_iterator<wchar_t, class std::char_traits<wchar_t> > >::GetFacetLocaleId(char const * *)
	?GetFacetLocaleId@?$time_get@_WV?$istreambuf_iterator@_WV?$char_traits@_W@std@@@std@@@std@@SAAAVid@locale@2@PAPB_W@Z @ 262 NONAME ; class std::locale::id & std::time_get<wchar_t, class std::istreambuf_iterator<wchar_t, class std::char_traits<wchar_t> > >::GetFacetLocaleId(wchar_t const * *)
	?GetFacetLocaleId@?$time_get@_WV?$istreambuf_iterator@_WV?$char_traits@_W@std@@@std@@@std@@SAAAVid@locale@2@PAV?$istreambuf_iterator@DV?$char_traits@D@std@@@2@@Z @ 263 NONAME ; class std::locale::id & std::time_get<wchar_t, class std::istreambuf_iterator<wchar_t, class std::char_traits<wchar_t> > >::GetFacetLocaleId(class std::istreambuf_iterator<char, class std::char_traits<char> > *)
	?GetFacetLocaleId@?$time_get@_WV?$istreambuf_iterator@_WV?$char_traits@_W@std@@@std@@@std@@SAAAVid@locale@2@PAV?$istreambuf_iterator@_WV?$char_traits@_W@std@@@2@@Z @ 264 NONAME ; class std::locale::id & std::time_get<wchar_t, class std::istreambuf_iterator<wchar_t, class std::char_traits<wchar_t> > >::GetFacetLocaleId(class std::istreambuf_iterator<wchar_t, class std::char_traits<wchar_t> > *)
	?GetFacetLocaleId@?$time_get@_WV?$istreambuf_iterator@_WV?$char_traits@_W@std@@@std@@@std@@SAAAVid@locale@2@XZ @ 265 NONAME ; class std::locale::id & std::time_get<wchar_t, class std::istreambuf_iterator<wchar_t, class std::char_traits<wchar_t> > >::GetFacetLocaleId(void)
	?GetFacetLocaleId@?$time_put@DPAD@std@@SAAAVid@locale@2@PAPAD@Z @ 266 NONAME ; class std::locale::id & std::time_put<char, char *>::GetFacetLocaleId(char * *)
	?GetFacetLocaleId@?$time_put@DPAD@std@@SAAAVid@locale@2@XZ @ 267 NONAME ; class std::locale::id & std::time_put<char, char *>::GetFacetLocaleId(void)
	?GetFacetLocaleId@?$time_put@DV?$ostreambuf_iterator@DV?$char_traits@D@std@@@std@@@std@@SAAAVid@locale@2@PAPAD@Z @ 268 NONAME ; class std::locale::id & std::time_put<char, class std::ostreambuf_iterator<char, class std::char_traits<char> > >::GetFacetLocaleId(char * *)
	?GetFacetLocaleId@?$time_put@DV?$ostreambuf_iterator@DV?$char_traits@D@std@@@std@@@std@@SAAAVid@locale@2@PAPA_W@Z @ 269 NONAME ; class std::locale::id & std::time_put<char, class std::ostreambuf_iterator<char, class std::char_traits<char> > >::GetFacetLocaleId(wchar_t * *)
	?GetFacetLocaleId@?$time_put@DV?$ostreambuf_iterator@DV?$char_traits@D@std@@@std@@@std@@SAAAVid@locale@2@PAV?$ostreambuf_iterator@DV?$char_traits@D@std@@@2@@Z @ 270 NONAME ; class std::locale::id & std::time_put<char, class std::ostreambuf_iterator<char, class std::char_traits<char> > >::GetFacetLocaleId(class std::ostreambuf_iterator<char, class std::char_traits<char> > *)
	?GetFacetLocaleId@?$time_put@DV?$ostreambuf_iterator@DV?$char_traits@D@std@@@std@@@std@@SAAAVid@locale@2@PAV?$ostreambuf_iterator@_WV?$char_traits@_W@std@@@2@@Z @ 271 NONAME ; class std::locale::id & std::time_put<char, class std::ostreambuf_iterator<char, class std::char_traits<char> > >::GetFacetLocaleId(class std::ostreambuf_iterator<wchar_t, class std::char_traits<wchar_t> > *)
	?GetFacetLocaleId@?$time_put@DV?$ostreambuf_iterator@DV?$char_traits@D@std@@@std@@@std@@SAAAVid@locale@2@XZ @ 272 NONAME ; class std::locale::id & std::time_put<char, class std::ostreambuf_iterator<char, class std::char_traits<char> > >::GetFacetLocaleId(void)
	?GetFacetLocaleId@?$time_put@_WPA_W@std@@SAAAVid@locale@2@PAPA_W@Z @ 273 NONAME ; class std::locale::id & std::time_put<wchar_t, wchar_t *>::GetFacetLocaleId(wchar_t * *)
	?GetFacetLocaleId@?$time_put@_WPA_W@std@@SAAAVid@locale@2@XZ @ 274 NONAME ; class std::locale::id & std::time_put<wchar_t, wchar_t *>::GetFacetLocaleId(void)
	?GetFacetLocaleId@?$time_put@_WV?$ostreambuf_iterator@_WV?$char_traits@_W@std@@@std@@@std@@SAAAVid@locale@2@PAPAD@Z @ 275 NONAME ; class std::locale::id & std::time_put<wchar_t, class std::ostreambuf_iterator<wchar_t, class std::char_traits<wchar_t> > >::GetFacetLocaleId(char * *)
	?GetFacetLocaleId@?$time_put@_WV?$ostreambuf_iterator@_WV?$char_traits@_W@std@@@std@@@std@@SAAAVid@locale@2@PAPA_W@Z @ 276 NONAME ; class std::locale::id & std::time_put<wchar_t, class std::ostreambuf_iterator<wchar_t, class std::char_traits<wchar_t> > >::GetFacetLocaleId(wchar_t * *)
	?GetFacetLocaleId@?$time_put@_WV?$ostreambuf_iterator@_WV?$char_traits@_W@std@@@std@@@std@@SAAAVid@locale@2@PAV?$ostreambuf_iterator@DV?$char_traits@D@std@@@2@@Z @ 277 NONAME ; class std::locale::id & std::time_put<wchar_t, class std::ostreambuf_iterator<wchar_t, class std::char_traits<wchar_t> > >::GetFacetLocaleId(class std::ostreambuf_iterator<char, class std::char_traits<char> > *)
	?GetFacetLocaleId@?$time_put@_WV?$ostreambuf_iterator@_WV?$char_traits@_W@std@@@std@@@std@@SAAAVid@locale@2@PAV?$ostreambuf_iterator@_WV?$char_traits@_W@std@@@2@@Z @ 278 NONAME ; class std::locale::id & std::time_put<wchar_t, class std::ostreambuf_iterator<wchar_t, class std::char_traits<wchar_t> > >::GetFacetLocaleId(class std::ostreambuf_iterator<wchar_t, class std::char_traits<wchar_t> > *)
	?GetFacetLocaleId@?$time_put@_WV?$ostreambuf_iterator@_WV?$char_traits@_W@std@@@std@@@std@@SAAAVid@locale@2@XZ @ 279 NONAME ; class std::locale::id & std::time_put<wchar_t, class std::ostreambuf_iterator<wchar_t, class std::char_traits<wchar_t> > >::GetFacetLocaleId(void)
	?GetNoThrowObj@std@@YAABUnothrow_t@1@XZ @ 280 NONAME ; struct std::nothrow_t const & std::GetNoThrowObj(void)
	?GetNumPunct_M_Wchar_falsename@?$numpunct@_W@std@@SAAAV?$basic_string@_WV?$char_traits@_W@std@@V?$allocator@_W@2@@2@XZ @ 281 NONAME ; class std::basic_string<wchar_t, class std::char_traits<wchar_t>, class std::allocator<wchar_t> > & std::numpunct<wchar_t>::GetNumPunct_M_Wchar_falsename(void)
	?GetNumPunct_M_Wchar_grouping@?$numpunct@_W@std@@SAAAV?$basic_string@DV?$char_traits@D@std@@V?$allocator@D@2@@2@XZ @ 282 NONAME ; class std::basic_string<char, class std::char_traits<char>, class std::allocator<char> > & std::numpunct<wchar_t>::GetNumPunct_M_Wchar_grouping(void)
	?GetNumPunct_M_Wchar_truename@?$numpunct@_W@std@@SAAAV?$basic_string@_WV?$char_traits@_W@std@@V?$allocator@_W@2@@2@XZ @ 283 NONAME ; class std::basic_string<wchar_t, class std::char_traits<wchar_t>, class std::allocator<wchar_t> > & std::numpunct<wchar_t>::GetNumPunct_M_Wchar_truename(void)
	?GetNumPunct_M_falsename@?$numpunct@D@std@@SAAAV?$basic_string@DV?$char_traits@D@std@@V?$allocator@D@2@@2@XZ @ 284 NONAME ; class std::basic_string<char, class std::char_traits<char>, class std::allocator<char> > & std::numpunct<char>::GetNumPunct_M_falsename(void)
	?GetNumPunct_M_grouping@?$numpunct@D@std@@SAAAV?$basic_string@DV?$char_traits@D@std@@V?$allocator@D@2@@2@XZ @ 285 NONAME ; class std::basic_string<char, class std::char_traits<char>, class std::allocator<char> > & std::numpunct<char>::GetNumPunct_M_grouping(void)
	?GetNumPunct_M_truename@?$numpunct@D@std@@SAAAV?$basic_string@DV?$char_traits@D@std@@V?$allocator@D@2@@2@XZ @ 286 NONAME ; class std::basic_string<char, class std::char_traits<char>, class std::allocator<char> > & std::numpunct<char>::GetNumPunct_M_truename(void)
	?GetWCErrStream@std@@YAAAV?$basic_ostream@_WV?$char_traits@_W@std@@@1@XZ @ 287 NONAME ; class std::basic_ostream<wchar_t, class std::char_traits<wchar_t> > & std::GetWCErrStream(void)
	?GetWCinStream@std@@YAAAV?$basic_istream@_WV?$char_traits@_W@std@@@1@XZ @ 288 NONAME ; class std::basic_istream<wchar_t, class std::char_traits<wchar_t> > & std::GetWCinStream(void)
	?GetWClogStream@std@@YAAAV?$basic_ostream@_WV?$char_traits@_W@std@@@1@XZ @ 289 NONAME ; class std::basic_ostream<wchar_t, class std::char_traits<wchar_t> > & std::GetWClogStream(void)
	?GetWCoutStream@std@@YAAAV?$basic_ostream@_WV?$char_traits@_W@std@@@1@XZ @ 290 NONAME ; class std::basic_ostream<wchar_t, class std::char_traits<wchar_t> > & std::GetWCoutStream(void)
	?LibStdCppInit@std@@YAXXZ @ 291 NONAME ; void std::LibStdCppInit(void)
	?Moneypunct_charT_GetFacetLocaleId@std@@YAAAVid@locale@1@PBD@Z @ 292 NONAME ; class std::locale::id & std::Moneypunct_charT_GetFacetLocaleId(char const *)
	?Numpunct_charT_GetFacetLocaleId@std@@YAAAVid@locale@1@PBD@Z @ 293 NONAME ; class std::locale::id & std::Numpunct_charT_GetFacetLocaleId(char const *)
	?_Init_monetary_formatsE@std@@YAXAAUpattern@money_base@1@0@Z @ 294 NONAME ; void std::_Init_monetary_formatsE(struct std::money_base::pattern &, struct std::money_base::pattern &)
	?_Init_timeinfo@std@@YAXAAV_Time_Info@1@@Z @ 295 NONAME ; void std::_Init_timeinfo(class std::_Time_Info &)
	?_Init_timeinfo@std@@YAXAAV_Time_Info@1@PAU_Locale_time@@@Z @ 296 NONAME ; void std::_Init_timeinfo(class std::_Time_Info &, struct _Locale_time *)
	?_Locale_decimal_pointE@std@@YADPAU_Locale_numeric@@@Z @ 297 NONAME ; char std::_Locale_decimal_pointE(struct _Locale_numeric *)
	?_Locale_falseE@std@@YAPBDPAU_Locale_numeric@@@Z @ 298 NONAME ; char const * std::_Locale_falseE(struct _Locale_numeric *)
	?_Locale_groupingE@std@@YAPBDPAU_Locale_numeric@@@Z @ 299 NONAME ; char const * std::_Locale_groupingE(struct _Locale_numeric *)
	?_Locale_int_curr_symbolE@std@@YA?AV?$basic_string@DV?$char_traits@D@std@@V?$allocator@D@2@@1@PAU_Locale_monetary@@@Z @ 300 NONAME ; class std::basic_string<char, class std::char_traits<char>, class std::allocator<char> > std::_Locale_int_curr_symbolE(struct _Locale_monetary *)
	?_Locale_int_frac_digitsE@std@@YAHPAU_Locale_monetary@@@Z @ 301 NONAME ; int std::_Locale_int_frac_digitsE(struct _Locale_monetary *)
	?_Locale_mon_decimal_pointE@std@@YADPAU_Locale_monetary@@@Z @ 302 NONAME ; char std::_Locale_mon_decimal_pointE(struct _Locale_monetary *)
	?_Locale_mon_groupingE@std@@YA?AV?$basic_string@DV?$char_traits@D@std@@V?$allocator@D@2@@1@PAU_Locale_monetary@@@Z @ 303 NONAME ; class std::basic_string<char, class std::char_traits<char>, class std::allocator<char> > std::_Locale_mon_groupingE(struct _Locale_monetary *)
	?_Locale_mon_thousands_sepE@std@@YADPAU_Locale_monetary@@@Z @ 304 NONAME ; char std::_Locale_mon_thousands_sepE(struct _Locale_monetary *)
	?_Locale_negative_signE@std@@YA?AV?$basic_string@DV?$char_traits@D@std@@V?$allocator@D@2@@1@PAU_Locale_monetary@@@Z @ 305 NONAME ; class std::basic_string<char, class std::char_traits<char>, class std::allocator<char> > std::_Locale_negative_signE(struct _Locale_monetary *)
	?_Locale_positive_signE@std@@YA?AV?$basic_string@DV?$char_traits@D@std@@V?$allocator@D@2@@1@PAU_Locale_monetary@@@Z @ 306 NONAME ; class std::basic_string<char, class std::char_traits<char>, class std::allocator<char> > std::_Locale_positive_signE(struct _Locale_monetary *)
	?_Locale_thousands_sepE@std@@YADPAU_Locale_numeric@@@Z @ 307 NONAME ; char std::_Locale_thousands_sepE(struct _Locale_numeric *)
	?_Locale_trueE@std@@YAPBDPAU_Locale_numeric@@@Z @ 308 NONAME ; char const * std::_Locale_trueE(struct _Locale_numeric *)
	?_M_close@_Filebuf_base@std@@QAE_NXZ @ 309 NONAME ; bool std::_Filebuf_base::_M_close(void)
	?_M_copy_state@ios_base@std@@IAEXABV12@@Z @ 310 NONAME ; void std::ios_base::_M_copy_state(class std::ios_base const &)
	?_M_doit@?$_Underflow@DV?$char_traits@D@std@@@std@@SAHPAV?$basic_filebuf@DV?$char_traits@D@std@@@2@@Z @ 311 NONAME ; int std::_Underflow<char, class std::char_traits<char> >::_M_doit(class std::basic_filebuf<char, class std::char_traits<char> > *)
	?_M_file_size@_Filebuf_base@std@@QAEJXZ @ 312 NONAME ; long std::_Filebuf_base::_M_file_size(void)
	?_M_get_facet@locale@std@@QBEPAVfacet@12@ABVid@12@@Z @ 313 NONAME ; class std::locale::facet * std::locale::_M_get_facet(class std::locale::id const &) const
	?_M_insert@locale@std@@AAEXPAVfacet@12@AAVid@12@@Z @ 314 NONAME ; void std::locale::_M_insert(class std::locale::facet *, class std::locale::id &)
	?_M_invoke_callbacks@ios_base@std@@IAEXW4event@12@@Z @ 315 NONAME ; void std::ios_base::_M_invoke_callbacks(enum std::ios_base::event)
	?_M_mmap@_Filebuf_base@std@@QAEPAXJJ@Z @ 316 NONAME ; void * std::_Filebuf_base::_M_mmap(long, long)
	?_M_open@_Filebuf_base@std@@QAE_NHH@Z @ 317 NONAME ABSENT ; bool std::_Filebuf_base::_M_open(int, int)
	?_M_open@_Filebuf_base@std@@QAE_NPBDH@Z @ 318 NONAME ; bool std::_Filebuf_base::_M_open(char const *, int)
	?_M_open@_Filebuf_base@std@@QAE_NPBDHJ@Z @ 319 NONAME ; bool std::_Filebuf_base::_M_open(char const *, int, long)
	?_M_read@_Filebuf_base@std@@QAEHPADH@Z @ 320 NONAME ; int std::_Filebuf_base::_M_read(char *, int)
	?_M_seek@_Filebuf_base@std@@QAEJJH@Z @ 321 NONAME ; long std::_Filebuf_base::_M_seek(long, int)
	?_M_snextc_aux@?$basic_streambuf@DV?$char_traits@D@std@@@std@@AAEHXZ @ 322 NONAME ; int std::basic_streambuf<char, class std::char_traits<char> >::_M_snextc_aux(void)
	?_M_snextc_aux@?$basic_streambuf@_WV?$char_traits@_W@std@@@std@@AAEHXZ @ 323 NONAME ; int std::basic_streambuf<wchar_t, class std::char_traits<wchar_t> >::_M_snextc_aux(void)
	?_M_throw_failure@ios_base@std@@IAEXXZ @ 324 NONAME ; void std::ios_base::_M_throw_failure(void)
	?_M_throw_runtime_error@locale@std@@SAXPBD@Z @ 325 NONAME ; void std::locale::_M_throw_runtime_error(char const *)
	?_M_unmap@_Filebuf_base@std@@QAEXPAXJ@Z @ 326 NONAME ; void std::_Filebuf_base::_M_unmap(void *, long)
	?_M_use_facet@locale@std@@QBEPAVfacet@12@ABVid@12@@Z @ 327 NONAME ; class std::locale::facet * std::locale::_M_use_facet(class std::locale::id const &) const
	?_M_write@_Filebuf_base@std@@QAE_NPADH@Z @ 328 NONAME ; bool std::_Filebuf_base::_M_write(char *, int)
	?_M_xsputnc@?$basic_streambuf@DV?$char_traits@D@std@@@std@@MAEHDH@Z @ 329 NONAME ; int std::basic_streambuf<char, class std::char_traits<char> >::_M_xsputnc(char, int)
	?_M_xsputnc@?$basic_streambuf@_WV?$char_traits@_W@std@@@std@@MAEH_WH@Z @ 330 NONAME ; int std::basic_streambuf<wchar_t, class std::char_traits<wchar_t> >::_M_xsputnc(wchar_t, int)
	?__Locale_ctypeE@std@@YA?AW4mask@ctype_base@1@PAU_Locale_ctype@@HW4231@@Z @ 331 NONAME ; enum std::ctype_base::mask std::__Locale_ctypeE(struct _Locale_ctype *, int, enum std::ctype_base::mask)
	?__Locale_tolowerE@std@@YAHPAU_Locale_ctype@@H@Z @ 332 NONAME ; int std::__Locale_tolowerE(struct _Locale_ctype *, int)
	?__Locale_toupperE@std@@YAHPAU_Locale_ctype@@H@Z @ 333 NONAME ; int std::__Locale_toupperE(struct _Locale_ctype *, int)
	?__acquire_ctypeE@std@@YAPAU_Locale_ctype@@PBD@Z @ 334 NONAME ; struct _Locale_ctype * std::__acquire_ctypeE(char const *)
	?__acquire_monetaryE@std@@YAPAU_Locale_monetary@@PBD@Z @ 335 NONAME ; struct _Locale_monetary * std::__acquire_monetaryE(char const *)
	?__acquire_numericE@std@@YAPAU_Locale_numeric@@PBD@Z @ 336 NONAME ; struct _Locale_numeric * std::__acquire_numericE(char const *)
	?__acquire_time@std@@YAPAU_Locale_time@@PBD@Z @ 337 NONAME ; struct _Locale_time * std::__acquire_time(char const *)
	?__adjust_float_buffer@std@@YAXPAD0D@Z @ 338 NONAME ; void std::__adjust_float_buffer(char *, char *, char)
	?__convert_float_buffer@std@@YAPA_WPBD0PA_WABV?$ctype@_W@1@_W@Z @ 339 NONAME ; wchar_t * std::__convert_float_buffer(char const *, char const *, wchar_t *, class std::ctype<wchar_t> const &, wchar_t)
	?__get_c_string@std@@YAPBDABV?$basic_string@DV?$char_traits@D@std@@V?$allocator@D@2@@1@@Z @ 340 NONAME ; char const * std::__get_c_string(class std::basic_string<char, class std::char_traits<char>, class std::allocator<char> > const &)
	?__get_date_order@std@@YA?AW4dateorder@time_base@1@PAU_Locale_time@@@Z @ 341 NONAME ; enum std::time_base::dateorder std::__get_date_order(struct _Locale_time *)
	?__get_digit_val_table@std@@YAPAEXZ @ 342 NONAME ; unsigned char * std::__get_digit_val_table(void)
	?__get_narrow_atoms@std@@YAPADXZ @ 343 NONAME ; char * std::__get_narrow_atoms(void)
	?__insert_grouping@std@@YAHPAD0ABV?$basic_string@DV?$char_traits@D@std@@V?$allocator@D@2@@1@DDDH@Z @ 344 NONAME ; int std::__insert_grouping(char *, char *, class std::basic_string<char, class std::char_traits<char>, class std::allocator<char> > const &, char, char, char, int)
	?__insert_grouping@std@@YAHPA_W0ABV?$basic_string@DV?$char_traits@D@std@@V?$allocator@D@2@@1@_W22H@Z @ 345 NONAME ; int std::__insert_grouping(wchar_t *, wchar_t *, class std::basic_string<char, class std::char_traits<char>, class std::allocator<char> > const &, wchar_t, wchar_t, wchar_t, int)
	?__release_ctypeE@std@@YAXPAU_Locale_ctype@@@Z @ 346 NONAME ; void std::__release_ctypeE(struct _Locale_ctype *)
	?__release_monetaryE@std@@YAXPAU_Locale_monetary@@@Z @ 347 NONAME ; void std::__release_monetaryE(struct _Locale_monetary *)
	?__release_numericE@std@@YAXPAU_Locale_numeric@@@Z @ 348 NONAME ; void std::__release_numericE(struct _Locale_numeric *)
	?__release_time@std@@YAXPAU_Locale_time@@@Z @ 349 NONAME ; void std::__release_time(struct _Locale_time *)
	?__stl_throw_invalid_argument@std@@YAXPBD@Z @ 350 NONAME ; void std::__stl_throw_invalid_argument(char const *)
	?__stl_throw_length_error@std@@YAXPBD@Z @ 351 NONAME ; void std::__stl_throw_length_error(char const *)
	?__stl_throw_out_of_range@std@@YAXPBD@Z @ 352 NONAME ; void std::__stl_throw_out_of_range(char const *)
	?__stl_throw_overflow_error@std@@YAXPBD@Z @ 353 NONAME ; void std::__stl_throw_overflow_error(char const *)
	?__stl_throw_range_error@std@@YAXPBD@Z @ 354 NONAME ; void std::__stl_throw_range_error(char const *)
	?__string_to_float@std@@YAHABV?$basic_string@DV?$char_traits@D@std@@V?$allocator@D@2@@1@AAM@Z @ 355 NONAME ; int std::__string_to_float(class std::basic_string<char, class std::char_traits<char>, class std::allocator<char> > const &, float &)
	?__string_to_float@std@@YAHABV?$basic_string@DV?$char_traits@D@std@@V?$allocator@D@2@@1@AAN@Z @ 356 NONAME ; int std::__string_to_float(class std::basic_string<char, class std::char_traits<char>, class std::allocator<char> > const &, double &)
	?__valid_grouping@std@@YA_NPBD000@Z @ 357 NONAME ; bool std::__valid_grouping(char const *, char const *, char const *, char const *)
	?__write_float@std@@YAXAAV?$basic_string@DV?$char_traits@D@std@@V?$allocator@D@2@@1@HHN@Z @ 358 NONAME ; void std::__write_float(class std::basic_string<char, class std::char_traits<char>, class std::allocator<char> > &, int, int, double)
	?__write_formatted_time@std@@YAPADPADDDABV_Time_Info@1@PBUtm@@@Z @ 359 NONAME ; char * std::__write_formatted_time(char *, char, char, class std::_Time_Info const &, struct tm const *)
	?__write_integer@std@@YAPADPADHJ@Z @ 360 NONAME ; char * std::__write_integer(char *, int, long)
	?_div@?$complex@M@std@@SAXABM000AAM1@Z @ 361 NONAME ; void std::complex<float>::_div(float const &, float const &, float const &, float const &, float &, float &)
	?_div@?$complex@M@std@@SAXABM00AAM1@Z @ 362 NONAME ; void std::complex<float>::_div(float const &, float const &, float const &, float &, float &)
	?_div@?$complex@N@std@@SAXABN000AAN1@Z @ 363 NONAME ; void std::complex<double>::_div(double const &, double const &, double const &, double const &, double &, double &)
	?_div@?$complex@N@std@@SAXABN00AAN1@Z @ 364 NONAME ; void std::complex<double>::_div(double const &, double const &, double const &, double &, double &)
	?_get_S_lower_table@std@@YAPBEXZ @ 365 NONAME ; unsigned char const * std::_get_S_lower_table(void)
	?_get_S_upper_table@std@@YAPBEXZ @ 366 NONAME ; unsigned char const * std::_get_S_upper_table(void)
	?_get_classic_table@std@@YAPBW4mask@ctype_base@1@XZ @ 367 NONAME ; enum std::ctype_base::mask const * std::_get_classic_table(void)
	?abs_tp@?$@M@std@@YAMABU?$complex@M@1@@Z @ 368 NONAME ; float std::abs_tp<float>(struct std::complex<float> const &)
	?abs_tp@?$@N@std@@YANABU?$complex@N@1@@Z @ 369 NONAME ; double std::abs_tp<double>(struct std::complex<double> const &)
	?append@?$basic_string@DV?$char_traits@D@std@@V?$allocator@D@2@@std@@QAEAAV12@ID@Z @ 370 NONAME ; class std::basic_string<char, class std::char_traits<char>, class std::allocator<char> > & std::basic_string<char, class std::char_traits<char>, class std::allocator<char> >::append(unsigned int, char)
	?append@?$basic_string@_WV?$char_traits@_W@std@@V?$allocator@_W@2@@std@@QAEAAV12@I_W@Z @ 371 NONAME ; class std::basic_string<wchar_t, class std::char_traits<wchar_t>, class std::allocator<wchar_t> > & std::basic_string<wchar_t, class std::char_traits<wchar_t>, class std::allocator<wchar_t> >::append(unsigned int, wchar_t)
	?arg_tp@?$@M@std@@YAMABU?$complex@M@1@@Z @ 372 NONAME ; float std::arg_tp<float>(struct std::complex<float> const &)
	?arg_tp@?$@N@std@@YANABU?$complex@N@1@@Z @ 373 NONAME ; double std::arg_tp<double>(struct std::complex<double> const &)
	?assign@?$basic_string@DV?$char_traits@D@std@@V?$allocator@D@2@@std@@QAEAAV12@ID@Z @ 374 NONAME ; class std::basic_string<char, class std::char_traits<char>, class std::allocator<char> > & std::basic_string<char, class std::char_traits<char>, class std::allocator<char> >::assign(unsigned int, char)
	?assign@?$basic_string@_WV?$char_traits@_W@std@@V?$allocator@_W@2@@std@@QAEAAV12@I_W@Z @ 375 NONAME ; class std::basic_string<wchar_t, class std::char_traits<wchar_t>, class std::allocator<wchar_t> > & std::basic_string<wchar_t, class std::char_traits<wchar_t>, class std::allocator<wchar_t> >::assign(unsigned int, wchar_t)
	?classic@locale@std@@SAABV12@XZ @ 376 NONAME ; class std::locale const & std::locale::classic(void)
	?classic_table@?$ctype@D@std@@KAPBW4mask@ctype_base@2@XZ @ 377 NONAME ; enum std::ctype_base::mask const * std::ctype<char>::classic_table(void)
	?cos@std@@YA?AU?$complex@M@1@ABU21@@Z @ 378 NONAME ; struct std::complex<float> std::cos(struct std::complex<float> const &)
	?cos@std@@YA?AU?$complex@N@1@ABU21@@Z @ 379 NONAME ; struct std::complex<double> std::cos(struct std::complex<double> const &)
	?cosh@std@@YA?AU?$complex@M@1@ABU21@@Z @ 380 NONAME ; struct std::complex<float> std::cosh(struct std::complex<float> const &)
	?cosh@std@@YA?AU?$complex@N@1@ABU21@@Z @ 381 NONAME ; struct std::complex<double> std::cosh(struct std::complex<double> const &)
	?do_always_noconv@?$codecvt@DDU_mb_state_t@@@std@@MBE_NXZ @ 382 NONAME ; bool std::codecvt<char, char, struct _mb_state_t>::do_always_noconv(void) const
	?do_always_noconv@?$codecvt@_WDU_mb_state_t@@@std@@MBE_NXZ @ 383 NONAME ; bool std::codecvt<wchar_t, char, struct _mb_state_t>::do_always_noconv(void) const
	?do_always_noconv@?$codecvt_byname@_WDU_mb_state_t@@@std@@MBE_NXZ @ 384 NONAME ; bool std::codecvt_byname<wchar_t, char, struct _mb_state_t>::do_always_noconv(void) const
	?do_close@?$messages@D@std@@MBEXH@Z @ 385 NONAME ; void std::messages<char>::do_close(int) const
	?do_close@?$messages@_W@std@@MBEXH@Z @ 386 NONAME ; void std::messages<wchar_t>::do_close(int) const
	?do_compare@?$collate@D@std@@MBEHPBD000@Z @ 387 NONAME ; int std::collate<char>::do_compare(char const *, char const *, char const *, char const *) const
	?do_compare@?$collate@_W@std@@MBEHPB_W000@Z @ 388 NONAME ; int std::collate<wchar_t>::do_compare(wchar_t const *, wchar_t const *, wchar_t const *, wchar_t const *) const
	?do_compare@?$collate_byname@D@std@@MBEHPBD000@Z @ 389 NONAME ; int std::collate_byname<char>::do_compare(char const *, char const *, char const *, char const *) const
	?do_compare@?$collate_byname@_W@std@@MBEHPB_W000@Z @ 390 NONAME ; int std::collate_byname<wchar_t>::do_compare(wchar_t const *, wchar_t const *, wchar_t const *, wchar_t const *) const
	?do_curr_symbol@?$moneypunct@D$00@std@@MBE?AV?$basic_string@DV?$char_traits@D@std@@V?$allocator@D@2@@2@XZ @ 391 NONAME ; class std::basic_string<char, class std::char_traits<char>, class std::allocator<char> > std::moneypunct<char, 1>::do_curr_symbol(void) const
	?do_curr_symbol@?$moneypunct@D$0A@@std@@MBE?AV?$basic_string@DV?$char_traits@D@std@@V?$allocator@D@2@@2@XZ @ 392 NONAME ; class std::basic_string<char, class std::char_traits<char>, class std::allocator<char> > std::moneypunct<char, 0>::do_curr_symbol(void) const
	?do_curr_symbol@?$moneypunct@_W$00@std@@MBE?AV?$basic_string@_WV?$char_traits@_W@std@@V?$allocator@_W@2@@2@XZ @ 393 NONAME ; class std::basic_string<wchar_t, class std::char_traits<wchar_t>, class std::allocator<wchar_t> > std::moneypunct<wchar_t, 1>::do_curr_symbol(void) const
	?do_curr_symbol@?$moneypunct@_W$0A@@std@@MBE?AV?$basic_string@_WV?$char_traits@_W@std@@V?$allocator@_W@2@@2@XZ @ 394 NONAME ; class std::basic_string<wchar_t, class std::char_traits<wchar_t>, class std::allocator<wchar_t> > std::moneypunct<wchar_t, 0>::do_curr_symbol(void) const
	?do_curr_symbol@?$moneypunct_byname@D$00@std@@MBE?AV?$basic_string@DV?$char_traits@D@std@@V?$allocator@D@2@@2@XZ @ 395 NONAME ; class std::basic_string<char, class std::char_traits<char>, class std::allocator<char> > std::moneypunct_byname<char, 1>::do_curr_symbol(void) const
	?do_curr_symbol@?$moneypunct_byname@D$0A@@std@@MBE?AV?$basic_string@DV?$char_traits@D@std@@V?$allocator@D@2@@2@XZ @ 396 NONAME ; class std::basic_string<char, class std::char_traits<char>, class std::allocator<char> > std::moneypunct_byname<char, 0>::do_curr_symbol(void) const
	?do_curr_symbol@?$moneypunct_byname@_W$00@std@@MBE?AV?$basic_string@_WV?$char_traits@_W@std@@V?$allocator@_W@2@@2@XZ @ 397 NONAME ; class std::basic_string<wchar_t, class std::char_traits<wchar_t>, class std::allocator<wchar_t> > std::moneypunct_byname<wchar_t, 1>::do_curr_symbol(void) const
	?do_curr_symbol@?$moneypunct_byname@_W$0A@@std@@MBE?AV?$basic_string@_WV?$char_traits@_W@std@@V?$allocator@_W@2@@2@XZ @ 398 NONAME ; class std::basic_string<wchar_t, class std::char_traits<wchar_t>, class std::allocator<wchar_t> > std::moneypunct_byname<wchar_t, 0>::do_curr_symbol(void) const
	?do_decimal_point@?$moneypunct@D$00@std@@MBEDXZ @ 399 NONAME ; char std::moneypunct<char, 1>::do_decimal_point(void) const
	?do_decimal_point@?$moneypunct@D$0A@@std@@MBEDXZ @ 400 NONAME ; char std::moneypunct<char, 0>::do_decimal_point(void) const
	?do_decimal_point@?$moneypunct@_W$00@std@@MBE_WXZ @ 401 NONAME ; wchar_t std::moneypunct<wchar_t, 1>::do_decimal_point(void) const
	?do_decimal_point@?$moneypunct@_W$0A@@std@@MBE_WXZ @ 402 NONAME ; wchar_t std::moneypunct<wchar_t, 0>::do_decimal_point(void) const
	?do_decimal_point@?$moneypunct_byname@D$00@std@@MBEDXZ @ 403 NONAME ; char std::moneypunct_byname<char, 1>::do_decimal_point(void) const
	?do_decimal_point@?$moneypunct_byname@D$0A@@std@@MBEDXZ @ 404 NONAME ; char std::moneypunct_byname<char, 0>::do_decimal_point(void) const
	?do_decimal_point@?$moneypunct_byname@_W$00@std@@MBE_WXZ @ 405 NONAME ; wchar_t std::moneypunct_byname<wchar_t, 1>::do_decimal_point(void) const
	?do_decimal_point@?$moneypunct_byname@_W$0A@@std@@MBE_WXZ @ 406 NONAME ; wchar_t std::moneypunct_byname<wchar_t, 0>::do_decimal_point(void) const
	?do_decimal_point@?$numpunct@D@std@@MBEDXZ @ 407 NONAME ; char std::numpunct<char>::do_decimal_point(void) const
	?do_decimal_point@?$numpunct@_W@std@@MBE_WXZ @ 408 NONAME ; wchar_t std::numpunct<wchar_t>::do_decimal_point(void) const
	?do_decimal_point@?$numpunct_byname@D@std@@MBEDXZ @ 409 NONAME ; char std::numpunct_byname<char>::do_decimal_point(void) const
	?do_decimal_point@?$numpunct_byname@_W@std@@MBE_WXZ @ 410 NONAME ; wchar_t std::numpunct_byname<wchar_t>::do_decimal_point(void) const
	?do_encoding@?$codecvt@DDU_mb_state_t@@@std@@MBEHXZ @ 411 NONAME ; int std::codecvt<char, char, struct _mb_state_t>::do_encoding(void) const
	?do_encoding@?$codecvt@_WDU_mb_state_t@@@std@@MBEHXZ @ 412 NONAME ; int std::codecvt<wchar_t, char, struct _mb_state_t>::do_encoding(void) const
	?do_encoding@?$codecvt_byname@_WDU_mb_state_t@@@std@@MBEHXZ @ 413 NONAME ; int std::codecvt_byname<wchar_t, char, struct _mb_state_t>::do_encoding(void) const
	?do_falsename@?$numpunct@D@std@@MBE?AV?$basic_string@DV?$char_traits@D@std@@V?$allocator@D@2@@2@XZ @ 414 NONAME ; class std::basic_string<char, class std::char_traits<char>, class std::allocator<char> > std::numpunct<char>::do_falsename(void) const
	?do_falsename@?$numpunct@_W@std@@MBE?AV?$basic_string@_WV?$char_traits@_W@std@@V?$allocator@_W@2@@2@XZ @ 415 NONAME ; class std::basic_string<wchar_t, class std::char_traits<wchar_t>, class std::allocator<wchar_t> > std::numpunct<wchar_t>::do_falsename(void) const
	?do_frac_digits@?$moneypunct@D$00@std@@MBEHXZ @ 416 NONAME ; int std::moneypunct<char, 1>::do_frac_digits(void) const
	?do_frac_digits@?$moneypunct@D$0A@@std@@MBEHXZ @ 417 NONAME ; int std::moneypunct<char, 0>::do_frac_digits(void) const
	?do_frac_digits@?$moneypunct@_W$00@std@@MBEHXZ @ 418 NONAME ; int std::moneypunct<wchar_t, 1>::do_frac_digits(void) const
	?do_frac_digits@?$moneypunct@_W$0A@@std@@MBEHXZ @ 419 NONAME ; int std::moneypunct<wchar_t, 0>::do_frac_digits(void) const
	?do_frac_digits@?$moneypunct_byname@D$00@std@@MBEHXZ @ 420 NONAME ; int std::moneypunct_byname<char, 1>::do_frac_digits(void) const
	?do_frac_digits@?$moneypunct_byname@D$0A@@std@@MBEHXZ @ 421 NONAME ; int std::moneypunct_byname<char, 0>::do_frac_digits(void) const
	?do_frac_digits@?$moneypunct_byname@_W$00@std@@MBEHXZ @ 422 NONAME ; int std::moneypunct_byname<wchar_t, 1>::do_frac_digits(void) const
	?do_frac_digits@?$moneypunct_byname@_W$0A@@std@@MBEHXZ @ 423 NONAME ; int std::moneypunct_byname<wchar_t, 0>::do_frac_digits(void) const
	?do_get@?$messages@D@std@@MBE?AV?$basic_string@DV?$char_traits@D@std@@V?$allocator@D@2@@2@HHHABV32@@Z @ 424 NONAME ; class std::basic_string<char, class std::char_traits<char>, class std::allocator<char> > std::messages<char>::do_get(int, int, int, class std::basic_string<char, class std::char_traits<char>, class std::allocator<char> > const &) const
	?do_get@?$messages@_W@std@@MBE?AV?$basic_string@_WV?$char_traits@_W@std@@V?$allocator@_W@2@@2@HHHABV32@@Z @ 425 NONAME ; class std::basic_string<wchar_t, class std::char_traits<wchar_t>, class std::allocator<wchar_t> > std::messages<wchar_t>::do_get(int, int, int, class std::basic_string<wchar_t, class std::char_traits<wchar_t>, class std::allocator<wchar_t> > const &) const
	?do_grouping@?$moneypunct@D$00@std@@MBE?AV?$basic_string@DV?$char_traits@D@std@@V?$allocator@D@2@@2@XZ @ 426 NONAME ; class std::basic_string<char, class std::char_traits<char>, class std::allocator<char> > std::moneypunct<char, 1>::do_grouping(void) const
	?do_grouping@?$moneypunct@D$0A@@std@@MBE?AV?$basic_string@DV?$char_traits@D@std@@V?$allocator@D@2@@2@XZ @ 427 NONAME ; class std::basic_string<char, class std::char_traits<char>, class std::allocator<char> > std::moneypunct<char, 0>::do_grouping(void) const
	?do_grouping@?$moneypunct@_W$00@std@@MBE?AV?$basic_string@DV?$char_traits@D@std@@V?$allocator@D@2@@2@XZ @ 428 NONAME ; class std::basic_string<char, class std::char_traits<char>, class std::allocator<char> > std::moneypunct<wchar_t, 1>::do_grouping(void) const
	?do_grouping@?$moneypunct@_W$0A@@std@@MBE?AV?$basic_string@DV?$char_traits@D@std@@V?$allocator@D@2@@2@XZ @ 429 NONAME ; class std::basic_string<char, class std::char_traits<char>, class std::allocator<char> > std::moneypunct<wchar_t, 0>::do_grouping(void) const
	?do_grouping@?$moneypunct_byname@D$00@std@@MBE?AV?$basic_string@DV?$char_traits@D@std@@V?$allocator@D@2@@2@XZ @ 430 NONAME ; class std::basic_string<char, class std::char_traits<char>, class std::allocator<char> > std::moneypunct_byname<char, 1>::do_grouping(void) const
	?do_grouping@?$moneypunct_byname@D$0A@@std@@MBE?AV?$basic_string@DV?$char_traits@D@std@@V?$allocator@D@2@@2@XZ @ 431 NONAME ; class std::basic_string<char, class std::char_traits<char>, class std::allocator<char> > std::moneypunct_byname<char, 0>::do_grouping(void) const
	?do_grouping@?$moneypunct_byname@_W$00@std@@MBE?AV?$basic_string@DV?$char_traits@D@std@@V?$allocator@D@2@@2@XZ @ 432 NONAME ; class std::basic_string<char, class std::char_traits<char>, class std::allocator<char> > std::moneypunct_byname<wchar_t, 1>::do_grouping(void) const
	?do_grouping@?$moneypunct_byname@_W$0A@@std@@MBE?AV?$basic_string@DV?$char_traits@D@std@@V?$allocator@D@2@@2@XZ @ 433 NONAME ; class std::basic_string<char, class std::char_traits<char>, class std::allocator<char> > std::moneypunct_byname<wchar_t, 0>::do_grouping(void) const
	?do_grouping@?$numpunct@D@std@@MBE?AV?$basic_string@DV?$char_traits@D@std@@V?$allocator@D@2@@2@XZ @ 434 NONAME ; class std::basic_string<char, class std::char_traits<char>, class std::allocator<char> > std::numpunct<char>::do_grouping(void) const
	?do_grouping@?$numpunct@_W@std@@MBE?AV?$basic_string@DV?$char_traits@D@std@@V?$allocator@D@2@@2@XZ @ 435 NONAME ; class std::basic_string<char, class std::char_traits<char>, class std::allocator<char> > std::numpunct<wchar_t>::do_grouping(void) const
	?do_grouping@?$numpunct_byname@D@std@@MBE?AV?$basic_string@DV?$char_traits@D@std@@V?$allocator@D@2@@2@XZ @ 436 NONAME ; class std::basic_string<char, class std::char_traits<char>, class std::allocator<char> > std::numpunct_byname<char>::do_grouping(void) const
	?do_grouping@?$numpunct_byname@_W@std@@MBE?AV?$basic_string@DV?$char_traits@D@std@@V?$allocator@D@2@@2@XZ @ 437 NONAME ; class std::basic_string<char, class std::char_traits<char>, class std::allocator<char> > std::numpunct_byname<wchar_t>::do_grouping(void) const
	?do_hash@?$collate@D@std@@MBEJPBD0@Z @ 438 NONAME ; long std::collate<char>::do_hash(char const *, char const *) const
	?do_hash@?$collate@_W@std@@MBEJPB_W0@Z @ 439 NONAME ; long std::collate<wchar_t>::do_hash(wchar_t const *, wchar_t const *) const
	?do_in@?$codecvt@DDU_mb_state_t@@@std@@MBE?AW4result@codecvt_base@2@AAU_mb_state_t@@PBD1AAPBDPAD3AAPAD@Z @ 440 NONAME ; enum std::codecvt_base::result std::codecvt<char, char, struct _mb_state_t>::do_in(struct _mb_state_t &, char const *, char const *, char const * &, char *, char *, char * &) const
	?do_in@?$codecvt@_WDU_mb_state_t@@@std@@MBE?AW4result@codecvt_base@2@AAU_mb_state_t@@PBD1AAPBDPA_W3AAPA_W@Z @ 441 NONAME ; enum std::codecvt_base::result std::codecvt<wchar_t, char, struct _mb_state_t>::do_in(struct _mb_state_t &, char const *, char const *, char const * &, wchar_t *, wchar_t *, wchar_t * &) const
	?do_in@?$codecvt_byname@_WDU_mb_state_t@@@std@@MBE?AW4result@codecvt_base@2@AAU_mb_state_t@@PBD1AAPBDPA_W3AAPA_W@Z @ 442 NONAME ; enum std::codecvt_base::result std::codecvt_byname<wchar_t, char, struct _mb_state_t>::do_in(struct _mb_state_t &, char const *, char const *, char const * &, wchar_t *, wchar_t *, wchar_t * &) const
	?do_is@?$ctype@_W@std@@MBEPB_WPB_W0PAW4mask@ctype_base@2@@Z @ 443 NONAME ; wchar_t const * std::ctype<wchar_t>::do_is(wchar_t const *, wchar_t const *, enum std::ctype_base::mask *) const
	?do_is@?$ctype@_W@std@@MBE_NW4mask@ctype_base@2@_W@Z @ 444 NONAME ; bool std::ctype<wchar_t>::do_is(enum std::ctype_base::mask, wchar_t) const
	?do_is@?$ctype_byname@_W@std@@MBEPB_WPB_W0PAW4mask@ctype_base@2@@Z @ 445 NONAME ; wchar_t const * std::ctype_byname<wchar_t>::do_is(wchar_t const *, wchar_t const *, enum std::ctype_base::mask *) const
	?do_is@?$ctype_byname@_W@std@@MBE_NW4mask@ctype_base@2@_W@Z @ 446 NONAME ; bool std::ctype_byname<wchar_t>::do_is(enum std::ctype_base::mask, wchar_t) const
	?do_length@?$codecvt@DDU_mb_state_t@@@std@@MBEHABU_mb_state_t@@PBD1I@Z @ 447 NONAME ; int std::codecvt<char, char, struct _mb_state_t>::do_length(struct _mb_state_t const &, char const *, char const *, unsigned int) const
	?do_length@?$codecvt@_WDU_mb_state_t@@@std@@MBEHABU_mb_state_t@@PBD1I@Z @ 448 NONAME ; int std::codecvt<wchar_t, char, struct _mb_state_t>::do_length(struct _mb_state_t const &, char const *, char const *, unsigned int) const
	?do_length@?$codecvt_byname@_WDU_mb_state_t@@@std@@MBEHABU_mb_state_t@@PBD1I@Z @ 449 NONAME ; int std::codecvt_byname<wchar_t, char, struct _mb_state_t>::do_length(struct _mb_state_t const &, char const *, char const *, unsigned int) const
	?do_max_length@?$codecvt@DDU_mb_state_t@@@std@@MBEHXZ @ 450 NONAME ; int std::codecvt<char, char, struct _mb_state_t>::do_max_length(void) const
	?do_max_length@?$codecvt@_WDU_mb_state_t@@@std@@MBEHXZ @ 451 NONAME ; int std::codecvt<wchar_t, char, struct _mb_state_t>::do_max_length(void) const
	?do_max_length@?$codecvt_byname@_WDU_mb_state_t@@@std@@MBEHXZ @ 452 NONAME ; int std::codecvt_byname<wchar_t, char, struct _mb_state_t>::do_max_length(void) const
	?do_narrow@?$ctype@D@std@@MBEDDD@Z @ 453 NONAME ; char std::ctype<char>::do_narrow(char, char) const
	?do_narrow@?$ctype@D@std@@MBEPBDPBD0DPAD@Z @ 454 NONAME ; char const * std::ctype<char>::do_narrow(char const *, char const *, char, char *) const
	?do_narrow@?$ctype@_W@std@@MBED_WD@Z @ 455 NONAME ; char std::ctype<wchar_t>::do_narrow(wchar_t, char) const
	?do_narrow@?$ctype@_W@std@@MBEPB_WPB_W0DPAD@Z @ 456 NONAME ; wchar_t const * std::ctype<wchar_t>::do_narrow(wchar_t const *, wchar_t const *, char, char *) const
	?do_neg_format@?$moneypunct@D$00@std@@MBE?AUpattern@money_base@2@XZ @ 457 NONAME ; struct std::money_base::pattern std::moneypunct<char, 1>::do_neg_format(void) const
	?do_neg_format@?$moneypunct@D$0A@@std@@MBE?AUpattern@money_base@2@XZ @ 458 NONAME ; struct std::money_base::pattern std::moneypunct<char, 0>::do_neg_format(void) const
	?do_neg_format@?$moneypunct@_W$00@std@@MBE?AUpattern@money_base@2@XZ @ 459 NONAME ; struct std::money_base::pattern std::moneypunct<wchar_t, 1>::do_neg_format(void) const
	?do_neg_format@?$moneypunct@_W$0A@@std@@MBE?AUpattern@money_base@2@XZ @ 460 NONAME ; struct std::money_base::pattern std::moneypunct<wchar_t, 0>::do_neg_format(void) const
	?do_negative_sign@?$moneypunct@D$00@std@@MBE?AV?$basic_string@DV?$char_traits@D@std@@V?$allocator@D@2@@2@XZ @ 461 NONAME ; class std::basic_string<char, class std::char_traits<char>, class std::allocator<char> > std::moneypunct<char, 1>::do_negative_sign(void) const
	?do_negative_sign@?$moneypunct@D$0A@@std@@MBE?AV?$basic_string@DV?$char_traits@D@std@@V?$allocator@D@2@@2@XZ @ 462 NONAME ; class std::basic_string<char, class std::char_traits<char>, class std::allocator<char> > std::moneypunct<char, 0>::do_negative_sign(void) const
	?do_negative_sign@?$moneypunct@_W$00@std@@MBE?AV?$basic_string@_WV?$char_traits@_W@std@@V?$allocator@_W@2@@2@XZ @ 463 NONAME ; class std::basic_string<wchar_t, class std::char_traits<wchar_t>, class std::allocator<wchar_t> > std::moneypunct<wchar_t, 1>::do_negative_sign(void) const
	?do_negative_sign@?$moneypunct@_W$0A@@std@@MBE?AV?$basic_string@_WV?$char_traits@_W@std@@V?$allocator@_W@2@@2@XZ @ 464 NONAME ; class std::basic_string<wchar_t, class std::char_traits<wchar_t>, class std::allocator<wchar_t> > std::moneypunct<wchar_t, 0>::do_negative_sign(void) const
	?do_negative_sign@?$moneypunct_byname@D$00@std@@MBE?AV?$basic_string@DV?$char_traits@D@std@@V?$allocator@D@2@@2@XZ @ 465 NONAME ; class std::basic_string<char, class std::char_traits<char>, class std::allocator<char> > std::moneypunct_byname<char, 1>::do_negative_sign(void) const
	?do_negative_sign@?$moneypunct_byname@D$0A@@std@@MBE?AV?$basic_string@DV?$char_traits@D@std@@V?$allocator@D@2@@2@XZ @ 466 NONAME ; class std::basic_string<char, class std::char_traits<char>, class std::allocator<char> > std::moneypunct_byname<char, 0>::do_negative_sign(void) const
	?do_negative_sign@?$moneypunct_byname@_W$00@std@@MBE?AV?$basic_string@_WV?$char_traits@_W@std@@V?$allocator@_W@2@@2@XZ @ 467 NONAME ; class std::basic_string<wchar_t, class std::char_traits<wchar_t>, class std::allocator<wchar_t> > std::moneypunct_byname<wchar_t, 1>::do_negative_sign(void) const
	?do_negative_sign@?$moneypunct_byname@_W$0A@@std@@MBE?AV?$basic_string@_WV?$char_traits@_W@std@@V?$allocator@_W@2@@2@XZ @ 468 NONAME ; class std::basic_string<wchar_t, class std::char_traits<wchar_t>, class std::allocator<wchar_t> > std::moneypunct_byname<wchar_t, 0>::do_negative_sign(void) const
	?do_open@?$messages@D@std@@MBEHABV?$basic_string@DV?$char_traits@D@std@@V?$allocator@D@2@@2@ABVlocale@2@@Z @ 469 NONAME ; int std::messages<char>::do_open(class std::basic_string<char, class std::char_traits<char>, class std::allocator<char> > const &, class std::locale const &) const
	?do_open@?$messages@_W@std@@MBEHABV?$basic_string@DV?$char_traits@D@std@@V?$allocator@D@2@@2@ABVlocale@2@@Z @ 470 NONAME ; int std::messages<wchar_t>::do_open(class std::basic_string<char, class std::char_traits<char>, class std::allocator<char> > const &, class std::locale const &) const
	?do_open@_Messages@std@@UBEHABV?$basic_string@DV?$char_traits@D@std@@V?$allocator@D@2@@2@ABVlocale@2@@Z @ 471 NONAME ; int std::_Messages::do_open(class std::basic_string<char, class std::char_traits<char>, class std::allocator<char> > const &, class std::locale const &) const
	?do_out@?$codecvt@DDU_mb_state_t@@@std@@MBE?AW4result@codecvt_base@2@AAU_mb_state_t@@PBD1AAPBDPAD3AAPAD@Z @ 472 NONAME ; enum std::codecvt_base::result std::codecvt<char, char, struct _mb_state_t>::do_out(struct _mb_state_t &, char const *, char const *, char const * &, char *, char *, char * &) const
	?do_out@?$codecvt@_WDU_mb_state_t@@@std@@MBE?AW4result@codecvt_base@2@AAU_mb_state_t@@PB_W1AAPB_WPAD3AAPAD@Z @ 473 NONAME ; enum std::codecvt_base::result std::codecvt<wchar_t, char, struct _mb_state_t>::do_out(struct _mb_state_t &, wchar_t const *, wchar_t const *, wchar_t const * &, char *, char *, char * &) const
	?do_out@?$codecvt_byname@_WDU_mb_state_t@@@std@@MBE?AW4result@codecvt_base@2@AAU_mb_state_t@@PB_W1AAPB_WPAD3AAPAD@Z @ 474 NONAME ; enum std::codecvt_base::result std::codecvt_byname<wchar_t, char, struct _mb_state_t>::do_out(struct _mb_state_t &, wchar_t const *, wchar_t const *, wchar_t const * &, char *, char *, char * &) const
	?do_pos_format@?$moneypunct@D$00@std@@MBE?AUpattern@money_base@2@XZ @ 475 NONAME ; struct std::money_base::pattern std::moneypunct<char, 1>::do_pos_format(void) const
	?do_pos_format@?$moneypunct@D$0A@@std@@MBE?AUpattern@money_base@2@XZ @ 476 NONAME ; struct std::money_base::pattern std::moneypunct<char, 0>::do_pos_format(void) const
	?do_pos_format@?$moneypunct@_W$00@std@@MBE?AUpattern@money_base@2@XZ @ 477 NONAME ; struct std::money_base::pattern std::moneypunct<wchar_t, 1>::do_pos_format(void) const
	?do_pos_format@?$moneypunct@_W$0A@@std@@MBE?AUpattern@money_base@2@XZ @ 478 NONAME ; struct std::money_base::pattern std::moneypunct<wchar_t, 0>::do_pos_format(void) const
	?do_positive_sign@?$moneypunct@D$00@std@@MBE?AV?$basic_string@DV?$char_traits@D@std@@V?$allocator@D@2@@2@XZ @ 479 NONAME ; class std::basic_string<char, class std::char_traits<char>, class std::allocator<char> > std::moneypunct<char, 1>::do_positive_sign(void) const
	?do_positive_sign@?$moneypunct@D$0A@@std@@MBE?AV?$basic_string@DV?$char_traits@D@std@@V?$allocator@D@2@@2@XZ @ 480 NONAME ; class std::basic_string<char, class std::char_traits<char>, class std::allocator<char> > std::moneypunct<char, 0>::do_positive_sign(void) const
	?do_positive_sign@?$moneypunct@_W$00@std@@MBE?AV?$basic_string@_WV?$char_traits@_W@std@@V?$allocator@_W@2@@2@XZ @ 481 NONAME ; class std::basic_string<wchar_t, class std::char_traits<wchar_t>, class std::allocator<wchar_t> > std::moneypunct<wchar_t, 1>::do_positive_sign(void) const
	?do_positive_sign@?$moneypunct@_W$0A@@std@@MBE?AV?$basic_string@_WV?$char_traits@_W@std@@V?$allocator@_W@2@@2@XZ @ 482 NONAME ; class std::basic_string<wchar_t, class std::char_traits<wchar_t>, class std::allocator<wchar_t> > std::moneypunct<wchar_t, 0>::do_positive_sign(void) const
	?do_positive_sign@?$moneypunct_byname@D$00@std@@MBE?AV?$basic_string@DV?$char_traits@D@std@@V?$allocator@D@2@@2@XZ @ 483 NONAME ; class std::basic_string<char, class std::char_traits<char>, class std::allocator<char> > std::moneypunct_byname<char, 1>::do_positive_sign(void) const
	?do_positive_sign@?$moneypunct_byname@D$0A@@std@@MBE?AV?$basic_string@DV?$char_traits@D@std@@V?$allocator@D@2@@2@XZ @ 484 NONAME ; class std::basic_string<char, class std::char_traits<char>, class std::allocator<char> > std::moneypunct_byname<char, 0>::do_positive_sign(void) const
	?do_positive_sign@?$moneypunct_byname@_W$00@std@@MBE?AV?$basic_string@_WV?$char_traits@_W@std@@V?$allocator@_W@2@@2@XZ @ 485 NONAME ; class std::basic_string<wchar_t, class std::char_traits<wchar_t>, class std::allocator<wchar_t> > std::moneypunct_byname<wchar_t, 1>::do_positive_sign(void) const
	?do_positive_sign@?$moneypunct_byname@_W$0A@@std@@MBE?AV?$basic_string@_WV?$char_traits@_W@std@@V?$allocator@_W@2@@2@XZ @ 486 NONAME ; class std::basic_string<wchar_t, class std::char_traits<wchar_t>, class std::allocator<wchar_t> > std::moneypunct_byname<wchar_t, 0>::do_positive_sign(void) const
	?do_scan_is@?$ctype@_W@std@@MBEPB_WW4mask@ctype_base@2@PB_W1@Z @ 487 NONAME ; wchar_t const * std::ctype<wchar_t>::do_scan_is(enum std::ctype_base::mask, wchar_t const *, wchar_t const *) const
	?do_scan_is@?$ctype_byname@_W@std@@MBEPB_WW4mask@ctype_base@2@PB_W1@Z @ 488 NONAME ; wchar_t const * std::ctype_byname<wchar_t>::do_scan_is(enum std::ctype_base::mask, wchar_t const *, wchar_t const *) const
	?do_scan_not@?$ctype@_W@std@@MBEPB_WW4mask@ctype_base@2@PB_W1@Z @ 489 NONAME ; wchar_t const * std::ctype<wchar_t>::do_scan_not(enum std::ctype_base::mask, wchar_t const *, wchar_t const *) const
	?do_scan_not@?$ctype_byname@_W@std@@MBEPB_WW4mask@ctype_base@2@PB_W1@Z @ 490 NONAME ; wchar_t const * std::ctype_byname<wchar_t>::do_scan_not(enum std::ctype_base::mask, wchar_t const *, wchar_t const *) const
	?do_thousands_sep@?$moneypunct@D$00@std@@MBEDXZ @ 491 NONAME ; char std::moneypunct<char, 1>::do_thousands_sep(void) const
	?do_thousands_sep@?$moneypunct@D$0A@@std@@MBEDXZ @ 492 NONAME ; char std::moneypunct<char, 0>::do_thousands_sep(void) const
	?do_thousands_sep@?$moneypunct@_W$00@std@@MBE_WXZ @ 493 NONAME ; wchar_t std::moneypunct<wchar_t, 1>::do_thousands_sep(void) const
	?do_thousands_sep@?$moneypunct@_W$0A@@std@@MBE_WXZ @ 494 NONAME ; wchar_t std::moneypunct<wchar_t, 0>::do_thousands_sep(void) const
	?do_thousands_sep@?$moneypunct_byname@D$00@std@@MBEDXZ @ 495 NONAME ; char std::moneypunct_byname<char, 1>::do_thousands_sep(void) const
	?do_thousands_sep@?$moneypunct_byname@D$0A@@std@@MBEDXZ @ 496 NONAME ; char std::moneypunct_byname<char, 0>::do_thousands_sep(void) const
	?do_thousands_sep@?$moneypunct_byname@_W$00@std@@MBE_WXZ @ 497 NONAME ; wchar_t std::moneypunct_byname<wchar_t, 1>::do_thousands_sep(void) const
	?do_thousands_sep@?$moneypunct_byname@_W$0A@@std@@MBE_WXZ @ 498 NONAME ; wchar_t std::moneypunct_byname<wchar_t, 0>::do_thousands_sep(void) const
	?do_thousands_sep@?$numpunct@D@std@@MBEDXZ @ 499 NONAME ; char std::numpunct<char>::do_thousands_sep(void) const
	?do_thousands_sep@?$numpunct@_W@std@@MBE_WXZ @ 500 NONAME ; wchar_t std::numpunct<wchar_t>::do_thousands_sep(void) const
	?do_thousands_sep@?$numpunct_byname@D@std@@MBEDXZ @ 501 NONAME ; char std::numpunct_byname<char>::do_thousands_sep(void) const
	?do_thousands_sep@?$numpunct_byname@_W@std@@MBE_WXZ @ 502 NONAME ; wchar_t std::numpunct_byname<wchar_t>::do_thousands_sep(void) const
	?do_tolower@?$ctype@D@std@@MBEDD@Z @ 503 NONAME ; char std::ctype<char>::do_tolower(char) const
	?do_tolower@?$ctype@D@std@@MBEPBDPADPBD@Z @ 504 NONAME ; char const * std::ctype<char>::do_tolower(char *, char const *) const
	?do_tolower@?$ctype@_W@std@@MBEPB_WPA_WPB_W@Z @ 505 NONAME ; wchar_t const * std::ctype<wchar_t>::do_tolower(wchar_t *, wchar_t const *) const
	?do_tolower@?$ctype@_W@std@@MBE_W_W@Z @ 506 NONAME ; wchar_t std::ctype<wchar_t>::do_tolower(wchar_t) const
	?do_tolower@?$ctype_byname@D@std@@UBEDD@Z @ 507 NONAME ; char std::ctype_byname<char>::do_tolower(char) const
	?do_tolower@?$ctype_byname@D@std@@UBEPBDPADPBD@Z @ 508 NONAME ; char const * std::ctype_byname<char>::do_tolower(char *, char const *) const
	?do_tolower@?$ctype_byname@_W@std@@MBEPB_WPA_WPB_W@Z @ 509 NONAME ; wchar_t const * std::ctype_byname<wchar_t>::do_tolower(wchar_t *, wchar_t const *) const
	?do_tolower@?$ctype_byname@_W@std@@MBE_W_W@Z @ 510 NONAME ; wchar_t std::ctype_byname<wchar_t>::do_tolower(wchar_t) const
	?do_toupper@?$ctype@D@std@@MBEDD@Z @ 511 NONAME ; char std::ctype<char>::do_toupper(char) const
	?do_toupper@?$ctype@D@std@@MBEPBDPADPBD@Z @ 512 NONAME ; char const * std::ctype<char>::do_toupper(char *, char const *) const
	?do_toupper@?$ctype@_W@std@@MBEPB_WPA_WPB_W@Z @ 513 NONAME ; wchar_t const * std::ctype<wchar_t>::do_toupper(wchar_t *, wchar_t const *) const
	?do_toupper@?$ctype@_W@std@@MBE_W_W@Z @ 514 NONAME ; wchar_t std::ctype<wchar_t>::do_toupper(wchar_t) const
	?do_toupper@?$ctype_byname@D@std@@UBEDD@Z @ 515 NONAME ; char std::ctype_byname<char>::do_toupper(char) const
	?do_toupper@?$ctype_byname@D@std@@UBEPBDPADPBD@Z @ 516 NONAME ; char const * std::ctype_byname<char>::do_toupper(char *, char const *) const
	?do_toupper@?$ctype_byname@_W@std@@MBEPB_WPA_WPB_W@Z @ 517 NONAME ; wchar_t const * std::ctype_byname<wchar_t>::do_toupper(wchar_t *, wchar_t const *) const
	?do_toupper@?$ctype_byname@_W@std@@MBE_W_W@Z @ 518 NONAME ; wchar_t std::ctype_byname<wchar_t>::do_toupper(wchar_t) const
	?do_transform@?$collate@D@std@@MBE?AV?$basic_string@DV?$char_traits@D@std@@V?$allocator@D@2@@2@PBD0@Z @ 519 NONAME ; class std::basic_string<char, class std::char_traits<char>, class std::allocator<char> > std::collate<char>::do_transform(char const *, char const *) const
	?do_transform@?$collate@_W@std@@MBE?AV?$basic_string@_WV?$char_traits@_W@std@@V?$allocator@_W@2@@2@PB_W0@Z @ 520 NONAME ; class std::basic_string<wchar_t, class std::char_traits<wchar_t>, class std::allocator<wchar_t> > std::collate<wchar_t>::do_transform(wchar_t const *, wchar_t const *) const
	?do_transform@?$collate_byname@D@std@@MBE?AV?$basic_string@DV?$char_traits@D@std@@V?$allocator@D@2@@2@PBD0@Z @ 521 NONAME ; class std::basic_string<char, class std::char_traits<char>, class std::allocator<char> > std::collate_byname<char>::do_transform(char const *, char const *) const
	?do_transform@?$collate_byname@_W@std@@MBE?AV?$basic_string@_WV?$char_traits@_W@std@@V?$allocator@_W@2@@2@PB_W0@Z @ 522 NONAME ; class std::basic_string<wchar_t, class std::char_traits<wchar_t>, class std::allocator<wchar_t> > std::collate_byname<wchar_t>::do_transform(wchar_t const *, wchar_t const *) const
	?do_truename@?$numpunct@D@std@@MBE?AV?$basic_string@DV?$char_traits@D@std@@V?$allocator@D@2@@2@XZ @ 523 NONAME ; class std::basic_string<char, class std::char_traits<char>, class std::allocator<char> > std::numpunct<char>::do_truename(void) const
	?do_truename@?$numpunct@_W@std@@MBE?AV?$basic_string@_WV?$char_traits@_W@std@@V?$allocator@_W@2@@2@XZ @ 524 NONAME ; class std::basic_string<wchar_t, class std::char_traits<wchar_t>, class std::allocator<wchar_t> > std::numpunct<wchar_t>::do_truename(void) const
	?do_unshift@?$codecvt@DDU_mb_state_t@@@std@@MBE?AW4result@codecvt_base@2@AAU_mb_state_t@@PAD1AAPAD@Z @ 525 NONAME ; enum std::codecvt_base::result std::codecvt<char, char, struct _mb_state_t>::do_unshift(struct _mb_state_t &, char *, char *, char * &) const
	?do_unshift@?$codecvt@_WDU_mb_state_t@@@std@@MBE?AW4result@codecvt_base@2@AAU_mb_state_t@@PAD1AAPAD@Z @ 526 NONAME ; enum std::codecvt_base::result std::codecvt<wchar_t, char, struct _mb_state_t>::do_unshift(struct _mb_state_t &, char *, char *, char * &) const
	?do_unshift@?$codecvt_byname@_WDU_mb_state_t@@@std@@MBE?AW4result@codecvt_base@2@AAU_mb_state_t@@PAD1AAPAD@Z @ 527 NONAME ; enum std::codecvt_base::result std::codecvt_byname<wchar_t, char, struct _mb_state_t>::do_unshift(struct _mb_state_t &, char *, char *, char * &) const
	?do_widen@?$ctype@D@std@@MBEDD@Z @ 528 NONAME ; char std::ctype<char>::do_widen(char) const
	?do_widen@?$ctype@D@std@@MBEPBDPBD0PAD@Z @ 529 NONAME ; char const * std::ctype<char>::do_widen(char const *, char const *, char *) const
	?do_widen@?$ctype@_W@std@@MBEPBDPBD0PA_W@Z @ 530 NONAME ; char const * std::ctype<wchar_t>::do_widen(char const *, char const *, wchar_t *) const
	?do_widen@?$ctype@_W@std@@MBE_WD@Z @ 531 NONAME ; wchar_t std::ctype<wchar_t>::do_widen(char) const
	?exp@std@@YA?AU?$complex@M@1@ABU21@@Z @ 532 NONAME ; struct std::complex<float> std::exp(struct std::complex<float> const &)
	?exp@std@@YA?AU?$complex@N@1@ABU21@@Z @ 533 NONAME ; struct std::complex<double> std::exp(struct std::complex<double> const &)
	?find@?$basic_string@DV?$char_traits@D@std@@V?$allocator@D@2@@std@@QBEIDI@Z @ 534 NONAME ; unsigned int std::basic_string<char, class std::char_traits<char>, class std::allocator<char> >::find(char, unsigned int) const
	?find@?$basic_string@DV?$char_traits@D@std@@V?$allocator@D@2@@std@@QBEIPBDII@Z @ 535 NONAME ; unsigned int std::basic_string<char, class std::char_traits<char>, class std::allocator<char> >::find(char const *, unsigned int, unsigned int) const
	?find@?$basic_string@_WV?$char_traits@_W@std@@V?$allocator@_W@2@@std@@QBEIPB_WII@Z @ 536 NONAME ; unsigned int std::basic_string<wchar_t, class std::char_traits<wchar_t>, class std::allocator<wchar_t> >::find(wchar_t const *, unsigned int, unsigned int) const
	?find@?$basic_string@_WV?$char_traits@_W@std@@V?$allocator@_W@2@@std@@QBEI_WI@Z @ 537 NONAME ; unsigned int std::basic_string<wchar_t, class std::char_traits<wchar_t>, class std::allocator<wchar_t> >::find(wchar_t, unsigned int) const
	?find_first_not_of@?$basic_string@DV?$char_traits@D@std@@V?$allocator@D@2@@std@@QBEIDI@Z @ 538 NONAME ; unsigned int std::basic_string<char, class std::char_traits<char>, class std::allocator<char> >::find_first_not_of(char, unsigned int) const
	?find_first_not_of@?$basic_string@DV?$char_traits@D@std@@V?$allocator@D@2@@std@@QBEIPBDII@Z @ 539 NONAME ; unsigned int std::basic_string<char, class std::char_traits<char>, class std::allocator<char> >::find_first_not_of(char const *, unsigned int, unsigned int) const
	?find_first_not_of@?$basic_string@_WV?$char_traits@_W@std@@V?$allocator@_W@2@@std@@QBEIPB_WII@Z @ 540 NONAME ; unsigned int std::basic_string<wchar_t, class std::char_traits<wchar_t>, class std::allocator<wchar_t> >::find_first_not_of(wchar_t const *, unsigned int, unsigned int) const
	?find_first_not_of@?$basic_string@_WV?$char_traits@_W@std@@V?$allocator@_W@2@@std@@QBEI_WI@Z @ 541 NONAME ; unsigned int std::basic_string<wchar_t, class std::char_traits<wchar_t>, class std::allocator<wchar_t> >::find_first_not_of(wchar_t, unsigned int) const
	?find_first_of@?$basic_string@DV?$char_traits@D@std@@V?$allocator@D@2@@std@@QBEIPBDII@Z @ 542 NONAME ; unsigned int std::basic_string<char, class std::char_traits<char>, class std::allocator<char> >::find_first_of(char const *, unsigned int, unsigned int) const
	?find_first_of@?$basic_string@_WV?$char_traits@_W@std@@V?$allocator@_W@2@@std@@QBEIPB_WII@Z @ 543 NONAME ; unsigned int std::basic_string<wchar_t, class std::char_traits<wchar_t>, class std::allocator<wchar_t> >::find_first_of(wchar_t const *, unsigned int, unsigned int) const
	?find_last_not_of@?$basic_string@DV?$char_traits@D@std@@V?$allocator@D@2@@std@@QBEIDI@Z @ 544 NONAME ; unsigned int std::basic_string<char, class std::char_traits<char>, class std::allocator<char> >::find_last_not_of(char, unsigned int) const
	?find_last_not_of@?$basic_string@DV?$char_traits@D@std@@V?$allocator@D@2@@std@@QBEIPBDII@Z @ 545 NONAME ; unsigned int std::basic_string<char, class std::char_traits<char>, class std::allocator<char> >::find_last_not_of(char const *, unsigned int, unsigned int) const
	?find_last_not_of@?$basic_string@_WV?$char_traits@_W@std@@V?$allocator@_W@2@@std@@QBEIPB_WII@Z @ 546 NONAME ; unsigned int std::basic_string<wchar_t, class std::char_traits<wchar_t>, class std::allocator<wchar_t> >::find_last_not_of(wchar_t const *, unsigned int, unsigned int) const
	?find_last_not_of@?$basic_string@_WV?$char_traits@_W@std@@V?$allocator@_W@2@@std@@QBEI_WI@Z @ 547 NONAME ; unsigned int std::basic_string<wchar_t, class std::char_traits<wchar_t>, class std::allocator<wchar_t> >::find_last_not_of(wchar_t, unsigned int) const
	?find_last_of@?$basic_string@DV?$char_traits@D@std@@V?$allocator@D@2@@std@@QBEIPBDII@Z @ 548 NONAME ; unsigned int std::basic_string<char, class std::char_traits<char>, class std::allocator<char> >::find_last_of(char const *, unsigned int, unsigned int) const
	?find_last_of@?$basic_string@_WV?$char_traits@_W@std@@V?$allocator@_W@2@@std@@QBEIPB_WII@Z @ 549 NONAME ; unsigned int std::basic_string<wchar_t, class std::char_traits<wchar_t>, class std::allocator<wchar_t> >::find_last_of(wchar_t const *, unsigned int, unsigned int) const
	?freeze@ostrstream@std@@QAEX_N@Z @ 550 NONAME ; void std::ostrstream::freeze(bool)
	?freeze@strstream@std@@QAEX_N@Z @ 551 NONAME ; void std::strstream::freeze(bool)
	?freeze@strstreambuf@std@@QAEX_N@Z @ 552 NONAME ; void std::strstreambuf::freeze(bool)
	?get_fstream_Filebuf_Base_GetPageSize@std@@YAAAIXZ @ 553 NONAME ; unsigned int & std::get_fstream_Filebuf_Base_GetPageSize(void)
	?get_hex_char_table_hi@std@@YAPBDXZ @ 554 NONAME ; char const * std::get_hex_char_table_hi(void)
	?get_hex_char_table_lo@std@@YAPBDXZ @ 555 NONAME ; char const * std::get_hex_char_table_lo(void)
	?get_locale_id_S_max@std@@YAAAIXZ @ 556 NONAME ; unsigned int & std::get_locale_id_S_max(void)
	?getloc@ios_base@std@@QBE?AVlocale@2@XZ @ 557 NONAME ; class std::locale std::ios_base::getloc(void) const
	?global@locale@std@@SA?AV12@ABV12@@Z @ 558 NONAME ; class std::locale std::locale::global(class std::locale const &)
	?imbue@?$basic_streambuf@DV?$char_traits@D@std@@@std@@MAEXABVlocale@2@@Z @ 559 NONAME ; void std::basic_streambuf<char, class std::char_traits<char> >::imbue(class std::locale const &)
	?imbue@?$basic_streambuf@_WV?$char_traits@_W@std@@@std@@MAEXABVlocale@2@@Z @ 560 NONAME ; void std::basic_streambuf<wchar_t, class std::char_traits<wchar_t> >::imbue(class std::locale const &)
	?imbue@ios_base@std@@QAE?AVlocale@2@ABV32@@Z @ 561 NONAME ; class std::locale std::ios_base::imbue(class std::locale const &)
	?insert@?$basic_string@DV?$char_traits@D@std@@V?$allocator@D@2@@std@@QAEXPADID@Z @ 562 NONAME ; void std::basic_string<char, class std::char_traits<char>, class std::allocator<char> >::insert(char *, unsigned int, char)
	?insert@?$basic_string@_WV?$char_traits@_W@std@@V?$allocator@_W@2@@std@@QAEXPA_WI_W@Z @ 563 NONAME ; void std::basic_string<wchar_t, class std::char_traits<wchar_t>, class std::allocator<wchar_t> >::insert(wchar_t *, unsigned int, wchar_t)
	?iword@ios_base@std@@QAEAAJH@Z @ 564 NONAME ; long & std::ios_base::iword(int)
	?log10@std@@YA?AU?$complex@M@1@ABU21@@Z @ 565 NONAME ; struct std::complex<float> std::log10(struct std::complex<float> const &)
	?log10@std@@YA?AU?$complex@N@1@ABU21@@Z @ 566 NONAME ; struct std::complex<double> std::log10(struct std::complex<double> const &)
	?log@std@@YA?AU?$complex@M@1@ABU21@@Z @ 567 NONAME ; struct std::complex<float> std::log(struct std::complex<float> const &)
	?log@std@@YA?AU?$complex@N@1@ABU21@@Z @ 568 NONAME ; struct std::complex<double> std::log(struct std::complex<double> const &)
	?name@locale@std@@QBE?AV?$basic_string@DV?$char_traits@D@std@@V?$allocator@D@2@@2@XZ @ 569 NONAME ; class std::basic_string<char, class std::char_traits<char>, class std::allocator<char> > std::locale::name(void) const
	?overflow@?$basic_streambuf@DV?$char_traits@D@std@@@std@@MAEHH@Z @ 570 NONAME ; int std::basic_streambuf<char, class std::char_traits<char> >::overflow(int)
	?overflow@?$basic_streambuf@_WV?$char_traits@_W@std@@@std@@MAEHH@Z @ 571 NONAME ; int std::basic_streambuf<wchar_t, class std::char_traits<wchar_t> >::overflow(int)
	?overflow@?$basic_stringbuf@DV?$char_traits@D@std@@V?$allocator@D@2@@std@@MAEHH@Z @ 572 NONAME ; int std::basic_stringbuf<char, class std::char_traits<char>, class std::allocator<char> >::overflow(int)
	?overflow@?$basic_stringbuf@_WV?$char_traits@_W@std@@V?$allocator@_W@2@@std@@MAEHH@Z @ 573 NONAME ; int std::basic_stringbuf<wchar_t, class std::char_traits<wchar_t>, class std::allocator<wchar_t> >::overflow(int)
	?overflow@strstreambuf@std@@MAEHH@Z @ 574 NONAME ; int std::strstreambuf::overflow(int)
	?pbackfail@?$basic_streambuf@DV?$char_traits@D@std@@@std@@MAEHH@Z @ 575 NONAME ; int std::basic_streambuf<char, class std::char_traits<char> >::pbackfail(int)
	?pbackfail@?$basic_streambuf@_WV?$char_traits@_W@std@@@std@@MAEHH@Z @ 576 NONAME ; int std::basic_streambuf<wchar_t, class std::char_traits<wchar_t> >::pbackfail(int)
	?pbackfail@?$basic_stringbuf@DV?$char_traits@D@std@@V?$allocator@D@2@@std@@MAEHH@Z @ 577 NONAME ; int std::basic_stringbuf<char, class std::char_traits<char>, class std::allocator<char> >::pbackfail(int)
	?pbackfail@?$basic_stringbuf@_WV?$char_traits@_W@std@@V?$allocator@_W@2@@std@@MAEHH@Z @ 578 NONAME ; int std::basic_stringbuf<wchar_t, class std::char_traits<wchar_t>, class std::allocator<wchar_t> >::pbackfail(int)
	?pbackfail@strstreambuf@std@@MAEHH@Z @ 579 NONAME ; int std::strstreambuf::pbackfail(int)
	?pcount@ostrstream@std@@QBEHXZ @ 580 NONAME ; int std::ostrstream::pcount(void) const
	?pcount@strstream@std@@QBEHXZ @ 581 NONAME ; int std::strstream::pcount(void) const
	?pcount@strstreambuf@std@@QBEHXZ @ 582 NONAME ; int std::strstreambuf::pcount(void) const
	?polar_tp@?$@M@std@@YA?AU?$complex@M@1@ABM0@Z @ 583 NONAME ; struct std::complex<float> std::polar_tp<float>(float const &, float const &)
	?polar_tp@?$@N@std@@YA?AU?$complex@N@1@ABN0@Z @ 584 NONAME ; struct std::complex<double> std::polar_tp<double>(double const &, double const &)
	?pow@std@@YA?AU?$complex@M@1@ABMABU21@@Z @ 585 NONAME ; struct std::complex<float> std::pow(float const &, struct std::complex<float> const &)
	?pow@std@@YA?AU?$complex@M@1@ABU21@0@Z @ 586 NONAME ; struct std::complex<float> std::pow(struct std::complex<float> const &, struct std::complex<float> const &)
	?pow@std@@YA?AU?$complex@M@1@ABU21@ABM@Z @ 587 NONAME ; struct std::complex<float> std::pow(struct std::complex<float> const &, float const &)
	?pow@std@@YA?AU?$complex@M@1@ABU21@H@Z @ 588 NONAME ; struct std::complex<float> std::pow(struct std::complex<float> const &, int)
	?pow@std@@YA?AU?$complex@N@1@ABNABU21@@Z @ 589 NONAME ; struct std::complex<double> std::pow(double const &, struct std::complex<double> const &)
	?pow@std@@YA?AU?$complex@N@1@ABU21@0@Z @ 590 NONAME ; struct std::complex<double> std::pow(struct std::complex<double> const &, struct std::complex<double> const &)
	?pow@std@@YA?AU?$complex@N@1@ABU21@ABN@Z @ 591 NONAME ; struct std::complex<double> std::pow(struct std::complex<double> const &, double const &)
	?pow@std@@YA?AU?$complex@N@1@ABU21@H@Z @ 592 NONAME ; struct std::complex<double> std::pow(struct std::complex<double> const &, int)
	?pow@std@@YA?AU?$complex@O@1@ABOABU21@@Z @ 593 NONAME ; struct std::complex<long double> std::pow(long double const &, struct std::complex<long double> const &)
	?pow@std@@YA?AU?$complex@O@1@ABU21@0@Z @ 594 NONAME ; struct std::complex<long double> std::pow(struct std::complex<long double> const &, struct std::complex<long double> const &)
	?pow@std@@YA?AU?$complex@O@1@ABU21@ABO@Z @ 595 NONAME ; struct std::complex<long double> std::pow(struct std::complex<long double> const &, long double const &)
	?pow@std@@YA?AU?$complex@O@1@ABU21@H@Z @ 596 NONAME ; struct std::complex<long double> std::pow(struct std::complex<long double> const &, int)
	?pubimbue@?$basic_streambuf@DV?$char_traits@D@std@@@std@@QAE?AVlocale@2@ABV32@@Z @ 597 NONAME ; class std::locale std::basic_streambuf<char, class std::char_traits<char> >::pubimbue(class std::locale const &)
	?pubimbue@?$basic_streambuf@_WV?$char_traits@_W@std@@@std@@QAE?AVlocale@2@ABV32@@Z @ 598 NONAME ; class std::locale std::basic_streambuf<wchar_t, class std::char_traits<wchar_t> >::pubimbue(class std::locale const &)
	?put@?$basic_ostream@DV?$char_traits@D@std@@@std@@QAEAAV12@D@Z @ 599 NONAME ; class std::basic_ostream<char, class std::char_traits<char> > & std::basic_ostream<char, class std::char_traits<char> >::put(char)
	?put@?$basic_ostream@_WV?$char_traits@_W@std@@@std@@QAEAAV12@_W@Z @ 600 NONAME ; class std::basic_ostream<wchar_t, class std::char_traits<wchar_t> > & std::basic_ostream<wchar_t, class std::char_traits<wchar_t> >::put(wchar_t)
	?pword@ios_base@std@@QAEAAPAXH@Z @ 601 NONAME ; void * & std::ios_base::pword(int)
	?rdbuf@istrstream@std@@QBEPAVstrstreambuf@2@XZ @ 602 NONAME ; class std::strstreambuf * std::istrstream::rdbuf(void) const
	?rdbuf@ostrstream@std@@QBEPAVstrstreambuf@2@XZ @ 603 NONAME ; class std::strstreambuf * std::ostrstream::rdbuf(void) const
	?rdbuf@strstream@std@@QBEPAVstrstreambuf@2@XZ @ 604 NONAME ; class std::strstreambuf * std::strstream::rdbuf(void) const
	?register_callback@ios_base@std@@QAEXP6AXW4event@12@AAV12@H@ZH@Z @ 605 NONAME ; void std::ios_base::register_callback(void (*)(enum std::ios_base::event, class std::ios_base &, int), int)
	?replace@?$basic_string@DV?$char_traits@D@std@@V?$allocator@D@2@@std@@QAEAAV12@PAD0ID@Z @ 606 NONAME ; class std::basic_string<char, class std::char_traits<char>, class std::allocator<char> > & std::basic_string<char, class std::char_traits<char>, class std::allocator<char> >::replace(char *, char *, unsigned int, char)
	?replace@?$basic_string@_WV?$char_traits@_W@std@@V?$allocator@_W@2@@std@@QAEAAV12@PA_W0I_W@Z @ 607 NONAME ; class std::basic_string<wchar_t, class std::char_traits<wchar_t>, class std::allocator<wchar_t> > & std::basic_string<wchar_t, class std::char_traits<wchar_t>, class std::allocator<wchar_t> >::replace(wchar_t *, wchar_t *, unsigned int, wchar_t)
	?reserve@?$basic_string@DV?$char_traits@D@std@@V?$allocator@D@2@@std@@QAEXI@Z @ 608 NONAME ; void std::basic_string<char, class std::char_traits<char>, class std::allocator<char> >::reserve(unsigned int)
	?reserve@?$basic_string@_WV?$char_traits@_W@std@@V?$allocator@_W@2@@std@@QAEXI@Z @ 609 NONAME ; void std::basic_string<wchar_t, class std::char_traits<wchar_t>, class std::allocator<wchar_t> >::reserve(unsigned int)
	?rfind@?$basic_string@DV?$char_traits@D@std@@V?$allocator@D@2@@std@@QBEIDI@Z @ 610 NONAME ; unsigned int std::basic_string<char, class std::char_traits<char>, class std::allocator<char> >::rfind(char, unsigned int) const
	?rfind@?$basic_string@DV?$char_traits@D@std@@V?$allocator@D@2@@std@@QBEIPBDII@Z @ 611 NONAME ; unsigned int std::basic_string<char, class std::char_traits<char>, class std::allocator<char> >::rfind(char const *, unsigned int, unsigned int) const
	?rfind@?$basic_string@_WV?$char_traits@_W@std@@V?$allocator@_W@2@@std@@QBEIPB_WII@Z @ 612 NONAME ; unsigned int std::basic_string<wchar_t, class std::char_traits<wchar_t>, class std::allocator<wchar_t> >::rfind(wchar_t const *, unsigned int, unsigned int) const
	?rfind@?$basic_string@_WV?$char_traits@_W@std@@V?$allocator@_W@2@@std@@QBEI_WI@Z @ 613 NONAME ; unsigned int std::basic_string<wchar_t, class std::char_traits<wchar_t>, class std::allocator<wchar_t> >::rfind(wchar_t, unsigned int) const
	?scan_is@?$ctype@D@std@@QBEPBDW4mask@ctype_base@2@PBD1@Z @ 614 NONAME ; char const * std::ctype<char>::scan_is(enum std::ctype_base::mask, char const *, char const *) const
	?scan_not@?$ctype@D@std@@QBEPBDW4mask@ctype_base@2@PBD1@Z @ 615 NONAME ; char const * std::ctype<char>::scan_not(enum std::ctype_base::mask, char const *, char const *) const
	?seekoff@?$basic_streambuf@DV?$char_traits@D@std@@@std@@MAE?AV?$fpos@U_mb_state_t@@@2@JHH@Z @ 616 NONAME ; class std::fpos<struct _mb_state_t> std::basic_streambuf<char, class std::char_traits<char> >::seekoff(long, int, int)
	?seekoff@?$basic_streambuf@_WV?$char_traits@_W@std@@@std@@MAE?AV?$fpos@U_mb_state_t@@@2@JHH@Z @ 617 NONAME ; class std::fpos<struct _mb_state_t> std::basic_streambuf<wchar_t, class std::char_traits<wchar_t> >::seekoff(long, int, int)
	?seekoff@?$basic_stringbuf@DV?$char_traits@D@std@@V?$allocator@D@2@@std@@MAE?AV?$fpos@U_mb_state_t@@@2@JHH@Z @ 618 NONAME ; class std::fpos<struct _mb_state_t> std::basic_stringbuf<char, class std::char_traits<char>, class std::allocator<char> >::seekoff(long, int, int)
	?seekoff@?$basic_stringbuf@_WV?$char_traits@_W@std@@V?$allocator@_W@2@@std@@MAE?AV?$fpos@U_mb_state_t@@@2@JHH@Z @ 619 NONAME ; class std::fpos<struct _mb_state_t> std::basic_stringbuf<wchar_t, class std::char_traits<wchar_t>, class std::allocator<wchar_t> >::seekoff(long, int, int)
	?seekoff@strstreambuf@std@@MAE?AV?$fpos@U_mb_state_t@@@2@JHH@Z @ 620 NONAME ; class std::fpos<struct _mb_state_t> std::strstreambuf::seekoff(long, int, int)
	?seekpos@?$basic_streambuf@DV?$char_traits@D@std@@@std@@MAE?AV?$fpos@U_mb_state_t@@@2@V32@H@Z @ 621 NONAME ; class std::fpos<struct _mb_state_t> std::basic_streambuf<char, class std::char_traits<char> >::seekpos(class std::fpos<struct _mb_state_t>, int)
	?seekpos@?$basic_streambuf@_WV?$char_traits@_W@std@@@std@@MAE?AV?$fpos@U_mb_state_t@@@2@V32@H@Z @ 622 NONAME ; class std::fpos<struct _mb_state_t> std::basic_streambuf<wchar_t, class std::char_traits<wchar_t> >::seekpos(class std::fpos<struct _mb_state_t>, int)
	?seekpos@?$basic_stringbuf@DV?$char_traits@D@std@@V?$allocator@D@2@@std@@MAE?AV?$fpos@U_mb_state_t@@@2@V32@H@Z @ 623 NONAME ; class std::fpos<struct _mb_state_t> std::basic_stringbuf<char, class std::char_traits<char>, class std::allocator<char> >::seekpos(class std::fpos<struct _mb_state_t>, int)
	?seekpos@?$basic_stringbuf@_WV?$char_traits@_W@std@@V?$allocator@_W@2@@std@@MAE?AV?$fpos@U_mb_state_t@@@2@V32@H@Z @ 624 NONAME ; class std::fpos<struct _mb_state_t> std::basic_stringbuf<wchar_t, class std::char_traits<wchar_t>, class std::allocator<wchar_t> >::seekpos(class std::fpos<struct _mb_state_t>, int)
	?seekpos@strstreambuf@std@@MAE?AV?$fpos@U_mb_state_t@@@2@V32@H@Z @ 625 NONAME ; class std::fpos<struct _mb_state_t> std::strstreambuf::seekpos(class std::fpos<struct _mb_state_t>, int)
	?set_new_handler@std@@YAP6AXXZP6AXXZ@Z @ 626 NONAME ; void (*)(void) std::set_new_handler(void (*)(void))
	?setbuf@?$basic_streambuf@DV?$char_traits@D@std@@@std@@MAEPAV12@PADH@Z @ 627 NONAME ; class std::basic_streambuf<char, class std::char_traits<char> > * std::basic_streambuf<char, class std::char_traits<char> >::setbuf(char *, int)
	?setbuf@?$basic_streambuf@_WV?$char_traits@_W@std@@@std@@MAEPAV12@PA_WH@Z @ 628 NONAME ; class std::basic_streambuf<wchar_t, class std::char_traits<wchar_t> > * std::basic_streambuf<wchar_t, class std::char_traits<wchar_t> >::setbuf(wchar_t *, int)
	?setbuf@?$basic_stringbuf@DV?$char_traits@D@std@@V?$allocator@D@2@@std@@MAEPAV?$basic_streambuf@DV?$char_traits@D@std@@@2@PADH@Z @ 629 NONAME ; class std::basic_streambuf<char, class std::char_traits<char> > * std::basic_stringbuf<char, class std::char_traits<char>, class std::allocator<char> >::setbuf(char *, int)
	?setbuf@?$basic_stringbuf@_WV?$char_traits@_W@std@@V?$allocator@_W@2@@std@@MAEPAV?$basic_streambuf@_WV?$char_traits@_W@std@@@2@PA_WH@Z @ 630 NONAME ; class std::basic_streambuf<wchar_t, class std::char_traits<wchar_t> > * std::basic_stringbuf<wchar_t, class std::char_traits<wchar_t>, class std::allocator<wchar_t> >::setbuf(wchar_t *, int)
	?setbuf@strstreambuf@std@@MAEPAV?$basic_streambuf@DV?$char_traits@D@std@@@2@PADH@Z @ 631 NONAME ; class std::basic_streambuf<char, class std::char_traits<char> > * std::strstreambuf::setbuf(char *, int)
	?showmanyc@?$basic_streambuf@DV?$char_traits@D@std@@@std@@MAEHXZ @ 632 NONAME ; int std::basic_streambuf<char, class std::char_traits<char> >::showmanyc(void)
	?showmanyc@?$basic_streambuf@_WV?$char_traits@_W@std@@@std@@MAEHXZ @ 633 NONAME ; int std::basic_streambuf<wchar_t, class std::char_traits<wchar_t> >::showmanyc(void)
	?showmanyc@stdio_istreambuf@_SgI@@MAEHXZ @ 634 NONAME ; int _SgI::stdio_istreambuf::showmanyc(void)
	?showmanyc@stdio_ostreambuf@_SgI@@MAEHXZ @ 635 NONAME ; int _SgI::stdio_ostreambuf::showmanyc(void)
	?sin@std@@YA?AU?$complex@M@1@ABU21@@Z @ 636 NONAME ; struct std::complex<float> std::sin(struct std::complex<float> const &)
	?sin@std@@YA?AU?$complex@N@1@ABU21@@Z @ 637 NONAME ; struct std::complex<double> std::sin(struct std::complex<double> const &)
	?sinh@std@@YA?AU?$complex@M@1@ABU21@@Z @ 638 NONAME ; struct std::complex<float> std::sinh(struct std::complex<float> const &)
	?sinh@std@@YA?AU?$complex@N@1@ABU21@@Z @ 639 NONAME ; struct std::complex<double> std::sinh(struct std::complex<double> const &)
	?sqrt@std@@YA?AU?$complex@M@1@ABU21@@Z @ 640 NONAME ; struct std::complex<float> std::sqrt(struct std::complex<float> const &)
	?sqrt@std@@YA?AU?$complex@N@1@ABU21@@Z @ 641 NONAME ; struct std::complex<double> std::sqrt(struct std::complex<double> const &)
	?str@?$basic_stringbuf@DV?$char_traits@D@std@@V?$allocator@D@2@@std@@QAEXABV?$basic_string@DV?$char_traits@D@std@@V?$allocator@D@2@@2@@Z @ 642 NONAME ; void std::basic_stringbuf<char, class std::char_traits<char>, class std::allocator<char> >::str(class std::basic_string<char, class std::char_traits<char>, class std::allocator<char> > const &)
	?str@?$basic_stringbuf@_WV?$char_traits@_W@std@@V?$allocator@_W@2@@std@@QAEXABV?$basic_string@_WV?$char_traits@_W@std@@V?$allocator@_W@2@@2@@Z @ 643 NONAME ; void std::basic_stringbuf<wchar_t, class std::char_traits<wchar_t>, class std::allocator<wchar_t> >::str(class std::basic_string<wchar_t, class std::char_traits<wchar_t>, class std::allocator<wchar_t> > const &)
	?str@istrstream@std@@QAEPADXZ @ 644 NONAME ; char * std::istrstream::str(void)
	?str@ostrstream@std@@QAEPADXZ @ 645 NONAME ; char * std::ostrstream::str(void)
	?str@strstream@std@@QAEPADXZ @ 646 NONAME ; char * std::strstream::str(void)
	?str@strstreambuf@std@@QAEPADXZ @ 647 NONAME ; char * std::strstreambuf::str(void)
	?sync@?$basic_streambuf@DV?$char_traits@D@std@@@std@@MAEHXZ @ 648 NONAME ; int std::basic_streambuf<char, class std::char_traits<char> >::sync(void)
	?sync@?$basic_streambuf@_WV?$char_traits@_W@std@@@std@@MAEHXZ @ 649 NONAME ; int std::basic_streambuf<wchar_t, class std::char_traits<wchar_t> >::sync(void)
	?sync_with_stdio@ios_base@std@@SA_N_N@Z @ 650 NONAME ; bool std::ios_base::sync_with_stdio(bool)
	?tan@std@@YA?AU?$complex@M@1@ABU21@@Z @ 651 NONAME ; struct std::complex<float> std::tan(struct std::complex<float> const &)
	?tan@std@@YA?AU?$complex@N@1@ABU21@@Z @ 652 NONAME ; struct std::complex<double> std::tan(struct std::complex<double> const &)
	?tanh@std@@YA?AU?$complex@M@1@ABU21@@Z @ 653 NONAME ; struct std::complex<float> std::tanh(struct std::complex<float> const &)
	?tanh@std@@YA?AU?$complex@N@1@ABU21@@Z @ 654 NONAME ; struct std::complex<double> std::tanh(struct std::complex<double> const &)
	?uflow@?$basic_streambuf@DV?$char_traits@D@std@@@std@@MAEHXZ @ 655 NONAME ; int std::basic_streambuf<char, class std::char_traits<char> >::uflow(void)
	?uflow@?$basic_streambuf@_WV?$char_traits@_W@std@@@std@@MAEHXZ @ 656 NONAME ; int std::basic_streambuf<wchar_t, class std::char_traits<wchar_t> >::uflow(void)
	?uflow@?$basic_stringbuf@DV?$char_traits@D@std@@V?$allocator@D@2@@std@@MAEHXZ @ 657 NONAME ; int std::basic_stringbuf<char, class std::char_traits<char>, class std::allocator<char> >::uflow(void)
	?uflow@?$basic_stringbuf@_WV?$char_traits@_W@std@@V?$allocator@_W@2@@std@@MAEHXZ @ 658 NONAME ; int std::basic_stringbuf<wchar_t, class std::char_traits<wchar_t>, class std::allocator<wchar_t> >::uflow(void)
	?uncaught_exception@std@@YA_NXZ @ 659 NONAME ; bool std::uncaught_exception(void)
	?underflow@?$basic_streambuf@DV?$char_traits@D@std@@@std@@MAEHXZ @ 660 NONAME ; int std::basic_streambuf<char, class std::char_traits<char> >::underflow(void)
	?underflow@?$basic_streambuf@_WV?$char_traits@_W@std@@@std@@MAEHXZ @ 661 NONAME ; int std::basic_streambuf<wchar_t, class std::char_traits<wchar_t> >::underflow(void)
	?underflow@?$basic_stringbuf@DV?$char_traits@D@std@@V?$allocator@D@2@@std@@MAEHXZ @ 662 NONAME ; int std::basic_stringbuf<char, class std::char_traits<char>, class std::allocator<char> >::underflow(void)
	?underflow@?$basic_stringbuf@_WV?$char_traits@_W@std@@V?$allocator@_W@2@@std@@MAEHXZ @ 663 NONAME ; int std::basic_stringbuf<wchar_t, class std::char_traits<wchar_t>, class std::allocator<wchar_t> >::underflow(void)
	?underflow@strstreambuf@std@@MAEHXZ @ 664 NONAME ; int std::strstreambuf::underflow(void)
	?what@__Named_exception@std@@UBEPBDXZ @ 665 NONAME ; char const * std::__Named_exception::what(void) const
	?what@bad_exception@std@@UBEPBDXZ @ 666 NONAME ; char const * std::bad_exception::what(void) const
	?what@exception@std@@UBEPBDXZ @ 667 NONAME ; char const * std::exception::what(void) const
	?write@?$basic_ostream@DV?$char_traits@D@std@@@std@@QAEAAV12@PBDH@Z @ 668 NONAME ; class std::basic_ostream<char, class std::char_traits<char> > & std::basic_ostream<char, class std::char_traits<char> >::write(char const *, int)
	?write@?$basic_ostream@_WV?$char_traits@_W@std@@@std@@QAEAAV12@PB_WH@Z @ 669 NONAME ; class std::basic_ostream<wchar_t, class std::char_traits<wchar_t> > & std::basic_ostream<wchar_t, class std::char_traits<wchar_t> >::write(wchar_t const *, int)
	?xalloc@ios_base@std@@SAHXZ @ 670 NONAME ; int std::ios_base::xalloc(void)
	?xsgetn@?$basic_streambuf@DV?$char_traits@D@std@@@std@@MAEHPADH@Z @ 671 NONAME ; int std::basic_streambuf<char, class std::char_traits<char> >::xsgetn(char *, int)
	?xsgetn@?$basic_streambuf@_WV?$char_traits@_W@std@@@std@@MAEHPA_WH@Z @ 672 NONAME ; int std::basic_streambuf<wchar_t, class std::char_traits<wchar_t> >::xsgetn(wchar_t *, int)
	?xsputn@?$basic_streambuf@DV?$char_traits@D@std@@@std@@MAEHPBDH@Z @ 673 NONAME ; int std::basic_streambuf<char, class std::char_traits<char> >::xsputn(char const *, int)
	?xsputn@?$basic_streambuf@_WV?$char_traits@_W@std@@@std@@MAEHPB_WH@Z @ 674 NONAME ; int std::basic_streambuf<wchar_t, class std::char_traits<wchar_t> >::xsputn(wchar_t const *, int)
	?xsputn@?$basic_stringbuf@DV?$char_traits@D@std@@V?$allocator@D@2@@std@@MAEHPBDH@Z @ 675 NONAME ; int std::basic_stringbuf<char, class std::char_traits<char>, class std::allocator<char> >::xsputn(char const *, int)
	?xsputn@?$basic_stringbuf@_WV?$char_traits@_W@std@@V?$allocator@_W@2@@std@@MAEHPB_WH@Z @ 676 NONAME ; int std::basic_stringbuf<wchar_t, class std::char_traits<wchar_t>, class std::allocator<wchar_t> >::xsputn(wchar_t const *, int)

