EXPORTS
	_Z6SpareExport1v @ 1 NONAME ABSENT
	_Z6SpareExport2v @ 2 NONAME ABSENT
	_Z6SpareExport3v @ 3 NONAME ABSENT
	_Z6SpareExport4v @ 4 NONAME ABSENT
	_Z6SpareExport5v @ 5 NONAME ABSENT
	_ZN11CTextLayout35GetCustomInvisibleCharacterRemapperEv @ 6 NONAME
	_ZN11CTextLayout35SetCustomInvisibleCharacterRemapperEP37MFormCustomInvisibleCharacterRemapper @ 7 NONAME
	_ZN37MFormCustomInvisibleCharacterRemapper14DefaultMappingEj26TNonPrintingCharVisibilityRK17TLayDocTextSource @ 8 NONAME
	_ZN10MFormParam3GetEv @ 9 NONAME
	_ZN10MFormParam3SetEPKS_ @ 10 NONAME
	_ZN10MFormParam8ReservedEv @ 11 NONAME
	_ZN11CTextLayout10ConstructLEP7MLayDoci @ 12 NONAME
	_ZN11CTextLayout11DrawBordersEPK18MGraphicsDeviceMapR16CGraphicsContextRK5TRectRK16TParaBorderArrayPK4TRgbP7TRegionPS6_ @ 13 NONAME
	_ZN11CTextLayout11FormatBandLEv @ 14 NONAME
	_ZN11CTextLayout11FormatLineLEP11CParaFormatRiS2_S2_ @ 15 NONAME
	_ZN11CTextLayout12InvertRangeLERK16TCursorSelectionRK5TRectPK22TDrawTextLayoutContext @ 16 NONAME
	_ZN11CTextLayout12ScrollLinesLERiNS_14TAllowDisallowE @ 17 NONAME
	_ZN11CTextLayout12SetWrapWidthEi @ 18 NONAME
	_ZN11CTextLayout12TRangeChange12OptimizeWithERS0_ @ 19 NONAME
	_ZN11CTextLayout12TRangeChange3SetEiiNS0_11TChangeTypeE @ 20 NONAME
	_ZN11CTextLayout12TRangeChange4ClipEii @ 21 NONAME
	_ZN11CTextLayout12TRangeChangeC1EiiNS0_11TChangeTypeE @ 22 NONAME
	_ZN11CTextLayout12TRangeChangeC1Ev @ 23 NONAME
	_ZN11CTextLayout12TRangeChangeC2EiiNS0_11TChangeTypeE @ 24 NONAME
	_ZN11CTextLayout12TRangeChangeC2Ev @ 25 NONAME
	_ZN11CTextLayout13DiscardFormatEv @ 26 NONAME
	_ZN11CTextLayout13GetLineNumberEi @ 27 NONAME
	_ZN11CTextLayout13SetBandHeightEi @ 28 NONAME
	_ZN11CTextLayout13SetCustomDrawEPK15MFormCustomDraw @ 29 NONAME
	_ZN11CTextLayout13SetCustomWrapEPK15MFormCustomWrap @ 30 NONAME
	_ZN11CTextLayout13SetFormatModeEN11CLayoutData11TFormatModeEiP18MGraphicsDeviceMap @ 31 NONAME
	_ZN11CTextLayout13SetTruncatingEi @ 32 NONAME
	_ZN11CTextLayout14ChangeBandTopLERiNS_14TAllowDisallowE @ 33 NONAME
	_ZN11CTextLayout15ForceNoWrappingEi @ 34 NONAME
	_ZN11CTextLayout15FormatNextLineLERi @ 35 NONAME
	_ZN11CTextLayout15GetMinimumSizeLEiR5TSize @ 36 NONAME
	_ZN11CTextLayout15HandleCharEditLEjRiS0_S0_S0_S0_i @ 37 NONAME
	_ZN11CTextLayout16FormatCharRangeLEii @ 38 NONAME
	_ZN11CTextLayout17ScrollParagraphsLERiNS_14TAllowDisallowE @ 39 NONAME
	_ZN11CTextLayout17SetAmountToFormatENS_16TAmountFormattedE @ 40 NONAME
	_ZN11CTextLayout17SetImageDeviceMapEP18MGraphicsDeviceMap @ 41 NONAME
	_ZN11CTextLayout18HandleBlockChangeLE16TCursorSelectioniR16TViewRectChangesi @ 42 NONAME
	_ZN11CTextLayout18SetLabelsDeviceMapEP18MGraphicsDeviceMap @ 43 NONAME
	_ZN11CTextLayout20SetInterfaceProviderEP28MFormCustomInterfaceProvider @ 44 NONAME
	_ZN11CTextLayout20SetLabelsMarginWidthEi @ 45 NONAME
	_ZN11CTextLayout21SetMinimumLineDescentEi @ 46 NONAME
	_ZN11CTextLayout21SetTruncatingEllipsisE5TChar @ 47 NONAME
	_ZN11CTextLayout22ReformatVerticalSpaceLEv @ 48 NONAME
	_ZN11CTextLayout22SetExcludePartialLinesEi @ 49 NONAME
	_ZN11CTextLayout22SetHighlightExtensionsEiiii @ 50 NONAME
	_ZN11CTextLayout23AdjustVerticalAlignmentEN11CParaFormat10TAlignmentE @ 51 NONAME
	_ZN11CTextLayout25ExtendFormattingToCoverYLEi @ 52 NONAME
	_ZN11CTextLayout27ExtendFormattingToCoverPosLEi @ 53 NONAME
	_ZN11CTextLayout27SetFontHeightIncreaseFactorEi @ 54 NONAME
	_ZN11CTextLayout29SetNonPrintingCharsVisibilityE26TNonPrintingCharVisibility @ 55 NONAME
	_ZN11CTextLayout32HandleAdditionalCharactersAtEndLERiS0_ @ 56 NONAME
	_ZN11CTextLayout35NotifyTerminateBackgroundFormattingEv @ 57 NONAME
	_ZN11CTextLayout4NewLEP7MLayDoci @ 58 NONAME
	_ZN11CTextLayout5DrawLERK5TRectPK22TDrawTextLayoutContextPK16TCursorSelection @ 59 NONAME
	_ZN11CTextLayout7PageUpLERiS0_ @ 60 NONAME
	_ZN11CTextLayout8SetViewLERK9TTmDocPosRi18TViewYPosQualifierNS_8TDiscardE @ 61 NONAME
	_ZN11CTextLayout8SetViewLEiRi18TViewYPosQualifierNS_8TDiscardE @ 62 NONAME
	_ZN11CTextLayout9HighlightERKNS_12TRangeChangeERK5TRectPK22TDrawTextLayoutContext @ 63 NONAME
	_ZN11CTextLayout9PageDownLERiS0_ @ 64 NONAME
	_ZN11CTextLayout9SetLayDocEP7MLayDoc @ 65 NONAME
	_ZN11CTextLayoutC1Ev @ 66 NONAME
	_ZN11CTextLayoutC2Ev @ 67 NONAME
	_ZN11CTextLayoutD0Ev @ 68 NONAME
	_ZN11CTextLayoutD1Ev @ 69 NONAME
	_ZN11CTextLayoutD2Ev @ 70 NONAME
	_ZN13TFrameOverlay10ClearFlagsEi @ 71 NONAME
	_ZN13TFrameOverlay20SetBlobWidthInPixelsEi @ 72 NONAME
	_ZN13TFrameOverlay26SetActiveBlobWidthInPixelsEi @ 73 NONAME
	_ZN13TFrameOverlay27SetVisibleBlobWidthInPixelsEi @ 74 NONAME
	_ZN13TFrameOverlay7SetRectERK5TRect @ 75 NONAME
	_ZN13TFrameOverlay8SetFlagsEi @ 76 NONAME
	_ZN13TFrameOverlayC1Ev @ 77 NONAME
	_ZN13TFrameOverlayC2Ev @ 78 NONAME
	_ZN14CTextPaginator11AppendTextLERi @ 79 NONAME
	_ZN14CTextPaginator11SetObserverEP17MPaginateObserver @ 80 NONAME
	_ZN14CTextPaginator12SetDocumentLEP7MLayDoc @ 81 NONAME
	_ZN14CTextPaginator16SetPrinterDeviceEP14CPrinterDevice @ 82 NONAME
	_ZN14CTextPaginator18SetPageSpecInTwipsERK9TPageSpec @ 83 NONAME
	_ZN14CTextPaginator20PaginationCompletedLEv @ 84 NONAME
	_ZN14CTextPaginator21SetPageMarginsInTwipsERK8TMargins @ 85 NONAME
	_ZN14CTextPaginator25PaginateCompleteDocumentLEv @ 86 NONAME
	_ZN14CTextPaginator26SetTextMarginWidthsInTwipsEii @ 87 NONAME
	_ZN14CTextPaginator4NewLEP14CPrinterDeviceP9CArrayFixIiEi @ 88 NONAME
	_ZN14CTextPaginatorD0Ev @ 89 NONAME
	_ZN14CTextPaginatorD1Ev @ 90 NONAME
	_ZN14CTextPaginatorD2Ev @ 91 NONAME
	_ZNK15MFormCustomDraw8DrawTextERKNS_6TParamERKNS_9TLineInfoERK11TCharFormatRK7TDesC16iiRK6TPointi @ 92 NONAME
	_ZN15MFormCustomDraw26MFormCustomDraw_Reserved_2Ev @ 93 NONAME
	_ZN15MFormCustomWrap26MFormCustomWrap_Reserved_1Ev @ 94 NONAME
	_ZN15MFormCustomWrap26MFormCustomWrap_Reserved_2Ev @ 95 NONAME
	_ZN18TViewYPosQualifier10SetHotSpotENS_11TPartOfLineE @ 96 NONAME
	_ZN18TViewYPosQualifier13SetFillScreenEi @ 97 NONAME
	_ZN18TViewYPosQualifier23SetMakeLineFullyVisibleENS_13TFullyVisibleE @ 98 NONAME
	_ZN22CTextPageRegionPrinter10PrintBandLEP15CGraphicsDeviceiRK15TBandAttributes @ 99 NONAME
	_ZN22CTextPageRegionPrinter11SetDocumentEP7MLayDoc @ 100 NONAME
	_ZN22CTextPageRegionPrinter11SetPageListEPK9CArrayFixIiE @ 101 NONAME
	_ZN22CTextPageRegionPrinter15SetPrintPreviewEi @ 102 NONAME
	_ZN22CTextPageRegionPrinter16SetPrinterDeviceEP14CPrinterDevice @ 103 NONAME
	_ZN22CTextPageRegionPrinter17SetFirstPageOfDocEi @ 104 NONAME
	_ZN22CTextPageRegionPrinter18SetPageSpecInTwipsERK9TPageSpec @ 105 NONAME
	_ZN22CTextPageRegionPrinter21SetPageMarginsInTwipsERK8TMargins @ 106 NONAME
	_ZN22CTextPageRegionPrinter24SetParagraphFillTextOnlyEi @ 107 NONAME
	_ZN22CTextPageRegionPrinter26SetTextMarginWidthsInTwipsEii @ 108 NONAME
	_ZN22CTextPageRegionPrinter4NewLEP7MLayDocP14CPrinterDevice @ 109 NONAME
	_ZN22CTextPageRegionPrinterD0Ev @ 110 NONAME
	_ZN22CTextPageRegionPrinterD1Ev @ 111 NONAME
	_ZN22CTextPageRegionPrinterD2Ev @ 112 NONAME
	_ZN22TDrawTextLayoutContext11SetBitmapGcEP14CBitmapContextS1_ @ 113 NONAME
	_ZN22TDrawTextLayoutContext11SetClippingEi @ 114 NONAME
	_ZN22TDrawTextLayoutContext11SetWindowGcEP9CWindowGcS1_ @ 115 NONAME
	_ZN22TDrawTextLayoutContext15SetDrawTextOnlyEv @ 116 NONAME
	_ZN22TDrawTextLayoutContext19SetDrawGraphicsOnlyEv @ 117 NONAME
	_ZN22TDrawTextLayoutContext19SetDrawToEveryPixelEi @ 118 NONAME
	_ZN22TDrawTextLayoutContext20SetTextColorOverrideEPK4TRgb @ 119 NONAME
	_ZN22TDrawTextLayoutContext22SetDrawTextAndGraphicsEv @ 120 NONAME
	_ZN22TDrawTextLayoutContext24SetParagraphFillTextOnlyEi @ 121 NONAME
	_ZN22TDrawTextLayoutContext5SetGcEP16CGraphicsContextS1_ @ 122 NONAME
	_ZN22TDrawTextLayoutContextC1Ev @ 123 NONAME
	_ZN22TDrawTextLayoutContextC2Ev @ 124 NONAME
	_ZN26TNonPrintingCharVisibility12InternalizeLER11RReadStream @ 125 NONAME
	_ZN26TNonPrintingCharVisibility13SetAllVisibleEv @ 126 NONAME
	_ZN26TNonPrintingCharVisibility14SetNoneVisibleEv @ 127 NONAME
	_ZN26TNonPrintingCharVisibility14SetTabsVisibleEi @ 128 NONAME
	_ZN26TNonPrintingCharVisibility16SetSpacesVisibleEi @ 129 NONAME
	_ZN26TNonPrintingCharVisibility20SetLineBreaksVisibleEi @ 130 NONAME
	_ZN26TNonPrintingCharVisibility20SetPageBreaksVisibleEi @ 131 NONAME
	_ZN26TNonPrintingCharVisibility26SetPotentialHyphensVisibleEi @ 132 NONAME
	_ZN26TNonPrintingCharVisibility27SetNonBreakingSpacesVisibleEi @ 133 NONAME
	_ZN26TNonPrintingCharVisibility28SetNonBreakingHyphensVisibleEi @ 134 NONAME
	_ZN26TNonPrintingCharVisibility29SetParagraphDelimitersVisibleEi @ 135 NONAME
	_ZN26TNonPrintingCharVisibilityC1ERKS_ @ 136 NONAME
	_ZN26TNonPrintingCharVisibilityC1Ev @ 137 NONAME
	_ZN26TNonPrintingCharVisibilityC2ERKS_ @ 138 NONAME
	_ZN26TNonPrintingCharVisibilityC2Ev @ 139 NONAME
	_ZN26TNonPrintingCharVisibilityaSERKS_ @ 140 NONAME
	_ZN9CTextView10ConstructLEP11CTextLayoutRK5TRectP13CBitmapDeviceP18MGraphicsDeviceMapP7RWindowP12RWindowGroupP10RWsSession @ 141 NONAME
	_ZN9CTextView10FindXyPosLERK6TPointR11TTmPosInfo2P11TTmLineInfo @ 142 NONAME
	_ZN9CTextView10SetDocPosLERK13TTmDocPosSpeci @ 143 NONAME
	_ZN9CTextView10SetDocPosLERK9TTmDocPosi @ 144 NONAME
	_ZN9CTextView10SetDocPosLEii @ 145 NONAME
	_ZN9CTextView11FindDocPosLERK13TTmDocPosSpecR11TTmPosInfo2P11TTmLineInfo @ 146 NONAME
	_ZN9CTextView11FormatTextLEv @ 147 NONAME
	_ZN9CTextView11MoveCursorLERN15TCursorPosition13TMovementTypeEi @ 148 NONAME
	_ZN9CTextView11SetViewRectERK5TRect @ 149 NONAME
	_ZN9CTextView13AlterViewRectERK5TRect @ 150 NONAME
	_ZN9CTextView13BitmapContextEv @ 151 NONAME
	_ZN9CTextView13SetSelectionLERK16TCursorSelection @ 152 NONAME
	_ZN9CTextView14DocPosToXyPosLEiR6TPoint @ 153 NONAME
	_ZN9CTextView14ScrollDisplayLEN15TCursorPosition13TMovementTypeEN11CTextLayout14TAllowDisallowE @ 154 NONAME
	_ZN9CTextView14SetCursorFlashEi @ 155 NONAME
	_ZN9CTextView14XyPosToDocPosLER6TPoint @ 156 NONAME
	_ZN9CTextView15ClearSelectionLEv @ 157 NONAME
	_ZN9CTextView15HandleCharEditLEji @ 158 NONAME
	_ZN9CTextView15SetCursorWeightEi @ 159 NONAME
	_ZN9CTextView15SetMarginWidthsEii @ 160 NONAME
	_ZN9CTextView15VisualEndOfRunLERK9TTmDocPosS2_N15TCursorPosition10TVisualEndE @ 161 NONAME
	_ZN9CTextView16CancelSelectionLEv @ 162 NONAME
	_ZN9CTextView17SetCursorXorColorE4TRgb @ 163 NONAME
	_ZN9CTextView17SetLeftTextMarginEi @ 164 NONAME
	_ZN9CTextView17SetViewLineAtTopLEi @ 165 NONAME
	_ZN9CTextView18MatchCursorHeightLERK9TFontSpec @ 166 NONAME
	_ZN9CTextView18SetBackgroundColorE4TRgb @ 167 NONAME
	_ZN9CTextView18SetCursorPlacementE18TTmCursorPlacement @ 168 NONAME
	_ZN9CTextView18SetDisplayContextLEP13CBitmapDeviceP7RWindowP12RWindowGroupP10RWsSession @ 169 NONAME
	_ZN9CTextView18SetLatentXPositionEi @ 170 NONAME
	_ZN9CTextView19EnablePictureFrameLEi @ 171 NONAME
	_ZN9CTextView19HandleGlobalChangeLE18TViewYPosQualifier @ 172 NONAME
	_ZN9CTextView19HandleInsertDeleteLE16TCursorSelectionii @ 173 NONAME
	_ZN9CTextView19ScrollDisplayLinesLERiN11CTextLayout14TAllowDisallowE @ 174 NONAME
	_ZN9CTextView19SetCursorExtensionsEii @ 175 NONAME
	_ZN9CTextView19SetCursorWidthTypeLEii @ 176 NONAME
	_ZN9CTextView19SetLineCursorBitmapEPK10CFbsBitmap @ 177 NONAME
	_ZN9CTextView19SetPendingSelectionERK16TCursorSelection @ 178 NONAME
	_ZN9CTextView20GetPictureRectangleLE6TPointR5TRectPi @ 179 NONAME
	_ZN9CTextView20ScrollDisplayPixelsLERi @ 180 NONAME
	_ZN9CTextView20SetCursorVisibilityLEjj @ 181 NONAME
	_ZN9CTextView20SetTextColorOverrideEPK4TRgb @ 182 NONAME
	_ZN9CTextView22SetHighlightExtensionsEiiii @ 183 NONAME
	_ZN9CTextView23SetHorizontalScrollJumpEi @ 184 NONAME
	_ZN9CTextView23SetSelectionVisibilityLEi @ 185 NONAME
	_ZN9CTextView24HandleRangeFormatChangeLE16TCursorSelectioni @ 186 NONAME
	_ZN9CTextView24ScrollDisplayParagraphsLERiN11CTextLayout14TAllowDisallowE @ 187 NONAME
	_ZN9CTextView24SetParagraphFillTextOnlyEi @ 188 NONAME
	_ZN9CTextView25GetForwardDeletePositionLEv @ 189 NONAME
	_ZN9CTextView25SetCursorPositioningHintLEN15TCursorPosition8TPosHintE @ 190 NONAME
	_ZN9CTextView26GetBackwardDeletePositionLEv @ 191 NONAME
	_ZN9CTextView27FinishBackgroundFormattingLEv @ 192 NONAME
	_ZN9CTextView27HandleGlobalChangeNoRedrawLE18TViewYPosQualifier @ 193 NONAME
	_ZN9CTextView28CalculateHorizontalExtremesLERiS0_i @ 194 NONAME
	_ZN9CTextView31MatchCursorHeightToAdjacentCharENS_12TBeforeAfterE @ 195 NONAME
	_ZN9CTextView32HandleAdditionalCharactersAtEndLEv @ 196 NONAME
	_ZN9CTextView4NewLEP11CTextLayoutRK5TRectP13CBitmapDeviceP18MGraphicsDeviceMapP7RWindowP12RWindowGroupP10RWsSession @ 197 NONAME
	_ZN9CTextView5DrawLE5TRect @ 198 NONAME
	_ZN9CTextView5DrawLE5TRectR14CBitmapContext @ 199 NONAME
	_ZN9CTextView5IdleLEPv @ 200 NONAME
	_ZN9CTextView8SetViewLEiRi18TViewYPosQualifierNS_8TDiscardENS_19TDoHorizontalScrollE @ 201 NONAME
	_ZN9CTextView9SetLayoutEP11CTextLayout @ 202 NONAME
	_ZN9CTextView9SetXyPosLE6TPointiRP5TRectRi @ 203 NONAME
	_ZN9CTextViewC1Ev @ 204 NONAME
	_ZN9CTextViewC2Ev @ 205 NONAME
	_ZN9CTextViewD0Ev @ 206 NONAME
	_ZN9CTextViewD1Ev @ 207 NONAME
	_ZN9CTextViewD2Ev @ 208 NONAME
	_ZNK11CTextLayout10BandHeightEv @ 209 NONAME
	_ZNK11CTextLayout10CustomDrawEv @ 210 NONAME
	_ZNK11CTextLayout10CustomWrapEv @ 211 NONAME
	_ZNK11CTextLayout10FindDocPosERK13TTmDocPosSpecR11TTmPosInfo2P11TTmLineInfo @ 212 NONAME
	_ZNK11CTextLayout10IsWrappingEv @ 213 NONAME
	_ZNK11CTextLayout10TruncatingEv @ 214 NONAME
	_ZNK11CTextLayout11GetLineRectEiR5TRect @ 215 NONAME
	_ZNK11CTextLayout12GetLineRectLEii @ 216 NONAME
	_ZNK11CTextLayout12MajorVersionEv @ 217 NONAME
	_ZNK11CTextLayout12TRangeChange3GetERiS1_ @ 218 NONAME
	_ZNK11CTextLayout12TRangeChange7NonNullEv @ 219 NONAME
	_ZNK11CTextLayout14DocPosToXyPosLEiR6TPointj @ 220 NONAME
	_ZNK11CTextLayout14DocumentLengthEv @ 221 NONAME
	_ZNK11CTextLayout14ParagraphRectLEi @ 222 NONAME
	_ZNK11CTextLayout14PosIsFormattedEi @ 223 NONAME
	_ZNK11CTextLayout14PosRangeInBandERi @ 224 NONAME
	_ZNK11CTextLayout14XyPosToDocPosLER6TPointj @ 225 NONAME
	_ZNK11CTextLayout15FirstCharOnLineEi @ 226 NONAME
	_ZNK11CTextLayout15FirstLineInBandEv @ 227 NONAME
	_ZNK11CTextLayout15FormattedLengthEv @ 228 NONAME
	_ZNK11CTextLayout15ParagraphHeightEi @ 229 NONAME
	_ZNK11CTextLayout15PixelsAboveBandEv @ 230 NONAME
	_ZNK11CTextLayout16IsFormattingBandEv @ 231 NONAME
	_ZNK11CTextLayout16ToParagraphStartERi @ 232 NONAME
	_ZNK11CTextLayout17FirstFormattedPosEv @ 233 NONAME
	_ZNK11CTextLayout17NumFormattedLinesEv @ 234 NONAME
	_ZNK11CTextLayout17PictureRectangleLERK6TPointR5TRectPi @ 235 NONAME
	_ZNK11CTextLayout17PictureRectangleLEiR5TRectPi @ 236 NONAME
	_ZNK11CTextLayout18MinimumLineDescentEv @ 237 NONAME
	_ZNK11CTextLayout18TruncatingEllipsisEv @ 238 NONAME
	_ZNK11CTextLayout21ExcludingPartialLinesEv @ 239 NONAME
	_ZNK11CTextLayout22FirstDocPosFullyInBandEv @ 240 NONAME
	_ZNK11CTextLayout22GetNextVisualCursorPosERK13TTmDocPosSpecR11TTmPosInfo2i @ 241 NONAME
	_ZNK11CTextLayout22IsBackgroundFormattingEv @ 242 NONAME
	_ZNK11CTextLayout23FormattedHeightInPixelsEv @ 243 NONAME
	_ZNK11CTextLayout23GetFontHeightAndAscentLERK9TFontSpecRiS3_ @ 244 NONAME
	_ZNK11CTextLayout24FontHeightIncreaseFactorEv @ 245 NONAME
	_ZNK11CTextLayout24YBottomLastFormattedLineEv @ 246 NONAME
	_ZNK11CTextLayout26NonPrintingCharsVisibilityEv @ 247 NONAME
	_ZNK11CTextLayout28CalculateHorizontalExtremesLERiS0_ii @ 248 NONAME
	_ZNK11CTextLayout28GetCharacterHeightAndAscentLEiRiS0_ @ 249 NONAME
	_ZNK11CTextLayout9FindXyPosERK6TPointR11TTmPosInfo2P11TTmLineInfo @ 250 NONAME
	_ZNK11CTextLayout9PosInBandERK9TTmDocPosP11TTmLineInfo @ 251 NONAME
	_ZNK11CTextLayout9PosInBandEiR6TPoint @ 252 NONAME
	_ZNK13TFrameOverlay12XyPosToEdgesERK6TPoint @ 253 NONAME
	_ZNK13TFrameOverlay7XorDrawER16CGraphicsContext @ 254 NONAME
	_ZNK15MFormCustomDraw11SystemColorEj4TRgb @ 255 NONAME
	_ZNK15MFormCustomDraw14DrawBackgroundERKNS_6TParamERK4TRgbR5TRect @ 256 NONAME
	_ZNK15MFormCustomDraw16DrawLineGraphicsERKNS_6TParamERKNS_9TLineInfoE @ 257 NONAME
	_ZNK15MFormCustomDraw8DrawTextERKNS_6TParamERKNS_9TLineInfoERK11TCharFormatRK7TDesC16RK6TPointi @ 258 NONAME
	_ZNK15MFormCustomWrap14LineBreakClassEjRjS0_ @ 259 NONAME
	_ZNK15MFormCustomWrap17LineBreakPossibleEjji @ 260 NONAME
	_ZNK15MFormCustomWrap18IsHangingCharacterEj @ 261 NONAME
	_ZNK15MFormCustomWrap21GetLineBreakInContextERK7TDesC16iiiRi @ 262 NONAME
	_ZNK22TDrawTextLayoutContext10UseGcClearEv @ 263 NONAME
	_ZNK22TDrawTextLayoutContext11LabelMarginEv @ 264 NONAME
	_ZNK22TDrawTextLayoutContext11TopLeftTextEv @ 265 NONAME
	_ZNK22TDrawTextLayoutContext11TotalMarginEv @ 266 NONAME
	_ZNK22TDrawTextLayoutContext12DrawGraphicsEv @ 267 NONAME
	_ZNK22TDrawTextLayoutContext12GutterMarginEv @ 268 NONAME
	_ZNK22TDrawTextLayoutContext12TextToWindowER5TRect @ 269 NONAME
	_ZNK22TDrawTextLayoutContext12TextToWindowER6TPoint @ 270 NONAME
	_ZNK22TDrawTextLayoutContext12WindowToTextER5TRect @ 271 NONAME
	_ZNK22TDrawTextLayoutContext12WindowToTextER6TPoint @ 272 NONAME
	_ZNK22TDrawTextLayoutContext13DisplayHeightEv @ 273 NONAME
	_ZNK22TDrawTextLayoutContext13IsLabelMarginEv @ 274 NONAME
	_ZNK22TDrawTextLayoutContext14IsGutterMarginEv @ 275 NONAME
	_ZNK22TDrawTextLayoutContext15TopLeftTextAreaEv @ 276 NONAME
	_ZNK22TDrawTextLayoutContext15UseClippingRectEv @ 277 NONAME
	_ZNK22TDrawTextLayoutContext17TextOverrideColorEv @ 278 NONAME
	_ZNK22TDrawTextLayoutContext18UseBackgroundColorEv @ 279 NONAME
	_ZNK22TDrawTextLayoutContext21ParagraphFillTextOnlyEv @ 280 NONAME
	_ZNK22TDrawTextLayoutContext8DrawTextEv @ 281 NONAME
	_ZNK22TDrawTextLayoutContext8TextAreaEv @ 282 NONAME
	_ZNK22TDrawTextLayoutContext9PictureGcEv @ 283 NONAME
	_ZNK22TDrawTextLayoutContext9PrimaryGcEv @ 284 NONAME
	_ZNK26TNonPrintingCharVisibility12ExternalizeLER12RWriteStream @ 285 NONAME
	_ZNK9CTextView12GetCursorPosER9TTmDocPos @ 286 NONAME
	_ZNK9CTextView12MarginWidthsERiS0_ @ 287 NONAME
	_ZNK9CTextView14LeftTextMarginEv @ 288 NONAME
	_ZNK9CTextView14ParagraphRectLEi @ 289 NONAME
	_ZNK9CTextView15AlteredViewRectEv @ 290 NONAME
	_ZNK9CTextView16SelectionVisibleEv @ 291 NONAME
	_ZNK9CTextView20GetPictureRectangleLEiR5TRectPi @ 292 NONAME
	_ZNK9CTextView20HorizontalScrollJumpEv @ 293 NONAME
	_ZNK9CTextView22IsPictureFrameSelectedER5TRectRi @ 294 NONAME
	_ZNK9CTextView8ViewRectEv @ 295 NONAME
	_ZNK9CTextView9SelectionEv @ 296 NONAME
	_ZTI10MFormParam @ 297 NONAME ; #<TI>#
	_ZTI11CTextLayout @ 298 NONAME ; #<TI>#
	_ZTI15MFormCustomDraw @ 299 NONAME ; #<TI>#
	_ZTI15MFormCustomWrap @ 300 NONAME ; #<TI>#
	_ZTI9CTextView @ 301 NONAME ; #<TI>#
	_ZTV10MFormParam @ 302 NONAME ; #<VT>#
	_ZTV11CTextLayout @ 303 NONAME ; #<VT>#
	_ZTV15MFormCustomDraw @ 304 NONAME ; #<VT>#
	_ZTV15MFormCustomWrap @ 305 NONAME ; #<VT>#
	_ZTV9CTextView @ 306 NONAME ; #<VT>#
	_ZThn4_N22CTextPageRegionPrinter10PrintBandLEP15CGraphicsDeviceiRK15TBandAttributes @ 307 NONAME ; #<thunk>#
	_ZTI14CTextPaginator @ 308 NONAME ; #<TI>#
	_ZTI17TLayDocTextSource @ 309 NONAME ABSENT ; #<TI>#
	_ZTI22CTextPageRegionPrinter @ 310 NONAME ; #<TI>#
	_ZTV14CTextPaginator @ 311 NONAME ; #<VT>#
	_ZTV17TLayDocTextSource @ 312 NONAME ABSENT ; #<VT>#
	_ZTV22CTextPageRegionPrinter @ 313 NONAME ; #<VT>#
	_ZN9CTextView9SetOpaqueEi @ 314 NONAME
	_ZN11CTextLayout15GetMinimumSizeLEiiR5TSize @ 315 NONAME
	_ZNK11CTextLayout9PosInBandE9TTmDocPosR6TPoint @ 316 NONAME
	_ZN9CTextView23SetExcessHeightRequiredEi @ 317 NONAME
	_ZN11CTextLayout11MakeVisibleEi @ 318 NONAME
	_ZN9CTextView11MakeVisibleEi @ 319 NONAME
	_ZN11CTextLayout27ChangeBandTopNoLimitBorderLEi @ 320 NONAME
	_ZN9CTextView33ScrollDisplayPixelsNoLimitBorderLEi @ 321 NONAME

