EXPORTS
	_ZN12RTmParFormat5CloseEv @ 1 NONAME
	_ZN12RTmParFormat5CopyLERK11CParaFormat @ 2 NONAME
	_ZN12RTmParFormat5CopyLERKS_ @ 3 NONAME
	_ZN12RTmParFormatC1Ev @ 4 NONAME
	_ZN12RTmParFormatC2Ev @ 5 NONAME
	_ZN12TTmParBorderC1Ev @ 6 NONAME
	_ZN12TTmParBorderC2Ev @ 7 NONAME
	_ZN12TTmParBorderaSERK11TParaBorder @ 8 NONAME
	_ZN13CTmTextLayout5ClearEv @ 9 NONAME
	_ZN13CTmTextLayout7AddParLERK18TTmFormatParamBaseiRiS3_ @ 10 NONAME
	_ZN13CTmTextLayout7FormatLERK18TTmFormatParamBaseRK16TTmReformatParamR17TTmReformatResult @ 11 NONAME
	_ZN13CTmTextLayout8SetTextLER9MTmSourceRK14TTmFormatParam @ 12 NONAME
	_ZN13CTmTextLayout9DeleteParERK18TTmFormatParamBaseiiRi @ 13 NONAME
	_ZN13CTmTextLayoutC1Ev @ 14 NONAME
	_ZN13CTmTextLayoutC2Ev @ 15 NONAME
	_ZN13CTmTextLayoutD0Ev @ 16 NONAME
	_ZN13CTmTextLayoutD1Ev @ 17 NONAME
	_ZN13CTmTextLayoutD2Ev @ 18 NONAME
	_ZN13MFormLabelApi15LabelModeCancelEv @ 19 NONAME
	_ZN13MFormLabelApi15LabelModeSelectEN9MTmSource10TLabelTypeEi @ 20 NONAME
	_ZN13TTmCharFormatC1ERK7TDesC16i @ 21 NONAME
	_ZN13TTmCharFormatC1Ev @ 22 NONAME
	_ZN13TTmCharFormatC2ERK7TDesC16i @ 23 NONAME
	_ZN13TTmCharFormatC2Ev @ 24 NONAME
	_ZN13TTmCharFormataSERK11TCharFormat @ 25 NONAME
	_ZN14TTmFormatParamC1ERK18TTmFormatParamBase @ 26 NONAME
	_ZN14TTmFormatParamC1Ev @ 27 NONAME
	_ZN14TTmFormatParamC2ERK18TTmFormatParamBase @ 28 NONAME
	_ZN14TTmFormatParamC2Ev @ 29 NONAME
	_ZN16TTmParFormatMaskC1ERK15TParaFormatMask @ 30 NONAME
	_ZN16TTmParFormatMaskC2ERK15TParaFormatMask @ 31 NONAME
	_ZN16TTmReformatParamC1Ev @ 32 NONAME
	_ZN16TTmReformatParamC2Ev @ 33 NONAME
	_ZN17RTmParFormatLayer5CopyLERK16CParaFormatLayer @ 34 NONAME
	_ZN17TTmCharFormatMaskC1ERK15TCharFormatMask @ 35 NONAME
	_ZN17TTmCharFormatMaskC2ERK15TCharFormatMask @ 36 NONAME
	_ZN17TTmReformatResultC1Ev @ 37 NONAME
	_ZN17TTmReformatResultC2Ev @ 38 NONAME
	_ZN18TTmCharFormatLayerC1ERK16CCharFormatLayer @ 39 NONAME
	_ZN18TTmCharFormatLayerC2ERK16CCharFormatLayer @ 40 NONAME
	_ZN18TTmFormatParamBaseC1Ev @ 41 NONAME
	_ZN18TTmFormatParamBaseC2Ev @ 42 NONAME
	_ZN22MTmTextLayoutForwarder12InvertLayoutER16CGraphicsContextRK6TPointii @ 43 NONAME
	_ZN6TTmTabaSERK8TTabStop @ 44 NONAME
	_ZN7CTmText10CustomizeLEPK9MTmCustom @ 45 NONAME
	_ZN7CTmText13ChangeFormatLERK18TTmFormatParamBase @ 46 NONAME
	_ZN7CTmText13SetWrapWidthLEi @ 47 NONAME
	_ZN7CTmText4NewLER18MGraphicsDeviceMapRK18TTmFormatParamBase @ 48 NONAME
	_ZN7CTmText4NewLER18MGraphicsDeviceMapii @ 49 NONAME
	_ZN7CTmText5ClearEv @ 50 NONAME
	_ZN7CTmText6Spare1Ev @ 51 NONAME
	_ZN7CTmText7InsertLEiRK7TDesC16PK13TTmCharFormatPK12RTmParFormatP5TRectPi @ 52 NONAME
	_ZN7CTmTextD0Ev @ 53 NONAME
	_ZN7CTmTextD1Ev @ 54 NONAME
	_ZN7CTmTextD2Ev @ 55 NONAME
	_ZN8RTmStyle5CopyLERK19RParagraphStyleInfo @ 56 NONAME
	_ZN9MTmSource20GetExtendedInterfaceERK4TUid @ 57 NONAME
	_ZN9MTmSource20GetStandardLineBreakERK7TDesC16iiRiS3_ @ 58 NONAME
	_ZN9MTmSource20MTmSource_Reserved_1Ev @ 59 NONAME
	_ZN9MTmSource20MTmSource_Reserved_2Ev @ 60 NONAME
	_ZN9TTmBulletC1Ev @ 61 NONAME
	_ZN9TTmBulletC2Ev @ 62 NONAME
	_ZN9TTmBulletaSERK7TBullet @ 63 NONAME
	_ZNK12RTmParFormat11HaveBordersEv @ 64 NONAME
	_ZNK12RTmParFormat15GetCParaFormatLER11CParaFormat @ 65 NONAME
	_ZNK12RTmParFormat4TabsEv @ 66 NONAME
	_ZNK12RTmParFormateqERKS_ @ 67 NONAME
	_ZNK12TTmParBorder14GetTParaBorderER11TParaBorder @ 68 NONAME
	_ZNK12TTmParBordereqERKS_ @ 69 NONAME
	_ZNK13CTmTextLayout10DrawLayoutER16CGraphicsContextRK6TPointRK5TRectPK11TLogicalRgbi @ 70 NONAME
	_ZNK13CTmTextLayout10FindDocPosERK13TTmDocPosSpecR11TTmPosInfo2R11TTmLineInfo @ 71 NONAME
	_ZNK13CTmTextLayout10FindDocPosERK9TTmDocPosR10TTmPosInfoR11TTmLineInfo @ 72 NONAME
	_ZNK13CTmTextLayout10MemoryUsedEv @ 73 NONAME
	_ZNK13CTmTextLayout10ParagraphsEv @ 74 NONAME
	_ZNK13CTmTextLayout10YPosToLineEiR11TTmLineInfo @ 75 NONAME
	_ZNK13CTmTextLayout11DrawSectionER16CGraphicsContextRK6TPointiiRK5TRect @ 76 NONAME
	_ZNK13CTmTextLayout11DrawSectionER16CGraphicsContextRK6TPointiiRK5TRectRK22TTmHighlightExtensionsii @ 77 NONAME
	_ZNK13CTmTextLayout11FindNextPosEi @ 78 NONAME
	_ZNK13CTmTextLayout11LineExtremeERK13TTmDocPosSpeciR9TTmDocPos @ 79 NONAME
	_ZNK13CTmTextLayout12DocPosToLineERK13TTmDocPosSpecR11TTmLineInfo @ 80 NONAME
	_ZNK13CTmTextLayout12DocPosToLineERK9TTmDocPosR11TTmLineInfo @ 81 NONAME
	_ZNK13CTmTextLayout12InvertLayoutER16CGraphicsContextRK6TPointii @ 82 NONAME
	_ZNK13CTmTextLayout12InvertLayoutER16CGraphicsContextRK6TPointiiRK22TTmHighlightExtensionsii @ 83 NONAME
	_ZNK13CTmTextLayout14DrawBackgroundER16CGraphicsContextRK6TPointRK5TRectRK11TLogicalRgb @ 84 NONAME
	_ZNK13CTmTextLayout15FindPreviousPosEi @ 85 NONAME
	_ZNK13CTmTextLayout15ParNumberToLineEiiR11TTmLineInfo @ 86 NONAME
	_ZNK13CTmTextLayout16GetDisplayedTextEiR6TDes16Ri @ 87 NONAME
	_ZNK13CTmTextLayout16HighlightSectionER16CGraphicsContextRK6TPointiiRK5TRect @ 88 NONAME
	_ZNK13CTmTextLayout16HighlightSectionER16CGraphicsContextRK6TPointiiRK5TRectRK22TTmHighlightExtensionsii @ 89 NONAME
	_ZNK13CTmTextLayout16LineNumberToLineEiR11TTmLineInfo @ 90 NONAME
	_ZNK13CTmTextLayout17GetDisplayedTextLEiR6TDes16Ri @ 91 NONAME
	_ZNK13CTmTextLayout17WidthOfWidestLineEii @ 92 NONAME
	_ZNK13CTmTextLayout18FindAdjacentChunksERK13TTmDocPosSpecRNS_19TTmChunkDescriptionES4_ @ 93 NONAME
	_ZNK13CTmTextLayout18HorizontalExtremesERiS0_ii @ 94 NONAME
	_ZNK13CTmTextLayout21GetMinimumLayoutSizeLEiR5TSize @ 95 NONAME
	_ZNK13CTmTextLayout22GetNextVisualCursorPosERK13TTmDocPosSpecR11TTmPosInfo2i @ 96 NONAME
	_ZNK13CTmTextLayout22GetNextVisualCursorPosERK9TTmDocPosR10TTmPosInfoi @ 97 NONAME
	_ZNK13CTmTextLayout27FindXyPosWithDisambiguationERK6TPointR11TTmPosInfo2S4_R11TTmLineInfo @ 98 NONAME
	_ZNK13CTmTextLayout32GetNextPosLeftWithDisambiguationERK13TTmDocPosSpecR11TTmPosInfo2S4_ @ 99 NONAME
	_ZNK13CTmTextLayout33GetNextPosRightWithDisambiguationERK13TTmDocPosSpecR11TTmPosInfo2S4_ @ 100 NONAME
	_ZNK13CTmTextLayout5LinesEv @ 101 NONAME
	_ZNK13CTmTextLayout9FindXyPosERK6TPointR10TTmPosInfoR11TTmLineInfo @ 102 NONAME
	_ZNK13CTmTextLayout9FindXyPosERK6TPointR11TTmPosInfo2R11TTmLineInfo @ 103 NONAME
	_ZNK13CTmTextLayout9GetCursorERK13TTmDocPosSpec18TTmCursorPlacementR11TTmLineInfoR6TPointRiS8_S8_ @ 104 NONAME
	_ZNK13CTmTextLayout9GetCursorERK9TTmDocPos18TTmCursorPlacementR11TTmLineInfoR6TPointRiS8_S8_ @ 105 NONAME
	_ZNK13MFormLabelApi12LabelMetricsEN9MTmSource10TLabelTypeER5TSizeRi @ 106 NONAME
	_ZNK13TTmCharFormat14GetTCharFormatER11TCharFormat @ 107 NONAME
	_ZNK13TTmCharFormateqERKS_ @ 108 NONAME
	_ZNK14MUnifiedEditor7GetTextEiR6TDes16 @ 109 NONAME
	_ZNK16TTmParFormatMask18GetTParaFormatMaskER15TParaFormatMask @ 110 NONAME
	_ZNK17TTmCharFormatMask18GetTCharFormatMaskER15TCharFormatMask @ 111 NONAME
	_ZNK22MTmTextLayoutForwarder10DrawLayoutER16CGraphicsContextRK6TPointRK5TRectPK11TLogicalRgbi @ 112 NONAME
	_ZNK22MTmTextLayoutForwarder10FindDocPosERK13TTmDocPosSpecR11TTmPosInfo2R11TTmLineInfo @ 113 NONAME
	_ZNK22MTmTextLayoutForwarder10FindDocPosERK9TTmDocPosR10TTmPosInfoR11TTmLineInfo @ 114 NONAME
	_ZNK22MTmTextLayoutForwarder10ParagraphsEv @ 115 NONAME
	_ZNK22MTmTextLayoutForwarder10YPosToLineEiR11TTmLineInfo @ 116 NONAME
	_ZNK22MTmTextLayoutForwarder11LayoutWidthEv @ 117 NONAME
	_ZNK22MTmTextLayoutForwarder12DocPosToLineERK13TTmDocPosSpecR11TTmLineInfo @ 118 NONAME
	_ZNK22MTmTextLayoutForwarder12DocPosToLineERK9TTmDocPosR11TTmLineInfo @ 119 NONAME
	_ZNK22MTmTextLayoutForwarder12LayoutHeightEv @ 120 NONAME
	_ZNK22MTmTextLayoutForwarder14DrawBackgroundER16CGraphicsContextRK6TPointRK5TRectRK11TLogicalRgb @ 121 NONAME
	_ZNK22MTmTextLayoutForwarder15ParNumberToLineEiiR11TTmLineInfo @ 122 NONAME
	_ZNK22MTmTextLayoutForwarder16GetDisplayedTextEiR6TDes16Ri @ 123 NONAME
	_ZNK22MTmTextLayoutForwarder16LineNumberToLineEiR11TTmLineInfo @ 124 NONAME
	_ZNK22MTmTextLayoutForwarder17WidthOfWidestLineEii @ 125 NONAME
	_ZNK22MTmTextLayoutForwarder18HorizontalExtremesERiS0_ii @ 126 NONAME
	_ZNK22MTmTextLayoutForwarder21GetMinimumLayoutSizeLEiR5TSize @ 127 NONAME
	_ZNK22MTmTextLayoutForwarder22GetNextVisualCursorPosERK13TTmDocPosSpecR11TTmPosInfo2i @ 128 NONAME
	_ZNK22MTmTextLayoutForwarder22GetNextVisualCursorPosERK9TTmDocPosR10TTmPosInfoi @ 129 NONAME
	_ZNK22MTmTextLayoutForwarder27FindXyPosWithDisambiguationERK6TPointR11TTmPosInfo2S4_R11TTmLineInfo @ 130 NONAME
	_ZNK22MTmTextLayoutForwarder32GetNextPosLeftWithDisambiguationERK13TTmDocPosSpecR11TTmPosInfo2S4_ @ 131 NONAME
	_ZNK22MTmTextLayoutForwarder33GetNextPosRightWithDisambiguationERK13TTmDocPosSpecR11TTmPosInfo2S4_ @ 132 NONAME
	_ZNK22MTmTextLayoutForwarder5LinesEv @ 133 NONAME
	_ZNK22MTmTextLayoutForwarder7EndCharEv @ 134 NONAME
	_ZNK22MTmTextLayoutForwarder9FindXyPosERK6TPointR10TTmPosInfoR11TTmLineInfo @ 135 NONAME
	_ZNK22MTmTextLayoutForwarder9FindXyPosERK6TPointR11TTmPosInfo2R11TTmLineInfo @ 136 NONAME
	_ZNK22MTmTextLayoutForwarder9GetCursorERK13TTmDocPosSpec18TTmCursorPlacementR11TTmLineInfoR6TPointRiS8_S8_ @ 137 NONAME
	_ZNK22MTmTextLayoutForwarder9GetCursorERK9TTmDocPos18TTmCursorPlacementR11TTmLineInfoR6TPointRiS8_S8_ @ 138 NONAME
	_ZNK22MTmTextLayoutForwarder9GetOriginER6TPoint @ 139 NONAME
	_ZNK22MTmTextLayoutForwarder9StartCharEv @ 140 NONAME
	_ZNK6TTmTab11GetTTabStopER8TTabStop @ 141 NONAME
	_ZNK6TTmTabeqERKS_ @ 142 NONAME
	_ZNK7CTmText10MemoryUsedEv @ 143 NONAME
	_ZNK7CTmText9GetFormatER18TTmFormatParamBase @ 144 NONAME
	_ZNK8RTmStyle23GetRParagraphStyleInfoLER19RParagraphStyleInfoRK16CParaFormatLayerRK16CCharFormatLayerRK10CStyleList @ 145 NONAME
	_ZNK9MTmCustom11DrawPictureER16CGraphicsContextRK6TPointRK5TRectR18MGraphicsDeviceMapRK8CPicture @ 146 NONAME
	_ZNK9MTmCustom11SetPenColorER16CGraphicsContext11TLogicalRgb @ 147 NONAME
	_ZNK9MTmCustom11SystemColorE11TLogicalRgb @ 148 NONAME
	_ZNK9MTmCustom11SystemColorEj4TRgb @ 149 NONAME
	_ZNK9MTmCustom13SetBrushColorER16CGraphicsContext11TLogicalRgb @ 150 NONAME
	_ZNK9MTmCustom13SetLineHeightERKNS_16TLineHeightParamERiS3_ @ 151 NONAME
	_ZNK9MTmCustom14DrawBackgroundER16CGraphicsContextRK6TPointRK5TRectRK11TLogicalRgbRS5_ @ 152 NONAME
	_ZNK9MTmCustom14LineBreakClassEjRjS0_ @ 153 NONAME
	_ZNK9MTmCustom16DrawLineGraphicsER16CGraphicsContextRK6TPointRK5TRectRK11TTmLineInfo @ 154 NONAME
	_ZNK9MTmCustom17LineBreakPossibleEjji @ 155 NONAME
	_ZNK9MTmCustom18IsHangingCharacterEj @ 156 NONAME
	_ZNK9MTmCustom21GetLineBreakInContextERK7TDesC16iiiRi @ 157 NONAME
	_ZNK9MTmCustom3MapEj @ 158 NONAME
	_ZNK9MTmCustom7StretchEj @ 159 NONAME
	_ZNK9MTmCustom8DrawTextER16CGraphicsContextRK6TPointRK5TRectRK11TTmLineInfoRK13TTmCharFormatRK7TDesC16S4_i @ 160 NONAME
	_ZNK9MTmSource12ParagraphEndEi @ 161 NONAME
	_ZNK9MTmSource13GetLineBreakLERK7TDesC16iiiiRiS3_S3_ @ 162 NONAME
	_ZNK9MTmSource16PageBreakInRangeEii @ 163 NONAME
	_ZNK9MTmSource22GetPictureSizeInTwipsLEiR5TSize @ 164 NONAME
	_ZNK9MTmSource8PictureLEi @ 165 NONAME
	_ZNK9TTmBullet10GetTBulletER7TBullet @ 166 NONAME
	_ZNK9TTmBulleteqERKS_ @ 167 NONAME
	_ZNK9TTmDocPoseqERKS_ @ 168 NONAME
	_ZNK9TTmDocPosgeERKS_ @ 169 NONAME
	_ZNK9TTmDocPosgtERKS_ @ 170 NONAME
	_ZTI13CTmTextLayout @ 171 NONAME ; #<TI>#
	_ZTI13MFormLabelApi @ 172 NONAME ; #<TI>#
	_ZTI22MTmTextLayoutForwarder @ 173 NONAME ; #<TI>#
	_ZTI9MTmCustom @ 174 NONAME ; #<TI>#
	_ZTI9MTmSource @ 175 NONAME ; #<TI>#
	_ZTV13CTmTextLayout @ 176 NONAME ; #<VT>#
	_ZTV13MFormLabelApi @ 177 NONAME ; #<VT>#
	_ZTV22MTmTextLayoutForwarder @ 178 NONAME ; #<VT>#
	_ZTV9MTmCustom @ 179 NONAME ; #<VT>#
	_ZTV9MTmSource @ 180 NONAME ; #<VT>#
	_ZTI10CTmTextImp @ 181 NONAME ABSENT ; #<TI>#
	_ZTI13CTmBufferBase @ 182 NONAME ABSENT ; #<TI>#
	_ZTI16CTmFormatContext @ 183 NONAME ABSENT ; #<TI>#
	_ZTI18TTmHighlightSource @ 184 NONAME ABSENT ; #<TI>#
	_ZTI7CTmText @ 185 NONAME ; #<TI>#
	_ZTV10CTmTextImp @ 186 NONAME ABSENT ; #<VT>#
	_ZTV13CTmBufferBase @ 187 NONAME ABSENT ; #<VT>#
	_ZTV16CTmFormatContext @ 188 NONAME ABSENT ; #<VT>#
	_ZTV18TTmHighlightSource @ 189 NONAME ABSENT ; #<VT>#
	_ZTV7CTmText @ 190 NONAME ; #<VT>#
	_ZNK13CTmTextLayout21GetMinimumLayoutSizeLEiiR5TSize @ 191 NONAME
	_ZNK22MTmTextLayoutForwarder21GetMinimumLayoutSizeLEiiR5TSize @ 192 NONAME
	_ZNK13CTmTextLayout10DrawLayoutER16CGraphicsContextRK6TPointRK5TRectPK11TLogicalRgbiPK16TCursorSelectionPK22TTmHighlightExtensions @ 193 NONAME
	_ZNK13CTmTextLayout21GetUpdateBoundingRectEiiRK6TPointR5TRect @ 194 NONAME
	_ZN13CTmTextLayout24DeleteFormattingFromEndLERK18TTmFormatParamBaseiRi @ 195 NONAME
	_ZN13CTmTextLayout26ExtendFormattingDownwardsLER14TTmFormatParam @ 196 NONAME
	_ZN13CTmTextLayout11MakeVisibleEi @ 197 NONAME
	_ZNK13CTmTextLayout10FindDocPosERK13TTmDocPosSpecR11TTmPosInfo2R11TTmLineInfoRi @ 198 NONAME
	_ZNK18MTmCustomExtension11SetPenColorER16CGraphicsContext11TLogicalRgb @ 199 NONAME
	_ZNK18MTmCustomExtension11SystemColorE11TLogicalRgb @ 200 NONAME
	_ZNK18MTmCustomExtension11SystemColorEj4TRgb @ 201 NONAME
	_ZNK18MTmCustomExtension13SetBrushColorER16CGraphicsContext11TLogicalRgb @ 202 NONAME
	_ZNK18MTmCustomExtension8DrawTextER16CGraphicsContextRK6TPointRK5TRectRK11TTmLineInfoRK13TTmCharFormatRK7TDesC16iiS4_i @ 203 NONAME
	_ZTI18MTmCustomExtension @ 204 NONAME
	_ZTV18MTmCustomExtension @ 205 NONAME

