EXPORTS
	_Z19E32Main_TestHarnessPFP16CComponentTesterR11CDataLoggerR22MComponentTestObserverE @ 1 NONAME
	_ZN11CDataLogger14LogInformationERK6TDesC8 @ 2 NONAME
	_ZN11CDataLogger14LogInformationERK7TDesC16 @ 3 NONAME
	_ZN11CDataLogger15DumpMemoryBlockEPKhi @ 4 NONAME
	_ZN11CDataLogger17ReportInformationERK7TDesC16 @ 5 NONAME
	_ZN11CDataLogger28LogInformationWithParametersE11TRefByValueIK6TDesC8Ez @ 6 NONAME
	_ZN11CDataLogger28LogInformationWithParametersE11TRefByValueIK7TDesC16Ez @ 7 NONAME
	_ZN11CDataLogger31ReportInformationWithParametersE11TRefByValueIK7TDesC16Ez @ 8 NONAME
	_ZN11CTransition10RepeatOnceEv @ 9 NONAME
	_ZN11CTransition13RunTransitionEP14TRequestStatus @ 10 NONAME
	_ZN11CTransition14SetStartStateLEv @ 11 NONAME
	_ZN11CTransition21PostTransitionCleanupEv @ 12 NONAME
	_ZN11CTransition21SetBlockingTransitionEi @ 13 NONAME
	_ZN11CTransition4RunLEv @ 14 NONAME
	_ZN11CTransition8DoCancelEv @ 15 NONAME
	_ZN11CTransition8RunErrorEi @ 16 NONAME
	_ZThn32_N9CUnitTest8CompleteER11CTransitioni @ 17 NONAME ; #<thunk>#
	_ZN11CTransitionC2ERK7TDesC16R16CUnitTestContextR20TTransitionValidator @ 18 NONAME
	_ZN11CTransitionD0Ev @ 19 NONAME
	_ZN11CTransitionD1Ev @ 20 NONAME
	_ZN11CTransitionD2Ev @ 21 NONAME
	_ZN14CComponentInfo4NewLEPFP16CComponentTesterR11CDataLoggerR22MComponentTestObserverEP13RPointerArrayI13CUnitTestInfoE @ 22 NONAME
	_ZN15CTestController10DataLoggerEv @ 23 NONAME
	_ZN15CTestController4NewLEP16CActiveSchedulerPFP16CComponentTesterR11CDataLoggerR22MComponentTestObserverEP5RTestP12TLoggingInfo @ 24 NONAME
	_ZN15CTestController5NewLCEP16CActiveSchedulerPFP16CComponentTesterR11CDataLoggerR22MComponentTestObserverEP5RTestP12TLoggingInfo @ 25 NONAME
	_ZN15CTestController5StartEP13RPointerArrayI9TTestInfoE @ 26 NONAME
	_ZN15CTestController5StartEP14TRequestStatus @ 27 NONAME
	_ZN15CTestController5StartEP14TRequestStatusP13RPointerArrayI9TTestInfoE @ 28 NONAME
	_ZN15CTestController5StartEv @ 29 NONAME
	_ZN15CTestController6CancelEv @ 30 NONAME
	_ZN15CTestControllerD0Ev @ 31 NONAME
	_ZN15CTestControllerD1Ev @ 32 NONAME
	_ZN15CTestControllerD2Ev @ 33 NONAME
	_ZN16CComponentTester12AddUnitTestLEPK9CUnitTest @ 34 NONAME
	_ZN16CComponentTester13TestComponentEP13RPointerArrayI9TTestInfoE @ 35 NONAME
	_ZN16CComponentTester17AddParamUnitTestLEPK9CUnitTest @ 36 NONAME
	_ZN16CComponentTester25ComponentTesterConstructLEv @ 37 NONAME
	_ZN16CComponentTester4RunLEv @ 38 NONAME
	_ZN16CComponentTester8CompleteEP9CUnitTest @ 39 NONAME
	_ZN16CComponentTester8DoCancelEv @ 40 NONAME
	_ZN16CComponentTester8SetRTestEP5RTest @ 41 NONAME
	_ZThn32_N9CUnitTest20SetCurrentTransitionER11CTransition @ 42 NONAME ; #<thunk>#
	_ZN16CComponentTesterC2ER11CDataLoggerR22MComponentTestObserver @ 43 NONAME
	_ZN16CComponentTesterD0Ev @ 44 NONAME
	_ZN16CComponentTesterD1Ev @ 45 NONAME
	_ZN16CComponentTesterD2Ev @ 46 NONAME
	_ZN19CLeakTestTransition21PostTransitionCleanupEv @ 47 NONAME
	_ZN19CLeakTestTransition4RunLEv @ 48 NONAME
	_ZN19CLeakTestTransition8RunErrorEi @ 49 NONAME
	_ZThn28_N16CComponentTester8CompleteEP9CUnitTest @ 50 NONAME ; #<thunk>#
	_ZN19CLeakTestTransitionC2ERK7TDesC16R16CUnitTestContextR20TTransitionValidator @ 51 NONAME
	_ZN9CUnitTest14AddTransitionLEP11CTransition @ 52 NONAME
	_ZN9CUnitTest14SetParametersLEPv @ 53 NONAME
	_ZN9CUnitTest18AddLeaveErrorCodeLEi @ 54 NONAME
	_ZN9CUnitTest18UnitTestConstructLEv @ 55 NONAME
	_ZN9CUnitTest20SetCurrentTransitionER11CTransition @ 56 NONAME
	_ZN9CUnitTest22AddBlockingTransitionLEP11CTransition @ 57 NONAME
	_ZN9CUnitTest4RunLEv @ 58 NONAME
	_ZN9CUnitTest7RunTestE27TTimeIntervalMicroSeconds32 @ 59 NONAME
	_ZN9CUnitTest8CompleteER11CTransitioni @ 60 NONAME
	_ZN9CUnitTest8DoCancelEv @ 61 NONAME
	_ZN9CUnitTestD0Ev @ 62 NONAME
	_ZN9CUnitTestD1Ev @ 63 NONAME
	_ZN9CUnitTestD2Ev @ 64 NONAME
	_ZNK11CTransition12GetErrorCodeEv @ 65 NONAME
	_ZNK11CTransition12TransitionIdEv @ 66 NONAME
	_ZNK11CTransition14TransitionInfoEv @ 67 NONAME
	_ZNK11CTransition20IsBlockingTransitionEv @ 68 NONAME
	_ZNK15CTestController14FindComponentsEv @ 69 NONAME
	_ZNK16CComponentTester15TransitionSetsLEv @ 70 NONAME
	_ZNK9CUnitTest20GetCurrentTransitionEv @ 71 NONAME
	_ZTI11CTransition @ 72 NONAME ; #<TI>#
	_ZTI15CTestController @ 73 NONAME ; #<TI>#
	_ZTI16CComponentTester @ 74 NONAME ; #<TI>#
	_ZTI19CLeakTestTransition @ 75 NONAME ; #<TI>#
	_ZTI9CUnitTest @ 76 NONAME ; #<TI>#
	_ZTV11CTransition @ 77 NONAME ; #<VT>#
	_ZTV15CTestController @ 78 NONAME ; #<VT>#
	_ZTV16CComponentTester @ 79 NONAME ; #<VT>#
	_ZTV19CLeakTestTransition @ 80 NONAME ; #<VT>#
	_ZTV9CUnitTest @ 81 NONAME ; #<VT>#
	_ZTI11CDataLogger @ 82 NONAME ; #<TI>#
	_ZTI12CTestManager @ 83 NONAME ABSENT ; #<TI>#
	_ZTI13CUnitTestInfo @ 84 NONAME ABSENT ; #<TI>#
	_ZTI14CComponentInfo @ 85 NONAME ; #<TI>#
	_ZTI17CDefaultLogOutput @ 86 NONAME ABSENT ; #<TI>#
	_ZTI19TLogMessageOverflow @ 87 NONAME ABSENT ; #<TI>#
	_ZTI20TLogMessageOverflow8 @ 88 NONAME ABSENT ; #<TI>#
	_ZTIN11CDataLogger11TDebugPrintE @ 89 NONAME ABSENT ; #<TI>#
	_ZTV11CDataLogger @ 90 NONAME ; #<VT>#
	_ZTV12CTestManager @ 91 NONAME ABSENT ; #<VT>#
	_ZTV13CUnitTestInfo @ 92 NONAME ABSENT ; #<VT>#
	_ZTV14CComponentInfo @ 93 NONAME ; #<VT>#
	_ZTV17CDefaultLogOutput @ 94 NONAME ABSENT ; #<VT>#
	_ZTV19TLogMessageOverflow @ 95 NONAME ABSENT ; #<VT>#
	_ZTV20TLogMessageOverflow8 @ 96 NONAME ABSENT ; #<VT>#
	_ZTVN11CDataLogger11TDebugPrintE @ 97 NONAME ABSENT ; #<VT>#

