EXPORTS
	_ZN12CSdpDocument10TimeFieldsEv @ 1 NONAME
	_ZN12CSdpDocument11EmailFieldsEv @ 2 NONAME
	_ZN12CSdpDocument11MediaFieldsEv @ 3 NONAME
	_ZN12CSdpDocument11OriginFieldEv @ 4 NONAME
	_ZN12CSdpDocument11PhoneFieldsEv @ 5 NONAME
	_ZN12CSdpDocument12InternalizeLER11RReadStream @ 6 NONAME
	_ZN12CSdpDocument14SetOriginFieldEP15CSdpOriginField @ 7 NONAME
	_ZN12CSdpDocument15AttributeFieldsEv @ 8 NONAME
	_ZN12CSdpDocument15BandwidthFieldsEv @ 9 NONAME
	_ZN12CSdpDocument15ConnectionFieldEv @ 10 NONAME
	_ZN12CSdpDocument15SetSessionNameLERK6TDesC8 @ 11 NONAME
	_ZN12CSdpDocument18SetConnectionFieldEP19CSdpConnectionField @ 12 NONAME
	_ZN12CSdpDocument19SetZoneAdjustmentsLERK6TDesC8 @ 13 NONAME
	_ZN12CSdpDocument3KeyEv @ 14 NONAME
	_ZN12CSdpDocument3UriEv @ 15 NONAME
	_ZN12CSdpDocument4NewLEv @ 16 NONAME
	_ZN12CSdpDocument5NewLCEv @ 17 NONAME
	_ZN12CSdpDocument6SetKeyEP12CSdpKeyField @ 18 NONAME
	_ZN12CSdpDocument6SetUriEP5CUri8 @ 19 NONAME
	_ZN12CSdpDocument7DecodeLERK6TDesC8 @ 20 NONAME
	_ZN12CSdpDocument8DecodeLCERK6TDesC8 @ 21 NONAME
	_ZN12CSdpDocument8SetInfoLERK6TDesC8 @ 22 NONAME
	_ZN12CSdpDocumentD0Ev @ 23 NONAME
	_ZN12CSdpDocumentD1Ev @ 24 NONAME
	_ZN12CSdpDocumentD2Ev @ 25 NONAME
	_ZN12CSdpKeyField4NewLE8RStringFRK6TDesC8 @ 26 NONAME
	_ZN12CSdpKeyField4SetLE8RStringFRK6TDesC8 @ 27 NONAME
	_ZN12CSdpKeyField5NewLCE8RStringFRK6TDesC8 @ 28 NONAME
	_ZN12CSdpKeyField7DecodeLERK6TDesC8 @ 29 NONAME
	_ZN12CSdpKeyField8DecodeLCERK6TDesC8 @ 30 NONAME
	_ZN12CSdpKeyFieldD0Ev @ 31 NONAME
	_ZN12CSdpKeyFieldD1Ev @ 32 NONAME
	_ZN12CSdpKeyFieldD2Ev @ 33 NONAME
	_ZN13CSdpTimeField12RepeatFieldsEv @ 34 NONAME
	_ZN13CSdpTimeField4NewLERK6TDesC8S2_ @ 35 NONAME
	_ZN13CSdpTimeField5NewLCERK6TDesC8S2_ @ 36 NONAME
	_ZN13CSdpTimeField7DecodeLERK6TDesC8i @ 37 NONAME
	_ZN13CSdpTimeField8DecodeLCERK6TDesC8i @ 38 NONAME
	_ZN13CSdpTimeField9SetTimesLERK6TDesC8S2_ @ 39 NONAME
	_ZN13CSdpTimeFieldD0Ev @ 40 NONAME
	_ZN13CSdpTimeFieldD1Ev @ 41 NONAME
	_ZN13CSdpTimeFieldD2Ev @ 42 NONAME
	_ZN13TSdpTypedTime8SetValueExNS_5TUnitE @ 43 NONAME
	_ZN13TSdpTypedTimeC1Ev @ 44 NONAME
	_ZN13TSdpTypedTimeC1ExNS_5TUnitE @ 45 NONAME
	_ZN13TSdpTypedTimeC2Ev @ 46 NONAME
	_ZN13TSdpTypedTimeC2ExNS_5TUnitE @ 47 NONAME
	_ZN14CSdpMediaField11KeepFormatLERK6TDesC8 @ 48 NONAME
	_ZN14CSdpMediaField11RejectMediaEv @ 49 NONAME
	_ZN14CSdpMediaField12SetProtocolLE8RStringF @ 50 NONAME
	_ZN14CSdpMediaField13RemoveFormatLERK6TDesC8 @ 51 NONAME
	_ZN14CSdpMediaField13SetPortCountLEj @ 52 NONAME
	_ZN14CSdpMediaField14SetFormatListLERK6TDesC8 @ 53 NONAME
	_ZN14CSdpMediaField15AttributeFieldsEv @ 54 NONAME
	_ZN14CSdpMediaField15BandwidthFieldsEv @ 55 NONAME
	_ZN14CSdpMediaField16ConnectionFieldsEv @ 56 NONAME
	_ZN14CSdpMediaField21FormatAttributeFieldsEv @ 57 NONAME
	_ZN14CSdpMediaField3KeyEv @ 58 NONAME
	_ZN14CSdpMediaField4NewLE8RStringFjS0_RK6TDesC8 @ 59 NONAME
	_ZN14CSdpMediaField5NewLCE8RStringFjS0_RK6TDesC8 @ 60 NONAME
	_ZN14CSdpMediaField6SetKeyEP12CSdpKeyField @ 61 NONAME
	_ZN14CSdpMediaField7DecodeLERK6TDesC8i @ 62 NONAME
	_ZN14CSdpMediaField8DecodeLCERK6TDesC8i @ 63 NONAME
	_ZN14CSdpMediaField8SetInfoLERK6TDesC8 @ 64 NONAME
	_ZN14CSdpMediaField8SetPortLEj @ 65 NONAME
	_ZN14CSdpMediaField9SetMediaLE8RStringF @ 66 NONAME
	_ZN14CSdpMediaFieldD0Ev @ 67 NONAME
	_ZN14CSdpMediaFieldD1Ev @ 68 NONAME
	_ZN14CSdpMediaFieldD2Ev @ 69 NONAME
	_ZN15CSdpOriginField10SetVersionEx @ 70 NONAME
	_ZN15CSdpOriginField11SetAddressLERK6TDesC88RStringFS3_ @ 71 NONAME
	_ZN15CSdpOriginField12SetSessionIdEx @ 72 NONAME
	_ZN15CSdpOriginField12SetUserNameLERK6TDesC8 @ 73 NONAME
	_ZN15CSdpOriginField14SetInetAddressERK9TInetAddr @ 74 NONAME
	_ZN15CSdpOriginField4NewLERK6TDesC8xx8RStringFS3_S2_ @ 75 NONAME
	_ZN15CSdpOriginField4NewLERK6TDesC8xxR9TInetAddr @ 76 NONAME
	_ZN15CSdpOriginField5NewLCERK6TDesC8xx8RStringFS3_S2_ @ 77 NONAME
	_ZN15CSdpOriginField5NewLCERK6TDesC8xxR9TInetAddr @ 78 NONAME
	_ZN15CSdpOriginField7DecodeLERK6TDesC8 @ 79 NONAME
	_ZN15CSdpOriginField8DecodeLCERK6TDesC8 @ 80 NONAME
	_ZN15CSdpOriginFieldD0Ev @ 81 NONAME
	_ZN15CSdpOriginFieldD1Ev @ 82 NONAME
	_ZN15CSdpOriginFieldD2Ev @ 83 NONAME
	_ZN15CSdpRepeatField15SetTimeOffsetsLERK6RArrayI13TSdpTypedTimeE @ 84 NONAME
	_ZN15CSdpRepeatField17SetActiveDurationE13TSdpTypedTime @ 85 NONAME
	_ZN15CSdpRepeatField18SetRepeatIntervalLE13TSdpTypedTime @ 86 NONAME
	_ZN15CSdpRepeatField4NewLE13TSdpTypedTimeS0_RK6RArrayIS0_E @ 87 NONAME
	_ZN15CSdpRepeatField5NewLCE13TSdpTypedTimeS0_RK6RArrayIS0_E @ 88 NONAME
	_ZN15CSdpRepeatField7DecodeLERK6TDesC8 @ 89 NONAME
	_ZN15CSdpRepeatField8DecodeLCERK6TDesC8 @ 90 NONAME
	_ZN15CSdpRepeatFieldD0Ev @ 91 NONAME
	_ZN15CSdpRepeatFieldD1Ev @ 92 NONAME
	_ZN15CSdpRepeatFieldD2Ev @ 93 NONAME
	_ZN15TSdpRtpmapValue7DecodeLERK6TDesC8 @ 94 NONAME
	_ZN15TSdpRtpmapValueC1ERK6TPtrC8S2_S2_ @ 95 NONAME
	_ZN15TSdpRtpmapValueC2ERK6TPtrC8S2_S2_ @ 96 NONAME
	_ZN18CSdpAttributeField4NewLE8RStringFRK6TDesC8 @ 97 NONAME
	_ZN18CSdpAttributeField4SetLE8RStringFRK6TDesC8 @ 98 NONAME
	_ZN18CSdpAttributeField5NewLCE8RStringFRK6TDesC8 @ 99 NONAME
	_ZN18CSdpAttributeField7DecodeLERK6TDesC8 @ 100 NONAME
	_ZN18CSdpAttributeField8DecodeLCERK6TDesC8 @ 101 NONAME
	_ZN18CSdpAttributeFieldD0Ev @ 102 NONAME
	_ZN18CSdpAttributeFieldD1Ev @ 103 NONAME
	_ZN18CSdpAttributeFieldD2Ev @ 104 NONAME
	_ZN18CSdpBandwidthField11SetModifierE8RStringF @ 105 NONAME
	_ZN18CSdpBandwidthField4NewLE8RStringFm @ 106 NONAME
	_ZN18CSdpBandwidthField5NewLCE8RStringFm @ 107 NONAME
	_ZN18CSdpBandwidthField7DecodeLERK6TDesC8 @ 108 NONAME
	_ZN18CSdpBandwidthField8DecodeLCERK6TDesC8 @ 109 NONAME
	_ZN18CSdpBandwidthField8SetValueEm @ 110 NONAME
	_ZN18CSdpBandwidthFieldD0Ev @ 111 NONAME
	_ZN18CSdpBandwidthFieldD1Ev @ 112 NONAME
	_ZN18CSdpBandwidthFieldD2Ev @ 113 NONAME
	_ZN18SdpCodecStringPool11StringPoolLEv @ 114 NONAME
	_ZN18SdpCodecStringPool12StringTableLEv @ 115 NONAME
	_ZN18SdpCodecStringPool5CloseEv @ 116 NONAME
	_ZN18SdpCodecStringPool5OpenLEv @ 117 NONAME
	_ZN19CSdpConnectionField11SetAddressLE8RStringFS0_RK6TDesC8 @ 118 NONAME
	_ZN19CSdpConnectionField15SetInetAddressLERK9TInetAddrij @ 119 NONAME
	_ZN19CSdpConnectionField16SetNumOfAddressLEj @ 120 NONAME
	_ZN19CSdpConnectionField4NewLE8RStringFS0_RK6TDesC8 @ 121 NONAME
	_ZN19CSdpConnectionField4NewLERK9TInetAddrij @ 122 NONAME
	_ZN19CSdpConnectionField5NewLCE8RStringFS0_RK6TDesC8 @ 123 NONAME
	_ZN19CSdpConnectionField5NewLCERK9TInetAddrij @ 124 NONAME
	_ZN19CSdpConnectionField7DecodeLERK6TDesC8 @ 125 NONAME
	_ZN19CSdpConnectionField7SetTTLLEi @ 126 NONAME
	_ZN19CSdpConnectionField8DecodeLCERK6TDesC8 @ 127 NONAME
	_ZN19CSdpConnectionFieldD0Ev @ 128 NONAME
	_ZN19CSdpConnectionFieldD1Ev @ 129 NONAME
	_ZN19CSdpConnectionFieldD2Ev @ 130 NONAME
	_ZN21CSdpFmtAttributeField4NewLE8RStringFRK6TDesC8S3_ @ 131 NONAME
	_ZN21CSdpFmtAttributeField4SetLE8RStringFRK6TDesC8S3_ @ 132 NONAME
	_ZN21CSdpFmtAttributeField5NewLCE8RStringFRK6TDesC8S3_ @ 133 NONAME
	_ZN21CSdpFmtAttributeField7DecodeLERK6TDesC8 @ 134 NONAME
	_ZN21CSdpFmtAttributeField8DecodeLCERK6TDesC8 @ 135 NONAME
	_ZN21CSdpFmtAttributeFieldD0Ev @ 136 NONAME
	_ZN21CSdpFmtAttributeFieldD1Ev @ 137 NONAME
	_ZN21CSdpFmtAttributeFieldD2Ev @ 138 NONAME
	_ZNK12CSdpDocument10SdpVersionEv @ 139 NONAME
	_ZNK12CSdpDocument11OriginFieldEv @ 140 NONAME
	_ZNK12CSdpDocument11SessionNameEv @ 141 NONAME
	_ZNK12CSdpDocument12ExternalizeLER12RWriteStream @ 142 NONAME
	_ZNK12CSdpDocument15ConnectionFieldEv @ 143 NONAME
	_ZNK12CSdpDocument15ZoneAdjustmentsEv @ 144 NONAME
	_ZNK12CSdpDocument3KeyEv @ 145 NONAME
	_ZNK12CSdpDocument3UriEv @ 146 NONAME
	_ZNK12CSdpDocument4InfoEv @ 147 NONAME
	_ZNK12CSdpDocument6CloneLEv @ 148 NONAME
	_ZNK12CSdpDocument7EncodeLER12RWriteStream @ 149 NONAME
	_ZNK12CSdpDocument7IsValidEv @ 150 NONAME
	_ZNK12CSdpKeyField13EncryptionKeyEv @ 151 NONAME
	_ZNK12CSdpKeyField6CloneLEv @ 152 NONAME
	_ZNK12CSdpKeyField6MethodEv @ 153 NONAME
	_ZNK12CSdpKeyField7EncodeLER12RWriteStream @ 154 NONAME
	_ZNK12CSdpKeyFieldeqERKS_ @ 155 NONAME
	_ZNK13CSdpTimeField6CloneLEi @ 156 NONAME
	_ZNK13CSdpTimeField7EncodeLER12RWriteStreami @ 157 NONAME
	_ZNK13CSdpTimeField7IsValidEv @ 158 NONAME
	_ZNK13CSdpTimeField8StopTimeEv @ 159 NONAME
	_ZNK13CSdpTimeField9StartTimeEv @ 160 NONAME
	_ZNK13CSdpTimeFieldeqERKS_ @ 161 NONAME
	_ZNK13TSdpTypedTimeeqERKS_ @ 162 NONAME
	_ZNK14CSdpMediaField10FormatListEv @ 163 NONAME
	_ZNK14CSdpMediaField3KeyEv @ 164 NONAME
	_ZNK14CSdpMediaField4InfoEv @ 165 NONAME
	_ZNK14CSdpMediaField4PortEv @ 166 NONAME
	_ZNK14CSdpMediaField5MediaEv @ 167 NONAME
	_ZNK14CSdpMediaField6CloneLEi @ 168 NONAME
	_ZNK14CSdpMediaField7EncodeLER12RWriteStreami @ 169 NONAME
	_ZNK14CSdpMediaField7IsValidEv @ 170 NONAME
	_ZNK14CSdpMediaField8ProtocolEv @ 171 NONAME
	_ZNK14CSdpMediaField9PortCountEv @ 172 NONAME
	_ZNK14CSdpMediaFieldeqERKS_ @ 173 NONAME
	_ZNK15CSdpOriginField11AddressTypeEv @ 174 NONAME
	_ZNK15CSdpOriginField11InetAddressEv @ 175 NONAME
	_ZNK15CSdpOriginField6CloneLEv @ 176 NONAME
	_ZNK15CSdpOriginField7AddressEv @ 177 NONAME
	_ZNK15CSdpOriginField7EncodeLER12RWriteStream @ 178 NONAME
	_ZNK15CSdpOriginField7NetTypeEv @ 179 NONAME
	_ZNK15CSdpOriginField7VersionEv @ 180 NONAME
	_ZNK15CSdpOriginField8UserNameEv @ 181 NONAME
	_ZNK15CSdpOriginField9SessionIdEv @ 182 NONAME
	_ZNK15CSdpOriginFieldeqERKS_ @ 183 NONAME
	_ZNK15CSdpRepeatField11TimeOffsetsEv @ 184 NONAME
	_ZNK15CSdpRepeatField14ActiveDurationEv @ 185 NONAME
	_ZNK15CSdpRepeatField14RepeatIntervalEv @ 186 NONAME
	_ZNK15CSdpRepeatField6CloneLEv @ 187 NONAME
	_ZNK15CSdpRepeatField7EncodeLER12RWriteStream @ 188 NONAME
	_ZNK15CSdpRepeatFieldeqERKS_ @ 189 NONAME
	_ZNK15TSdpRtpmapValue7EncodeLEv @ 190 NONAME
	_ZNK18CSdpAttributeField5ValueEv @ 191 NONAME
	_ZNK18CSdpAttributeField6CloneLEv @ 192 NONAME
	_ZNK18CSdpAttributeField7EncodeLER12RWriteStream @ 193 NONAME
	_ZNK18CSdpAttributeField9AttributeEv @ 194 NONAME
	_ZNK18CSdpAttributeFieldeqERKS_ @ 195 NONAME
	_ZNK18CSdpBandwidthField5ValueEv @ 196 NONAME
	_ZNK18CSdpBandwidthField6CloneLEv @ 197 NONAME
	_ZNK18CSdpBandwidthField7EncodeLER12RWriteStream @ 198 NONAME
	_ZNK18CSdpBandwidthField8ModifierEv @ 199 NONAME
	_ZNK18CSdpBandwidthFieldeqERKS_ @ 200 NONAME
	_ZNK19CSdpConnectionField11AddressTypeEv @ 201 NONAME
	_ZNK19CSdpConnectionField11InetAddressEv @ 202 NONAME
	_ZNK19CSdpConnectionField12NumOfAddressEv @ 203 NONAME
	_ZNK19CSdpConnectionField6CloneLEv @ 204 NONAME
	_ZNK19CSdpConnectionField7AddressEv @ 205 NONAME
	_ZNK19CSdpConnectionField7EncodeLER12RWriteStream @ 206 NONAME
	_ZNK19CSdpConnectionField7NetTypeEv @ 207 NONAME
	_ZNK19CSdpConnectionField8TTLValueEv @ 208 NONAME
	_ZNK19CSdpConnectionFieldeqERKS_ @ 209 NONAME
	_ZNK21CSdpFmtAttributeField5ValueEv @ 210 NONAME
	_ZNK21CSdpFmtAttributeField6CloneLEv @ 211 NONAME
	_ZNK21CSdpFmtAttributeField6FormatEv @ 212 NONAME
	_ZNK21CSdpFmtAttributeField7EncodeLER12RWriteStream @ 213 NONAME
	_ZNK21CSdpFmtAttributeField9AttributeEv @ 214 NONAME
	_ZNK21CSdpFmtAttributeFieldeqERKS_ @ 215 NONAME
	_ZTI12CSdpDocument @ 216 NONAME ; #<TI>#
	_ZTI12CSdpKeyField @ 217 NONAME ; #<TI>#
	_ZTI13CSdpTimeField @ 218 NONAME ; #<TI>#
	_ZTI14CSdpMediaField @ 219 NONAME ; #<TI>#
	_ZTI15CSdpOriginField @ 220 NONAME ; #<TI>#
	_ZTI15CSdpRepeatField @ 221 NONAME ; #<TI>#
	_ZTI18CSdpAttributeField @ 222 NONAME ; #<TI>#
	_ZTI18CSdpBandwidthField @ 223 NONAME ; #<TI>#
	_ZTI18CSdpCodecParseUtil @ 224 NONAME ; #<TI>#
	_ZTI19CSdpCodecStringPool @ 225 NONAME ; #<TI>#
	_ZTI19CSdpConnectionField @ 226 NONAME ; #<TI>#
	_ZTI21CSdpFmtAttributeField @ 227 NONAME ; #<TI>#
	_ZTV12CSdpDocument @ 228 NONAME ; #<VT>#
	_ZTV12CSdpKeyField @ 229 NONAME ; #<VT>#
	_ZTV13CSdpTimeField @ 230 NONAME ; #<VT>#
	_ZTV14CSdpMediaField @ 231 NONAME ; #<VT>#
	_ZTV15CSdpOriginField @ 232 NONAME ; #<VT>#
	_ZTV15CSdpRepeatField @ 233 NONAME ; #<VT>#
	_ZTV18CSdpAttributeField @ 234 NONAME ; #<VT>#
	_ZTV18CSdpBandwidthField @ 235 NONAME ; #<VT>#
	_ZTV18CSdpCodecParseUtil @ 236 NONAME ; #<VT>#
	_ZTV19CSdpCodecStringPool @ 237 NONAME ; #<VT>#
	_ZTV19CSdpConnectionField @ 238 NONAME ; #<VT>#
	_ZTV21CSdpFmtAttributeField @ 239 NONAME ; #<VT>#
	_ZN18CSdpAttributeField8AssignToERK21CSdpFmtAttributeField @ 240 NONAME
	_ZNK18CSdpAttributeField9BelongsToERK21CSdpFmtAttributeField @ 241 NONAME
	_ZTI22CSdpAttributeFieldPtrs @ 242 NONAME ; #<TI>#
	_ZTV22CSdpAttributeFieldPtrs @ 243 NONAME ; #<VT>#
	_ZTI19CSdpOriginFieldPtrs @ 244 NONAME ; #<TI>#
	_ZTV19CSdpOriginFieldPtrs @ 245 NONAME ; #<VT>#

