EXPORTS
	??1CRepository@@UAE@XZ @ 1 NONAME ; CRepository::~CRepository(void)
	?CancelTransaction@CRepository@@QAEXXZ @ 2 NONAME ; void CRepository::CancelTransaction(void)
	?CleanupCancelTransactionPushL@CRepository@@QAEXXZ @ 3 NONAME ; void CRepository::CleanupCancelTransactionPushL(void)
	?CleanupFailTransactionPushL@CRepository@@QAEXXZ @ 4 NONAME ; void CRepository::CleanupFailTransactionPushL(void)
	?CommitTransaction@CRepository@@QAEHAAK@Z @ 5 NONAME ; int CRepository::CommitTransaction(unsigned long &)
	?CommitTransaction@CRepository@@QAEXAAVTDes8@@AAVTRequestStatus@@@Z @ 6 NONAME ; void CRepository::CommitTransaction(class TDes8 &, class TRequestStatus &)
	?Create@CRepository@@QAEHKABN@Z @ 7 NONAME ; int CRepository::Create(unsigned long, double const &)
	?Create@CRepository@@QAEHKABVTDesC16@@@Z @ 8 NONAME ; int CRepository::Create(unsigned long, class TDesC16 const &)
	?Create@CRepository@@QAEHKABVTDesC8@@@Z @ 9 NONAME ; int CRepository::Create(unsigned long, class TDesC8 const &)
	?Create@CRepository@@QAEHKH@Z @ 10 NONAME ; int CRepository::Create(unsigned long, int)
	?Delete@CRepository@@QAEHK@Z @ 11 NONAME ; int CRepository::Delete(unsigned long)
	?Delete@CRepository@@QAEHKKAAK@Z @ 12 NONAME ; int CRepository::Delete(unsigned long, unsigned long, unsigned long &)
	?FailTransaction@CRepository@@QAEXXZ @ 13 NONAME ; void CRepository::FailTransaction(void)
	?FindEqL@CRepository@@QAEHKKABNAAV?$RArray@K@@@Z @ 14 NONAME ; int CRepository::FindEqL(unsigned long, unsigned long, double const &, class RArray<unsigned long> &)
	?FindEqL@CRepository@@QAEHKKABVTDesC16@@AAV?$RArray@K@@@Z @ 15 NONAME ; int CRepository::FindEqL(unsigned long, unsigned long, class TDesC16 const &, class RArray<unsigned long> &)
	?FindEqL@CRepository@@QAEHKKABVTDesC8@@AAV?$RArray@K@@@Z @ 16 NONAME ; int CRepository::FindEqL(unsigned long, unsigned long, class TDesC8 const &, class RArray<unsigned long> &)
	?FindEqL@CRepository@@QAEHKKHAAV?$RArray@K@@@Z @ 17 NONAME ; int CRepository::FindEqL(unsigned long, unsigned long, int, class RArray<unsigned long> &)
	?FindL@CRepository@@QAEHKKAAV?$RArray@K@@@Z @ 18 NONAME ; int CRepository::FindL(unsigned long, unsigned long, class RArray<unsigned long> &)
	?FindNeqL@CRepository@@QAEHKKABNAAV?$RArray@K@@@Z @ 19 NONAME ; int CRepository::FindNeqL(unsigned long, unsigned long, double const &, class RArray<unsigned long> &)
	?FindNeqL@CRepository@@QAEHKKABVTDesC16@@AAV?$RArray@K@@@Z @ 20 NONAME ; int CRepository::FindNeqL(unsigned long, unsigned long, class TDesC16 const &, class RArray<unsigned long> &)
	?FindNeqL@CRepository@@QAEHKKABVTDesC8@@AAV?$RArray@K@@@Z @ 21 NONAME ; int CRepository::FindNeqL(unsigned long, unsigned long, class TDesC8 const &, class RArray<unsigned long> &)
	?FindNeqL@CRepository@@QAEHKKHAAV?$RArray@K@@@Z @ 22 NONAME ; int CRepository::FindNeqL(unsigned long, unsigned long, int, class RArray<unsigned long> &)
	?Flush@CRepository@@QAEHXZ @ 23 NONAME ; int CRepository::Flush(void)
	?Get@CRepository@@QAEHKAAH@Z @ 24 NONAME ; int CRepository::Get(unsigned long, int &)
	?Get@CRepository@@QAEHKAAN@Z @ 25 NONAME ; int CRepository::Get(unsigned long, double &)
	?Get@CRepository@@QAEHKAAVTDes16@@@Z @ 26 NONAME ; int CRepository::Get(unsigned long, class TDes16 &)
	?Get@CRepository@@QAEHKAAVTDes16@@AAH@Z @ 27 NONAME ; int CRepository::Get(unsigned long, class TDes16 &, int &)
	?Get@CRepository@@QAEHKAAVTDes8@@@Z @ 28 NONAME ; int CRepository::Get(unsigned long, class TDes8 &)
	?Get@CRepository@@QAEHKAAVTDes8@@AAH@Z @ 29 NONAME ; int CRepository::Get(unsigned long, class TDes8 &, int &)
	?GetMeta@CRepository@@QAEHKAAK@Z @ 30 NONAME ; int CRepository::GetMeta(unsigned long, unsigned long &)
	?Move@CRepository@@QAEHKKKAAK@Z @ 31 NONAME ; int CRepository::Move(unsigned long, unsigned long, unsigned long, unsigned long &)
	?NewL@CRepository@@SAPAV1@ABVTDesC16@@0@Z @ 32 NONAME ; class CRepository * CRepository::NewL(class TDesC16 const &, class TDesC16 const &)
	?NewL@CRepository@@SAPAV1@VTUid@@@Z @ 33 NONAME ; class CRepository * CRepository::NewL(class TUid)
	?NewLC@CRepository@@SAPAV1@ABVTDesC16@@0@Z @ 34 NONAME ; class CRepository * CRepository::NewLC(class TDesC16 const &, class TDesC16 const &)
	?NewLC@CRepository@@SAPAV1@VTUid@@@Z @ 35 NONAME ; class CRepository * CRepository::NewLC(class TUid)
	?Set@CRepository@@QAEHKABN@Z @ 36 NONAME ; int CRepository::Set(unsigned long, double const &)
	?Set@CRepository@@QAEHKABVTDesC16@@@Z @ 37 NONAME ; int CRepository::Set(unsigned long, class TDesC16 const &)
	?Set@CRepository@@QAEHKABVTDesC8@@@Z @ 38 NONAME ; int CRepository::Set(unsigned long, class TDesC8 const &)
	?Set@CRepository@@QAEHKH@Z @ 39 NONAME ; int CRepository::Set(unsigned long, int)
	?StartTransaction@CRepository@@QAEHW4TTransactionMode@1@@Z @ 40 NONAME ; int CRepository::StartTransaction(enum CRepository::TTransactionMode)
	?StartTransaction@CRepository@@QAEXW4TTransactionMode@1@AAVTRequestStatus@@@Z @ 41 NONAME ; void CRepository::StartTransaction(enum CRepository::TTransactionMode, class TRequestStatus &)

