EXPORTS
	?AppendToStatus@CStreamFactoryBase@@IAEXABVTDesC16@@@Z @ 1 NONAME ; protected: void __thiscall CStreamFactoryBase::AppendToStatus(class TDesC16 const &)
	?CompleteRead@CStreamBase@@IAEXABVRMessage@@@Z @ 2 NONAME ; protected: void __thiscall CStreamBase::CompleteRead(class RMessage const &)
	?Connect@RRedirSession@@QAEHXZ @ 3 NONAME ; public: int __thiscall RRedirSession::Connect(void)
	?Flush@RRedirSession@@QAEXAAVTRequestStatus@@@Z @ 4 NONAME ; public: void __thiscall RRedirSession::Flush(class TRequestStatus &)
	?GetStatus@CStreamFactoryBase@@UBEABVTDesC16@@XZ @ 5 NONAME ; public: virtual class TDesC16 const & __thiscall CStreamFactoryBase::GetStatus(void)const 
	?NewL@CRedirServer@@SAPAV1@PAVCStreamFactoryBase@@@Z @ 6 NONAME ; public: static class CRedirServer * __cdecl CRedirServer::NewL(class CStreamFactoryBase *)
	?Read@RRedirSession@@QAEXAAVTRequestStatus@@AAVTDes8@@@Z @ 7 NONAME ; public: void __thiscall RRedirSession::Read(class TRequestStatus &,class TDes8 &)
	?Read@RRedirSession@@QAEXAAVTRequestStatus@@AAVTDes8@@H@Z @ 8 NONAME ; public: void __thiscall RRedirSession::Read(class TRequestStatus &,class TDes8 &,int)
	?SetStreamFactory@CRedirServer@@QAEXPAVCStreamFactoryBase@@@Z @ 9 NONAME ; public: void __thiscall CRedirServer::SetStreamFactory(class CStreamFactoryBase *)
	?Write@RRedirSession@@QAEXAAVTRequestStatus@@ABVTDesC8@@@Z @ 10 NONAME ; public: void __thiscall RRedirSession::Write(class TRequestStatus &,class TDesC8 const &)
	?Write@RRedirSession@@QAEXAAVTRequestStatus@@ABVTDesC8@@H@Z @ 11 NONAME ; public: void __thiscall RRedirSession::Write(class TRequestStatus &,class TDesC8 const &,int)
	?AppendToStatus@CStreamFactoryBase2@@IAEXABVTDesC16@@@Z @ 12 NONAME ; void CStreamFactoryBase2::AppendToStatus(class TDesC16 const &)
	?CompleteRead@CStreamBase2@@IAEXABVRMessage2@@@Z @ 13 NONAME ; void CStreamBase2::CompleteRead(class RMessage2 const &)
	?Connect@RRedirSession2@@QAEHXZ @ 14 NONAME ; int RRedirSession2::Connect(void)
	?Flush@RRedirSession2@@QAEXAAVTRequestStatus@@@Z @ 15 NONAME ; void RRedirSession2::Flush(class TRequestStatus &)
	?GetStatus@CStreamFactoryBase2@@UBEABVTDesC16@@XZ @ 16 NONAME ; class TDesC16 const & CStreamFactoryBase2::GetStatus(void) const
	?NewL@CRedirServer2@@SAPAV1@PAVCStreamFactoryBase2@@@Z @ 17 NONAME ; class CRedirServer2 * CRedirServer2::NewL(class CStreamFactoryBase2 *)
	?Read@RRedirSession2@@QAEXAAVTRequestStatus@@AAVTDes8@@@Z @ 18 NONAME ; void RRedirSession2::Read(class TRequestStatus &, class TDes8 &)
	?Read@RRedirSession2@@QAEXAAVTRequestStatus@@AAVTDes8@@H@Z @ 19 NONAME ; void RRedirSession2::Read(class TRequestStatus &, class TDes8 &, int)
	?SetStreamFactory@CRedirServer2@@QAEXPAVCStreamFactoryBase2@@@Z @ 20 NONAME ; void CRedirServer2::SetStreamFactory(class CStreamFactoryBase2 *)
	?Write@RRedirSession2@@QAEXAAVTRequestStatus@@ABVTDesC8@@@Z @ 21 NONAME ; void RRedirSession2::Write(class TRequestStatus &, class TDesC8 const &)
	?Write@RRedirSession2@@QAEXAAVTRequestStatus@@ABVTDesC8@@H@Z @ 22 NONAME ; void RRedirSession2::Write(class TRequestStatus &, class TDesC8 const &, int)

