EXPORTS
	?DummyReserved1@@YAXXZ @ 1 NONAME ; void DummyReserved1(void)
	?DummyReserved2@@YAXXZ @ 2 NONAME ; void DummyReserved2(void)
	?DummyReserved3@@YAXXZ @ 3 NONAME ; void DummyReserved3(void)
	?DummyReserved4@@YAXXZ @ 4 NONAME ; void DummyReserved4(void)
	?DummyReserved5@@YAXXZ @ 5 NONAME ; void DummyReserved5(void)
	?DummyReserved6@@YAXXZ @ 6 NONAME ; void DummyReserved6(void)
	?DummyReserved7@@YAXXZ @ 7 NONAME ; void DummyReserved7(void)
	?DummyReserved8@@YAXXZ @ 8 NONAME ; void DummyReserved8(void)
	?DummyReserved10@@YAXXZ @ 9 NONAME ; void DummyReserved10(void)
	?DummyReserved11@@YAXXZ @ 10 NONAME ; void DummyReserved11(void)
	?DummyReserved9@@YAXXZ @ 11 NONAME ; void DummyReserved9(void)
	?AppendToStatus@CStreamFactoryBase2@@IAEXABVTDesC16@@@Z @ 12 NONAME ; void CStreamFactoryBase2::AppendToStatus(class TDesC16 const &)
	?CompleteRead@CStreamBase2@@IAEXABVRMessage2@@@Z @ 13 NONAME ; void CStreamBase2::CompleteRead(class RMessage2 const &)
	?Connect@RRedirSession2@@QAEHXZ @ 14 NONAME ; int RRedirSession2::Connect(void)
	?Flush@RRedirSession2@@QAEXAAVTRequestStatus@@@Z @ 15 NONAME ; void RRedirSession2::Flush(class TRequestStatus &)
	?GetStatus@CStreamFactoryBase2@@UBEABVTDesC16@@XZ @ 16 NONAME ; class TDesC16 const & CStreamFactoryBase2::GetStatus(void) const
	?NewL@CRedirServer2@@SAPAV1@PAVCStreamFactoryBase2@@@Z @ 17 NONAME ; class CRedirServer2 * CRedirServer2::NewL(class CStreamFactoryBase2 *)
	?Read@RRedirSession2@@QAEXAAVTRequestStatus@@AAVTDes8@@@Z @ 18 NONAME ; void RRedirSession2::Read(class TRequestStatus &, class TDes8 &)
	?Read@RRedirSession2@@QAEXAAVTRequestStatus@@AAVTDes8@@H@Z @ 19 NONAME ; void RRedirSession2::Read(class TRequestStatus &, class TDes8 &, int)
	?SetStreamFactory@CRedirServer2@@QAEXPAVCStreamFactoryBase2@@@Z @ 20 NONAME ; void CRedirServer2::SetStreamFactory(class CStreamFactoryBase2 *)
	?Write@RRedirSession2@@QAEXAAVTRequestStatus@@ABVTDesC8@@@Z @ 21 NONAME ; void RRedirSession2::Write(class TRequestStatus &, class TDesC8 const &)
	?Write@RRedirSession2@@QAEXAAVTRequestStatus@@ABVTDesC8@@H@Z @ 22 NONAME ; void RRedirSession2::Write(class TRequestStatus &, class TDesC8 const &, int)

