EXPORTS
	??0TEZGZipHeader@TOLDEZLIB@@QAE@XZ @ 1 NONAME ; TOLDEZLIB::TEZGZipHeader::TEZGZipHeader(void)
	??0TEZGZipTrailer@TOLDEZLIB@@QAE@JJ@Z @ 2 NONAME ; TOLDEZLIB::TEZGZipTrailer::TEZGZipTrailer(long, long)
	??0TEZGZipTrailer@TOLDEZLIB@@QAE@XZ @ 3 NONAME ; TOLDEZLIB::TEZGZipTrailer::TEZGZipTrailer(void)
	??1TEZGZipHeader@TOLDEZLIB@@QAE@XZ @ 4 NONAME ; TOLDEZLIB::TEZGZipHeader::~TEZGZipHeader(void)
	?Adler32@CEZZStream@TOLDEZLIB@@QBEJXZ @ 5 NONAME ; long TOLDEZLIB::CEZZStream::Adler32(void) const
	?AvailIn@CEZZStream@TOLDEZLIB@@QBEHXZ @ 6 NONAME ; int TOLDEZLIB::CEZZStream::AvailIn(void) const
	?AvailOut@CEZZStream@TOLDEZLIB@@QBEHXZ @ 7 NONAME ; int TOLDEZLIB::CEZZStream::AvailOut(void) const
	?CompressL@CEZCompressor@TOLDEZLIB@@SAXAAVTDes8@@ABVTDesC8@@H@Z @ 8 NONAME ; void TOLDEZLIB::CEZCompressor::CompressL(class TDes8 &, class TDesC8 const &, int)
	?DecompressL@CEZDecompressor@TOLDEZLIB@@SAXAAVTDes8@@ABVTDesC8@@@Z @ 9 NONAME ; void TOLDEZLIB::CEZDecompressor::DecompressL(class TDes8 &, class TDesC8 const &)
	?DeflateL@CEZCompressor@TOLDEZLIB@@QAEHXZ @ 10 NONAME ; int TOLDEZLIB::CEZCompressor::DeflateL(void)
	?DeflateL@CEZFileToGZip@TOLDEZLIB@@QAEHXZ @ 11 NONAME ; int TOLDEZLIB::CEZFileToGZip::DeflateL(void)
	?InflateL@CEZDecompressor@TOLDEZLIB@@QAEHXZ @ 12 NONAME ; int TOLDEZLIB::CEZDecompressor::InflateL(void)
	?InflateL@CEZGZipToFile@TOLDEZLIB@@QAEHXZ @ 13 NONAME ; int TOLDEZLIB::CEZGZipToFile::InflateL(void)
	?IsGzipFile@EZGZipFile@TOLDEZLIB@@SAHAAVRFs@@ABVTDesC16@@@Z @ 14 NONAME ; int TOLDEZLIB::EZGZipFile::IsGzipFile(class RFs &, class TDesC16 const &)
	?IsGzipFileL@EZGZipFile@TOLDEZLIB@@SAHAAVRFs@@ABVTDesC16@@@Z @ 15 NONAME ; int TOLDEZLIB::EZGZipFile::IsGzipFileL(class RFs &, class TDesC16 const &)
	?LocateAndReadTrailerL@EZGZipFile@TOLDEZLIB@@SAXAAVRFs@@ABVTDesC16@@AAVTEZGZipTrailer@2@@Z @ 16 NONAME ; void TOLDEZLIB::EZGZipFile::LocateAndReadTrailerL(class RFs &, class TDesC16 const &, class TOLDEZLIB::TEZGZipTrailer &)
	?NewL@CEZCompressor@TOLDEZLIB@@SAPAV12@AAVMEZBufferManager@2@ABVTDesC8@@HHHW4TStrategy@12@@Z @ 17 NONAME ; class TOLDEZLIB::CEZCompressor * TOLDEZLIB::CEZCompressor::NewL(class TOLDEZLIB::MEZBufferManager &, class TDesC8 const &, int, int, int, enum TOLDEZLIB::CEZCompressor::TStrategy)
	?NewL@CEZCompressor@TOLDEZLIB@@SAPAV12@AAVMEZBufferManager@2@HHHW4TStrategy@12@@Z @ 18 NONAME ; class TOLDEZLIB::CEZCompressor * TOLDEZLIB::CEZCompressor::NewL(class TOLDEZLIB::MEZBufferManager &, int, int, int, enum TOLDEZLIB::CEZCompressor::TStrategy)
	?NewL@CEZDecompressor@TOLDEZLIB@@SAPAV12@AAVMEZBufferManager@2@ABVTDesC8@@H@Z @ 19 NONAME ; class TOLDEZLIB::CEZDecompressor * TOLDEZLIB::CEZDecompressor::NewL(class TOLDEZLIB::MEZBufferManager &, class TDesC8 const &, int)
	?NewL@CEZDecompressor@TOLDEZLIB@@SAPAV12@AAVMEZBufferManager@2@H@Z @ 20 NONAME ; class TOLDEZLIB::CEZDecompressor * TOLDEZLIB::CEZDecompressor::NewL(class TOLDEZLIB::MEZBufferManager &, int)
	?NewL@CEZFileBufferManager@TOLDEZLIB@@SAPAV12@AAVRFile@@0H@Z @ 21 NONAME ; class TOLDEZLIB::CEZFileBufferManager * TOLDEZLIB::CEZFileBufferManager::NewL(class RFile &, class RFile &, int)
	?NewL@CEZFileToGZip@TOLDEZLIB@@SAPAV12@AAVRFs@@ABVTDesC16@@AAVRFile@@H@Z @ 22 NONAME ; class TOLDEZLIB::CEZFileToGZip * TOLDEZLIB::CEZFileToGZip::NewL(class RFs &, class TDesC16 const &, class RFile &, int)
	?NewL@CEZGZipToFile@TOLDEZLIB@@SAPAV12@AAVRFs@@ABVTDesC16@@AAVRFile@@H@Z @ 23 NONAME ; class TOLDEZLIB::CEZGZipToFile * TOLDEZLIB::CEZGZipToFile::NewL(class RFs &, class TDesC16 const &, class RFile &, int)
	?NewLC@CEZCompressor@TOLDEZLIB@@SAPAV12@AAVMEZBufferManager@2@ABVTDesC8@@HHHW4TStrategy@12@@Z @ 24 NONAME ; class TOLDEZLIB::CEZCompressor * TOLDEZLIB::CEZCompressor::NewLC(class TOLDEZLIB::MEZBufferManager &, class TDesC8 const &, int, int, int, enum TOLDEZLIB::CEZCompressor::TStrategy)
	?NewLC@CEZCompressor@TOLDEZLIB@@SAPAV12@AAVMEZBufferManager@2@HHHW4TStrategy@12@@Z @ 25 NONAME ; class TOLDEZLIB::CEZCompressor * TOLDEZLIB::CEZCompressor::NewLC(class TOLDEZLIB::MEZBufferManager &, int, int, int, enum TOLDEZLIB::CEZCompressor::TStrategy)
	?NewLC@CEZDecompressor@TOLDEZLIB@@SAPAV12@AAVMEZBufferManager@2@ABVTDesC8@@H@Z @ 26 NONAME ; class TOLDEZLIB::CEZDecompressor * TOLDEZLIB::CEZDecompressor::NewLC(class TOLDEZLIB::MEZBufferManager &, class TDesC8 const &, int)
	?NewLC@CEZDecompressor@TOLDEZLIB@@SAPAV12@AAVMEZBufferManager@2@H@Z @ 27 NONAME ; class TOLDEZLIB::CEZDecompressor * TOLDEZLIB::CEZDecompressor::NewLC(class TOLDEZLIB::MEZBufferManager &, int)
	?NewLC@CEZFileBufferManager@TOLDEZLIB@@SAPAV12@AAVRFile@@0H@Z @ 28 NONAME ; class TOLDEZLIB::CEZFileBufferManager * TOLDEZLIB::CEZFileBufferManager::NewLC(class RFile &, class RFile &, int)
	?NewLC@CEZFileToGZip@TOLDEZLIB@@SAPAV12@AAVRFs@@ABVTDesC16@@AAVRFile@@H@Z @ 29 NONAME ; class TOLDEZLIB::CEZFileToGZip * TOLDEZLIB::CEZFileToGZip::NewLC(class RFs &, class TDesC16 const &, class RFile &, int)
	?NewLC@CEZGZipToFile@TOLDEZLIB@@SAPAV12@AAVRFs@@ABVTDesC16@@AAVRFile@@H@Z @ 30 NONAME ; class TOLDEZLIB::CEZGZipToFile * TOLDEZLIB::CEZGZipToFile::NewLC(class RFs &, class TDesC16 const &, class RFile &, int)
	?OutputDescriptor@CEZZStream@TOLDEZLIB@@QBE?AVTPtrC8@@XZ @ 31 NONAME ; class TPtrC8 TOLDEZLIB::CEZZStream::OutputDescriptor(void) const
	?Progress@CEZZStream@TOLDEZLIB@@QBEHH@Z @ 32 NONAME ; int TOLDEZLIB::CEZZStream::Progress(int) const
	?ReadHeaderL@EZGZipFile@TOLDEZLIB@@SAXAAVRFile@@AAVTEZGZipHeader@2@@Z @ 33 NONAME ; void TOLDEZLIB::EZGZipFile::ReadHeaderL(class RFile &, class TOLDEZLIB::TEZGZipHeader &)
	?ReadTrailerL@EZGZipFile@TOLDEZLIB@@SAXAAVRFile@@AAVTEZGZipTrailer@2@@Z @ 34 NONAME ; void TOLDEZLIB::EZGZipFile::ReadTrailerL(class RFile &, class TOLDEZLIB::TEZGZipTrailer &)
	?ResetL@CEZCompressor@TOLDEZLIB@@QAEXAAVMEZBufferManager@2@@Z @ 35 NONAME ; void TOLDEZLIB::CEZCompressor::ResetL(class TOLDEZLIB::MEZBufferManager &)
	?ResetL@CEZDecompressor@TOLDEZLIB@@QAEXAAVMEZBufferManager@2@@Z @ 36 NONAME ; void TOLDEZLIB::CEZDecompressor::ResetL(class TOLDEZLIB::MEZBufferManager &)
	?ResetL@CEZFileToGZip@TOLDEZLIB@@QAEXAAVRFs@@ABVTDesC16@@AAVRFile@@H@Z @ 37 NONAME ; void TOLDEZLIB::CEZFileToGZip::ResetL(class RFs &, class TDesC16 const &, class RFile &, int)
	?ResetL@CEZGZipToFile@TOLDEZLIB@@QAEXAAVRFs@@ABVTDesC16@@AAVRFile@@H@Z @ 38 NONAME ; void TOLDEZLIB::CEZGZipToFile::ResetL(class RFs &, class TDesC16 const &, class RFile &, int)
	?SetInput@CEZZStream@TOLDEZLIB@@QAEXABVTDesC8@@@Z @ 39 NONAME ; void TOLDEZLIB::CEZZStream::SetInput(class TDesC8 const &)
	?SetOutput@CEZZStream@TOLDEZLIB@@QAEXAAVTDes8@@@Z @ 40 NONAME ; void TOLDEZLIB::CEZZStream::SetOutput(class TDes8 &)
	?TotalIn@CEZZStream@TOLDEZLIB@@QBEHXZ @ 41 NONAME ; int TOLDEZLIB::CEZZStream::TotalIn(void) const
	?TotalOut@CEZZStream@TOLDEZLIB@@QBEHXZ @ 42 NONAME ; int TOLDEZLIB::CEZZStream::TotalOut(void) const
	?WriteHeaderL@EZGZipFile@TOLDEZLIB@@SAXAAVRFile@@AAVTEZGZipHeader@2@@Z @ 43 NONAME ; void TOLDEZLIB::EZGZipFile::WriteHeaderL(class RFile &, class TOLDEZLIB::TEZGZipHeader &)
	?WriteTrailerL@EZGZipFile@TOLDEZLIB@@SAXAAVRFile@@AAVTEZGZipTrailer@2@@Z @ 44 NONAME ; void TOLDEZLIB::EZGZipFile::WriteTrailerL(class RFile &, class TOLDEZLIB::TEZGZipTrailer &)
	adler32 @ 45 NONAME
	compress @ 46 NONAME
	compress2 @ 47 NONAME
	crc32 @ 48 NONAME
	deflate @ 49 NONAME
	deflateCopy @ 50 NONAME
	deflateEnd @ 51 NONAME
	deflateInit2_ @ 52 NONAME
	deflateInit_ @ 53 NONAME
	deflateParams @ 54 NONAME
	deflateReset @ 55 NONAME
	deflateSetDictionary @ 56 NONAME
	get_crc_table @ 57 NONAME
	inflate @ 58 NONAME
	inflateEnd @ 59 NONAME
	inflateInit2_ @ 60 NONAME
	inflateInit_ @ 61 NONAME
	inflateReset @ 62 NONAME
	inflateSetDictionary @ 63 NONAME
	inflateSync @ 64 NONAME
	inflateSyncPoint @ 65 NONAME
	uncompress @ 66 NONAME
	zError @ 67 NONAME
	zlibVersion @ 68 NONAME

