EXPORTS
	??0CZipFile@TOLDEZIP@@QAE@AAVRFs@@ABVTDesC16@@@Z @ 1 NONAME ; TOLDEZIP::CZipFile::CZipFile(class RFs &, class TDesC16 const &)
	??1CZipFile@TOLDEZIP@@UAE@XZ @ 2 NONAME ; TOLDEZIP::CZipFile::~CZipFile(void)
	??1CZipFileMember@TOLDEZIP@@UAE@XZ @ 3 NONAME ; TOLDEZIP::CZipFileMember::~CZipFileMember(void)
	??1RZipFileMemberReaderStream@TOLDEZIP@@UAE@XZ @ 4 NONAME ; TOLDEZIP::RZipFileMemberReaderStream::~RZipFileMemberReaderStream(void)
	?CRC32@CZipFileMember@TOLDEZIP@@QBEKXZ @ 5 NONAME ; unsigned long TOLDEZIP::CZipFileMember::CRC32(void) const
	?CaseInsensitiveMemberL@CZipFile@TOLDEZIP@@QAEPAVCZipFileMember@2@ABVTDesC16@@@Z @ 6 NONAME ; class TOLDEZIP::CZipFileMember * TOLDEZIP::CZipFile::CaseInsensitiveMemberL(class TDesC16 const &)
	?CaseSensitiveOrCaseInsensitiveMemberL@CZipFile@TOLDEZIP@@QAEPAVCZipFileMember@2@ABVTDesC16@@@Z @ 7 NONAME ; class TOLDEZIP::CZipFileMember * TOLDEZIP::CZipFile::CaseSensitiveOrCaseInsensitiveMemberL(class TDesC16 const &)
	?Close@CZipFile@TOLDEZIP@@QAEXXZ @ 8 NONAME ; void TOLDEZIP::CZipFile::Close(void)
	?CompressedSize@CZipFileMember@TOLDEZIP@@QBEKXZ @ 9 NONAME ; unsigned long TOLDEZIP::CZipFileMember::CompressedSize(void) const
	?ConstructL@CZipFile@TOLDEZIP@@IAEXAAVRFile@@@Z @ 10 NONAME ; void TOLDEZIP::CZipFile::ConstructL(class RFile &)
	?ConstructL@CZipFile@TOLDEZIP@@IAEXABVTDesC16@@@Z @ 11 NONAME ; void TOLDEZIP::CZipFile::ConstructL(class TDesC16 const &)
	?GetInputStreamL@CZipFile@TOLDEZIP@@QAEHPBVCZipFileMember@2@AAPAVRZipFileMemberReaderStream@2@@Z @ 12 NONAME ; int TOLDEZIP::CZipFile::GetInputStreamL(class TOLDEZIP::CZipFileMember const *, class TOLDEZIP::RZipFileMemberReaderStream * &)
	?GetMembersL@CZipFile@TOLDEZIP@@QAEPAVCZipFileMemberIterator@2@XZ @ 13 NONAME ; class TOLDEZIP::CZipFileMemberIterator * TOLDEZIP::CZipFile::GetMembersL(void)
	?MemberL@CZipFile@TOLDEZIP@@QAEPAVCZipFileMember@2@ABVTDesC16@@@Z @ 14 NONAME ; class TOLDEZIP::CZipFileMember * TOLDEZIP::CZipFile::MemberL(class TDesC16 const &)
	?Name@CZipFileMember@TOLDEZIP@@QBEPBV?$TBuf@$0BAA@@@XZ @ 15 NONAME ; class TBuf<256> const * TOLDEZIP::CZipFileMember::Name(void) const
	?NewL@CZipFile@TOLDEZIP@@SAPAV12@AAVRFs@@AAVRFile@@@Z @ 16 NONAME ; class TOLDEZIP::CZipFile * TOLDEZIP::CZipFile::NewL(class RFs &, class RFile &)
	?NewL@CZipFile@TOLDEZIP@@SAPAV12@AAVRFs@@ABVTDesC16@@@Z @ 17 NONAME ; class TOLDEZIP::CZipFile * TOLDEZIP::CZipFile::NewL(class RFs &, class TDesC16 const &)
	?NextL@CZipFileMemberIterator@TOLDEZIP@@QAEPAVCZipFileMember@2@XZ @ 18 NONAME ; class TOLDEZIP::CZipFileMember * TOLDEZIP::CZipFileMemberIterator::NextL(void)
	?OpenL@CZipFile@TOLDEZIP@@QAEHXZ @ 19 NONAME ; int TOLDEZIP::CZipFile::OpenL(void)
	?Read@RZipFileMemberReaderStream@TOLDEZIP@@QAEHAAVTDes16@@H@Z @ 20 NONAME ; int TOLDEZIP::RZipFileMemberReaderStream::Read(class TDes16 &, int)
	?Size@CZipFile@TOLDEZIP@@QBEHAAH@Z @ 21 NONAME ; int TOLDEZIP::CZipFile::Size(int &) const
	?UncompressedSize@CZipFileMember@TOLDEZIP@@QBEKXZ @ 22 NONAME ; unsigned long TOLDEZIP::CZipFileMember::UncompressedSize(void) const

