Certificate:
    Data:
        Version: 3 (0x2)
        Serial Number: 1 (0x1)
        Signature Algorithm: md5WithRSAEncryption
        Issuer: O=Symbian Software Ltd, CN=Root5-RSA
        Validity
            Not Before: Jan 13 17:27:15 2006 GMT
            Not After : Jan 13 17:27:15 2007 GMT
        Subject: C=UK, ST=London, O=Symbian Software Ltd, CN=End Entity
        Subject Public Key Info:
            Public Key Algorithm: rsaEncryption
            RSA Public Key: (512 bit)
                Modulus (512 bit):
                    00:bd:26:d9:08:13:61:f2:22:3e:1b:58:c9:ae:56:
                    b1:32:9a:27:f0:64:41:06:09:08:12:e5:96:16:08:
                    7a:18:02:4a:53:8a:e9:23:f2:b0:aa:c8:3f:e2:86:
                    ef:a6:bb:12:2d:51:1d:48:0e:e4:5e:8f:3b:f1:2c:
                    c7:e0:3f:3a:b7
                Exponent: 65537 (0x10001)
        X509v3 extensions:
            X509v3 Extended Key Usage: 
                Code Signing
    Signature Algorithm: md5WithRSAEncryption
        54:44:db:ff:5a:b1:9e:53:67:ae:b8:99:35:18:3e:3a:50:38:
        6b:95:fe:7d:e6:d8:84:29:96:53:fe:bf:8f:af:f2:38:06:16:
        f9:c6:0c:8a:48:5c:1a:14:b3:69:60:88:08:96:90:04:cf:32:
        92:1d:63:7a:f4:4e:90:cc:27:8d:79:8f:e5:21:ee:e6:14:e5:
        b2:34:cf:b7:7b:a3:fa:91:7a:4a:88:60:95:62:b5:35:12:4f:
        90:69:d6:b9:ed:63:8a:ac:52:d3:3a:38:21:4a:0f:09:3f:eb:
        b8:8f:a5:8f:20:0a:78:39:ea:9b:7e:0c:ae:66:0f:77:9a:49:
        cc:f0
-----BEGIN CERTIFICATE-----
MIIBzjCCATegAwIBAgIBATANBgkqhkiG9w0BAQQFADAzMR0wGwYDVQQKExRTeW1i
aWFuIFNvZnR3YXJlIEx0ZDESMBAGA1UEAxMJUm9vdDUtUlNBMB4XDTA2MDExMzE3
MjcxNVoXDTA3MDExMzE3MjcxNVowUjELMAkGA1UEBhMCVUsxDzANBgNVBAgTBkxv
bmRvbjEdMBsGA1UEChMUU3ltYmlhbiBTb2Z0d2FyZSBMdGQxEzARBgNVBAMTCkVu
ZCBFbnRpdHkwXDANBgkqhkiG9w0BAQEFAANLADBIAkEAvSbZCBNh8iI+G1jJrlax
Mpon8GRBBgkIEuWWFgh6GAJKU4rpI/Kwqsg/4obvprsSLVEdSA7kXo878SzH4D86
twIDAQABoxcwFTATBgNVHSUEDDAKBggrBgEFBQcDAzANBgkqhkiG9w0BAQQFAAOB
gQBURNv/WrGeU2euuJk1GD46UDhrlf595tiEKZZT/r+Pr/I4Bhb5xgyKSFwaFLNp
YIgIlpAEzzKSHWN69E6QzCeNeY/lIe7mFOWyNM+3e6P6kXpKiGCVYrU1Ek+Qada5
7WOKrFLTOjghSg8JP+u4j6WPIAp4OeqbfgyuZg93mknM8A==
-----END CERTIFICATE-----
