EXPORTS
	??0CZipFile@@QAE@AAVRFs@@ABVTDesC16@@@Z @ 1 NONAME ; public: __thiscall CZipFile::CZipFile(class RFs &,class TDesC16 const &)
	??1CZipFile@@UAE@XZ @ 2 NONAME ; public: virtual __thiscall CZipFile::~CZipFile(void)
	??1RZipFileMemberReaderStream@@UAE@XZ @ 3 NONAME ; public: virtual __thiscall RZipFileMemberReaderStream::~RZipFileMemberReaderStream(void)
	?CRC32@CZipFileMember@@QBEKXZ @ 4 NONAME ; public: unsigned long __thiscall CZipFileMember::CRC32(void)const 
	?CaseInsensitiveMemberL@CZipFile@@QAEPAVCZipFileMember@@ABVTDesC16@@@Z @ 5 NONAME ; public: class CZipFileMember * __thiscall CZipFile::CaseInsensitiveMemberL(class TDesC16 const &)
	?Close@CZipFile@@QAEXXZ @ 6 NONAME ; public: void __thiscall CZipFile::Close(void)
	?CompressedSize@CZipFileMember@@QBEKXZ @ 7 NONAME ; public: unsigned long __thiscall CZipFileMember::CompressedSize(void)const 
	?GetInputStreamL@CZipFile@@QAEHPBVCZipFileMember@@AAPAVRZipFileMemberReaderStream@@@Z @ 8 NONAME ; public: int __thiscall CZipFile::GetInputStreamL(class CZipFileMember const *,class RZipFileMemberReaderStream * &)
	?GetMembersL@CZipFile@@QAEPAVCZipFileMemberIterator@@XZ @ 9 NONAME ; public: class CZipFileMemberIterator * __thiscall CZipFile::GetMembersL(void)
	?MemberL@CZipFile@@QAEPAVCZipFileMember@@ABVTDesC16@@@Z @ 10 NONAME ; public: class CZipFileMember * __thiscall CZipFile::MemberL(class TDesC16 const &)
	?Name@CZipFileMember@@QBEPBV?$TBuf@$0BAA@@@XZ @ 11 NONAME ; public: class TBuf<256> const * __thiscall CZipFileMember::Name(void)const 
	?NewL@CZipFile@@SAPAV1@AAVRFs@@ABVTDesC16@@@Z @ 12 NONAME ; public: static class CZipFile * __cdecl CZipFile::NewL(class RFs &,class TDesC16 const &)
	?NextL@CZipFileMemberIterator@@QAEPAVCZipFileMember@@XZ @ 13 NONAME ; public: class CZipFileMember * __thiscall CZipFileMemberIterator::NextL(void)
	?OpenL@CZipFile@@QAEHXZ @ 14 NONAME ; public: int __thiscall CZipFile::OpenL(void)
	?UncompressedSize@CZipFileMember@@QBEKXZ @ 15 NONAME ; public: unsigned long __thiscall CZipFileMember::UncompressedSize(void)const 
	??1CZipFileMember@@UAE@XZ @ 16 NONAME ; public: virtual __thiscall CZipFileMember::~CZipFileMember(void)
	?CaseSensitiveOrCaseInsensitiveMemberL@CZipFile@@QAEPAVCZipFileMember@@ABVTDesC16@@@Z @ 17 NONAME ; public: class CZipFileMember * __thiscall CZipFile::CaseSensitiveOrCaseInsensitiveMemberL(class TDesC16 const &)
	?Size@CZipFile@@QBEHAAH@Z @ 18 NONAME ; public: int __thiscall CZipFile::Size(int &)const 
	?ConstructL@CZipFile@@IAEXABVTDesC16@@@Z @ 19 NONAME ; void CZipFile::ConstructL(class TDesC16 const &)
	?Read@RZipFileMemberReaderStream@@QAEHAAVTDes16@@H@Z @ 20 NONAME ; public: int __thiscall RZipFileMemberReaderStream::Read(class TDes16 &,int)
	?ConstructL@CZipFile@@IAEXAAVRFile@@@Z @ 21 NONAME ; void CZipFile::ConstructL(class RFile &)
	?NewL@CZipFile@@SAPAV1@AAVRFs@@AAVRFile@@@Z @ 22 NONAME ; class CZipFile * CZipFile::NewL(class RFs &, class RFile &)

