EXPORTS
	_ZN8LString810AppendNumLEdRK11TRealFormat @ 1 NONAME
	_ZN8LString810AppendNumLEx @ 2 NONAME
	_ZN8LString810AppendNumLEy6TRadix @ 3 NONAME
	_ZN8LString810SetLengthLEi @ 4 NONAME
	_ZN8LString811AppendFillLE5TChari @ 5 NONAME
	_ZN8LString811FormatListLERK6TDesC8St9__va_list @ 6 NONAME
	_ZN8LString812AppendNumUCLEy6TRadix @ 7 NONAME
	_ZN8LString813AppendFormatLE11TRefByValueIK6TDesC8Ez @ 8 NONAME
	_ZN8LString813SetMaxLengthLEi @ 9 NONAME
	_ZN8LString814AppendJustifyLEPKhi6TAlign5TChar @ 10 NONAME
	_ZN8LString814AppendJustifyLEPKhii6TAlign5TChar @ 11 NONAME
	_ZN8LString814AppendJustifyLERK6TDesC8i6TAlign5TChar @ 12 NONAME
	_ZN8LString814AppendJustifyLERK6TDesC8ii6TAlign5TChar @ 13 NONAME
	_ZN8LString814NumFixedWidthLEj6TRadixi @ 14 NONAME
	_ZN8LString814ZeroTerminateLEv @ 15 NONAME
	_ZN8LString816NumFixedWidthUCLEj6TRadixi @ 16 NONAME
	_ZN8LString817AppendFormatListLERK6TDesC8St9__va_list @ 17 NONAME
	_ZN8LString820AppendNumFixedWidthLEj6TRadixi @ 18 NONAME
	_ZN8LString820ReserveFreeCapacityLEi @ 19 NONAME
	_ZN8LString822AppendNumFixedWidthUCLEj6TRadixi @ 20 NONAME
	_ZN8LString84NumLEdRK11TRealFormat @ 21 NONAME
	_ZN8LString84NumLEx @ 22 NONAME
	_ZN8LString84NumLEy6TRadix @ 23 NONAME
	_ZN8LString85CopyLEPKh @ 24 NONAME
	_ZN8LString85CopyLEPKhi @ 25 NONAME
	_ZN8LString85CopyLERK6TDesC8 @ 26 NONAME
	_ZN8LString85CopyLERK7TDesC16 @ 27 NONAME
	_ZN8LString85FillLE5TChari @ 28 NONAME
	_ZN8LString85PtrZLEv @ 29 NONAME
	_ZN8LString85ResetEv @ 30 NONAME
	_ZN8LString85SwapLER5TDes8 @ 31 NONAME
	_ZN8LString85SwapLERS_ @ 32 NONAME
	_ZN8LString86AssignEP6HBufC8 @ 33 NONAME
	_ZN8LString86AssignEPhi @ 34 NONAME
	_ZN8LString86AssignEPhii @ 35 NONAME
	_ZN8LString86AssignERK5RBuf8 @ 36 NONAME
	_ZN8LString86AssignERKS_ @ 37 NONAME
	_ZN8LString86CopyCLERK6TDesC8 @ 38 NONAME
	_ZN8LString86CopyFLERK6TDesC8 @ 39 NONAME
	_ZN8LString86FillZLEi @ 40 NONAME
	_ZN8LString86NumUCLEy6TRadix @ 41 NONAME
	_ZN8LString87AppendLE5TChar @ 42 NONAME
	_ZN8LString87AppendLEPKhi @ 43 NONAME
	_ZN8LString87AppendLERK6TDesC8 @ 44 NONAME
	_ZN8LString87CopyCPLERK6TDesC8 @ 45 NONAME
	_ZN8LString87CopyLCLERK6TDesC8 @ 46 NONAME
	_ZN8LString87CopyUCLERK6TDesC8 @ 47 NONAME
	_ZN8LString87CreateLER11RReadStreami @ 48 NONAME
	_ZN8LString87FormatLE11TRefByValueIK6TDesC8Ez @ 49 NONAME
	_ZN8LString87InsertLEiRK6TDesC8 @ 50 NONAME
	_ZN8LString88CompressEv @ 51 NONAME
	_ZN8LString88JustifyLERK6TDesC8i6TAlign5TChar @ 52 NONAME
	_ZN8LString88ReplaceLEiiRK6TDesC8 @ 53 NONAME
	_ZN8LString8C1EP6HBufC8 @ 54 NONAME
	_ZN8LString8C1EPKh @ 55 NONAME
	_ZN8LString8C1EPhi @ 56 NONAME
	_ZN8LString8C1EPhii @ 57 NONAME
	_ZN8LString8C1ERK6TDesC8 @ 58 NONAME
	_ZN8LString8C1ERKS_ @ 59 NONAME
	_ZN8LString8C1Ei @ 60 NONAME
	_ZN8LString8C1Ev @ 61 NONAME
	_ZN8LString8C2EP6HBufC8 @ 62 NONAME
	_ZN8LString8C2EPKh @ 63 NONAME
	_ZN8LString8C2EPhi @ 64 NONAME
	_ZN8LString8C2EPhii @ 65 NONAME
	_ZN8LString8C2ERK6TDesC8 @ 66 NONAME
	_ZN8LString8C2ERKS_ @ 67 NONAME
	_ZN8LString8C2Ei @ 68 NONAME
	_ZN8LString8C2Ev @ 69 NONAME
	_ZN8LString8D1Ev @ 70 NONAME
	_ZN8LString8D2Ev @ 71 NONAME
	_ZN8LString8aSEP6HBufC8 @ 72 NONAME
	_ZN8LString8aSEPKh @ 73 NONAME
	_ZN8LString8aSERK6TDesC8 @ 74 NONAME
	_ZN8LString8aSERKS_ @ 75 NONAME
	_ZN8LString8pLE5TChar @ 76 NONAME
	_ZN8LString8pLERK6TDesC8 @ 77 NONAME
	_ZN9LString1610AppendNumLEdRK11TRealFormat @ 78 NONAME
	_ZN9LString1610AppendNumLEx @ 79 NONAME
	_ZN9LString1610AppendNumLEy6TRadix @ 80 NONAME
	_ZN9LString1610SetLengthLEi @ 81 NONAME
	_ZN9LString1611AppendFillLE5TChari @ 82 NONAME
	_ZN9LString1611FormatListLERK7TDesC16St9__va_list @ 83 NONAME
	_ZN9LString1612AppendNumUCLEy6TRadix @ 84 NONAME
	_ZN9LString1613AppendFormatLE11TRefByValueIK7TDesC16Ez @ 85 NONAME
	_ZN9LString1613SetMaxLengthLEi @ 86 NONAME
	_ZN9LString1614AppendJustifyLEPKti6TAlign5TChar @ 87 NONAME
	_ZN9LString1614AppendJustifyLEPKtii6TAlign5TChar @ 88 NONAME
	_ZN9LString1614AppendJustifyLERK7TDesC16i6TAlign5TChar @ 89 NONAME
	_ZN9LString1614AppendJustifyLERK7TDesC16ii6TAlign5TChar @ 90 NONAME
	_ZN9LString1614NumFixedWidthLEj6TRadixi @ 91 NONAME
	_ZN9LString1614ZeroTerminateLEv @ 92 NONAME
	_ZN9LString1616NumFixedWidthUCLEj6TRadixi @ 93 NONAME
	_ZN9LString1617AppendFormatListLERK7TDesC16St9__va_list @ 94 NONAME
	_ZN9LString1620AppendNumFixedWidthLEj6TRadixi @ 95 NONAME
	_ZN9LString1620ReserveFreeCapacityLEi @ 96 NONAME
	_ZN9LString1622AppendNumFixedWidthUCLEj6TRadixi @ 97 NONAME
	_ZN9LString164NumLEdRK11TRealFormat @ 98 NONAME
	_ZN9LString164NumLEx @ 99 NONAME
	_ZN9LString164NumLEy6TRadix @ 100 NONAME
	_ZN9LString165CopyLEPKt @ 101 NONAME
	_ZN9LString165CopyLEPKti @ 102 NONAME
	_ZN9LString165CopyLERK6TDesC8 @ 103 NONAME
	_ZN9LString165CopyLERK7TDesC16 @ 104 NONAME
	_ZN9LString165FillLE5TChari @ 105 NONAME
	_ZN9LString165PtrZLEv @ 106 NONAME
	_ZN9LString165ResetEv @ 107 NONAME
	_ZN9LString165SwapLER6TDes16 @ 108 NONAME
	_ZN9LString165SwapLERS_ @ 109 NONAME
	_ZN9LString166AssignEP7HBufC16 @ 110 NONAME
	_ZN9LString166AssignEPti @ 111 NONAME
	_ZN9LString166AssignEPtii @ 112 NONAME
	_ZN9LString166AssignERK6RBuf16 @ 113 NONAME
	_ZN9LString166AssignERKS_ @ 114 NONAME
	_ZN9LString166CopyCLERK7TDesC16 @ 115 NONAME
	_ZN9LString166CopyFLERK7TDesC16 @ 116 NONAME
	_ZN9LString166FillZLEi @ 117 NONAME
	_ZN9LString166NumUCLEy6TRadix @ 118 NONAME
	_ZN9LString167AppendLE5TChar @ 119 NONAME
	_ZN9LString167AppendLEPKti @ 120 NONAME
	_ZN9LString167AppendLERK7TDesC16 @ 121 NONAME
	_ZN9LString167CopyCPLERK7TDesC16 @ 122 NONAME
	_ZN9LString167CopyLCLERK7TDesC16 @ 123 NONAME
	_ZN9LString167CopyUCLERK7TDesC16 @ 124 NONAME
	_ZN9LString167CreateLER11RReadStreami @ 125 NONAME
	_ZN9LString167FormatLE11TRefByValueIK7TDesC16Ez @ 126 NONAME
	_ZN9LString167InsertLEiRK7TDesC16 @ 127 NONAME
	_ZN9LString168CompressEv @ 128 NONAME
	_ZN9LString168JustifyLERK7TDesC16i6TAlign5TChar @ 129 NONAME
	_ZN9LString168ReplaceLEiiRK7TDesC16 @ 130 NONAME
	_ZN9LString16C1EP7HBufC16 @ 131 NONAME
	_ZN9LString16C1EPKt @ 132 NONAME
	_ZN9LString16C1EPti @ 133 NONAME
	_ZN9LString16C1EPtii @ 134 NONAME
	_ZN9LString16C1ERK7TDesC16 @ 135 NONAME
	_ZN9LString16C1ERKS_ @ 136 NONAME
	_ZN9LString16C1Ei @ 137 NONAME
	_ZN9LString16C1Ev @ 138 NONAME
	_ZN9LString16C2EP7HBufC16 @ 139 NONAME
	_ZN9LString16C2EPKt @ 140 NONAME
	_ZN9LString16C2EPti @ 141 NONAME
	_ZN9LString16C2EPtii @ 142 NONAME
	_ZN9LString16C2ERK7TDesC16 @ 143 NONAME
	_ZN9LString16C2ERKS_ @ 144 NONAME
	_ZN9LString16C2Ei @ 145 NONAME
	_ZN9LString16C2Ev @ 146 NONAME
	_ZN9LString16D1Ev @ 147 NONAME
	_ZN9LString16D2Ev @ 148 NONAME
	_ZN9LString16aSEP7HBufC16 @ 149 NONAME
	_ZN9LString16aSEPKt @ 150 NONAME
	_ZN9LString16aSERK7TDesC16 @ 151 NONAME
	_ZN9LString16aSERKS_ @ 152 NONAME
	_ZN9LString16pLE5TChar @ 153 NONAME
	_ZN9LString16pLERK7TDesC16 @ 154 NONAME
	_ZN8LString814AppendJustifyLEPKci6TAlign5TChar @ 155 NONAME
	_ZN8LString814AppendJustifyLEPKcii6TAlign5TChar @ 156 NONAME
	_ZN8LString85CopyLEPKc @ 157 NONAME
	_ZN8LString86CopyFLEPKc @ 158 NONAME
	_ZN8LString86CopyFLEPKh @ 159 NONAME
	_ZN8LString87AppendLEPKc @ 160 NONAME
	_ZN8LString87AppendLEPKci @ 161 NONAME
	_ZN8LString87AppendLEPKh @ 162 NONAME
	_ZN8LString87CopyCPLEPKc @ 163 NONAME
	_ZN8LString87CopyCPLEPKh @ 164 NONAME
	_ZN8LString87CopyLCLEPKc @ 165 NONAME
	_ZN8LString87CopyLCLEPKh @ 166 NONAME
	_ZN8LString87CopyUCLEPKc @ 167 NONAME
	_ZN8LString87CopyUCLEPKh @ 168 NONAME
	_ZN8LString87InsertLEiPKc @ 169 NONAME
	_ZN8LString87InsertLEiPKh @ 170 NONAME
	_ZN8LString88JustifyLEPKci6TAlign5TChar @ 171 NONAME
	_ZN8LString88JustifyLEPKhi6TAlign5TChar @ 172 NONAME
	_ZN8LString88ReplaceLEiiPKc @ 173 NONAME
	_ZN8LString88ReplaceLEiiPKh @ 174 NONAME
	_ZN8LString8C1EPKc @ 175 NONAME
	_ZN8LString8C2EPKc @ 176 NONAME
	_ZN8LString8aSEPKc @ 177 NONAME
	_ZN8LString8pLEPKc @ 178 NONAME
	_ZN8LString8pLEPKh @ 179 NONAME
	_ZN9LString1614AppendJustifyLEPKwi6TAlign5TChar @ 180 NONAME
	_ZN9LString1614AppendJustifyLEPKwii6TAlign5TChar @ 181 NONAME
	_ZN9LString165CopyLEPKw @ 182 NONAME
	_ZN9LString166CopyFLEPKt @ 183 NONAME
	_ZN9LString166CopyFLEPKw @ 184 NONAME
	_ZN9LString167AppendLEPKt @ 185 NONAME
	_ZN9LString167AppendLEPKw @ 186 NONAME
	_ZN9LString167AppendLEPKwi @ 187 NONAME
	_ZN9LString167CopyCPLEPKt @ 188 NONAME
	_ZN9LString167CopyCPLEPKw @ 189 NONAME
	_ZN9LString167CopyLCLEPKt @ 190 NONAME
	_ZN9LString167CopyLCLEPKw @ 191 NONAME
	_ZN9LString167CopyUCLEPKt @ 192 NONAME
	_ZN9LString167CopyUCLEPKw @ 193 NONAME
	_ZN9LString167InsertLEiPKt @ 194 NONAME
	_ZN9LString167InsertLEiPKw @ 195 NONAME
	_ZN9LString168JustifyLEPKti6TAlign5TChar @ 196 NONAME
	_ZN9LString168JustifyLEPKwi6TAlign5TChar @ 197 NONAME
	_ZN9LString168ReplaceLEiiPKt @ 198 NONAME
	_ZN9LString168ReplaceLEiiPKw @ 199 NONAME
	_ZN9LString16C1EPKw @ 200 NONAME
	_ZN9LString16C2EPKw @ 201 NONAME
	_ZN9LString16aSEPKw @ 202 NONAME
	_ZN9LString16pLEPKt @ 203 NONAME
	_ZN9LString16pLEPKw @ 204 NONAME
	_ZNK8LString84FindEPKc @ 205 NONAME
	_ZNK8LString84FindEPKci @ 206 NONAME
	_ZNK8LString84FindEPKh @ 207 NONAME
	_ZNK8LString85FindFEPKc @ 208 NONAME
	_ZNK8LString85FindFEPKci @ 209 NONAME
	_ZNK8LString85FindFEPKh @ 210 NONAME
	_ZNK8LString85MatchEPKc @ 211 NONAME
	_ZNK8LString85MatchEPKh @ 212 NONAME
	_ZNK8LString86MatchFEPKc @ 213 NONAME
	_ZNK8LString86MatchFEPKh @ 214 NONAME
	_ZNK8LString87CompareEPKc @ 215 NONAME
	_ZNK8LString87CompareEPKh @ 216 NONAME
	_ZNK8LString88CompareFEPKc @ 217 NONAME
	_ZNK8LString88CompareFEPKh @ 218 NONAME
	_ZNK8LString8eqEPKc @ 219 NONAME
	_ZNK8LString8eqEPKh @ 220 NONAME
	_ZNK8LString8geEPKc @ 221 NONAME
	_ZNK8LString8geEPKh @ 222 NONAME
	_ZNK8LString8gtEPKc @ 223 NONAME
	_ZNK8LString8gtEPKh @ 224 NONAME
	_ZNK8LString8leEPKc @ 225 NONAME
	_ZNK8LString8leEPKh @ 226 NONAME
	_ZNK8LString8ltEPKc @ 227 NONAME
	_ZNK8LString8ltEPKh @ 228 NONAME
	_ZNK8LString8neEPKc @ 229 NONAME
	_ZNK8LString8neEPKh @ 230 NONAME
	_ZNK9LString164FindEPKt @ 231 NONAME
	_ZNK9LString164FindEPKw @ 232 NONAME
	_ZNK9LString164FindEPKwi @ 233 NONAME
	_ZNK9LString165FindFEPKt @ 234 NONAME
	_ZNK9LString165FindFEPKw @ 235 NONAME
	_ZNK9LString165FindFEPKwi @ 236 NONAME
	_ZNK9LString165MatchEPKt @ 237 NONAME
	_ZNK9LString165MatchEPKw @ 238 NONAME
	_ZNK9LString166MatchFEPKt @ 239 NONAME
	_ZNK9LString166MatchFEPKw @ 240 NONAME
	_ZNK9LString167CompareEPKt @ 241 NONAME
	_ZNK9LString167CompareEPKw @ 242 NONAME
	_ZNK9LString168CompareFEPKt @ 243 NONAME
	_ZNK9LString168CompareFEPKw @ 244 NONAME
	_ZNK9LString16eqEPKt @ 245 NONAME
	_ZNK9LString16eqEPKw @ 246 NONAME
	_ZNK9LString16geEPKt @ 247 NONAME
	_ZNK9LString16geEPKw @ 248 NONAME
	_ZNK9LString16gtEPKt @ 249 NONAME
	_ZNK9LString16gtEPKw @ 250 NONAME
	_ZNK9LString16leEPKt @ 251 NONAME
	_ZNK9LString16leEPKw @ 252 NONAME
	_ZNK9LString16ltEPKt @ 253 NONAME
	_ZNK9LString16ltEPKw @ 254 NONAME
	_ZNK9LString16neEPKt @ 255 NONAME
	_ZNK9LString16neEPKw @ 256 NONAME

