EXPORTS
	_ZN17CTypeStoreManager12InternalizeLER11RReadStream @ 1 NONAME
	_ZN17CTypeStoreManager15InsertIfHigherLERK9TDataTypel4TUid @ 2 NONAME
	_ZN17CTypeStoreManager17DeleteDataMappingERK9TDataType @ 3 NONAME
	_ZN17CTypeStoreManager18InsertDataMappingLERK9TDataTypel4TUid @ 4 NONAME
	_ZN17CTypeStoreManager4NewLER3RFs @ 5 NONAME
	_ZN17CTypeStoreManager6StoreLEv @ 6 NONAME
	_ZN17CTypeStoreManager8RestoreLEv @ 7 NONAME
	_ZN17CTypeStoreManagerD0Ev @ 8 NONAME
	_ZN17CTypeStoreManagerD1Ev @ 9 NONAME
	_ZN17CTypeStoreManagerD2Ev @ 10 NONAME
	_ZN18CApaDataRecognizer10RecognizeLERK7TDesC16RK6TDesC8 @ 11 NONAME
	_ZN18CApaDataRecognizer10RecognizeLERK7TDesC16RK6TDesC8RK9TDataType @ 12 NONAME
	_ZN18CApaDataRecognizer16UpdateDataTypesLEv @ 13 NONAME
	_ZN18CApaDataRecognizer21DestroyRecognizerListEv @ 14 NONAME
	_ZN18CApaDataRecognizer21SetAcceptedConfidenceEi @ 15 NONAME
	_ZN18CApaDataRecognizer22AddDataRecognizerTypeLEP22CApaDataRecognizerType @ 16 NONAME
	_ZN18CApaDataRecognizer24RemoveDataRecognizerTypeEPK22CApaDataRecognizerType @ 17 NONAME
	_ZN18CApaDataRecognizer29CApaDataRecognizer_Reserved_1Ev @ 18 NONAME
	_ZN18CApaDataRecognizer9DataTypeLER13CArrayFixFlatI9TDataTypeE @ 19 NONAME
	_ZN18CApaDataRecognizerC1ER3RFs @ 20 NONAME
	_ZN18CApaDataRecognizerC2ER3RFs @ 21 NONAME
	_ZN18CApaDataRecognizerD0Ev @ 22 NONAME
	_ZN18CApaDataRecognizerD1Ev @ 23 NONAME
	_ZN18CApaDataRecognizerD2Ev @ 24 NONAME
	_ZN21TDataTypeWithPriorityC1ERK9TDataTypel @ 25 NONAME
	_ZN21TDataTypeWithPriorityC2ERK9TDataTypel @ 26 NONAME
	_ZN21TMappingDataTypeToApp12InternalizeLER11RReadStream @ 27 NONAME
	_ZN21TMappingDataTypeToAppC1ERK9TDataTypel4TUid @ 28 NONAME
	_ZN21TMappingDataTypeToAppC1Ev @ 29 NONAME
	_ZN21TMappingDataTypeToAppC1ERK9TDataTypel4TUidS3_ @ 30 NONAME
	_ZN21TMappingDataTypeToAppC2Ev @ 31 NONAME
	_ZN22CApaDataRecognizerType10RecognizeLERK7TDesC16RK6TDesC8 @ 32 NONAME
	_ZN22CApaDataRecognizerType10Reserved_1Ev @ 33 NONAME
	_ZN22CApaDataRecognizerType12DoRecognizeLERK7TDesC16RK6TDesC8 @ 34 NONAME
	_ZN22CApaDataRecognizerType16PreferredBufSizeEv @ 35 NONAME
	_ZN22CApaDataRecognizerType16UpdateDataTypesLEv @ 36 NONAME
	_ZN22CApaDataRecognizerType4LockEv @ 37 NONAME
	_ZN22CApaDataRecognizerType6UnlockEv @ 38 NONAME
	_ZN22CApaDataRecognizerType8MimeTypeEv @ 39 NONAME
	_ZTV26CApaScanningDataRecognizer @ 40 NONAME ; #<VT>#
	_ZN22CApaDataRecognizerTypeC2E4TUidi @ 41 NONAME
	_ZN22CApaDataRecognizerTypeD0Ev @ 42 NONAME
	_ZN22CApaDataRecognizerTypeD1Ev @ 43 NONAME
	_ZN22CApaDataRecognizerTypeD2Ev @ 44 NONAME
	_ZN22TDataRecognitionResult5ResetEv @ 45 NONAME
	_ZN26CApaScanningDataRecognizer10ConstructLEv @ 46 NONAME
	_ZN26CApaScanningDataRecognizer14SetRecognizerLERKNS_11TRecognizerE @ 47 NONAME ABSENT
	_ZN26CApaScanningDataRecognizer15RecognizerCountEv @ 48 NONAME
	_ZN26CApaScanningDataRecognizer19ScanForRecognizersLEv @ 49 NONAME
	_ZN26CApaScanningDataRecognizer23SetRecognizersFromListLERK13CArrayFixFlatINS_11TRecognizerEE @ 50 NONAME ABSENT
	_ZN26CApaScanningDataRecognizer4NewLER3RFs @ 51 NONAME
	_ZN26CApaScanningDataRecognizerC1ER3RFs @ 52 NONAME
	_ZN26CApaScanningDataRecognizerC2ER3RFs @ 53 NONAME
	_ZN26CApaScanningDataRecognizerD0Ev @ 54 NONAME
	_ZN26CApaScanningDataRecognizerD1Ev @ 55 NONAME
	_ZN26CApaScanningDataRecognizerD2Ev @ 56 NONAME
	_ZN9TDataType12InternalizeLER11RReadStream @ 57 NONAME
	_ZN9TDataTypeC1E4TUid @ 58 NONAME
	_ZN9TDataTypeC1ERK6TDesC8 @ 59 NONAME
	_ZN9TDataTypeC1ERKS_ @ 60 NONAME
	_ZN9TDataTypeC1Ev @ 61 NONAME
	_ZN9TDataTypeC2E4TUid @ 62 NONAME
	_ZN9TDataTypeC2ERK6TDesC8 @ 63 NONAME
	_ZN9TDataTypeC2ERKS_ @ 64 NONAME
	_ZN9TDataTypeC2Ev @ 65 NONAME
	_ZNK17CTypeStoreManager12ExternalizeLER12RWriteStream @ 66 NONAME
	_ZNK17CTypeStoreManager12MappingArrayEv @ 67 NONAME
	_ZNK17CTypeStoreManager16GetAppByDataTypeERK9TDataTypeR4TUid @ 68 NONAME
	_ZNK17CTypeStoreManager18GetDataTypesByAppLE4TUidP9CArrayFixI9TDataTypeE @ 69 NONAME
	_ZNK18CApaDataRecognizer16PreferredBufSizeEv @ 70 NONAME
	_ZNK18CApaDataRecognizer18AcceptedConfidenceEv @ 71 NONAME
	_ZNK21TMappingDataTypeToApp12ExternalizeLER12RWriteStream @ 72 NONAME
	_ZNK26CApaScanningDataRecognizer13UpdateCounterEv @ 73 NONAME
	_ZNK26CApaScanningDataRecognizer16RecognizerListLCEv @ 74 NONAME
	_ZNK26CApaScanningDataRecognizerixEi @ 75 NONAME
	_ZNK9TDataType12ExternalizeLER12RWriteStream @ 76 NONAME
	_ZNK9TDataType3DesEv @ 77 NONAME
	_ZNK9TDataType3UidEv @ 78 NONAME
	_ZNK9TDataType4Des8Ev @ 79 NONAME
	_ZNK9TDataType8IsNativeEv @ 80 NONAME
	_ZNK9TDataTypeeqERKS_ @ 81 NONAME
	_ZNK9TDataTypeneERKS_ @ 82 NONAME
	_ZTI18CApaDataRecognizer @ 83 NONAME ; #<TI>#
	_ZTI22CApaDataRecognizerType @ 84 NONAME ; #<TI>#
	_ZTI26CApaScanningDataRecognizer @ 85 NONAME ; #<TI>#
	_ZTV18CApaDataRecognizer @ 86 NONAME ; #<VT>#
	_ZTV22CApaDataRecognizerType @ 87 NONAME ; #<VT>#
	_ZN22CApaDataRecognizerType21CreateDataRecognizerLE4TUid @ 88 NONAME
	_ZN26CApaScanningDataRecognizer18SetEcomRecognizerLERKNS_11TRecognizerE @ 89 NONAME
	_ZN26CApaScanningDataRecognizer27SetEcomRecognizersFromListLERK13CArrayFixFlatINS_11TRecognizerEE @ 90 NONAME
	_ZTI17CApaRecognizerDll @ 91 NONAME ; #<TI>#
	_ZTI17CTypeStoreManager @ 92 NONAME ; #<TI>#
	_ZN18CApaDataRecognizer10RecognizeLER5RFilei @ 93 NONAME
	_ZTIN26CApaScanningDataRecognizer27CApaBackupOperationObserverE @ 94 NONAME ; #<TI>#
	_ZTV17CApaRecognizerDll @ 95 NONAME ; #<VT>#
	_ZTV17CTypeStoreManager @ 96 NONAME ; #<VT>#
	_ZN18CApaDataRecognizer10RecognizeLER5RFileiRK9TDataType @ 97 NONAME
	_ZTVN26CApaScanningDataRecognizer27CApaBackupOperationObserverE @ 98 NONAME ; #<VT>#
	_ZN22CApaDataRecognizerType19FilePassedByHandleLEv @ 99 NONAME
	_ZN21TDataTypeWithPriorityC1Ev @ 100 NONAME
	_ZN21TDataTypeWithPriorityC2Ev @ 101 NONAME
	_ZN21TDataTypeWithPriority12InternalizeLER11RReadStream @ 102 NONAME
	_ZNK21TDataTypeWithPriority12ExternalizeLER12RWriteStream @ 103 NONAME
	_ZN17CTypeStoreManager15InsertIfHigherLERK9TDataTypel4TUidS3_ @ 104 NONAME
	_ZN17CTypeStoreManager17DeleteDataMappingERK9TDataType4TUid @ 105 NONAME
	_ZN17CTypeStoreManager18InsertDataMappingLERK9TDataTypel4TUidS3_ @ 106 NONAME
	_ZN21TMappingDataTypeToAppC2ERK9TDataTypel4TUid @ 107 NONAME
	_ZN21TMappingDataTypeToAppC2ERK9TDataTypel4TUidS3_ @ 108 NONAME
	_ZNK17CTypeStoreManager16GetAppByDataTypeERK9TDataType4TUidRS3_ @ 109 NONAME
	_ZN17CTypeStoreManager23InsertAndStoreIfHigherLERK9TDataTypel4TUid @ 110 NONAME
	_ZN17CTypeStoreManager23InsertAndStoreIfHigherLERK9TDataTypel4TUidS3_ @ 111 NONAME
	_ZN17CTypeStoreManager26DeleteAndStoreDataMappingLERK9TDataType @ 112 NONAME
	_ZN17CTypeStoreManager26DeleteAndStoreDataMappingLERK9TDataType4TUid @ 113 NONAME
	_ZN17CTypeStoreManager26InsertAndStoreDataMappingLERK9TDataTypel4TUid @ 114 NONAME
	_ZN17CTypeStoreManager26InsertAndStoreDataMappingLERK9TDataTypel4TUidS3_ @ 115 NONAME
	_ZN26CApaScanningDataRecognizer16LoadRecognizersLEv @ 116 NONAME
	_ZN26CApaScanningDataRecognizer17UnloadRecognizersEv @ 117 NONAME
	_ZN26CApaScanningDataRecognizer4NewLER3RFsi @ 118 NONAME
	_ZN17CTypeStoreManager29DeleteApplicationDataMappingsE4TUid @ 119 NONAME

