EXPORTS
	_ZN16CUnifiedKeyStore10InitializeER14TRequestStatus @ 1 NONAME
	_ZN16CUnifiedKeyStore12CancelRelockEv @ 2 NONAME
	_ZN16CUnifiedKeyStore12SetUsePolicyE20TCTTokenObjectHandleRK15TSecurityPolicyR14TRequestStatus @ 3 NONAME
	_ZN16CUnifiedKeyStore15CancelCreateKeyEv @ 4 NONAME
	_ZN16CUnifiedKeyStore15CancelDeleteKeyEv @ 5 NONAME
	_ZN16CUnifiedKeyStore15CancelExportKeyEv @ 6 NONAME
	_ZN16CUnifiedKeyStore15CancelImportKeyEv @ 7 NONAME
	_ZN16CUnifiedKeyStore15KeyStoreManagerEi @ 8 NONAME
	_ZN16CUnifiedKeyStore16CancelInitializeEv @ 9 NONAME
	_ZN16CUnifiedKeyStore18CancelSetUsePolicyEv @ 10 NONAME
	_ZN16CUnifiedKeyStore18ExportEncryptedKeyE20TCTTokenObjectHandleRK15CPBEncryptParmsRP6HBufC8R14TRequestStatus @ 11 NONAME
	_ZN16CUnifiedKeyStore19SetManagementPolicyE20TCTTokenObjectHandleRK15TSecurityPolicyR14TRequestStatus @ 12 NONAME
	_ZN16CUnifiedKeyStore20SetPassphraseTimeoutEiR14TRequestStatus @ 13 NONAME
	_ZN16CUnifiedKeyStore24CancelExportEncryptedKeyEv @ 14 NONAME
	_ZN16CUnifiedKeyStore25CancelSetManagementPolicyEv @ 15 NONAME
	_ZN16CUnifiedKeyStore26CancelSetPassphraseTimeoutEv @ 16 NONAME
	_ZN16CUnifiedKeyStore4NewLER3RFs @ 17 NONAME
	_ZN16CUnifiedKeyStore5NewLCER3RFs @ 18 NONAME
	_ZN16CUnifiedKeyStore6RelockER14TRequestStatus @ 19 NONAME
	_ZN16CUnifiedKeyStore8KeyStoreEi @ 20 NONAME
	_ZN16CUnifiedKeyStore9CreateKeyEi15TKeyUsagePKCS15jRK7TDesC16N12CKeyInfoBase13EKeyAlgorithmEi5TTimeS6_RP10CCTKeyInfoR14TRequestStatus @ 21 NONAME
	_ZN16CUnifiedKeyStore9DeleteKeyE20TCTTokenObjectHandleR14TRequestStatus @ 22 NONAME
	_ZN16CUnifiedKeyStore9ExportKeyE20TCTTokenObjectHandleRP6HBufC8R14TRequestStatus @ 23 NONAME
	_ZN16CUnifiedKeyStore9ImportKeyEiRK6TDesC815TKeyUsagePKCS15RK7TDesC16i5TTimeS7_RP10CCTKeyInfoR14TRequestStatus @ 24 NONAME
	_ZN16CUnifiedKeyStoreD0Ev @ 25 NONAME
	_ZN16CUnifiedKeyStoreD1Ev @ 26 NONAME
	_ZN16CUnifiedKeyStoreD2Ev @ 27 NONAME
	_ZN17CUnifiedCertStore10InitializeER14TRequestStatus @ 28 NONAME
	_ZN17CUnifiedCertStore12CancelRemoveEv @ 29 NONAME
	_ZN17CUnifiedCertStore14CancelSetTrustEv @ 30 NONAME
	_ZN17CUnifiedCertStore16CancelInitializeEv @ 31 NONAME
	_ZN17CUnifiedCertStore16SetApplicabilityERK11CCTCertInfoRK6RArrayI4TUidER14TRequestStatus @ 32 NONAME
	_ZN17CUnifiedCertStore17ReadOnlyCertStoreEi @ 33 NONAME
	_ZN17CUnifiedCertStore17WritableCertStoreEi @ 34 NONAME
	_ZN17CUnifiedCertStore22CancelSetApplicabilityEv @ 35 NONAME
	_ZN17CUnifiedCertStore4ListER14RMPointerArrayI11CCTCertInfoERK20CCertAttributeFilter13RPointerArrayIK6TDesC8ER14TRequestStatus @ 36 NONAME
	_ZN17CUnifiedCertStore4ListER14RMPointerArrayI11CCTCertInfoERK20CCertAttributeFilterRK6TDesC8R14TRequestStatus @ 37 NONAME
	_ZN17CUnifiedCertStore4NewLER3RFsi @ 38 NONAME
	_ZN17CUnifiedCertStore5NewLCER3RFsi @ 39 NONAME
	_ZN17CUnifiedCertStore6RemoveERK11CCTCertInfoR14TRequestStatus @ 40 NONAME
	_ZN17CUnifiedCertStore8RetrieveERK11CCTCertInfoRP12CCertificateR14TRequestStatus @ 41 NONAME
	_ZN17CUnifiedCertStore8SetTrustERK11CCTCertInfoiR14TRequestStatus @ 42 NONAME
	_ZN17CUnifiedCertStore9CertStoreEi @ 43 NONAME
	_ZN17CUnifiedCertStoreD0Ev @ 44 NONAME
	_ZN17CUnifiedCertStoreD1Ev @ 45 NONAME
	_ZN17CUnifiedCertStoreD2Ev @ 46 NONAME
	_ZN26CCertificateAppInfoManager4AddLERK19TCertificateAppInfo @ 47 NONAME
	_ZN26CCertificateAppInfoManager4NewLER3RFsi @ 48 NONAME
	_ZN26CCertificateAppInfoManager4NewLEv @ 49 NONAME
	_ZN26CCertificateAppInfoManager5NewLCER3RFsi @ 50 NONAME
	_ZN26CCertificateAppInfoManager5NewLCEv @ 51 NONAME
	_ZN26CCertificateAppInfoManager7RemoveLERK4TUid @ 52 NONAME
	_ZN26CCertificateAppInfoManagerD0Ev @ 53 NONAME
	_ZN26CCertificateAppInfoManagerD1Ev @ 54 NONAME
	_ZN26CCertificateAppInfoManagerD2Ev @ 55 NONAME
	_ZNK16CUnifiedKeyStore13KeyStoreCountEv @ 56 NONAME
	_ZNK16CUnifiedKeyStore20KeyStoreManagerCountEv @ 57 NONAME
	_ZNK17CUnifiedCertStore14CertStoreCountEv @ 58 NONAME
	_ZNK17CUnifiedCertStore22ReadOnlyCertStoreCountEv @ 59 NONAME
	_ZNK17CUnifiedCertStore22WritableCertStoreCountEv @ 60 NONAME
	_ZNK26CCertificateAppInfoManager12ApplicationLERK4TUidRi @ 61 NONAME
	_ZNK26CCertificateAppInfoManager12ApplicationsEv @ 62 NONAME
	_ZTI26CCertificateAppInfoManager @ 63 NONAME ; #<TI>#
	_ZTV26CCertificateAppInfoManager @ 64 NONAME ; #<VT>#
	_ZN17CUnifiedCertStore4NewLER3RFsiR6RArrayIiE @ 65 NONAME
	_ZN17CUnifiedCertStore5NewLCER3RFsiR6RArrayIiE @ 66 NONAME

