EXPORTS
	_ZN12CCertificateD0Ev @ 1 NONAME
	_ZN12CCertificateD1Ev @ 2 NONAME
	_ZN12CCertificateD2Ev @ 3 NONAME
	_ZN13CSignedObject14SetParametersLERK21CSigningKeyParameters @ 4 NONAME
	_ZN13CSignedObjectD0Ev @ 5 NONAME
	_ZN13CSignedObjectD1Ev @ 6 NONAME
	_ZN13CSignedObjectD2Ev @ 7 NONAME
	_ZN15CValidityPeriodC1ERKS_ @ 8 NONAME
	_ZN15CValidityPeriodC1Ev @ 9 NONAME
	_ZN15CValidityPeriodC2ERKS_ @ 10 NONAME
	_ZN15CValidityPeriodC2Ev @ 11 NONAME
	_ZN19CRSASignatureResultD0Ev @ 12 NONAME
	_ZN19CRSASignatureResultD1Ev @ 13 NONAME
	_ZN19CRSASignatureResultD2Ev @ 14 NONAME
	_ZN20CAlgorithmIdentifier10ConstructLERK6TDesC8 @ 15 NONAME
	_ZN20CAlgorithmIdentifier10ConstructLERKS_ @ 16 NONAME
	_ZN20CAlgorithmIdentifier4NewLER12TAlgorithmIdRK6TDesC8 @ 17 NONAME
	_ZN20CAlgorithmIdentifier4NewLERKS_ @ 18 NONAME
	_ZN20CAlgorithmIdentifier5NewLCER12TAlgorithmIdRK6TDesC8 @ 19 NONAME
	_ZN20CAlgorithmIdentifier5NewLCERKS_ @ 20 NONAME
	_ZN20CAlgorithmIdentifierC1ER12TAlgorithmId @ 21 NONAME
	_ZN20CAlgorithmIdentifierC1Ev @ 22 NONAME
	_ZN20CAlgorithmIdentifierC2ER12TAlgorithmId @ 23 NONAME
	_ZN20CAlgorithmIdentifierC2Ev @ 24 NONAME
	_ZN20CAlgorithmIdentifierD0Ev @ 25 NONAME
	_ZN20CAlgorithmIdentifierD1Ev @ 26 NONAME
	_ZN20CAlgorithmIdentifierD2Ev @ 27 NONAME
	_ZN21CSigningKeyParameters13SetDSAParamsLERK14CDSAParameters @ 28 NONAME
	_ZN21CSigningKeyParameters4NewLERKS_ @ 29 NONAME
	_ZN21CSigningKeyParameters4NewLEv @ 30 NONAME
	_ZN21CSigningKeyParameters5NewLCERKS_ @ 31 NONAME
	_ZN21CSigningKeyParameters5NewLCEv @ 32 NONAME
	_ZN21CSigningKeyParametersD0Ev @ 33 NONAME
	_ZN21CSigningKeyParametersD1Ev @ 34 NONAME
	_ZN21CSigningKeyParametersD2Ev @ 35 NONAME
	_ZN21CSubjectPublicKeyInfo10ConstructLERKS_ @ 36 NONAME
	_ZN21CSubjectPublicKeyInfo4NewLERKS_ @ 37 NONAME
	_ZN21CSubjectPublicKeyInfo5NewLCERKS_ @ 38 NONAME
	_ZN21CSubjectPublicKeyInfoD0Ev @ 39 NONAME
	_ZN21CSubjectPublicKeyInfoD1Ev @ 40 NONAME
	_ZN21CSubjectPublicKeyInfoD2Ev @ 41 NONAME
	_ZN27CSigningAlgorithmIdentifier4NewLERKS_ @ 42 NONAME
	_ZN27CSigningAlgorithmIdentifier5NewLCERKS_ @ 43 NONAME
	_ZN27CSigningAlgorithmIdentifierD0Ev @ 44 NONAME
	_ZN27CSigningAlgorithmIdentifierD1Ev @ 45 NONAME
	_ZN27CSigningAlgorithmIdentifierD2Ev @ 46 NONAME
	_ZNK12CCertificate12SerialNumberEv @ 47 NONAME
	_ZNK12CCertificate14KeyIdentifierLEv @ 48 NONAME
	_ZNK12CCertificate14ValidityPeriodEv @ 49 NONAME
	_ZNK12CCertificate9PublicKeyEv @ 50 NONAME
	_ZNK13CSignedObject11FingerprintEv @ 51 NONAME
	_ZNK13CSignedObject12ExternalizeLER12RWriteStream @ 52 NONAME
	_ZNK13CSignedObject16SigningAlgorithmEv @ 53 NONAME
	_ZNK13CSignedObject16VerifySignatureLERK6TDesC8 @ 54 NONAME
	_ZNK13CSignedObject8EncodingEv @ 55 NONAME
	_ZNK13CSignedObject9SignatureEv @ 56 NONAME
	_ZNK15CValidityPeriod5StartEv @ 57 NONAME
	_ZNK15CValidityPeriod5ValidERK5TTime @ 58 NONAME
	_ZNK15CValidityPeriod6FinishEv @ 59 NONAME
	_ZNK19CRSASignatureResulteqERKS_ @ 60 NONAME
	_ZNK20CAlgorithmIdentifier13EncodedParamsEv @ 61 NONAME
	_ZNK20CAlgorithmIdentifier9AlgorithmEv @ 62 NONAME
	_ZNK20CAlgorithmIdentifiereqERKS_ @ 63 NONAME
	_ZNK21CSubjectPublicKeyInfo11AlgorithmIdEv @ 64 NONAME
	_ZNK21CSubjectPublicKeyInfo13EncodedParamsEv @ 65 NONAME
	_ZNK21CSubjectPublicKeyInfo7KeyDataEv @ 66 NONAME
	_ZNK27CSigningAlgorithmIdentifier15DigestAlgorithmEv @ 67 NONAME
	_ZNK27CSigningAlgorithmIdentifier19AsymmetricAlgorithmEv @ 68 NONAME
	_ZNK27CSigningAlgorithmIdentifiereqERKS_ @ 69 NONAME
	_ZTI12CCertificate @ 70 NONAME ; #<TI>#
	_ZTI13CSignedObject @ 71 NONAME ; #<TI>#
	_ZTV21CSigningKeyParameters @ 72 NONAME ; #<VT>#
	_ZTI19CRSASignatureResult @ 73 NONAME ; #<TI>#
	_ZTI20CAlgorithmIdentifier @ 74 NONAME ; #<TI>#
	_ZTI21CSubjectPublicKeyInfo @ 75 NONAME ; #<TI>#
	_ZTV12CCertificate @ 76 NONAME ; #<VT>#
	_ZTV13CSignedObject @ 77 NONAME ; #<VT>#
	_ZTV19CRSASignatureResult @ 78 NONAME ; #<VT>#
	_ZTV20CAlgorithmIdentifier @ 79 NONAME ; #<VT>#
	_ZTV21CSubjectPublicKeyInfo @ 80 NONAME ; #<VT>#
	_ZTI27CSigningAlgorithmIdentifier @ 81 NONAME ; #<TI>#
	_ZTV27CSigningAlgorithmIdentifier @ 82 NONAME ; #<VT>#
	_ZTI21CSigningKeyParameters @ 83 NONAME ; #<TI>#
	_ZNK13CSignedObject16VerifySignatureLERK6TDesC8S2_ @ 84 NONAME

