EXPORTS
	_ZN14CPKCS10Request11SetKeyInfoLERK10CCTKeyInfo @ 1 NONAME
	_ZN14CPKCS10Request13SetAttributesEP17CPKCS10Attributes @ 2 NONAME
	_ZN14CPKCS10Request13SetDigestAlgLE12TAlgorithmId @ 3 NONAME
	_ZN14CPKCS10Request14CreateEncodingERP6HBufC8R14TRequestStatus @ 4 NONAME
	_ZN14CPKCS10Request21SetDistinguishedNameLERK22CX500DistinguishedName @ 5 NONAME
	_ZN14CPKCS10Request4NewLERK22CX500DistinguishedNameRK10CCTKeyInfoP17CPKCS10Attributes @ 6 NONAME
	_ZN14CPKCS10Request5NewLCERK22CX500DistinguishedNameRK10CCTKeyInfoP17CPKCS10Attributes @ 7 NONAME
	_ZN14CPKCS10RequestD0Ev @ 8 NONAME
	_ZN16CPKCS10Attribute5NewLCERK7TDesC16 @ 9 NONAME
	_ZN16CPKCS10Attribute5NewLCERK7TDesC16P12CASN1EncBase @ 10 NONAME
	_ZN16CPKCS10Attribute9AddValueLEP12CASN1EncBase @ 11 NONAME
	_ZN17CPKCS10Attributes13AddAttributeLEP16CPKCS10Attribute @ 12 NONAME
	_ZN17CPKCS10Attributes4NewLEv @ 13 NONAME
	_ZN17CPKCS10Attributes5NewLCEv @ 14 NONAME
	_ZN17CPKCS10AttributesD0Ev @ 15 NONAME
	_ZN17CPKCS10AttributesD1Ev @ 16 NONAME
	_ZN17CPKCS10AttributesD2Ev @ 17 NONAME
	_ZN17CPKCS10Attributes17AddPKCSAttributeLEP18CPKCSAttributeBase @ 18 NONAME
	_ZN14CPKCS10RequestD1Ev @ 19 NONAME
	_ZTI16CPKCS10Attribute @ 20 NONAME
	_ZN16CPKCS10Attribute6ResetLERK7TDesC16P12CASN1EncBase @ 21 NONAME
	_ZTI17CPKCS10Attributes @ 22 NONAME
	_ZN26CPKCS9ExtensionRequestAttr13AddExtensionLERK18CX509CertExtension @ 23 NONAME
	_ZN26CPKCS9ExtensionRequestAttr4NewLERK18CX509CertExtension @ 24 NONAME
	_ZTV16CPKCS10Attribute @ 25 NONAME
	_ZN26CPKCS9ExtensionRequestAttr6ResetLERK18CX509CertExtension @ 26 NONAME
	_ZTV17CPKCS10Attributes @ 27 NONAME
	_ZN27CPKCS9ChallengePasswordAttr5NewLCERK6TDesC8 @ 28 NONAME
	_ZN27CPKCS9ChallengePasswordAttr6ResetLERK6TDesC8 @ 29 NONAME
	_ZTI14CPKCS10Request @ 30 NONAME
	_ZN14CPKCS10RequestD2Ev @ 31 NONAME
	_ZTI16CPKCS10KeyHelper @ 32 NONAME
	_ZN16CPKCS10Attribute4NewLERK7TDesC16P12CASN1EncBase @ 33 NONAME
	_ZTI18CPKCSAttributeBase @ 34 NONAME
	_ZTI19CPKCS10DSAKeyHelper @ 35 NONAME
	_ZTI19CPKCS10RSAKeyHelper @ 36 NONAME
	_ZTI26CPKCS9ExtensionRequestAttr @ 37 NONAME
	_ZTI27CPKCS9ChallengePasswordAttr @ 38 NONAME
	_ZTV14CPKCS10Request @ 39 NONAME
	_ZN26CPKCS9ExtensionRequestAttr5NewLCERK18CX509CertExtension @ 40 NONAME
	_ZTV16CPKCS10KeyHelper @ 41 NONAME
	_ZN27CPKCS9ChallengePasswordAttr4NewLERK6TDesC8 @ 42 NONAME
	_ZTV18CPKCSAttributeBase @ 43 NONAME
	_ZTV19CPKCS10DSAKeyHelper @ 44 NONAME
	_ZTV19CPKCS10RSAKeyHelper @ 45 NONAME
	_ZTV26CPKCS9ExtensionRequestAttr @ 46 NONAME
	_ZTV27CPKCS9ChallengePasswordAttr @ 47 NONAME
