EXPORTS
	_ZN18CPKCS7SignedObject10ConstructLERK6TDesC8 @ 1 NONAME
	_ZN18CPKCS7SignedObject12InternalizeLER11RReadStream @ 2 NONAME
	_ZN18CPKCS7SignedObject15ValidateSignerLERK16CPKCS7SignerInfoRP6HBufC8 @ 3 NONAME
	_ZN18CPKCS7SignedObject4NewLERK6TDesC8 @ 4 NONAME
	_ZN18CPKCS7SignedObject5NewLCERK6TDesC8 @ 5 NONAME
	_ZN18CPKCS7SignedObjectC1Ev @ 6 NONAME
	_ZN18CPKCS7SignedObjectC2Ev @ 7 NONAME
	_ZN18CPKCS7SignedObjectD0Ev @ 8 NONAME
	_ZN18CPKCS7SignedObjectD1Ev @ 9 NONAME
	_ZN18CPKCS7SignedObjectD2Ev @ 10 NONAME
	_ZNK16CPKCS7SignerInfo15DigestAlgorithmEv @ 11 NONAME
	_ZNK16CPKCS7SignerInfo15EncryptedDigestEv @ 12 NONAME
	_ZNK16CPKCS7SignerInfo21IssuerAndSerialNumberEv @ 13 NONAME
	_ZNK16CPKCS7SignerInfo25DigestEncryptionAlgorithmEv @ 14 NONAME
	_ZNK16CPKCS7SignerInfo7VersionEv @ 15 NONAME
	_ZNK17CPKCS7ContentInfo11ContentDataEv @ 16 NONAME
	_ZNK17CPKCS7ContentInfo11ContentTypeEv @ 17 NONAME
	_ZNK18CPKCS7SignedObject10SignerInfoEv @ 18 NONAME
	_ZNK18CPKCS7SignedObject11ContentInfoEv @ 19 NONAME
	_ZNK18CPKCS7SignedObject11SignedDataLEv @ 20 NONAME
	_ZNK18CPKCS7SignedObject12CertificatesEv @ 21 NONAME
	_ZNK18CPKCS7SignedObject16DigestAlgorithmsEv @ 22 NONAME
	_ZNK18CPKCS7SignedObject19DataElementEncodingEj @ 23 NONAME
	_ZNK18CPKCS7SignedObject7VersionEv @ 24 NONAME
	_ZNK27CPKCS7IssuerAndSerialNumber10IssuerNameEv @ 25 NONAME
	_ZNK27CPKCS7IssuerAndSerialNumber12SerialNumberEv @ 26 NONAME
	_ZNK38CPKCS7ExtendedCertificateOrCertificate11CertificateEv @ 27 NONAME
	_ZTI18CPKCS7SignedObject @ 28 NONAME ; #<TI>#
	_ZTV18CPKCS7SignedObject @ 29 NONAME ; #<VT>#
	_ZTI16CPKCS7SignerInfo @ 30 NONAME ; #<TI>#
	_ZTI17CPKCS7ContentInfo @ 31 NONAME ; #<TI>#
	_ZTI27CPKCS7IssuerAndSerialNumber @ 32 NONAME ; #<TI>#
	_ZTI38CPKCS7ExtendedCertificateOrCertificate @ 33 NONAME ; #<TI>#
	_ZTV16CPKCS7SignerInfo @ 34 NONAME ; #<VT>#
	_ZTV17CPKCS7ContentInfo @ 35 NONAME ; #<VT>#
	_ZTV27CPKCS7IssuerAndSerialNumber @ 36 NONAME ; #<VT>#
	_ZTV38CPKCS7ExtendedCertificateOrCertificate @ 37 NONAME ; #<VT>#

