EXPORTS
	_ZN18CPKCS7SignedObject10ConstructLERK6TDesC8 @ 1 NONAME ABSENT
	_ZN18CPKCS7SignedObject12InternalizeLER11RReadStream @ 2 NONAME
	_ZN18CPKCS7SignedObject15ValidateSignerLERK16CPKCS7SignerInfoRP6HBufC8 @ 3 NONAME
	_ZN18CPKCS7SignedObject4NewLERK6TDesC8 @ 4 NONAME ABSENT
	_ZN18CPKCS7SignedObject5NewLCERK6TDesC8 @ 5 NONAME ABSENT
	_ZN18CPKCS7SignedObjectC1Ev @ 6 NONAME
	_ZN18CPKCS7SignedObjectC2Ev @ 7 NONAME
	_ZN18CPKCS7SignedObjectD0Ev @ 8 NONAME
	_ZN18CPKCS7SignedObjectD1Ev @ 9 NONAME
	_ZN18CPKCS7SignedObjectD2Ev @ 10 NONAME
	_ZNK16CPKCS7SignerInfo15DigestAlgorithmEv @ 11 NONAME
	_ZNK16CPKCS7SignerInfo15EncryptedDigestEv @ 12 NONAME
	_ZNK16CPKCS7SignerInfo21IssuerAndSerialNumberEv @ 13 NONAME
	_ZNK16CPKCS7SignerInfo25DigestEncryptionAlgorithmEv @ 14 NONAME
	_ZNK16CPKCS7SignerInfo7VersionEv @ 15 NONAME
	_ZNK17CPKCS7ContentInfo11ContentDataEv @ 16 NONAME
	_ZNK17CPKCS7ContentInfo11ContentTypeEv @ 17 NONAME
	_ZNK18CPKCS7SignedObject10SignerInfoEv @ 18 NONAME
	_ZNK18CPKCS7SignedObject11ContentInfoEv @ 19 NONAME
	_ZNK18CPKCS7SignedObject11SignedDataLEv @ 20 NONAME
	_ZNK18CPKCS7SignedObject12CertificatesEv @ 21 NONAME
	_ZNK18CPKCS7SignedObject16DigestAlgorithmsEv @ 22 NONAME
	_ZNK18CPKCS7SignedObject19DataElementEncodingEj @ 23 NONAME
	_ZNK18CPKCS7SignedObject7VersionEv @ 24 NONAME
	_ZNK27CPKCS7IssuerAndSerialNumber10IssuerNameEv @ 25 NONAME
	_ZNK27CPKCS7IssuerAndSerialNumber12SerialNumberEv @ 26 NONAME
	_ZNK38CPKCS7ExtendedCertificateOrCertificate11CertificateEv @ 27 NONAME
	_ZTI18CPKCS7SignedObject @ 28 NONAME ; #<TI>#
	_ZTV18CPKCS7SignedObject @ 29 NONAME ; #<VT>#
	_ZTI16CPKCS7SignerInfo @ 30 NONAME ; #<TI>#
	_ZTI17CPKCS7ContentInfo @ 31 NONAME ; #<TI>#
	_ZTI27CPKCS7IssuerAndSerialNumber @ 32 NONAME ; #<TI>#
	_ZTI38CPKCS7ExtendedCertificateOrCertificate @ 33 NONAME ; #<TI>#
	_ZTV16CPKCS7SignerInfo @ 34 NONAME ; #<VT>#
	_ZTV17CPKCS7ContentInfo @ 35 NONAME ; #<VT>#
	_ZTV27CPKCS7IssuerAndSerialNumber @ 36 NONAME ; #<VT>#
	_ZTV38CPKCS7ExtendedCertificateOrCertificate @ 37 NONAME ; #<VT>#
	_ZN16CPKCS7DigestInfo4NewLERK6TDesC8 @ 38 NONAME
	_ZN17CPKCS7ContentInfo4NewLERK6TDesC8 @ 39 NONAME
	_ZN18CPKCS7SignedObject10ConstructLERK17CPKCS7ContentInfo @ 40 NONAME
	_ZN18CPKCS7SignedObject4NewLERK17CPKCS7ContentInfo @ 41 NONAME
	_ZN18CPKCS7SignedObject5NewLCERK17CPKCS7ContentInfo @ 42 NONAME
	_ZN25CPKCS7EncryptedDataObject4NewLERK17CPKCS7ContentInfo @ 43 NONAME
	_ZNK16CPKCS7DigestInfo13EncodedParamsEv @ 44 NONAME
	_ZNK16CPKCS7DigestInfo6DigestEv @ 45 NONAME
	_ZNK16CPKCS7DigestInfo9AlgorithmEv @ 46 NONAME
	_ZNK25CPKCS7EncryptedDataObject11ContentTypeEv @ 47 NONAME
	_ZNK25CPKCS7EncryptedDataObject12DecryptDataLERK7TDesC16 @ 48 NONAME
	_ZNK25CPKCS7EncryptedDataObject13EncryptParamsEv @ 49 NONAME
	_ZNK25CPKCS7EncryptedDataObject24EncryptedContentInfoDataEv @ 50 NONAME
	_ZNK25CPKCS7EncryptedDataObject7VersionEv @ 51 NONAME
	_ZTI16CPKCS7DigestInfo @ 52 NONAME ; #<TI>#
	_ZTI25CPKCS7EncryptedDataObject @ 53 NONAME ; #<TI>#
	_ZTV16CPKCS7DigestInfo @ 54 NONAME ; #<VT>#
	_ZTV25CPKCS7EncryptedDataObject @ 55 NONAME ; #<VT>#
	_ZN15CCmsContentInfo4NewLE19TCmsContentInfoTypeRK6TDesC8 @ 56 NONAME
	_ZN15CCmsContentInfo4NewLERK6TDesC8 @ 57 NONAME
	_ZN15CCmsContentInfo5NewLCE19TCmsContentInfoTypeRK6TDesC8 @ 58 NONAME
	_ZN15CCmsContentInfo5NewLCERK6TDesC8 @ 59 NONAME
	_ZN15CCmsContentInfoD0Ev @ 60 NONAME
	_ZN15CCmsContentInfoD1Ev @ 61 NONAME
	_ZN15CCmsContentInfoD2Ev @ 62 NONAME
	_ZN16CCmsSignedObject12InternalizeLER11RReadStream @ 63 NONAME
	_ZN16CCmsSignedObject15AddCertificateLERK16CX509Certificate @ 64 NONAME
	_ZN16CCmsSignedObject15AddCertificateLERK6TDesC8N21CCmsCertificateChoice16TCertificateTypeE @ 65 NONAME
	_ZN16CCmsSignedObject16ValidateSignerLCERK14CCmsSignerInfoRK13RPointerArrayI16CX509CertificateERP6HBufC8 @ 66 NONAME
	_ZN16CCmsSignedObject16ValidateSignerLCERK14CCmsSignerInfoRK13RPointerArrayI16CX509CertificateERP6HBufC8iRK6TDesC8 @ 67 NONAME
	_ZN16CCmsSignedObject16ValidateSignerLCERK14CCmsSignerInfoRP6HBufC8 @ 68 NONAME
	_ZN16CCmsSignedObject16ValidateSignerLCERK14CCmsSignerInfoRP6HBufC8iRK6TDesC8 @ 69 NONAME
	_ZN16CCmsSignedObject4NewLE19TCmsContentInfoTypeRK6TDesC812TAlgorithmIdRK14CDSAPrivateKeyRK16CX509Certificatei @ 70 NONAME
	_ZN16CCmsSignedObject4NewLE19TCmsContentInfoTypeRK6TDesC812TAlgorithmIdRK14CRSAPrivateKeyRK16CX509Certificatei @ 71 NONAME
	_ZN16CCmsSignedObject4NewLE19TCmsContentInfoTypeiRK6TDesC8 @ 72 NONAME
	_ZN16CCmsSignedObject4NewLERK15CCmsContentInfo @ 73 NONAME
	_ZN16CCmsSignedObject5NewLCE19TCmsContentInfoTypeRK6TDesC812TAlgorithmIdRK14CDSAPrivateKeyRK16CX509Certificatei @ 74 NONAME
	_ZN16CCmsSignedObject5NewLCE19TCmsContentInfoTypeRK6TDesC812TAlgorithmIdRK14CRSAPrivateKeyRK16CX509Certificatei @ 75 NONAME
	_ZN16CCmsSignedObject5NewLCE19TCmsContentInfoTypeiRK6TDesC8 @ 76 NONAME
	_ZN16CCmsSignedObject5NewLCERK15CCmsContentInfo @ 77 NONAME
	_ZN16CCmsSignedObject5SignLERK6TDesC812TAlgorithmIdRK14CDSAPrivateKeyRK16CX509Certificatei @ 78 NONAME
	_ZN16CCmsSignedObject5SignLERK6TDesC812TAlgorithmIdRK14CRSAPrivateKeyRK16CX509Certificatei @ 79 NONAME
	_ZN16CCmsSignedObjectD0Ev @ 80 NONAME
	_ZN16CCmsSignedObjectD1Ev @ 81 NONAME
	_ZN16CCmsSignedObjectD2Ev @ 82 NONAME
	_ZN20CCmsSignerIdentifierD0Ev @ 83 NONAME
	_ZN20CCmsSignerIdentifierD1Ev @ 84 NONAME
	_ZN20CCmsSignerIdentifierD2Ev @ 85 NONAME
	_ZN21CCmsCertificateChoice15CertificateTypeEv @ 86 NONAME
	_ZN27CPKCS7IssuerAndSerialNumberD0Ev @ 87 NONAME
	_ZN27CPKCS7IssuerAndSerialNumberD1Ev @ 88 NONAME
	_ZN27CPKCS7IssuerAndSerialNumberD2Ev @ 89 NONAME
	_ZNK14CCmsSignerInfo14SignatureValueEv @ 90 NONAME
	_ZNK14CCmsSignerInfo15DigestAlgorithmEv @ 91 NONAME
	_ZNK14CCmsSignerInfo16SignerIdentifierEv @ 92 NONAME
	_ZNK14CCmsSignerInfo18SignatureAlgorithmEv @ 93 NONAME
	_ZNK14CCmsSignerInfo25IsSignedAttributesPresentEv @ 94 NONAME
	_ZNK14CCmsSignerInfo27IsUnsignedAttributesPresentEv @ 95 NONAME
	_ZNK14CCmsSignerInfo7VersionEv @ 96 NONAME
	_ZNK15CCmsContentInfo11ContentDataEv @ 97 NONAME
	_ZNK15CCmsContentInfo11ContentTypeEv @ 98 NONAME
	_ZNK15CCmsContentInfo15EncodeASN1DERLCEv @ 99 NONAME
	_ZNK16CCmsSignedObject10SignerInfoEv @ 100 NONAME
	_ZNK16CCmsSignedObject11ContentInfoEv @ 101 NONAME
	_ZNK16CCmsSignedObject11SignedDataLEv @ 102 NONAME
	_ZNK16CCmsSignedObject12CertificatesEv @ 103 NONAME
	_ZNK16CCmsSignedObject15EncodeASN1DERLCEv @ 104 NONAME
	_ZNK16CCmsSignedObject16DigestAlgorithmsEv @ 105 NONAME
	_ZNK16CCmsSignedObject19DataElementEncodingEj @ 106 NONAME
	_ZNK16CCmsSignedObject23IsCertificateSetPresentEv @ 107 NONAME
	_ZNK16CCmsSignedObject35IsCertificateRevocationListsPresentEv @ 108 NONAME
	_ZNK16CCmsSignedObject7VersionEv @ 109 NONAME
	_ZNK20CCmsSignerIdentifier20SignerIdentifierTypeEv @ 110 NONAME
	_ZNK20CCmsSignerIdentifier20SubjectKeyIdentifierEv @ 111 NONAME
	_ZNK20CCmsSignerIdentifier21IssuerAndSerialNumberEv @ 112 NONAME
	_ZNK21CCmsCertificateChoice11CertificateEv @ 113 NONAME
	_ZNK21CCmsCertificateChoice20AttributeCertificateEv @ 114 NONAME
	_ZNK24CEncapsulatedContentInfo11ContentDataEv @ 115 NONAME
	_ZNK24CEncapsulatedContentInfo11ContentTypeEv @ 116 NONAME
	_ZNK24CEncapsulatedContentInfo20IsContentDataPresentEv @ 117 NONAME
	_ZTI14CCmsSignerInfo @ 118 NONAME ; #<TI>#
	_ZTI15CCmsContentInfo @ 119 NONAME ; #<TI>#
	_ZTI16CCmsSignedObject @ 120 NONAME ; #<TI>#
	_ZTI20CCmsSignerIdentifier @ 121 NONAME ; #<TI>#
	_ZTI21CCmsCertificateChoice @ 122 NONAME ; #<TI>#
	_ZTV14CCmsSignerInfo @ 123 NONAME ; #<VT>#
	_ZTV15CCmsContentInfo @ 124 NONAME ; #<VT>#
	_ZTV16CCmsSignedObject @ 125 NONAME ; #<VT>#
	_ZTV20CCmsSignerIdentifier @ 126 NONAME ; #<VT>#
	_ZTV21CCmsCertificateChoice @ 127 NONAME ; #<VT>#

