EXPORTS
	_ZN18CPKIXCertChainBase10ConstructLER10MCertStoreRK6TPtrC84TUid @ 1 NONAME
	_ZN18CPKIXCertChainBase10ConstructLER10MCertStoreRK6TPtrC8RK13RPointerArrayI16CX509CertificateE @ 2 NONAME
	_ZN18CPKIXCertChainBase14CancelValidateEv @ 3 NONAME
	_ZN18CPKIXCertChainBase4NewLER10MCertStoreRK6TPtrC84TUid @ 4 NONAME
	_ZN18CPKIXCertChainBase4NewLER10MCertStoreRK6TPtrC8RK13RPointerArrayI16CX509CertificateE @ 5 NONAME
	_ZN18CPKIXCertChainBase5NewLCER10MCertStoreRK6TPtrC84TUid @ 6 NONAME
	_ZN18CPKIXCertChainBase5NewLCER10MCertStoreRK6TPtrC8RK13RPointerArrayI16CX509CertificateE @ 7 NONAME
	_ZN18CPKIXCertChainBase8AddCertLERK6TPtrC8 @ 8 NONAME
	_ZN18CPKIXCertChainBase9ValidateLER25CPKIXValidationResultBaseRK5TTimeR14TRequestStatus @ 9 NONAME
	_ZN18CPKIXCertChainBase9ValidateLER25CPKIXValidationResultBaseRK5TTimeRK9CArrayPtrI7HBufC16ER14TRequestStatus @ 10 NONAME
	_ZN18CPKIXCertChainBaseC1Ev @ 11 NONAME
	_ZN18CPKIXCertChainBaseC2Ev @ 12 NONAME
	_ZN18CPKIXCertChainBaseD0Ev @ 13 NONAME
	_ZN18CPKIXCertChainBaseD1Ev @ 14 NONAME
	_ZN18CPKIXCertChainBaseD2Ev @ 15 NONAME
	_ZN25CPKIXValidationResultBase10ConstructLEv @ 16 NONAME
	_ZN25CPKIXValidationResultBase4NewLEv @ 17 NONAME
	_ZN25CPKIXValidationResultBase5NewLCEv @ 18 NONAME
	_ZN25CPKIXValidationResultBaseC1Ev @ 19 NONAME
	_ZN25CPKIXValidationResultBaseC2Ev @ 20 NONAME
	_ZN25CPKIXValidationResultBaseD0Ev @ 21 NONAME
	_ZN25CPKIXValidationResultBaseD1Ev @ 22 NONAME
	_ZN25CPKIXValidationResultBaseD2Ev @ 23 NONAME
	_ZNK18CPKIXCertChainBase12ChainHasRootEv @ 24 NONAME
	_ZNK25CPKIXValidationResultBase5ErrorEv @ 25 NONAME
	_ZNK25CPKIXValidationResultBase8PoliciesEv @ 26 NONAME
	_ZNK25CPKIXValidationResultBase8WarningsEv @ 27 NONAME
	_ZTI18CPKIXCertChainBase @ 28 NONAME ; #<TI>#
	_ZTI25CPKIXValidationResultBase @ 29 NONAME ; #<TI>#
	_ZTV18CPKIXCertChainBase @ 30 NONAME ; #<VT>#
	_ZTV25CPKIXValidationResultBase @ 31 NONAME ; #<VT>#
	_ZTI15MPKIXCertSource @ 32 NONAME ; #<TI>#
	_ZTI16CPKIXCertChainAO @ 33 NONAME ; #<TI>#
	_ZTI17CPKIXChainBuilder @ 34 NONAME ; #<TI>#
	_ZTI19CPKIXCertsFromStore @ 35 NONAME ; #<TI>#
	_ZTI20CPKIXCertsFromClient @ 36 NONAME ; #<TI>#
	_ZTI20CPKIXValidationState @ 37 NONAME ; #<TI>#
	_ZTV15MPKIXCertSource @ 38 NONAME ; #<VT>#
	_ZTV16CPKIXCertChainAO @ 39 NONAME ; #<VT>#
	_ZTV17CPKIXChainBuilder @ 40 NONAME ; #<VT>#
	_ZTV19CPKIXCertsFromStore @ 41 NONAME ; #<VT>#
	_ZTV20CPKIXCertsFromClient @ 42 NONAME ; #<VT>#
	_ZTV20CPKIXValidationState @ 43 NONAME ; #<VT>#
	_ZN25CPKIXValidationResultBase12InternalizeLER11RReadStream @ 44 NONAME
	_ZNK25CPKIXValidationResultBase12ExternalizeLER12RWriteStream @ 45 NONAME
	_ZN18CPKIXCertChainBase27SetValidityPeriodCheckFatalEi @ 46 NONAME
	_ZN18CPKIXCertChainBase31AddSupportedCriticalExtensionsLERK13RPointerArrayI7TDesC16E @ 47 NONAME
	_ZN18CPKIXCertChainBase31SetSupportedCriticalExtensionsLERK13RPointerArrayI7TDesC16E @ 48 NONAME
	_ZN18CPKIXCertChainBase33RemoveSupportedCriticalExtensionsERK13RPointerArrayI7TDesC16E @ 49 NONAME
	_ZN18CPKIXCertChainBase36ResetSupportedCriticalExtsToDefaultLEv @ 50 NONAME
	_ZN25CPKIXValidationResultBase31AppendCriticalExtensionWarningLER7TDesC16 @ 51 NONAME
	_ZN25CPKIXValidationResultBase34AppendCertificateValidationObjectLERK30CCertificateValidationWarnings @ 52 NONAME
	_ZNK18CPKIXCertChainBase24ValidityPeriodCheckFatalEv @ 53 NONAME
	_ZNK18CPKIXCertChainBase27SupportedCriticalExtensionsEv @ 54 NONAME
	_ZNK25CPKIXValidationResultBase18ValidationWarningsEv @ 55 NONAME

