EXPORTS
	_ZN10CCertUtils10WriteErrorE16TValidationErrorR6Output @ 1 NONAME
	_ZN10CCertUtils11AddCACertsLERK12CDesC16ArrayS2_18TCertificateFormatiRK7TDesC16R14TRequestStatus @ 2 NONAME
	_ZN10CCertUtils11AddCACertsLERK12CDesC16ArrayS2_18TCertificateFormatiRK7TDesC16R17CUnifiedCertStoreR14TRequestStatus @ 3 NONAME
	_ZN10CCertUtils12RemoveCertsLER14TRequestStatus @ 4 NONAME
	_ZN10CCertUtils12RemoveCertsLER17CUnifiedCertStoreR14TRequestStatus @ 5 NONAME
	_ZN10CCertUtils13CertFromFileLERK7TDesC16S2_R3RFs18TCertificateFormat @ 6 NONAME
	_ZN10CCertUtils14CertFromFileLCERK7TDesC16S2_R3RFs18TCertificateFormat @ 7 NONAME
	_ZN10CCertUtils4NewLER3RFs @ 8 NONAME
	_ZN10CCertUtils5NewLCER3RFs @ 9 NONAME
	_ZN10CCertUtils7AddCertERK7TDesC1618TCertificateFormat21TCertificateOwnerTypeiS2_S2_R17CUnifiedCertStoreR14TRequestStatus @ 10 NONAME
	_ZN10CCertUtils8AddCertLERK7TDesC1618TCertificateFormat21TCertificateOwnerTypeiS2_S2_R14TRequestStatus @ 11 NONAME
	_ZN10CCertUtils8MapErrorE16TValidationError @ 12 NONAME
	_ZN10CCertUtilsD0Ev @ 13 NONAME
	_ZN10CCertUtilsD1Ev @ 14 NONAME
	_ZN10CCertUtilsD2Ev @ 15 NONAME
	_ZN10CertWriter11ShowAltNameERK18CX509CertExtension @ 16 NONAME
	_ZN10CertWriter12IsSelfSignedERK16CX509Certificate @ 17 NONAME
	_ZN10CertWriter12ShowSubtreesERK13CArrayPtrFlatI19CX509GeneralSubtreeE @ 18 NONAME
	_ZN10CertWriter13ShowPublicKeyERK16CX509Certificate @ 19 NONAME
	_ZN10CertWriter13ShowSignatureERK16CX509Certificate @ 20 NONAME
	_ZN10CertWriter14ShowExtensionsERK16CX509Certificate @ 21 NONAME
	_ZN10CertWriter15ShowFingerprintERK16CX509Certificate @ 22 NONAME
	_ZN10CertWriter16ShowSerialNumberERK6TPtrC8 @ 23 NONAME
	_ZN10CertWriter18ShowValidityPeriodERK16CX509Certificate @ 24 NONAME
	_ZN10CertWriter20ShowSigningAlgorithmERK27CSigningAlgorithmIdentifier @ 25 NONAME
	_ZN10CertWriter6SetOutEP6Output @ 26 NONAME
	_ZN10CertWriter6ShowBCERK18CX509CertExtension @ 27 NONAME
	_ZN10CertWriter6ShowCPERK18CX509CertExtension @ 28 NONAME
	_ZN10CertWriter6ShowDNERK22CX500DistinguishedName @ 29 NONAME
	_ZN10CertWriter6ShowGNERK16CX509GeneralName @ 30 NONAME
	_ZN10CertWriter6ShowKUERK18CX509CertExtension @ 31 NONAME
	_ZN10CertWriter6ShowNCERK18CX509CertExtension @ 32 NONAME
	_ZN10CertWriter6ShowPCERK18CX509CertExtension @ 33 NONAME
	_ZN10CertWriter6ShowPMERK18CX509CertExtension @ 34 NONAME
	_ZN10CertWriter7ShowAKIERK16CX509Certificate @ 35 NONAME
	_ZN10CertWriter7ShowAVAERK26CX520AttributeTypeAndValue @ 36 NONAME
	_ZN10CertWriter7ShowEKUERK18CX509CertExtension @ 37 NONAME
	_ZN10CertWriter7ShowSKIERK16CX509Certificate @ 38 NONAME
	_ZN10CertWriter9WriteCertERK16CX509Certificate @ 39 NONAME
	_ZN10CertWriterC1EP6Output @ 40 NONAME
	_ZN10CertWriterC2EP6Output @ 41 NONAME
	_ZNK10CCertUtils12DiagnosticLCEv @ 42 NONAME
	_ZNK10CCertUtils15AddApplicationLERK7TDesC164TUid @ 43 NONAME
	_ZNK10CCertUtils18RemoveApplicationLE4TUid @ 44 NONAME
	_ZTI10CCertUtils @ 45 NONAME ; #<TI>#
	_ZTV10CCertUtils @ 46 NONAME ; #<VT>#

