EXPORTS
	_ZN14CWTLSCertChain12AppendCertsLERK6TPtrC8 @ 1 NONAME
	_ZN14CWTLSCertChain4NewLER3RFsRK6TPtrC84TUid @ 2 NONAME
	_ZN14CWTLSCertChain4NewLER3RFsRK6TPtrC8RK9CArrayPtrI16CWTLSCertificateE @ 3 NONAME
	_ZN14CWTLSCertChain5NewLCER3RFsRK6TPtrC84TUid @ 4 NONAME
	_ZN14CWTLSCertChain5NewLCER3RFsRK6TPtrC8RK9CArrayPtrI16CWTLSCertificateE @ 5 NONAME
	_ZN14CWTLSCertChain9ValidateLER21CWTLSValidationResultRK5TTimeR14TRequestStatus @ 6 NONAME
	_ZN14CWTLSCertChainD0Ev @ 7 NONAME
	_ZN14CWTLSCertChainD1Ev @ 8 NONAME
	_ZN14CWTLSCertChainD2Ev @ 9 NONAME
	_ZN16CWTLSCertificate12InternalizeLER11RReadStream @ 10 NONAME
	_ZN16CWTLSCertificate4NewLER11RReadStream @ 11 NONAME
	_ZN16CWTLSCertificate4NewLERK6TDesC8 @ 12 NONAME
	_ZN16CWTLSCertificate4NewLERK6TDesC8Ri @ 13 NONAME
	_ZN16CWTLSCertificate4NewLERKS_ @ 14 NONAME
	_ZN16CWTLSCertificate5NewLCER11RReadStream @ 15 NONAME
	_ZN16CWTLSCertificate5NewLCERK6TDesC8 @ 16 NONAME
	_ZN16CWTLSCertificate5NewLCERK6TDesC8Ri @ 17 NONAME
	_ZN16CWTLSCertificate5NewLCERKS_ @ 18 NONAME
	_ZN16CWTLSCertificateD0Ev @ 19 NONAME
	_ZN16CWTLSCertificateD1Ev @ 20 NONAME
	_ZN16CWTLSCertificateD2Ev @ 21 NONAME
	_ZN17CWTLSRSAPublicKey4NewLERK6TDesC8 @ 22 NONAME
	_ZN17CWTLSRSAPublicKey4NewLERK6TDesC8Ri @ 23 NONAME
	_ZN17CWTLSRSAPublicKey5NewLCERK6TDesC8 @ 24 NONAME
	_ZN17CWTLSRSAPublicKey5NewLCERK6TDesC8Ri @ 25 NONAME
	_ZN19CWTLSStructuredText4NewLERK6TDesC8 @ 26 NONAME
	_ZN19CWTLSStructuredText4NewLERK6TDesC8Ri @ 27 NONAME
	_ZN19CWTLSStructuredText5NewLCERK6TDesC8 @ 28 NONAME
	_ZN19CWTLSStructuredText5NewLCERK6TDesC8Ri @ 29 NONAME
	_ZN19CWTLSStructuredTextD0Ev @ 30 NONAME
	_ZN19CWTLSStructuredTextD1Ev @ 31 NONAME
	_ZN19CWTLSStructuredTextD2Ev @ 32 NONAME
	_ZN19CWTLSValidityPeriod4NewLERK6TDesC8 @ 33 NONAME
	_ZN19CWTLSValidityPeriod4NewLERK6TDesC8Ri @ 34 NONAME
	_ZN19CWTLSValidityPeriod5NewLCERK6TDesC8 @ 35 NONAME
	_ZN19CWTLSValidityPeriod5NewLCERK6TDesC8Ri @ 36 NONAME
	_ZN21CWTLSValidationResult4NewLEv @ 37 NONAME
	_ZN21CWTLSValidationResult5NewLCEv @ 38 NONAME
	_ZN21CWTLSValidationResultD0Ev @ 39 NONAME
	_ZN21CWTLSValidationResultD1Ev @ 40 NONAME
	_ZN21CWTLSValidationResultD2Ev @ 41 NONAME
	_ZN21TWTLSValidationStatusC1E16TValidationErrori @ 42 NONAME
	_ZN21TWTLSValidationStatusC2E16TValidationErrori @ 43 NONAME
	_ZN23CWTLSRSASignatureResult4NewLERK20CAlgorithmIdentifierRK6TDesC8 @ 44 NONAME
	_ZN23CWTLSRSASignatureResult5NewLCERK20CAlgorithmIdentifierRK6TDesC8 @ 45 NONAME
	_ZN23CWTLSRSASignatureResult7VerifyLERK6TDesC8 @ 46 NONAME
	_ZN24CWTLSAlgorithmIdentifier4NewLERK6TDesC8 @ 47 NONAME
	_ZN24CWTLSAlgorithmIdentifier4NewLERK6TDesC8Ri @ 48 NONAME
	_ZN24CWTLSAlgorithmIdentifier5NewLCERK6TDesC8 @ 49 NONAME
	_ZN24CWTLSAlgorithmIdentifier5NewLCERK6TDesC8Ri @ 50 NONAME
	_ZN25CWTLSSubjectPublicKeyInfo4NewLERK6TDesC8 @ 51 NONAME
	_ZN25CWTLSSubjectPublicKeyInfo4NewLERK6TDesC8Ri @ 52 NONAME
	_ZN25CWTLSSubjectPublicKeyInfo5NewLCERK6TDesC8 @ 53 NONAME
	_ZN25CWTLSSubjectPublicKeyInfo5NewLCERK6TDesC8Ri @ 54 NONAME
	_ZN31CWTLSSigningAlgorithmIdentifier4NewLERK6TDesC8 @ 55 NONAME
	_ZN31CWTLSSigningAlgorithmIdentifier4NewLERK6TDesC8Ri @ 56 NONAME
	_ZN31CWTLSSigningAlgorithmIdentifier5NewLCERK6TDesC8 @ 57 NONAME
	_ZN31CWTLSSigningAlgorithmIdentifier5NewLCERK6TDesC8Ri @ 58 NONAME
	_ZN9CWTLSName4NewLERK6TDesC8 @ 59 NONAME
	_ZN9CWTLSName4NewLERK6TDesC8Ri @ 60 NONAME
	_ZN9CWTLSName4NewLERKS_ @ 61 NONAME
	_ZN9CWTLSName5NewLCERK6TDesC8 @ 62 NONAME
	_ZN9CWTLSName5NewLCERK6TDesC8Ri @ 63 NONAME
	_ZN9CWTLSName5NewLCERKS_ @ 64 NONAME
	_ZN9CWTLSNameD0Ev @ 65 NONAME
	_ZN9CWTLSNameD1Ev @ 66 NONAME
	_ZN9CWTLSNameD2Ev @ 67 NONAME
	_ZN9CWTLSText4NewLERK6TDesC8 @ 68 NONAME
	_ZN9CWTLSText4NewLERK6TDesC8Ri @ 69 NONAME
	_ZN9CWTLSText5NewLCERK6TDesC8 @ 70 NONAME
	_ZN9CWTLSText5NewLCERK6TDesC8Ri @ 71 NONAME
	_ZN9CWTLSTextD0Ev @ 72 NONAME
	_ZN9CWTLSTextD1Ev @ 73 NONAME
	_ZN9CWTLSTextD2Ev @ 74 NONAME
	_ZNK14CWTLSCertChain12ChainHasRootEv @ 75 NONAME
	_ZNK14CWTLSCertChain4CertEi @ 76 NONAME
	_ZNK14CWTLSCertChain5CountEv @ 77 NONAME
	_ZNK16CWTLSCertificate10IssuerNameEv @ 78 NONAME
	_ZNK16CWTLSCertificate11SignedDataLEv @ 79 NONAME
	_ZNK16CWTLSCertificate11SubjectNameEv @ 80 NONAME
	_ZNK16CWTLSCertificate13IsSelfSignedLEv @ 81 NONAME
	_ZNK16CWTLSCertificate19DataElementEncodingEj @ 82 NONAME
	_ZNK16CWTLSCertificate6IsTCALEv @ 83 NONAME
	_ZNK16CWTLSCertificate7IssuerLEv @ 84 NONAME
	_ZNK16CWTLSCertificate7VersionEv @ 85 NONAME
	_ZNK16CWTLSCertificate8IsEqualLERKS_ @ 86 NONAME
	_ZNK16CWTLSCertificate8SubjectLEv @ 87 NONAME
	_ZNK19CWTLSStructuredText11FieldByNameERK7TDesC16 @ 88 NONAME
	_ZNK19CWTLSStructuredText11ServiceNameEv @ 89 NONAME
	_ZNK19CWTLSStructuredText12DisplayNameLEv @ 90 NONAME
	_ZNK19CWTLSStructuredText12FieldByIndexEi @ 91 NONAME
	_ZNK19CWTLSStructuredText12OrganizationEv @ 92 NONAME
	_ZNK19CWTLSStructuredText5CountEv @ 93 NONAME
	_ZNK19CWTLSStructuredText7CountryEv @ 94 NONAME
	_ZNK21CWTLSValidationResult5ErrorEv @ 95 NONAME
	_ZNK21CWTLSValidationResult8WarningsEv @ 96 NONAME
	_ZNK24TWTLSStructuredTextField4TypeEv @ 97 NONAME
	_ZNK24TWTLSStructuredTextField5ValueEv @ 98 NONAME
	_ZNK9CWTLSName11ExactMatchLERKS_ @ 99 NONAME
	_ZNK9CWTLSName12DisplayNameLEv @ 100 NONAME
	_ZNK9CWTLSName8NameDataEv @ 101 NONAME
	_ZNK9CWTLSName8NameTypeEv @ 102 NONAME
	_ZNK9CWTLSText11ExactMatchLERKS_ @ 103 NONAME
	_ZNK9CWTLSText12CharacterSetEv @ 104 NONAME
	_ZNK9CWTLSText4NameEv @ 105 NONAME
	_ZTV9CWTLSText @ 106 NONAME ; #<VT>#
	_ZTI16CWTLSCertificate @ 107 NONAME ; #<TI>#
	_ZTI23CWTLSRSASignatureResult @ 108 NONAME ; #<TI>#
	_ZTV16CWTLSCertificate @ 109 NONAME ; #<VT>#
	_ZTV23CWTLSRSASignatureResult @ 110 NONAME ; #<VT>#
	_ZTI14CWTLSCertChain @ 111 NONAME ; #<TI>#
	_ZTI15TWTLSKeyFactory @ 112 NONAME ; #<TI>#
	_ZTI16CWTLSCertChainAO @ 113 NONAME ; #<TI>#
	_ZTI19CWTLSStructuredText @ 114 NONAME ; #<TI>#
	_ZTI21CWTLSValidationResult @ 115 NONAME ; #<TI>#
	_ZTI9CWTLSName @ 116 NONAME ; #<TI>#
	_ZTI9CWTLSText @ 117 NONAME ; #<TI>#
	_ZTV14CWTLSCertChain @ 118 NONAME ; #<VT>#
	_ZTV15TWTLSKeyFactory @ 119 NONAME ; #<VT>#
	_ZTV16CWTLSCertChainAO @ 120 NONAME ; #<VT>#
	_ZTV19CWTLSStructuredText @ 121 NONAME ; #<VT>#
	_ZTV21CWTLSValidationResult @ 122 NONAME ; #<VT>#
	_ZTV9CWTLSName @ 123 NONAME ; #<VT>#

