EXPORTS
	_ZN22CX500DistinguishedName4NewLER11RReadStream @ 1 NONAME
	_ZN22CX500DistinguishedName4NewLERK6TDesC8 @ 2 NONAME
	_ZN22CX500DistinguishedName4NewLERK6TDesC8Ri @ 3 NONAME
	_ZN22CX500DistinguishedName4NewLERK9CArrayPtrI26CX520AttributeTypeAndValueE @ 4 NONAME
	_ZN22CX500DistinguishedName4NewLERKS_ @ 5 NONAME
	_ZN22CX500DistinguishedName5NewLCER11RReadStream @ 6 NONAME
	_ZN22CX500DistinguishedName5NewLCERK6TDesC8 @ 7 NONAME
	_ZN22CX500DistinguishedName5NewLCERK6TDesC8Ri @ 8 NONAME
	_ZN22CX500DistinguishedName5NewLCERK9CArrayPtrI26CX520AttributeTypeAndValueE @ 9 NONAME
	_ZN22CX500DistinguishedName5NewLCERKS_ @ 10 NONAME
	_ZN22CX500DistinguishedNameD0Ev @ 11 NONAME
	_ZN22CX500DistinguishedNameD1Ev @ 12 NONAME
	_ZN22CX500DistinguishedNameD2Ev @ 13 NONAME
	_ZN26CX520AttributeTypeAndValue4NewLE14TAttributeTypeRK6TDesC8 @ 14 NONAME
	_ZN26CX520AttributeTypeAndValue4NewLER11RReadStream @ 15 NONAME
	_ZN26CX520AttributeTypeAndValue4NewLERK6TDesC8 @ 16 NONAME
	_ZN26CX520AttributeTypeAndValue4NewLERK6TDesC8Ri @ 17 NONAME
	_ZN26CX520AttributeTypeAndValue4NewLERKS_ @ 18 NONAME
	_ZN26CX520AttributeTypeAndValue5NewLCE14TAttributeTypeRK6TDesC8 @ 19 NONAME
	_ZN26CX520AttributeTypeAndValue5NewLCER11RReadStream @ 20 NONAME
	_ZN26CX520AttributeTypeAndValue5NewLCERK6TDesC8 @ 21 NONAME
	_ZN26CX520AttributeTypeAndValue5NewLCERK6TDesC8Ri @ 22 NONAME
	_ZN26CX520AttributeTypeAndValue5NewLCERKS_ @ 23 NONAME
	_ZN26CX520AttributeTypeAndValueD0Ev @ 24 NONAME
	_ZN26CX520AttributeTypeAndValueD1Ev @ 25 NONAME
	_ZN26CX520AttributeTypeAndValueD2Ev @ 26 NONAME
	_ZNK22CX500DistinguishedName11EncodeASN1LEv @ 27 NONAME
	_ZNK22CX500DistinguishedName11ExactMatchLERKS_ @ 28 NONAME
	_ZNK22CX500DistinguishedName12DisplayNameLEv @ 29 NONAME
	_ZNK22CX500DistinguishedName12EncodeASN1LCEv @ 30 NONAME
	_ZNK22CX500DistinguishedName12ExternalizeLER12RWriteStream @ 31 NONAME
	_ZNK22CX500DistinguishedName13ExtractFieldLERK7TDesC16 @ 32 NONAME
	_ZNK22CX500DistinguishedName13MatchElementLERK26CX520AttributeTypeAndValue @ 33 NONAME
	_ZNK22CX500DistinguishedName16IsWithinSubtreeLERKS_ @ 34 NONAME
	_ZNK22CX500DistinguishedName5CountEv @ 35 NONAME
	_ZNK22CX500DistinguishedName7ElementEi @ 36 NONAME
	_ZNK26CX520AttributeTypeAndValue11EncodeASN1LEv @ 37 NONAME
	_ZNK26CX520AttributeTypeAndValue11ExactMatchLERKS_ @ 38 NONAME
	_ZNK26CX520AttributeTypeAndValue12EncodeASN1LCEv @ 39 NONAME
	_ZNK26CX520AttributeTypeAndValue12EncodedValueEv @ 40 NONAME
	_ZNK26CX520AttributeTypeAndValue4TypeEv @ 41 NONAME
	_ZNK26CX520AttributeTypeAndValue6ValueLEv @ 42 NONAME
	_ZTI26CX520AttributeTypeAndValue @ 43 NONAME ; #<TI>#
	_ZTV26CX520AttributeTypeAndValue @ 44 NONAME ; #<VT>#
	_ZTI22CX500DistinguishedName @ 45 NONAME ; #<TI>#
	_ZTV22CX500DistinguishedName @ 46 NONAME ; #<VT>#

