EXPORTS
	_Z14RemovedExport1v @ 1 NONAME
	_Z14RemovedExport2v @ 2 NONAME
	_Z14RemovedExport3v @ 3 NONAME
	_Z14RemovedExport4v @ 4 NONAME
	_Z14RemovedExport5v @ 5 NONAME
	_Z14RemovedExport6v @ 6 NONAME
	_Z14RemovedExport7v @ 7 NONAME
	_Z14RemovedExport8v @ 8 NONAME
	_Z14RemovedExport9v @ 9 NONAME
	_ZN12CX509DNSName4NewLERK6TDesC8 @ 10 NONAME
	_ZN12CX509DNSName4NewLERK7TDesC16 @ 11 NONAME
	_ZN12CX509DNSName4NewLERKS_ @ 12 NONAME
	_ZN12CX509DNSName5NewLCERK6TDesC8 @ 13 NONAME
	_ZN12CX509DNSName5NewLCERK7TDesC16 @ 14 NONAME
	_ZN12CX509DNSName5NewLCERKS_ @ 15 NONAME
	_ZN14CX509CertChain12DecodeCertsLERK6TDesC8 @ 16 NONAME
	_ZN14CX509CertChainD0Ev @ 17 NONAME
	_ZN14CX509CertChainD1Ev @ 18 NONAME
	_ZN14CX509CertChainD2Ev @ 19 NONAME
	_ZN14CX509DHKeyPair4NewLERK6TDesC8 @ 20 NONAME
	_ZN14CX509DHKeyPair5NewLCERK6TDesC8 @ 21 NONAME
	_ZN14CX509DHKeyPairD0Ev @ 22 NONAME
	_ZN14CX509DHKeyPairD1Ev @ 23 NONAME
	_ZN14CX509DHKeyPairD2Ev @ 24 NONAME
	_ZN14CX509IPAddress4NewLERK6TDesC8 @ 25 NONAME
	_ZN14CX509IPAddress5NewLCERK6TDesC8 @ 26 NONAME
	_ZN14CX509IPAddressD0Ev @ 27 NONAME
	_ZN14CX509IPAddressD1Ev @ 28 NONAME
	_ZN14CX509IPAddressD2Ev @ 29 NONAME
	_ZN15CX509AltNameExt4NewLERK6TDesC8 @ 30 NONAME
	_ZN15CX509AltNameExt4NewLERK6TDesC8Ri @ 31 NONAME
	_ZN15CX509AltNameExt5NewLCERK6TDesC8 @ 32 NONAME
	_ZN15CX509AltNameExt5NewLCERK6TDesC8Ri @ 33 NONAME
	_ZN15CX509DomainNameD0Ev @ 34 NONAME
	_ZN15CX509DomainNameD1Ev @ 35 NONAME
	_ZN15CX509DomainNameD2Ev @ 36 NONAME
	_ZN15CX509IPBasedURI4NewLERK6TDesC8 @ 37 NONAME
	_ZN15CX509IPBasedURI5NewLCERK6TDesC8 @ 38 NONAME
	_ZN15CX509IPBasedURID0Ev @ 39 NONAME
	_ZN15CX509IPBasedURID1Ev @ 40 NONAME
	_ZN15CX509IPBasedURID2Ev @ 41 NONAME
	_ZN15CX509RFC822Name4NewLERK6TDesC8 @ 42 NONAME
	_ZN15CX509RFC822Name5NewLCERK6TDesC8 @ 43 NONAME
	_ZN16CX509Certificate12InternalizeLER11RReadStream @ 44 NONAME
	_ZN16CX509Certificate4NewLER11RReadStream @ 45 NONAME
	_ZN16CX509Certificate4NewLERK6TDesC8 @ 46 NONAME
	_ZN16CX509Certificate4NewLERK6TDesC8Ri @ 47 NONAME
	_ZN16CX509Certificate4NewLERKS_ @ 48 NONAME
	_ZN16CX509Certificate5NewLCER11RReadStream @ 49 NONAME
	_ZN16CX509Certificate5NewLCERK6TDesC8 @ 50 NONAME
	_ZN16CX509Certificate5NewLCERK6TDesC8Ri @ 51 NONAME
	_ZN16CX509Certificate5NewLCERKS_ @ 52 NONAME
	_ZN16CX509CertificateD0Ev @ 53 NONAME
	_ZN16CX509CertificateD1Ev @ 54 NONAME
	_ZN16CX509CertificateD2Ev @ 55 NONAME
	_ZN16CX509DHPublicKey4NewLERK6TDesC8S2_ @ 56 NONAME
	_ZN16CX509DHPublicKey5NewLCERK6TDesC8S2_ @ 57 NONAME
	_ZN16CX509DHPublicKeyD0Ev @ 58 NONAME
	_ZN16CX509DHPublicKeyD1Ev @ 59 NONAME
	_ZN16CX509DHPublicKeyD2Ev @ 60 NONAME
	_ZN16CX509GeneralName4NewLERK6TDesC8 @ 61 NONAME
	_ZN16CX509GeneralName4NewLERK6TDesC8Ri @ 62 NONAME
	_ZN16CX509GeneralName4NewLERKS_ @ 63 NONAME
	_ZN16CX509GeneralName5NewLCERK6TDesC8 @ 64 NONAME
	_ZN16CX509GeneralName5NewLCERK6TDesC8Ri @ 65 NONAME
	_ZN16CX509GeneralName5NewLCERKS_ @ 66 NONAME
	_ZN16CX509GeneralNameD0Ev @ 67 NONAME
	_ZN16CX509GeneralNameD1Ev @ 68 NONAME
	_ZN16CX509GeneralNameD2Ev @ 69 NONAME
	_ZN16CX509KeyUsageExt4NewLERK6TDesC8 @ 70 NONAME
	_ZN16CX509KeyUsageExt4NewLERK6TDesC8Ri @ 71 NONAME
	_ZN16CX509KeyUsageExt5NewLCERK6TDesC8 @ 72 NONAME
	_ZN16CX509KeyUsageExt5NewLCERK6TDesC8Ri @ 73 NONAME
	_ZN17CX509DSAPublicKey14DSAParametersLERK6TDesC8 @ 74 NONAME
	_ZN17CX509DSAPublicKey4NewLERK14CDSAParametersRK6TDesC8 @ 75 NONAME
	_ZN17CX509DSAPublicKey4NewLERK14CDSAParametersRK6TDesC8Ri @ 76 NONAME
	_ZN17CX509DSAPublicKey4NewLERK6TDesC8S2_ @ 77 NONAME
	_ZN17CX509DSAPublicKey4NewLERK6TDesC8S2_Ri @ 78 NONAME
	_ZN17CX509DSAPublicKey5NewLCERK14CDSAParametersRK6TDesC8 @ 79 NONAME
	_ZN17CX509DSAPublicKey5NewLCERK14CDSAParametersRK6TDesC8Ri @ 80 NONAME
	_ZN17CX509DSAPublicKey5NewLCERK6TDesC8S2_ @ 81 NONAME
	_ZN17CX509DSAPublicKey5NewLCERK6TDesC8S2_Ri @ 82 NONAME
	_ZN17CX509DSASignature4NewLERK6TDesC8 @ 83 NONAME
	_ZN17CX509DSASignature4NewLERK6TDesC8Ri @ 84 NONAME
	_ZN17CX509DSASignature5NewLCERK6TDesC8 @ 85 NONAME
	_ZN17CX509DSASignature5NewLCERK6TDesC8Ri @ 86 NONAME
	_ZN17CX509IPSubnetMask4NewLERK6TDesC8 @ 87 NONAME
	_ZN17CX509IPSubnetMask5NewLCERK6TDesC8 @ 88 NONAME
	_ZN17CX509IPSubnetMaskD0Ev @ 89 NONAME
	_ZN17CX509IPSubnetMaskD1Ev @ 90 NONAME
	_ZN17CX509IPSubnetMaskD2Ev @ 91 NONAME
	_ZN17CX509RSAPublicKey4NewLERK6TDesC8 @ 92 NONAME
	_ZN17CX509RSAPublicKey4NewLERK6TDesC8Ri @ 93 NONAME
	_ZN17CX509RSAPublicKey5NewLCERK6TDesC8 @ 94 NONAME
	_ZN17CX509RSAPublicKey5NewLCERK6TDesC8Ri @ 95 NONAME
	_ZN17TValidationStatusC1E16TValidationErrori @ 96 NONAME
	_ZN17TValidationStatusC2E16TValidationErrori @ 97 NONAME
	_ZN18CX509CertExtension4NewLERK6TDesC8 @ 98 NONAME
	_ZN18CX509CertExtension4NewLERK6TDesC8Ri @ 99 NONAME
	_ZN18CX509CertExtension4NewLERKS_ @ 100 NONAME
	_ZN18CX509CertExtension5NewLCERK6TDesC8 @ 101 NONAME
	_ZN18CX509CertExtension5NewLCERK6TDesC8Ri @ 102 NONAME
	_ZN18CX509CertExtension5NewLCERKS_ @ 103 NONAME
	_ZN18CX509CertExtensionD0Ev @ 104 NONAME
	_ZN18CX509CertExtensionD1Ev @ 105 NONAME
	_ZN18CX509CertExtensionD2Ev @ 106 NONAME
	_ZN18CX509PolicyMapping4NewLERKS_ @ 107 NONAME
	_ZN18CX509PolicyMapping5NewLCERKS_ @ 108 NONAME
	_ZN18TASN1DecDSAKeyPair10DecodeDERLERK6TDesC8RiRP13CDSAPublicKeyRP14CDSAPrivateKey @ 109 NONAME
	_ZN18TASN1DecRSAKeyPair10DecodeDERLERK6TDesC8RiRP13CRSAPublicKeyRP14CRSAPrivateKey18TRSAPrivateKeyType @ 110 NONAME
	_ZN18TX509DSAKeyEncoderC1ERK13CDSAPublicKey12TAlgorithmId @ 111 NONAME
	_ZN18TX509DSAKeyEncoderC2ERK13CDSAPublicKey12TAlgorithmId @ 112 NONAME
	_ZN18TX509RSAKeyEncoderC1ERK13CRSAPublicKey12TAlgorithmId @ 113 NONAME
	_ZN18TX509RSAKeyEncoderC2ERK13CRSAPublicKey12TAlgorithmId @ 114 NONAME
	_ZN19CX509CertPolicyInfo4NewLERKS_ @ 115 NONAME
	_ZN19CX509CertPolicyInfo5NewLCERKS_ @ 116 NONAME
	_ZN19CX509DHDomainParams4NewLERK6TDesC8 @ 117 NONAME
	_ZN19CX509DHDomainParams4NewLERK6TDesC8Ri @ 118 NONAME
	_ZN19CX509DHDomainParams5NewLCERK6TDesC8 @ 119 NONAME
	_ZN19CX509DHDomainParams5NewLCERK6TDesC8Ri @ 120 NONAME
	_ZN19CX509DNSNameSubtree4NewLERK6TDesC8 @ 121 NONAME
	_ZN19CX509DNSNameSubtree5NewLCERK6TDesC8 @ 122 NONAME
	_ZN19CX509ValidityPeriod4NewLERK6TDesC8 @ 123 NONAME
	_ZN19CX509ValidityPeriod4NewLERK6TDesC8Ri @ 124 NONAME
	_ZN19CX509ValidityPeriod5NewLCERK6TDesC8 @ 125 NONAME
	_ZN19CX509ValidityPeriod5NewLCERK6TDesC8Ri @ 126 NONAME
	_ZN20CX509CertPoliciesExt4NewLERK6TDesC8 @ 127 NONAME
	_ZN20CX509CertPoliciesExt4NewLERK6TDesC8Ri @ 128 NONAME
	_ZN20CX509CertPoliciesExt5NewLCERK6TDesC8 @ 129 NONAME
	_ZN20CX509CertPoliciesExt5NewLCERK6TDesC8Ri @ 130 NONAME
	_ZN20CX509SubjectKeyIdExt4NewLERK6TDesC8 @ 131 NONAME
	_ZN20CX509SubjectKeyIdExt4NewLERK6TDesC8Ri @ 132 NONAME
	_ZN20CX509SubjectKeyIdExt5NewLCERK6TDesC8 @ 133 NONAME
	_ZN20CX509SubjectKeyIdExt5NewLCERK6TDesC8Ri @ 134 NONAME
	_ZN20CX509SubjectKeyIdExtD0Ev @ 135 NONAME
	_ZN20CX509SubjectKeyIdExtD1Ev @ 136 NONAME
	_ZN20CX509SubjectKeyIdExtD2Ev @ 137 NONAME
	_ZN21CPKCS1SignatureResult4NewLERK20CAlgorithmIdentifierRK6TDesC8 @ 138 NONAME
	_ZN21CPKCS1SignatureResult5NewLCERK20CAlgorithmIdentifierRK6TDesC8 @ 139 NONAME
	_ZN21CPKCS1SignatureResult7VerifyLERK6TDesC8 @ 140 NONAME
	_ZN21CX509PolicyMappingExt4NewLERK6TDesC8 @ 141 NONAME
	_ZN21CX509PolicyMappingExt4NewLERK6TDesC8Ri @ 142 NONAME
	_ZN21CX509PolicyMappingExt5NewLCERK6TDesC8 @ 143 NONAME
	_ZN21CX509PolicyMappingExt5NewLCERK6TDesC8Ri @ 144 NONAME
	_ZN22CX509AuthInfoAccessExt4NewLERK6TDesC8 @ 145 NONAME
	_ZN22CX509AuthInfoAccessExt4NewLERK6TDesC8Ri @ 146 NONAME
	_ZN22CX509AuthInfoAccessExt5NewLCERK6TDesC8 @ 147 NONAME
	_ZN22CX509AuthInfoAccessExt5NewLCERK6TDesC8Ri @ 148 NONAME
	_ZN22CX509AuthInfoAccessExtD0Ev @ 149 NONAME
	_ZN22CX509AuthInfoAccessExtD1Ev @ 150 NONAME
	_ZN22CX509AuthInfoAccessExtD2Ev @ 151 NONAME
	_ZN22CX509AuthorityKeyIdExt4NewLERK6TDesC8 @ 152 NONAME
	_ZN22CX509AuthorityKeyIdExt4NewLERK6TDesC8Ri @ 153 NONAME
	_ZN22CX509AuthorityKeyIdExt5NewLCERK6TDesC8 @ 154 NONAME
	_ZN22CX509AuthorityKeyIdExt5NewLCERK6TDesC8Ri @ 155 NONAME
	_ZN22CX509RFC822NameSubtree4NewLERK6TDesC8 @ 156 NONAME
	_ZN22CX509RFC822NameSubtree5NewLCERK6TDesC8 @ 157 NONAME
	_ZN23CX509DHValidationParams4NewLERK6TDesC8 @ 158 NONAME
	_ZN23CX509DHValidationParams4NewLERK6TDesC8Ri @ 159 NONAME
	_ZN23CX509DHValidationParams5NewLCERK6TDesC8 @ 160 NONAME
	_ZN23CX509DHValidationParams5NewLCERK6TDesC8Ri @ 161 NONAME
	_ZN23CX509NameConstraintsExt4NewLERK6TDesC8 @ 162 NONAME
	_ZN23CX509NameConstraintsExt4NewLERK6TDesC8Ri @ 163 NONAME
	_ZN23CX509NameConstraintsExt5NewLCERK6TDesC8 @ 164 NONAME
	_ZN23CX509NameConstraintsExt5NewLCERK6TDesC8Ri @ 165 NONAME
	_ZN23CX509NameConstraintsExtD0Ev @ 166 NONAME
	_ZN23CX509NameConstraintsExtD1Ev @ 167 NONAME
	_ZN23CX509NameConstraintsExtD2Ev @ 168 NONAME
	_ZN24CX509AlgorithmIdentifier4NewLERK6TDesC8 @ 169 NONAME
	_ZN24CX509AlgorithmIdentifier4NewLERK6TDesC8Ri @ 170 NONAME
	_ZN24CX509AlgorithmIdentifier5NewLCERK6TDesC8 @ 171 NONAME
	_ZN24CX509AlgorithmIdentifier5NewLCERK6TDesC8Ri @ 172 NONAME
	_ZN24CX509BasicConstraintsExt4NewLERK6TDesC8 @ 173 NONAME
	_ZN24CX509BasicConstraintsExt4NewLERK6TDesC8Ri @ 174 NONAME
	_ZN24CX509BasicConstraintsExt5NewLCERK6TDesC8 @ 175 NONAME
	_ZN24CX509BasicConstraintsExt5NewLCERK6TDesC8Ri @ 176 NONAME
	_ZN24CX509ExtendedKeyUsageExt4NewLERK6TDesC8 @ 177 NONAME
	_ZN24CX509ExtendedKeyUsageExt4NewLERK6TDesC8Ri @ 178 NONAME
	_ZN24CX509ExtendedKeyUsageExt5NewLCERK6TDesC8 @ 179 NONAME
	_ZN24CX509ExtendedKeyUsageExt5NewLCERK6TDesC8Ri @ 180 NONAME
	_ZN24CX509ExtendedKeyUsageExtD0Ev @ 181 NONAME
	_ZN24CX509ExtendedKeyUsageExtD1Ev @ 182 NONAME
	_ZN24CX509ExtendedKeyUsageExtD2Ev @ 183 NONAME
	_ZN25CX509PolicyConstraintsExt4NewLERK6TDesC8 @ 184 NONAME
	_ZN25CX509PolicyConstraintsExt4NewLERK6TDesC8Ri @ 185 NONAME
	_ZN25CX509PolicyConstraintsExt5NewLCERK6TDesC8 @ 186 NONAME
	_ZN25CX509PolicyConstraintsExt5NewLCERK6TDesC8Ri @ 187 NONAME
	_ZN25CX509PolicyConstraintsExtD0Ev @ 188 NONAME
	_ZN25CX509PolicyConstraintsExtD1Ev @ 189 NONAME
	_ZN25CX509PolicyConstraintsExtD2Ev @ 190 NONAME
	_ZN25CX509SubjectPublicKeyInfo4NewLERK6TDesC8 @ 191 NONAME
	_ZN25CX509SubjectPublicKeyInfo4NewLERK6TDesC8Ri @ 192 NONAME
	_ZN25CX509SubjectPublicKeyInfo5NewLCERK6TDesC8 @ 193 NONAME
	_ZN25CX509SubjectPublicKeyInfo5NewLCERK6TDesC8Ri @ 194 NONAME
	_ZN31CX509SigningAlgorithmIdentifier4NewLERK20CAlgorithmIdentifierS2_ @ 195 NONAME
	_ZN31CX509SigningAlgorithmIdentifier4NewLERK6TDesC8 @ 196 NONAME
	_ZN31CX509SigningAlgorithmIdentifier4NewLERK6TDesC8Ri @ 197 NONAME
	_ZN31CX509SigningAlgorithmIdentifier5NewLCERK20CAlgorithmIdentifierS2_ @ 198 NONAME
	_ZN31CX509SigningAlgorithmIdentifier5NewLCERK6TDesC8 @ 199 NONAME
	_ZN31CX509SigningAlgorithmIdentifier5NewLCERK6TDesC8Ri @ 200 NONAME
	_ZNK14CX509CertChain4CertEi @ 201 NONAME
	_ZNK14CX509CertChain5CountEv @ 202 NONAME
	_ZNK14CX509CertChain8IsEqualLERKS_ @ 203 NONAME
	_ZNK14CX509IPAddress15IsWithinSubtreeERK17CX509IPSubnetMask @ 204 NONAME
	_ZNK14CX509IPAddress7AddressEv @ 205 NONAME
	_ZNK15CX509AltNameExt5MatchERKS_ @ 206 NONAME
	_ZNK15CX509AltNameExt7AltNameEv @ 207 NONAME
	_ZNK15CX509DomainName15IsWithinSubtreeERKS_ @ 208 NONAME
	_ZNK15CX509DomainName4NameEv @ 209 NONAME
	_ZNK15CX509IPBasedURI4HostEv @ 210 NONAME
	_ZNK15CX509IPBasedURI4NameEv @ 211 NONAME
	_ZNK15TX509KeyEncoder23EncodeDigestAlgorithmLCEv @ 212 NONAME
	_ZNK15TX509KeyFactory13DSAPublicKeyLERK14CDSAParametersRK6TDesC8 @ 213 NONAME
	_ZNK15TX509KeyFactory13DSAPublicKeyLERK6TDesC8S2_ @ 214 NONAME
	_ZNK15TX509KeyFactory13DSASignatureLERK6TDesC8 @ 215 NONAME
	_ZNK15TX509KeyFactory13RSAPublicKeyLERK6TDesC8 @ 216 NONAME
	_ZNK15TX509KeyFactory14DSAParametersLERK6TDesC8 @ 217 NONAME
	_ZNK15TX509KeyFactory19RSASignatureResultLERK20CAlgorithmIdentifierR6TDesC8 @ 218 NONAME
	_ZNK16CX509Certificate10ExtensionsEv @ 219 NONAME
	_ZNK16CX509Certificate10IssuerNameEv @ 220 NONAME
	_ZNK16CX509Certificate11SignedDataLEv @ 221 NONAME
	_ZNK16CX509Certificate11SubjectNameEv @ 222 NONAME
	_ZNK16CX509Certificate13IsSelfSignedLEv @ 223 NONAME
	_ZNK16CX509Certificate14KeyIdentifierLEv @ 224 NONAME
	_ZNK16CX509Certificate19DataElementEncodingEj @ 225 NONAME
	_ZNK16CX509Certificate7IssuerLEv @ 226 NONAME
	_ZNK16CX509Certificate7VersionEv @ 227 NONAME
	_ZNK16CX509Certificate8IsEqualLERKS_ @ 228 NONAME
	_ZNK16CX509Certificate8SubjectLEv @ 229 NONAME
	_ZNK16CX509Certificate9ExtensionERK7TDesC16 @ 230 NONAME
	_ZNK16CX509GeneralName10ExactMatchERKS_ @ 231 NONAME
	_ZNK16CX509GeneralName3TagEv @ 232 NONAME
	_ZNK16CX509GeneralName4DataEv @ 233 NONAME
	_ZNK16CX509KeyUsageExt5IsSetE13TX509KeyUsage @ 234 NONAME
	_ZNK17CX509IPSubnetMask11BaseAddressEv @ 235 NONAME
	_ZNK17CX509IPSubnetMask4MaskEv @ 236 NONAME
	_ZNK18CX509CertExtension2IdEv @ 237 NONAME
	_ZNK18CX509CertExtension4DataEv @ 238 NONAME
	_ZNK18CX509CertExtension8CriticalEv @ 239 NONAME
	_ZNK18CX509PolicyMapping12IssuerPolicyEv @ 240 NONAME
	_ZNK18CX509PolicyMapping13SubjectPolicyEv @ 241 NONAME
	_ZNK18TX509DSAKeyEncoder11EncodeKeyLCEv @ 242 NONAME
	_ZNK18TX509DSAKeyEncoder26EncodeSignatureAlgorithmLCEv @ 243 NONAME
	_ZNK18TX509RSAKeyEncoder11EncodeKeyLCEv @ 244 NONAME
	_ZNK18TX509RSAKeyEncoder26EncodeSignatureAlgorithmLCEv @ 245 NONAME
	_ZNK19CX509CertPolicyInfo10QualifiersEv @ 246 NONAME
	_ZNK19CX509CertPolicyInfo2IdEv @ 247 NONAME
	_ZNK19CX509DHDomainParams16ValidationParamsEv @ 248 NONAME
	_ZNK19CX509DHDomainParams1GEv @ 249 NONAME
	_ZNK19CX509DHDomainParams1JEv @ 250 NONAME
	_ZNK19CX509DHDomainParams1PEv @ 251 NONAME
	_ZNK19CX509DHDomainParams1QEv @ 252 NONAME
	_ZNK19CX509DNSNameSubtree3RepEv @ 253 NONAME
	_ZNK19CX509GeneralSubtree11MaxDistanceEv @ 254 NONAME
	_ZNK19CX509GeneralSubtree11MinDistanceEv @ 255 NONAME
	_ZNK19CX509GeneralSubtree4NameEv @ 256 NONAME
	_ZNK20CX509CertPoliciesExt8PoliciesEv @ 257 NONAME
	_ZNK20CX509SubjectKeyIdExt5KeyIdEv @ 258 NONAME
	_ZNK20TASN1DecRSAPublicKey10DecodeDERLERK6TDesC8Ri @ 259 NONAME
	_ZNK20TASN1EncDSAPublicKey10EncodeDERLERK13CDSAPublicKey @ 260 NONAME
	_ZNK20TASN1EncDSAPublicKey14EncodeParamsLCERK13CDSAPublicKey @ 261 NONAME
	_ZNK20TASN1EncDSAPublicKey19EncodePublicValueLCERK13CDSAPublicKey @ 262 NONAME
	_ZNK20TASN1EncRSAPublicKey10EncodeDERLERK13CRSAPublicKey @ 263 NONAME
	_ZNK21CX509PolicyMappingExt8MappingsEv @ 264 NONAME
	_ZNK22CX509AccessDescription6MethodEv @ 265 NONAME
	_ZNK22CX509AccessDescription8LocationEv @ 266 NONAME
	_ZNK22CX509AuthInfoAccessExt18AccessDescriptionsEv @ 267 NONAME
	_ZNK22CX509AuthorityKeyIdExt13AuthorityNameEv @ 268 NONAME
	_ZNK22CX509AuthorityKeyIdExt25AuthorityCertSerialNumberEv @ 269 NONAME
	_ZNK22CX509AuthorityKeyIdExt5KeyIdEv @ 270 NONAME
	_ZNK22CX509RFC822NameSubtree3RepEv @ 271 NONAME
	_ZNK23CX509DHValidationParams11PGenCounterEv @ 272 NONAME
	_ZNK23CX509DHValidationParams4SeedEv @ 273 NONAME
	_ZNK23CX509NameConstraintsExt16ExcludedSubtreesEv @ 274 NONAME
	_ZNK23CX509NameConstraintsExt17PermittedSubtreesEv @ 275 NONAME
	_ZNK24CX509BasicConstraintsExt14MaxChainLengthEv @ 276 NONAME
	_ZNK24CX509BasicConstraintsExt4IsCAEv @ 277 NONAME
	_ZNK24CX509ExtendedKeyUsageExt9KeyUsagesEv @ 278 NONAME
	_ZNK24CX509PolicyQualifierInfo2IdEv @ 279 NONAME
	_ZNK24CX509PolicyQualifierInfo4DataEv @ 280 NONAME
	_ZNK25CX509PolicyConstraintsExt20InhibitPolicyMappingEv @ 281 NONAME
	_ZNK25CX509PolicyConstraintsExt22ExplicitPolicyRequiredEv @ 282 NONAME
	_ZTI14CX509CertChain @ 283 NONAME ; #<TI>#
	_ZTI14CX509DHKeyPair @ 284 NONAME ; #<TI>#
	_ZTV25CX509PolicyConstraintsExt @ 285 NONAME ; #<VT>#
	_ZTI15TX509KeyEncoder @ 286 NONAME ; #<TI>#
	_ZTI15TX509KeyFactory @ 287 NONAME ; #<TI>#
	_ZTI16CX509Certificate @ 288 NONAME ; #<TI>#
	_ZTI16CX509DHPublicKey @ 289 NONAME ; #<TI>#
	_ZTI18TX509DSAKeyEncoder @ 290 NONAME ; #<TI>#
	_ZTI18TX509RSAKeyEncoder @ 291 NONAME ; #<TI>#
	_ZTI21CPKCS1SignatureResult @ 292 NONAME ; #<TI>#
	_ZTV14CX509CertChain @ 293 NONAME ; #<VT>#
	_ZTV14CX509DHKeyPair @ 294 NONAME ; #<VT>#
	_ZTV15TX509KeyEncoder @ 295 NONAME ; #<VT>#
	_ZTV15TX509KeyFactory @ 296 NONAME ; #<VT>#
	_ZTV16CX509Certificate @ 297 NONAME ; #<VT>#
	_ZTV16CX509DHPublicKey @ 298 NONAME ; #<VT>#
	_ZTV18TX509DSAKeyEncoder @ 299 NONAME ; #<VT>#
	_ZTV18TX509RSAKeyEncoder @ 300 NONAME ; #<VT>#
	_ZTV21CPKCS1SignatureResult @ 301 NONAME ; #<VT>#
	_ZTI14CX509BitString @ 302 NONAME ; #<TI>#
	_ZTI14CX509IPAddress @ 303 NONAME ; #<TI>#
	_ZTI15CX509AltNameExt @ 304 NONAME ; #<TI>#
	_ZTI15CX509DomainName @ 305 NONAME ; #<TI>#
	_ZTI15CX509IPBasedURI @ 306 NONAME ; #<TI>#
	_ZTI15CX509RFC822Name @ 307 NONAME ; #<TI>#
	_ZTI16CX509GeneralName @ 308 NONAME ; #<TI>#
	_ZTI16CX509KeyUsageExt @ 309 NONAME ; #<TI>#
	_ZTI17CX509IPSubnetMask @ 310 NONAME ; #<TI>#
	_ZTI18CX509CertExtension @ 311 NONAME ; #<TI>#
	_ZTI18CX509ExtensionBase @ 312 NONAME ; #<TI>#
	_ZTI18CX509PolicyMapping @ 313 NONAME ; #<TI>#
	_ZTI19CX509CertPolicyInfo @ 314 NONAME ; #<TI>#
	_ZTI19CX509DHDomainParams @ 315 NONAME ; #<TI>#
	_ZTI19CX509DNSNameSubtree @ 316 NONAME ; #<TI>#
	_ZTI19CX509GeneralSubtree @ 317 NONAME ; #<TI>#
	_ZTI20CX509CertPoliciesExt @ 318 NONAME ; #<TI>#
	_ZTI20CX509SubjectKeyIdExt @ 319 NONAME ; #<TI>#
	_ZTI21CX509PolicyMappingExt @ 320 NONAME ; #<TI>#
	_ZTI22CX509AccessDescription @ 321 NONAME ; #<TI>#
	_ZTI22CX509AuthInfoAccessExt @ 322 NONAME ; #<TI>#
	_ZTI22CX509AuthorityKeyIdExt @ 323 NONAME ; #<TI>#
	_ZTI22CX509RFC822NameSubtree @ 324 NONAME ; #<TI>#
	_ZTI23CX509DHValidationParams @ 325 NONAME ; #<TI>#
	_ZTI23CX509NameConstraintsExt @ 326 NONAME ; #<TI>#
	_ZTI24CX509BasicConstraintsExt @ 327 NONAME ; #<TI>#
	_ZTI24CX509ExtendedKeyUsageExt @ 328 NONAME ; #<TI>#
	_ZTI24CX509PolicyQualifierInfo @ 329 NONAME ; #<TI>#
	_ZTI25CX509PolicyConstraintsExt @ 330 NONAME ; #<TI>#
	_ZTV14CX509BitString @ 331 NONAME ; #<VT>#
	_ZTV14CX509IPAddress @ 332 NONAME ; #<VT>#
	_ZTV15CX509AltNameExt @ 333 NONAME ; #<VT>#
	_ZTV15CX509DomainName @ 334 NONAME ; #<VT>#
	_ZTV15CX509IPBasedURI @ 335 NONAME ; #<VT>#
	_ZTV15CX509RFC822Name @ 336 NONAME ; #<VT>#
	_ZTV16CX509GeneralName @ 337 NONAME ; #<VT>#
	_ZTV16CX509KeyUsageExt @ 338 NONAME ; #<VT>#
	_ZTV17CX509IPSubnetMask @ 339 NONAME ; #<VT>#
	_ZTV18CX509CertExtension @ 340 NONAME ; #<VT>#
	_ZTV18CX509ExtensionBase @ 341 NONAME ; #<VT>#
	_ZTV18CX509PolicyMapping @ 342 NONAME ; #<VT>#
	_ZTV19CX509CertPolicyInfo @ 343 NONAME ; #<VT>#
	_ZTV19CX509DHDomainParams @ 344 NONAME ; #<VT>#
	_ZTV19CX509DNSNameSubtree @ 345 NONAME ; #<VT>#
	_ZTV19CX509GeneralSubtree @ 346 NONAME ; #<VT>#
	_ZTV20CX509CertPoliciesExt @ 347 NONAME ; #<VT>#
	_ZTV20CX509SubjectKeyIdExt @ 348 NONAME ; #<VT>#
	_ZTV21CX509PolicyMappingExt @ 349 NONAME ; #<VT>#
	_ZTV22CX509AccessDescription @ 350 NONAME ; #<VT>#
	_ZTV22CX509AuthInfoAccessExt @ 351 NONAME ; #<VT>#
	_ZTV22CX509AuthorityKeyIdExt @ 352 NONAME ; #<VT>#
	_ZTV22CX509RFC822NameSubtree @ 353 NONAME ; #<VT>#
	_ZTV23CX509DHValidationParams @ 354 NONAME ; #<VT>#
	_ZTV23CX509NameConstraintsExt @ 355 NONAME ; #<VT>#
	_ZTV24CX509BasicConstraintsExt @ 356 NONAME ; #<VT>#
	_ZTV24CX509ExtendedKeyUsageExt @ 357 NONAME ; #<VT>#
	_ZTV24CX509PolicyQualifierInfo @ 358 NONAME ; #<VT>#
	_ZN19CX509CertPolicyInfo12InternalizeLER11RReadStream @ 359 NONAME
	_ZN19CX509CertPolicyInfo4NewLER11RReadStream @ 360 NONAME
	_ZN19CX509CertPolicyInfo5NewLCER11RReadStream @ 361 NONAME
	_ZNK19CX509CertPolicyInfo12ExternalizeLER12RWriteStream @ 362 NONAME
	_ZN15CX509IntListExt4NewLERK6TDesC8 @ 363 NONAME
	_ZN15CX509IntListExt5NewLCERK6TDesC8 @ 364 NONAME
	_ZN21CX509CapabilitySetExt4NewLERK6TDesC8 @ 365 NONAME
	_ZN21CX509CapabilitySetExt5NewLCERK6TDesC8 @ 366 NONAME
	_ZN22CX509Utf8StringListExt4NewLERK6TDesC8 @ 367 NONAME
	_ZN22CX509Utf8StringListExt5NewLCERK6TDesC8 @ 368 NONAME
	_ZNK15CX509IntListExt8IntArrayEv @ 369 NONAME
	_ZNK21CX509CapabilitySetExt13CapabilitySetEv @ 370 NONAME
	_ZNK22CX509Utf8StringListExt11StringArrayEv @ 371 NONAME
	_ZTI15CX509IntListExt @ 372 NONAME ; #<TI>#
	_ZTI21CX509CapabilitySetExt @ 373 NONAME ; #<TI>#
	_ZTI22CX509Utf8StringListExt @ 374 NONAME ; #<TI>#
	_ZTV15CX509IntListExt @ 375 NONAME ; #<VT>#
	_ZTV21CX509CapabilitySetExt @ 376 NONAME ; #<VT>#
	_ZTV22CX509Utf8StringListExt @ 377 NONAME ; #<VT>#
	_ZN24CX509AlgorithmIdentifier4NewLE12TAlgorithmIdRK6TDesC8 @ 378 NONAME
	_ZN24CX509AlgorithmIdentifier5NewLCE12TAlgorithmIdRK6TDesC8 @ 379 NONAME
	_ZNK24CX509AlgorithmIdentifier15EncodeASN1DERLCEv @ 380 NONAME
	_ZN18CX509CertExtension4NewLERK7TDesC16iRK6TDesC8 @ 381 NONAME
	_ZN18CX509CertExtension5NewLCERK7TDesC16iRK6TDesC8 @ 382 NONAME
	_ZNK18CX509CertExtension15EncodeASN1DERLCEv @ 383 NONAME
	_ZNK16CX509Certificate21SubjectKeyIdentifierLEv @ 384 NONAME
	_ZN30CCertificateValidationWarnings12InternalizeLER11RReadStream @ 385 NONAME
	_ZN30CCertificateValidationWarnings14AppendWarningLE17TValidationStatus @ 386 NONAME
	_ZN30CCertificateValidationWarnings31AppendCriticalExtensionWarningLER7TDesC16 @ 387 NONAME
	_ZN30CCertificateValidationWarnings4NewLEi @ 388 NONAME
	_ZN30CCertificateValidationWarnings5NewLCEi @ 389 NONAME
	_ZN30CCertificateValidationWarningsD0Ev @ 390 NONAME
	_ZN30CCertificateValidationWarningsD1Ev @ 391 NONAME
	_ZN30CCertificateValidationWarningsD2Ev @ 392 NONAME
	_ZNK30CCertificateValidationWarnings12ExternalizeLER12RWriteStream @ 393 NONAME
	_ZNK30CCertificateValidationWarnings23CriticalExtensionsFoundEv @ 394 NONAME
	_ZNK30CCertificateValidationWarnings8WarningsEv @ 395 NONAME
	_ZNK30CCertificateValidationWarnings9CertIndexEv @ 396 NONAME
	_ZTI30CCertificateValidationWarnings @ 397 NONAME
	_ZTV30CCertificateValidationWarnings @ 398 NONAME
	_ZNK16CX509Certificate13SubjectKeyIdLEv @ 399 NONAME

