EXPORTS
	??1CIniDocument16@BSUL@@UAE@XZ @ 1 NONAME ; BSUL::CIniDocument16::~CIniDocument16(void)
	??1CIniDocument8@BSUL@@UAE@XZ @ 2 NONAME ; BSUL::CIniDocument8::~CIniDocument8(void)
	??1CIniFile16@BSUL@@UAE@XZ @ 3 NONAME ; BSUL::CIniFile16::~CIniFile16(void)
	??1CIniFile8@BSUL@@UAE@XZ @ 4 NONAME ; BSUL::CIniFile8::~CIniFile8(void)
	??1CIniSecIter16@BSUL@@UAE@XZ @ 5 NONAME ; BSUL::CIniSecIter16::~CIniSecIter16(void)
	??1CIniSecIter8@BSUL@@UAE@XZ @ 6 NONAME ; BSUL::CIniSecIter8::~CIniSecIter8(void)
	?AddSection@CIniDocument16@BSUL@@QAEHABVTDesC16@@@Z @ 7 NONAME ; int BSUL::CIniDocument16::AddSection(class TDesC16 const &)
	?AddSection@CIniDocument8@BSUL@@QAEHABVTDesC8@@@Z @ 8 NONAME ; int BSUL::CIniDocument8::AddSection(class TDesC8 const &)
	?End@CIniSecIter16@BSUL@@QAEHXZ @ 9 NONAME ; int BSUL::CIniSecIter16::End(void)
	?End@CIniSecIter8@BSUL@@QAEHXZ @ 10 NONAME ; int BSUL::CIniSecIter8::End(void)
	?Externalise@CIniDocument16@BSUL@@QAEHABVTDesC16@@@Z @ 11 NONAME ; int BSUL::CIniDocument16::Externalise(class TDesC16 const &)
	?Externalise@CIniDocument8@BSUL@@QAEHABVTDesC16@@@Z @ 12 NONAME ; int BSUL::CIniDocument8::Externalise(class TDesC16 const &)
	?FindVar@CIniFile16@BSUL@@QBEHABVTDesC16@@0AAVTPtrC16@@@Z @ 13 NONAME ; int BSUL::CIniFile16::FindVar(class TDesC16 const &, class TDesC16 const &, class TPtrC16 &) const
	?FindVar@CIniFile8@BSUL@@QBEHABVTDesC8@@0AAVTPtrC8@@@Z @ 14 NONAME ; int BSUL::CIniFile8::FindVar(class TDesC8 const &, class TDesC8 const &, class TPtrC8 &) const
	?GetKeyValue@CIniDocument16@BSUL@@QBEHABVTDesC16@@0AAVTPtrC16@@@Z @ 15 NONAME ; int BSUL::CIniDocument16::GetKeyValue(class TDesC16 const &, class TDesC16 const &, class TPtrC16 &) const
	?GetKeyValue@CIniDocument8@BSUL@@QBEHABVTDesC8@@0AAVTPtrC8@@@Z @ 16 NONAME ; int BSUL::CIniDocument8::GetKeyValue(class TDesC8 const &, class TDesC8 const &, class TPtrC8 &) const
	?GetSectionList@CIniDocument16@BSUL@@QBEHAAV?$RArray@VTPtrC16@@@@@Z @ 17 NONAME ; int BSUL::CIniDocument16::GetSectionList(class RArray<class TPtrC16> &) const
	?GetSectionList@CIniDocument8@BSUL@@QBEHAAV?$RArray@VTPtrC8@@@@@Z @ 18 NONAME ; int BSUL::CIniDocument8::GetSectionList(class RArray<class TPtrC8> &) const
	?NewL@CIniDocument16@BSUL@@SAPAV12@AAVRFs@@ABVTDesC16@@@Z @ 19 NONAME ; class BSUL::CIniDocument16 * BSUL::CIniDocument16::NewL(class RFs &, class TDesC16 const &)
	?NewL@CIniDocument8@BSUL@@SAPAV12@AAVRFs@@ABVTDesC16@@@Z @ 20 NONAME ; class BSUL::CIniDocument8 * BSUL::CIniDocument8::NewL(class RFs &, class TDesC16 const &)
	?NewL@CIniFile16@BSUL@@SAPAV12@AAVRFs@@ABVTDesC16@@@Z @ 21 NONAME ; class BSUL::CIniFile16 * BSUL::CIniFile16::NewL(class RFs &, class TDesC16 const &)
	?NewL@CIniFile8@BSUL@@SAPAV12@AAVRFs@@ABVTDesC16@@@Z @ 22 NONAME ; class BSUL::CIniFile8 * BSUL::CIniFile8::NewL(class RFs &, class TDesC16 const &)
	?NewL@CIniSecIter16@BSUL@@SAPAV12@ABVTDesC16@@PBVCIniDocument16@2@@Z @ 23 NONAME ; class BSUL::CIniSecIter16 * BSUL::CIniSecIter16::NewL(class TDesC16 const &, class BSUL::CIniDocument16 const *)
	?NewL@CIniSecIter8@BSUL@@SAPAV12@ABVTDesC8@@PBVCIniDocument8@2@@Z @ 24 NONAME ; class BSUL::CIniSecIter8 * BSUL::CIniSecIter8::NewL(class TDesC8 const &, class BSUL::CIniDocument8 const *)
	?Next@CIniSecIter16@BSUL@@QAEHAAVTPtrC16@@0@Z @ 25 NONAME ; int BSUL::CIniSecIter16::Next(class TPtrC16 &, class TPtrC16 &)
	?Next@CIniSecIter8@BSUL@@QAEHAAVTPtrC8@@0@Z @ 26 NONAME ; int BSUL::CIniSecIter8::Next(class TPtrC8 &, class TPtrC8 &)
	?RemoveKey@CIniDocument16@BSUL@@QAEHABVTDesC16@@0@Z @ 27 NONAME ; int BSUL::CIniDocument16::RemoveKey(class TDesC16 const &, class TDesC16 const &)
	?RemoveKey@CIniDocument8@BSUL@@QAEHABVTDesC8@@0@Z @ 28 NONAME ; int BSUL::CIniDocument8::RemoveKey(class TDesC8 const &, class TDesC8 const &)
	?RemoveSection@CIniDocument16@BSUL@@QAEHABVTDesC16@@@Z @ 29 NONAME ; int BSUL::CIniDocument16::RemoveSection(class TDesC16 const &)
	?RemoveSection@CIniDocument8@BSUL@@QAEHABVTDesC8@@@Z @ 30 NONAME ; int BSUL::CIniDocument8::RemoveSection(class TDesC8 const &)
	?Reset@CIniSecIter16@BSUL@@QAEXXZ @ 31 NONAME ; void BSUL::CIniSecIter16::Reset(void)
	?Reset@CIniSecIter8@BSUL@@QAEXXZ @ 32 NONAME ; void BSUL::CIniSecIter8::Reset(void)
	?SetKey@CIniDocument16@BSUL@@QAEHABVTDesC16@@00@Z @ 33 NONAME ; int BSUL::CIniDocument16::SetKey(class TDesC16 const &, class TDesC16 const &, class TDesC16 const &)
	?SetKey@CIniDocument8@BSUL@@QAEHABVTDesC8@@00@Z @ 34 NONAME ; int BSUL::CIniDocument8::SetKey(class TDesC8 const &, class TDesC8 const &, class TDesC8 const &)
	?NewL@CIniFile16@BSUL@@SAPAV12@AAVRFs@@ABVTDesC16@@H@Z @ 35 NONAME ; class BSUL::CIniFile16 * BSUL::CIniFile16::NewL(class RFs &, class TDesC16 const &, int)
	?CompareDocs@CIniDocument16@BSUL@@QAEHAAV12@@Z @ 36 NONAME ; int BSUL::CIniDocument16::CompareDocs(class BSUL::CIniDocument16 &)
	?CompareDocs@CIniDocument8@BSUL@@QAEHAAV12@@Z @ 37 NONAME ; int BSUL::CIniDocument8::CompareDocs(class BSUL::CIniDocument8 &)

