EXPORTS
	??1CCachedDriveInfo@BSUL@@UAE@XZ @ 1 NONAME ; BSUL::CCachedDriveInfo::~CCachedDriveInfo(void)
	?IsReadOnlyInternalL@CCachedDriveInfo@BSUL@@QBEHABVTDesC16@@@Z @ 2 NONAME ; int BSUL::CCachedDriveInfo::IsReadOnlyInternalL(class TDesC16 const &) const
	?IsReadOnlyInternalL@CCachedDriveInfo@BSUL@@QBEHVTDriveUnit@@@Z @ 3 NONAME ; int BSUL::CCachedDriveInfo::IsReadOnlyInternalL(class TDriveUnit) const
	?NewL@CCachedDriveInfo@BSUL@@SAPAV12@AAVRFs@@@Z @ 4 NONAME ; class BSUL::CCachedDriveInfo * BSUL::CCachedDriveInfo::NewL(class RFs &)
	?NewLC@CCachedDriveInfo@BSUL@@SAPAV12@AAVRFs@@@Z @ 5 NONAME ; class BSUL::CCachedDriveInfo * BSUL::CCachedDriveInfo::NewLC(class RFs &)
	?IsFlagSetOnDriveL@CCachedDriveInfo@BSUL@@QBEHVTDriveUnit@@I@Z @ 6 NONAME ; int BSUL::CCachedDriveInfo::IsFlagSetOnDriveL(class TDriveUnit, unsigned int) const
	?MediaTypeL@CCachedDriveInfo@BSUL@@QBEHVTDriveUnit@@W4TMediaType@@PAW44@@Z @ 7 NONAME ; int BSUL::CCachedDriveInfo::MediaTypeL(class TDriveUnit, enum TMediaType, enum TMediaType *) const
	?GetDefaultRemovableMemoryCardDriveL@CCachedDriveInfo@BSUL@@QBE?AVTDriveUnit@@XZ @ 8 NONAME ; class TDriveUnit BSUL::CCachedDriveInfo::GetDefaultRemovableMemoryCardDriveL(void) const
	??0CClientMessage@BSUL@@AAE@ABVRMessage2@@ABUTClientMessageServerData@1@@Z @ 9 NONAME ; BSUL::CClientMessage::CClientMessage(class RMessage2 const &, struct BSUL::TClientMessageServerData const &)
	??1CClientMessage@BSUL@@UAE@XZ @ 10 NONAME ; BSUL::CClientMessage::~CClientMessage(void)
	?CompleteRequestL@CClientMessage@BSUL@@UAEXH@Z @ 11 NONAME ; void BSUL::CClientMessage::CompleteRequestL(int)
	?Function@CClientMessage@BSUL@@QAEHXZ @ 12 NONAME ; int BSUL::CClientMessage::Function(void)
	?GetDes16L@CClientMessage@BSUL@@UAEABVTDesC16@@H@Z @ 13 NONAME ; class TDesC16 const & BSUL::CClientMessage::GetDes16L(int)
	?GetDes8L@CClientMessage@BSUL@@UAEABVTDesC8@@H@Z @ 14 NONAME ; class TDesC8 const & BSUL::CClientMessage::GetDes8L(int)
	?GetDesLengthL@CClientMessage@BSUL@@UAEHH@Z @ 15 NONAME ; int BSUL::CClientMessage::GetDesLengthL(int)
	?GetDesMaxLengthL@CClientMessage@BSUL@@UAEHH@Z @ 16 NONAME ; int BSUL::CClientMessage::GetDesMaxLengthL(int)
	?GetIntL@CClientMessage@BSUL@@UAEHH@Z @ 17 NONAME ; int BSUL::CClientMessage::GetIntL(int)
	?GetPtrL@CClientMessage@BSUL@@UAEPBXH@Z @ 18 NONAME ; void const * BSUL::CClientMessage::GetPtrL(int)
	?InitialiseFrameworkL@CClientMessage@BSUL@@SAXABUTClientMessageServerData@2@@Z @ 19 NONAME ; void BSUL::CClientMessage::InitialiseFrameworkL(struct BSUL::TClientMessageServerData const &)
	?Message@CClientMessage@BSUL@@QAEABVRMessage2@@XZ @ 20 NONAME ; class RMessage2 const & BSUL::CClientMessage::Message(void)
	?NewL@CClientMessage@BSUL@@SAPAV12@ABVRMessage2@@@Z @ 21 NONAME ; class BSUL::CClientMessage * BSUL::CClientMessage::NewL(class RMessage2 const &)
	?PanicClient@CClientMessage@BSUL@@UAEXABVTDesC16@@H@Z @ 22 NONAME ; void BSUL::CClientMessage::PanicClient(class TDesC16 const &, int)
	?ReadL@CClientMessage@BSUL@@UAEXHAAVTDes16@@H@Z @ 23 NONAME ; void BSUL::CClientMessage::ReadL(int, class TDes16 &, int)
	?ReadL@CClientMessage@BSUL@@UAEXHAAVTDes8@@H@Z @ 24 NONAME ; void BSUL::CClientMessage::ReadL(int, class TDes8 &, int)
	?ValidateL@CClientMessage@BSUL@@UAEXH@Z @ 25 NONAME ; void BSUL::CClientMessage::ValidateL(int)
	?ValidateL@CClientMessage@BSUL@@UAEXXZ @ 26 NONAME ; void BSUL::CClientMessage::ValidateL(void)
	?WriteL@CClientMessage@BSUL@@UAEXHABVTDesC16@@H@Z @ 27 NONAME ; void BSUL::CClientMessage::WriteL(int, class TDesC16 const &, int)
	?WriteL@CClientMessage@BSUL@@UAEXHABVTDesC8@@H@Z @ 28 NONAME ; void BSUL::CClientMessage::WriteL(int, class TDesC8 const &, int)
	?Encode@Base64Codec@BSUL@@SAHABVTDesC8@@AAVTDes8@@@Z @ 29 NONAME ; int BSUL::Base64Codec::Encode(class TDesC8 const &, class TDes8 &)
	?Decode@Base64Codec@BSUL@@SAHABVTDesC8@@AAVTDes8@@@Z @ 30 NONAME ; int BSUL::Base64Codec::Decode(class TDesC8 const &, class TDes8 &)

