EXPORTS
	?FeatureSupported@FeatureManager@@SAHH@Z @ 1 NONAME ; int FeatureManager::FeatureSupported(int)
	?InitializeLibL@FeatureManager@@SAXXZ @ 2 NONAME ; void FeatureManager::InitializeLibL(void)
	?UnInitializeLib@FeatureManager@@SAXXZ @ 3 NONAME ; void FeatureManager::UnInitializeLib(void)
	??0RFeatureControl@@QAE@XZ @ 4 NONAME ; RFeatureControl::RFeatureControl(void)
	??0TFeatureEntry@@QAE@VTUid@@@Z @ 5 NONAME ; TFeatureEntry::TFeatureEntry(class TUid)
	??0TFeatureEntry@@QAE@VTUid@@V?$TBitFlagsT@K@@K@Z @ 6 NONAME ; TFeatureEntry::TFeatureEntry(class TUid, class TBitFlagsT<unsigned long>, unsigned long)
	??0TFeatureEntry@@QAE@XZ @ 7 NONAME ; TFeatureEntry::TFeatureEntry(void)
	??1CFeatureNotifier@@UAE@XZ @ 8 NONAME ; CFeatureNotifier::~CFeatureNotifier(void)
	?AddFeature@RFeatureControl@@QAEHAAVTFeatureEntry@@@Z @ 9 NONAME ; int RFeatureControl::AddFeature(class TFeatureEntry &)
	?Close@RFeatureControl@@QAEXXZ @ 10 NONAME ; void RFeatureControl::Close(void)
	?Connect@RFeatureControl@@QAEHXZ @ 11 NONAME ; int RFeatureControl::Connect(void)
	?DisableFeature@RFeatureControl@@QAEHVTUid@@@Z @ 12 NONAME ; int RFeatureControl::DisableFeature(class TUid)
	?EnableFeature@RFeatureControl@@QAEHVTUid@@@Z @ 13 NONAME ; int RFeatureControl::EnableFeature(class TUid)
	?FeatureData@TFeatureEntry@@QBEKXZ @ 14 NONAME ; unsigned long TFeatureEntry::FeatureData(void) const
	?FeatureFlags@TFeatureEntry@@QBE?AV?$TBitFlagsT@K@@XZ @ 15 NONAME ; class TBitFlagsT<unsigned long> TFeatureEntry::FeatureFlags(void) const
	?FeatureSupported@RFeatureControl@@QAEHAAVTFeatureEntry@@@Z @ 16 NONAME ; int RFeatureControl::FeatureSupported(class TFeatureEntry &)
	?FeatureSupported@RFeatureControl@@QAEHVTUid@@@Z @ 17 NONAME ; int RFeatureControl::FeatureSupported(class TUid)
	?FeatureUid@TFeatureEntry@@QBE?AVTUid@@XZ @ 18 NONAME ; class TUid TFeatureEntry::FeatureUid(void) const
	?FeaturesSupported@RFeatureControl@@QAEHAAV?$RArray@VTFeatureEntry@@@@@Z @ 19 NONAME ; int RFeatureControl::FeaturesSupported(class RArray<class TFeatureEntry> &)
	?ListSupportedFeatures@RFeatureControl@@QAEHAAV?$RArray@VTUid@@@@@Z @ 20 NONAME ; int RFeatureControl::ListSupportedFeatures(class RArray<class TUid> &)
	?NewL@CFeatureNotifier@@SAPAV1@AAVMFeatureObserver@@@Z @ 21 NONAME ; class CFeatureNotifier * CFeatureNotifier::NewL(class MFeatureObserver &)
	?NotifyCancel@CFeatureNotifier@@QAEHVTUid@@@Z @ 22 NONAME ; int CFeatureNotifier::NotifyCancel(class TUid)
	?NotifyCancelAll@CFeatureNotifier@@QAEHXZ @ 23 NONAME ; int CFeatureNotifier::NotifyCancelAll(void)
	?NotifyRequest@CFeatureNotifier@@QAEHAAV?$RArray@VTUid@@@@@Z @ 24 NONAME ; int CFeatureNotifier::NotifyRequest(class RArray<class TUid> &)
	?NotifyRequest@CFeatureNotifier@@QAEHVTUid@@@Z @ 25 NONAME ; int CFeatureNotifier::NotifyRequest(class TUid)
	?Open@RFeatureControl@@QAEHXZ @ 26 NONAME ; int RFeatureControl::Open(void)
	?SetFeature@RFeatureControl@@QAEHVTUid@@HK@Z @ 27 NONAME ; int RFeatureControl::SetFeature(class TUid, int, unsigned long)
	?SetFeature@RFeatureControl@@QAEHVTUid@@K@Z @ 28 NONAME ; int RFeatureControl::SetFeature(class TUid, unsigned long)
	?CountAllocCells@CFeatureNotifier@@QAEHXZ @ 29 NONAME ; int CFeatureNotifier::CountAllocCells(void)
	?NumberOfNotifyFeatures@CFeatureNotifier@@QAEHXZ @ 30 NONAME ; int CFeatureNotifier::NumberOfNotifyFeatures(void)
	?Reserved03@Dummy@@QAEHVTUid@@@Z @ 31 NONAME ABSENT ; int Dummy::Reserved03(class TUid)
	?Reserved04@Dummy@@QAEHVTUid@@@Z @ 32 NONAME ABSENT ; int Dummy::Reserved04(class TUid)
	?Reserved05@Dummy@@QAEHVTUid@@@Z @ 33 NONAME ABSENT ; int Dummy::Reserved05(class TUid)
	?Reserved06@Dummy@@QAEHVTUid@@@Z @ 34 NONAME ABSENT ; int Dummy::Reserved06(class TUid)
	?Reserved07@Dummy@@QAEHVTUid@@@Z @ 35 NONAME ABSENT ; int Dummy::Reserved07(class TUid)
	?Reserved08@Dummy@@QAEHVTUid@@@Z @ 36 NONAME ABSENT ; int Dummy::Reserved08(class TUid)
	?Reserved09@Dummy@@QAEHVTUid@@@Z @ 37 NONAME ABSENT ; int Dummy::Reserved09(class TUid)
	?Reserved10@Dummy@@QAEHVTUid@@@Z @ 38 NONAME ABSENT ; int Dummy::Reserved10(class TUid)
	?Reserved11@Dummy@@QAEHVTUid@@@Z @ 39 NONAME ABSENT ; int Dummy::Reserved11(class TUid)
	?Reserved12@Dummy@@QAEHVTUid@@@Z @ 40 NONAME ABSENT ; int Dummy::Reserved12(class TUid)
	?Reserved13@Dummy@@QAEHVTUid@@@Z @ 41 NONAME ABSENT ; int Dummy::Reserved13(class TUid)
	?Reserved14@Dummy@@QAEHVTUid@@@Z @ 42 NONAME ABSENT ; int Dummy::Reserved14(class TUid)
	?Reserved15@Dummy@@QAEHVTUid@@@Z @ 43 NONAME ABSENT ; int Dummy::Reserved15(class TUid)
	?Reserved16@Dummy@@QAEHVTUid@@@Z @ 44 NONAME ABSENT ; int Dummy::Reserved16(class TUid)
	?DeleteFeature@RFeatureControl@@QAEHVTUid@@@Z @ 45 NONAME ; int RFeatureControl::DeleteFeature(class TUid)
	?SWIEnd@RFeatureControl@@QAEHXZ @ 46 NONAME ; int RFeatureControl::SWIEnd(void) 
	?SWIStart@RFeatureControl@@QAEHXZ @ 47 NONAME ; int RFeatureControl::SWIStart(void)
	?SetHeapFailure@TFeatMgrResourceTester@@SAXHH@Z @ 48 NONAME ; void TFeatMgrResourceTester::SetHeapFailure(int, int)
	?Mark@TFeatMgrResourceTester@@SAXXZ @ 49 NONAME ; void TFeatMgrResourceTester::Mark(void)
	?Check@TFeatMgrResourceTester@@SAXXZ @ 50 NONAME ; void TFeatMgrResourceTester::Check(void)
	?Count@TFeatMgrResourceTester@@SAHXZ @ 51 NONAME ; int TFeatMgrResourceTester::Count(void)
	?GetClientCount@@YAHXZ @ 52 NONAME ; int GetClientCount(void)

