EXPORTS
	??0TSdpRtpmapValue@@QAE@ABVTPtrC8@@00@Z @ 1 NONAME ; TSdpRtpmapValue::TSdpRtpmapValue(class TPtrC8 const &, class TPtrC8 const &, class TPtrC8 const &)
	??0TSdpTypedTime@@QAE@XZ @ 2 NONAME ; TSdpTypedTime::TSdpTypedTime(void)
	??0TSdpTypedTime@@QAE@_JW4TUnit@0@@Z @ 3 NONAME ; TSdpTypedTime::TSdpTypedTime(long long, enum TSdpTypedTime::TUnit)
	??1CSdpAttributeField@@UAE@XZ @ 4 NONAME ; CSdpAttributeField::~CSdpAttributeField(void)
	??1CSdpBandwidthField@@UAE@XZ @ 5 NONAME ; CSdpBandwidthField::~CSdpBandwidthField(void)
	??1CSdpConnectionField@@UAE@XZ @ 6 NONAME ; CSdpConnectionField::~CSdpConnectionField(void)
	??1CSdpDocument@@UAE@XZ @ 7 NONAME ; CSdpDocument::~CSdpDocument(void)
	??1CSdpFmtAttributeField@@UAE@XZ @ 8 NONAME ; CSdpFmtAttributeField::~CSdpFmtAttributeField(void)
	??1CSdpKeyField@@UAE@XZ @ 9 NONAME ; CSdpKeyField::~CSdpKeyField(void)
	??1CSdpMediaField@@UAE@XZ @ 10 NONAME ; CSdpMediaField::~CSdpMediaField(void)
	??1CSdpOriginField@@UAE@XZ @ 11 NONAME ; CSdpOriginField::~CSdpOriginField(void)
	??1CSdpRepeatField@@UAE@XZ @ 12 NONAME ; CSdpRepeatField::~CSdpRepeatField(void)
	??1CSdpTimeField@@UAE@XZ @ 13 NONAME ; CSdpTimeField::~CSdpTimeField(void)
	??8CSdpAttributeField@@QBEHABV0@@Z @ 14 NONAME ; int CSdpAttributeField::operator==(class CSdpAttributeField const &) const
	??8CSdpBandwidthField@@QBEHABV0@@Z @ 15 NONAME ; int CSdpBandwidthField::operator==(class CSdpBandwidthField const &) const
	??8CSdpConnectionField@@QBEHABV0@@Z @ 16 NONAME ; int CSdpConnectionField::operator==(class CSdpConnectionField const &) const
	??8CSdpFmtAttributeField@@QBEHABV0@@Z @ 17 NONAME ; int CSdpFmtAttributeField::operator==(class CSdpFmtAttributeField const &) const
	??8CSdpKeyField@@QBEHABV0@@Z @ 18 NONAME ; int CSdpKeyField::operator==(class CSdpKeyField const &) const
	??8CSdpMediaField@@QBEHABV0@@Z @ 19 NONAME ; int CSdpMediaField::operator==(class CSdpMediaField const &) const
	??8CSdpOriginField@@QBEHABV0@@Z @ 20 NONAME ; int CSdpOriginField::operator==(class CSdpOriginField const &) const
	??8CSdpRepeatField@@QBEHABV0@@Z @ 21 NONAME ; int CSdpRepeatField::operator==(class CSdpRepeatField const &) const
	??8CSdpTimeField@@QBEHABV0@@Z @ 22 NONAME ; int CSdpTimeField::operator==(class CSdpTimeField const &) const
	??8TSdpTypedTime@@QBEHABV0@@Z @ 23 NONAME ; int TSdpTypedTime::operator==(class TSdpTypedTime const &) const
	?ActiveDuration@CSdpRepeatField@@QBE?BVTSdpTypedTime@@XZ @ 24 NONAME ; class TSdpTypedTime const CSdpRepeatField::ActiveDuration(void) const
	?Address@CSdpConnectionField@@QBEABVTDesC8@@XZ @ 25 NONAME ; class TDesC8 const & CSdpConnectionField::Address(void) const
	?Address@CSdpOriginField@@QBEABVTDesC8@@XZ @ 26 NONAME ; class TDesC8 const & CSdpOriginField::Address(void) const
	?AddressType@CSdpConnectionField@@QBE?AVRStringF@@XZ @ 27 NONAME ; class RStringF CSdpConnectionField::AddressType(void) const
	?AddressType@CSdpOriginField@@QBE?AVRStringF@@XZ @ 28 NONAME ; class RStringF CSdpOriginField::AddressType(void) const
	?Attribute@CSdpAttributeField@@QBE?AVRStringF@@XZ @ 29 NONAME ; class RStringF CSdpAttributeField::Attribute(void) const
	?Attribute@CSdpFmtAttributeField@@QBE?AVRStringF@@XZ @ 30 NONAME ; class RStringF CSdpFmtAttributeField::Attribute(void) const
	?AttributeFields@CSdpDocument@@QAEAAV?$RPointerArray@VCSdpAttributeField@@@@XZ @ 31 NONAME ; class RPointerArray<class CSdpAttributeField> & CSdpDocument::AttributeFields(void)
	?AttributeFields@CSdpMediaField@@QAEAAV?$RPointerArray@VCSdpAttributeField@@@@XZ @ 32 NONAME ; class RPointerArray<class CSdpAttributeField> & CSdpMediaField::AttributeFields(void)
	?BandwidthFields@CSdpDocument@@QAEAAV?$RPointerArray@VCSdpBandwidthField@@@@XZ @ 33 NONAME ; class RPointerArray<class CSdpBandwidthField> & CSdpDocument::BandwidthFields(void)
	?BandwidthFields@CSdpMediaField@@QAEAAV?$RPointerArray@VCSdpBandwidthField@@@@XZ @ 34 NONAME ; class RPointerArray<class CSdpBandwidthField> & CSdpMediaField::BandwidthFields(void)
	?CloneL@CSdpAttributeField@@QBEPAV1@XZ @ 35 NONAME ; class CSdpAttributeField * CSdpAttributeField::CloneL(void) const
	?CloneL@CSdpBandwidthField@@QBEPAV1@XZ @ 36 NONAME ; class CSdpBandwidthField * CSdpBandwidthField::CloneL(void) const
	?CloneL@CSdpConnectionField@@QBEPAV1@XZ @ 37 NONAME ; class CSdpConnectionField * CSdpConnectionField::CloneL(void) const
	?CloneL@CSdpDocument@@QBEPAV1@XZ @ 38 NONAME ; class CSdpDocument * CSdpDocument::CloneL(void) const
	?CloneL@CSdpFmtAttributeField@@QBEPAV1@XZ @ 39 NONAME ; class CSdpFmtAttributeField * CSdpFmtAttributeField::CloneL(void) const
	?CloneL@CSdpKeyField@@QBEPAV1@XZ @ 40 NONAME ; class CSdpKeyField * CSdpKeyField::CloneL(void) const
	?CloneL@CSdpMediaField@@QBEPAV1@H@Z @ 41 NONAME ; class CSdpMediaField * CSdpMediaField::CloneL(int) const
	?CloneL@CSdpOriginField@@QBEPAV1@XZ @ 42 NONAME ; class CSdpOriginField * CSdpOriginField::CloneL(void) const
	?CloneL@CSdpRepeatField@@QBEPAV1@XZ @ 43 NONAME ; class CSdpRepeatField * CSdpRepeatField::CloneL(void) const
	?CloneL@CSdpTimeField@@QBEPAV1@H@Z @ 44 NONAME ; class CSdpTimeField * CSdpTimeField::CloneL(int) const
	?Close@SdpCodecStringPool@@SAXXZ @ 45 NONAME ; void SdpCodecStringPool::Close(void)
	?ConnectionField@CSdpDocument@@QAEPAVCSdpConnectionField@@XZ @ 46 NONAME ; class CSdpConnectionField * CSdpDocument::ConnectionField(void)
	?ConnectionField@CSdpDocument@@QBEPBVCSdpConnectionField@@XZ @ 47 NONAME ; class CSdpConnectionField const * CSdpDocument::ConnectionField(void) const
	?ConnectionFields@CSdpMediaField@@QAEAAV?$RPointerArray@VCSdpConnectionField@@@@XZ @ 48 NONAME ; class RPointerArray<class CSdpConnectionField> & CSdpMediaField::ConnectionFields(void)
	?DecodeL@CSdpAttributeField@@SAPAV1@ABVTDesC8@@@Z @ 49 NONAME ; class CSdpAttributeField * CSdpAttributeField::DecodeL(class TDesC8 const &)
	?DecodeL@CSdpBandwidthField@@SAPAV1@ABVTDesC8@@@Z @ 50 NONAME ; class CSdpBandwidthField * CSdpBandwidthField::DecodeL(class TDesC8 const &)
	?DecodeL@CSdpConnectionField@@SAPAV1@ABVTDesC8@@@Z @ 51 NONAME ; class CSdpConnectionField * CSdpConnectionField::DecodeL(class TDesC8 const &)
	?DecodeL@CSdpDocument@@SAPAV1@ABVTDesC8@@@Z @ 52 NONAME ; class CSdpDocument * CSdpDocument::DecodeL(class TDesC8 const &)
	?DecodeL@CSdpFmtAttributeField@@SAPAV1@ABVTDesC8@@@Z @ 53 NONAME ; class CSdpFmtAttributeField * CSdpFmtAttributeField::DecodeL(class TDesC8 const &)
	?DecodeL@CSdpKeyField@@SAPAV1@ABVTDesC8@@@Z @ 54 NONAME ; class CSdpKeyField * CSdpKeyField::DecodeL(class TDesC8 const &)
	?DecodeL@CSdpMediaField@@SAPAV1@ABVTDesC8@@H@Z @ 55 NONAME ; class CSdpMediaField * CSdpMediaField::DecodeL(class TDesC8 const &, int)
	?DecodeL@CSdpOriginField@@SAPAV1@ABVTDesC8@@@Z @ 56 NONAME ; class CSdpOriginField * CSdpOriginField::DecodeL(class TDesC8 const &)
	?DecodeL@CSdpRepeatField@@SAPAV1@ABVTDesC8@@@Z @ 57 NONAME ; class CSdpRepeatField * CSdpRepeatField::DecodeL(class TDesC8 const &)
	?DecodeL@CSdpTimeField@@SAPAV1@ABVTDesC8@@H@Z @ 58 NONAME ; class CSdpTimeField * CSdpTimeField::DecodeL(class TDesC8 const &, int)
	?DecodeL@TSdpRtpmapValue@@SA?AV1@ABVTDesC8@@@Z @ 59 NONAME ; class TSdpRtpmapValue TSdpRtpmapValue::DecodeL(class TDesC8 const &)
	?DecodeLC@CSdpAttributeField@@SAPAV1@ABVTDesC8@@@Z @ 60 NONAME ; class CSdpAttributeField * CSdpAttributeField::DecodeLC(class TDesC8 const &)
	?DecodeLC@CSdpBandwidthField@@SAPAV1@ABVTDesC8@@@Z @ 61 NONAME ; class CSdpBandwidthField * CSdpBandwidthField::DecodeLC(class TDesC8 const &)
	?DecodeLC@CSdpConnectionField@@SAPAV1@ABVTDesC8@@@Z @ 62 NONAME ; class CSdpConnectionField * CSdpConnectionField::DecodeLC(class TDesC8 const &)
	?DecodeLC@CSdpDocument@@SAPAV1@ABVTDesC8@@@Z @ 63 NONAME ; class CSdpDocument * CSdpDocument::DecodeLC(class TDesC8 const &)
	?DecodeLC@CSdpFmtAttributeField@@SAPAV1@ABVTDesC8@@@Z @ 64 NONAME ; class CSdpFmtAttributeField * CSdpFmtAttributeField::DecodeLC(class TDesC8 const &)
	?DecodeLC@CSdpKeyField@@SAPAV1@ABVTDesC8@@@Z @ 65 NONAME ; class CSdpKeyField * CSdpKeyField::DecodeLC(class TDesC8 const &)
	?DecodeLC@CSdpMediaField@@SAPAV1@ABVTDesC8@@H@Z @ 66 NONAME ; class CSdpMediaField * CSdpMediaField::DecodeLC(class TDesC8 const &, int)
	?DecodeLC@CSdpOriginField@@SAPAV1@ABVTDesC8@@@Z @ 67 NONAME ; class CSdpOriginField * CSdpOriginField::DecodeLC(class TDesC8 const &)
	?DecodeLC@CSdpRepeatField@@SAPAV1@ABVTDesC8@@@Z @ 68 NONAME ; class CSdpRepeatField * CSdpRepeatField::DecodeLC(class TDesC8 const &)
	?DecodeLC@CSdpTimeField@@SAPAV1@ABVTDesC8@@H@Z @ 69 NONAME ; class CSdpTimeField * CSdpTimeField::DecodeLC(class TDesC8 const &, int)
	?EmailFields@CSdpDocument@@QAEAAVCDesC8Array@@XZ @ 70 NONAME ; class CDesC8Array & CSdpDocument::EmailFields(void)
	?EncodeL@CSdpAttributeField@@QBEXAAVRWriteStream@@@Z @ 71 NONAME ; void CSdpAttributeField::EncodeL(class RWriteStream &) const
	?EncodeL@CSdpBandwidthField@@QBEXAAVRWriteStream@@@Z @ 72 NONAME ; void CSdpBandwidthField::EncodeL(class RWriteStream &) const
	?EncodeL@CSdpConnectionField@@QBEXAAVRWriteStream@@@Z @ 73 NONAME ; void CSdpConnectionField::EncodeL(class RWriteStream &) const
	?EncodeL@CSdpDocument@@QBEXAAVRWriteStream@@@Z @ 74 NONAME ; void CSdpDocument::EncodeL(class RWriteStream &) const
	?EncodeL@CSdpFmtAttributeField@@QBEXAAVRWriteStream@@@Z @ 75 NONAME ; void CSdpFmtAttributeField::EncodeL(class RWriteStream &) const
	?EncodeL@CSdpKeyField@@QBEXAAVRWriteStream@@@Z @ 76 NONAME ; void CSdpKeyField::EncodeL(class RWriteStream &) const
	?EncodeL@CSdpMediaField@@QBEXAAVRWriteStream@@H@Z @ 77 NONAME ; void CSdpMediaField::EncodeL(class RWriteStream &, int) const
	?EncodeL@CSdpOriginField@@QBEXAAVRWriteStream@@@Z @ 78 NONAME ; void CSdpOriginField::EncodeL(class RWriteStream &) const
	?EncodeL@CSdpRepeatField@@QBEXAAVRWriteStream@@@Z @ 79 NONAME ; void CSdpRepeatField::EncodeL(class RWriteStream &) const
	?EncodeL@CSdpTimeField@@QBEXAAVRWriteStream@@H@Z @ 80 NONAME ; void CSdpTimeField::EncodeL(class RWriteStream &, int) const
	?EncodeL@TSdpRtpmapValue@@QBEPAVHBufC8@@XZ @ 81 NONAME ; class HBufC8 * TSdpRtpmapValue::EncodeL(void) const
	?EncryptionKey@CSdpKeyField@@QBEABVTDesC8@@XZ @ 82 NONAME ; class TDesC8 const & CSdpKeyField::EncryptionKey(void) const
	?ExternalizeL@CSdpDocument@@QBEXAAVRWriteStream@@@Z @ 83 NONAME ; void CSdpDocument::ExternalizeL(class RWriteStream &) const
	?Format@CSdpFmtAttributeField@@QBEABVTDesC8@@XZ @ 84 NONAME ; class TDesC8 const & CSdpFmtAttributeField::Format(void) const
	?FormatAttributeFields@CSdpMediaField@@QAEAAV?$RPointerArray@VCSdpFmtAttributeField@@@@XZ @ 85 NONAME ; class RPointerArray<class CSdpFmtAttributeField> & CSdpMediaField::FormatAttributeFields(void)
	?FormatList@CSdpMediaField@@QBEABVTDesC8@@XZ @ 86 NONAME ; class TDesC8 const & CSdpMediaField::FormatList(void) const
	?InetAddress@CSdpConnectionField@@QBEPBVTInetAddr@@XZ @ 87 NONAME ; class TInetAddr const * CSdpConnectionField::InetAddress(void) const
	?InetAddress@CSdpOriginField@@QBEPBVTInetAddr@@XZ @ 88 NONAME ; class TInetAddr const * CSdpOriginField::InetAddress(void) const
	?Info@CSdpDocument@@QBEABVTDesC8@@XZ @ 89 NONAME ; class TDesC8 const & CSdpDocument::Info(void) const
	?Info@CSdpMediaField@@QBEABVTDesC8@@XZ @ 90 NONAME ; class TDesC8 const & CSdpMediaField::Info(void) const
	?InternalizeL@CSdpDocument@@SAPAV1@AAVRReadStream@@@Z @ 91 NONAME ; class CSdpDocument * CSdpDocument::InternalizeL(class RReadStream &)
	?IsValid@CSdpDocument@@QBEHXZ @ 92 NONAME ; int CSdpDocument::IsValid(void) const
	?IsValid@CSdpMediaField@@QBEHXZ @ 93 NONAME ; int CSdpMediaField::IsValid(void) const
	?IsValid@CSdpTimeField@@QBEHXZ @ 94 NONAME ; int CSdpTimeField::IsValid(void) const
	?KeepFormatL@CSdpMediaField@@QAEXABVTDesC8@@@Z @ 95 NONAME ; void CSdpMediaField::KeepFormatL(class TDesC8 const &)
	?Key@CSdpDocument@@QAEPAVCSdpKeyField@@XZ @ 96 NONAME ; class CSdpKeyField * CSdpDocument::Key(void)
	?Key@CSdpDocument@@QBEPBVCSdpKeyField@@XZ @ 97 NONAME ; class CSdpKeyField const * CSdpDocument::Key(void) const
	?Key@CSdpMediaField@@QAEPAVCSdpKeyField@@XZ @ 98 NONAME ; class CSdpKeyField * CSdpMediaField::Key(void)
	?Key@CSdpMediaField@@QBEPBVCSdpKeyField@@XZ @ 99 NONAME ; class CSdpKeyField const * CSdpMediaField::Key(void) const
	?Media@CSdpMediaField@@QBE?AVRStringF@@XZ @ 100 NONAME ; class RStringF CSdpMediaField::Media(void) const
	?MediaFields@CSdpDocument@@QAEAAV?$RPointerArray@VCSdpMediaField@@@@XZ @ 101 NONAME ; class RPointerArray<class CSdpMediaField> & CSdpDocument::MediaFields(void)
	?Method@CSdpKeyField@@QBE?AVRStringF@@XZ @ 102 NONAME ; class RStringF CSdpKeyField::Method(void) const
	?Modifier@CSdpBandwidthField@@QBE?AVRStringF@@XZ @ 103 NONAME ; class RStringF CSdpBandwidthField::Modifier(void) const
	?NetType@CSdpConnectionField@@QBE?AVRStringF@@XZ @ 104 NONAME ; class RStringF CSdpConnectionField::NetType(void) const
	?NetType@CSdpOriginField@@QBE?AVRStringF@@XZ @ 105 NONAME ; class RStringF CSdpOriginField::NetType(void) const
	?NewL@CSdpAttributeField@@SAPAV1@VRStringF@@ABVTDesC8@@@Z @ 106 NONAME ; class CSdpAttributeField * CSdpAttributeField::NewL(class RStringF, class TDesC8 const &)
	?NewL@CSdpBandwidthField@@SAPAV1@VRStringF@@K@Z @ 107 NONAME ; class CSdpBandwidthField * CSdpBandwidthField::NewL(class RStringF, unsigned long)
	?NewL@CSdpConnectionField@@SAPAV1@ABVTInetAddr@@HI@Z @ 108 NONAME ; class CSdpConnectionField * CSdpConnectionField::NewL(class TInetAddr const &, int, unsigned int)
	?NewL@CSdpConnectionField@@SAPAV1@VRStringF@@0ABVTDesC8@@@Z @ 109 NONAME ; class CSdpConnectionField * CSdpConnectionField::NewL(class RStringF, class RStringF, class TDesC8 const &)
	?NewL@CSdpDocument@@SAPAV1@XZ @ 110 NONAME ; class CSdpDocument * CSdpDocument::NewL(void)
	?NewL@CSdpFmtAttributeField@@SAPAV1@VRStringF@@ABVTDesC8@@1@Z @ 111 NONAME ; class CSdpFmtAttributeField * CSdpFmtAttributeField::NewL(class RStringF, class TDesC8 const &, class TDesC8 const &)
	?NewL@CSdpKeyField@@SAPAV1@VRStringF@@ABVTDesC8@@@Z @ 112 NONAME ; class CSdpKeyField * CSdpKeyField::NewL(class RStringF, class TDesC8 const &)
	?NewL@CSdpMediaField@@SAPAV1@VRStringF@@I0ABVTDesC8@@@Z @ 113 NONAME ; class CSdpMediaField * CSdpMediaField::NewL(class RStringF, unsigned int, class RStringF, class TDesC8 const &)
	?NewL@CSdpOriginField@@SAPAV1@ABVTDesC8@@_J1AAVTInetAddr@@@Z @ 114 NONAME ; class CSdpOriginField * CSdpOriginField::NewL(class TDesC8 const &, long long, long long, class TInetAddr &)
	?NewL@CSdpOriginField@@SAPAV1@ABVTDesC8@@_J1VRStringF@@20@Z @ 115 NONAME ; class CSdpOriginField * CSdpOriginField::NewL(class TDesC8 const &, long long, long long, class RStringF, class RStringF, class TDesC8 const &)
	?NewL@CSdpRepeatField@@SAPAV1@VTSdpTypedTime@@0ABV?$RArray@VTSdpTypedTime@@@@@Z @ 116 NONAME ; class CSdpRepeatField * CSdpRepeatField::NewL(class TSdpTypedTime, class TSdpTypedTime, class RArray<class TSdpTypedTime> const &)
	?NewL@CSdpTimeField@@SAPAV1@ABVTDesC8@@0@Z @ 117 NONAME ; class CSdpTimeField * CSdpTimeField::NewL(class TDesC8 const &, class TDesC8 const &)
	?NewLC@CSdpAttributeField@@SAPAV1@VRStringF@@ABVTDesC8@@@Z @ 118 NONAME ; class CSdpAttributeField * CSdpAttributeField::NewLC(class RStringF, class TDesC8 const &)
	?NewLC@CSdpBandwidthField@@SAPAV1@VRStringF@@K@Z @ 119 NONAME ; class CSdpBandwidthField * CSdpBandwidthField::NewLC(class RStringF, unsigned long)
	?NewLC@CSdpConnectionField@@SAPAV1@ABVTInetAddr@@HI@Z @ 120 NONAME ; class CSdpConnectionField * CSdpConnectionField::NewLC(class TInetAddr const &, int, unsigned int)
	?NewLC@CSdpConnectionField@@SAPAV1@VRStringF@@0ABVTDesC8@@@Z @ 121 NONAME ; class CSdpConnectionField * CSdpConnectionField::NewLC(class RStringF, class RStringF, class TDesC8 const &)
	?NewLC@CSdpDocument@@SAPAV1@XZ @ 122 NONAME ; class CSdpDocument * CSdpDocument::NewLC(void)
	?NewLC@CSdpFmtAttributeField@@SAPAV1@VRStringF@@ABVTDesC8@@1@Z @ 123 NONAME ; class CSdpFmtAttributeField * CSdpFmtAttributeField::NewLC(class RStringF, class TDesC8 const &, class TDesC8 const &)
	?NewLC@CSdpKeyField@@SAPAV1@VRStringF@@ABVTDesC8@@@Z @ 124 NONAME ; class CSdpKeyField * CSdpKeyField::NewLC(class RStringF, class TDesC8 const &)
	?NewLC@CSdpMediaField@@SAPAV1@VRStringF@@I0ABVTDesC8@@@Z @ 125 NONAME ; class CSdpMediaField * CSdpMediaField::NewLC(class RStringF, unsigned int, class RStringF, class TDesC8 const &)
	?NewLC@CSdpOriginField@@SAPAV1@ABVTDesC8@@_J1AAVTInetAddr@@@Z @ 126 NONAME ; class CSdpOriginField * CSdpOriginField::NewLC(class TDesC8 const &, long long, long long, class TInetAddr &)
	?NewLC@CSdpOriginField@@SAPAV1@ABVTDesC8@@_J1VRStringF@@20@Z @ 127 NONAME ; class CSdpOriginField * CSdpOriginField::NewLC(class TDesC8 const &, long long, long long, class RStringF, class RStringF, class TDesC8 const &)
	?NewLC@CSdpRepeatField@@SAPAV1@VTSdpTypedTime@@0ABV?$RArray@VTSdpTypedTime@@@@@Z @ 128 NONAME ; class CSdpRepeatField * CSdpRepeatField::NewLC(class TSdpTypedTime, class TSdpTypedTime, class RArray<class TSdpTypedTime> const &)
	?NewLC@CSdpTimeField@@SAPAV1@ABVTDesC8@@0@Z @ 129 NONAME ; class CSdpTimeField * CSdpTimeField::NewLC(class TDesC8 const &, class TDesC8 const &)
	?NumOfAddress@CSdpConnectionField@@QBEHXZ @ 130 NONAME ; int CSdpConnectionField::NumOfAddress(void) const
	?OpenL@SdpCodecStringPool@@SAXXZ @ 131 NONAME ; void SdpCodecStringPool::OpenL(void)
	?OriginField@CSdpDocument@@QAEPAVCSdpOriginField@@XZ @ 132 NONAME ; class CSdpOriginField * CSdpDocument::OriginField(void)
	?OriginField@CSdpDocument@@QBEPBVCSdpOriginField@@XZ @ 133 NONAME ; class CSdpOriginField const * CSdpDocument::OriginField(void) const
	?PhoneFields@CSdpDocument@@QAEAAVCDesC8Array@@XZ @ 134 NONAME ; class CDesC8Array & CSdpDocument::PhoneFields(void)
	?Port@CSdpMediaField@@QBEIXZ @ 135 NONAME ; unsigned int CSdpMediaField::Port(void) const
	?PortCount@CSdpMediaField@@QBEIXZ @ 136 NONAME ; unsigned int CSdpMediaField::PortCount(void) const
	?Protocol@CSdpMediaField@@QBE?AVRStringF@@XZ @ 137 NONAME ; class RStringF CSdpMediaField::Protocol(void) const
	?RejectMedia@CSdpMediaField@@QAEXXZ @ 138 NONAME ; void CSdpMediaField::RejectMedia(void)
	?RemoveFormatL@CSdpMediaField@@QAEXABVTDesC8@@@Z @ 139 NONAME ; void CSdpMediaField::RemoveFormatL(class TDesC8 const &)
	?RepeatFields@CSdpTimeField@@QAEAAV?$RPointerArray@VCSdpRepeatField@@@@XZ @ 140 NONAME ; class RPointerArray<class CSdpRepeatField> & CSdpTimeField::RepeatFields(void)
	?RepeatInterval@CSdpRepeatField@@QBE?BVTSdpTypedTime@@XZ @ 141 NONAME ; class TSdpTypedTime const CSdpRepeatField::RepeatInterval(void) const
	?SdpVersion@CSdpDocument@@QBEIXZ @ 142 NONAME ; unsigned int CSdpDocument::SdpVersion(void) const
	?SessionId@CSdpOriginField@@QBE_JXZ @ 143 NONAME ; long long CSdpOriginField::SessionId(void) const
	?SessionName@CSdpDocument@@QBEABVTDesC8@@XZ @ 144 NONAME ; class TDesC8 const & CSdpDocument::SessionName(void) const
	?SetActiveDuration@CSdpRepeatField@@QAEXVTSdpTypedTime@@@Z @ 145 NONAME ; void CSdpRepeatField::SetActiveDuration(class TSdpTypedTime)
	?SetAddressL@CSdpConnectionField@@QAEXVRStringF@@0ABVTDesC8@@@Z @ 146 NONAME ; void CSdpConnectionField::SetAddressL(class RStringF, class RStringF, class TDesC8 const &)
	?SetAddressL@CSdpOriginField@@QAEXABVTDesC8@@VRStringF@@1@Z @ 147 NONAME ; void CSdpOriginField::SetAddressL(class TDesC8 const &, class RStringF, class RStringF)
	?SetConnectionField@CSdpDocument@@QAEXPAVCSdpConnectionField@@@Z @ 148 NONAME ; void CSdpDocument::SetConnectionField(class CSdpConnectionField *)
	?SetFormatListL@CSdpMediaField@@QAEXABVTDesC8@@@Z @ 149 NONAME ; void CSdpMediaField::SetFormatListL(class TDesC8 const &)
	?SetInetAddress@CSdpOriginField@@QAEXABVTInetAddr@@@Z @ 150 NONAME ; void CSdpOriginField::SetInetAddress(class TInetAddr const &)
	?SetInetAddressL@CSdpConnectionField@@QAEXABVTInetAddr@@HI@Z @ 151 NONAME ; void CSdpConnectionField::SetInetAddressL(class TInetAddr const &, int, unsigned int)
	?SetInfoL@CSdpDocument@@QAEXABVTDesC8@@@Z @ 152 NONAME ; void CSdpDocument::SetInfoL(class TDesC8 const &)
	?SetInfoL@CSdpMediaField@@QAEXABVTDesC8@@@Z @ 153 NONAME ; void CSdpMediaField::SetInfoL(class TDesC8 const &)
	?SetKey@CSdpDocument@@QAEXPAVCSdpKeyField@@@Z @ 154 NONAME ; void CSdpDocument::SetKey(class CSdpKeyField *)
	?SetKey@CSdpMediaField@@QAEXPAVCSdpKeyField@@@Z @ 155 NONAME ; void CSdpMediaField::SetKey(class CSdpKeyField *)
	?SetL@CSdpAttributeField@@QAEXVRStringF@@ABVTDesC8@@@Z @ 156 NONAME ; void CSdpAttributeField::SetL(class RStringF, class TDesC8 const &)
	?SetL@CSdpFmtAttributeField@@QAEXVRStringF@@ABVTDesC8@@1@Z @ 157 NONAME ; void CSdpFmtAttributeField::SetL(class RStringF, class TDesC8 const &, class TDesC8 const &)
	?SetL@CSdpKeyField@@QAEXVRStringF@@ABVTDesC8@@@Z @ 158 NONAME ; void CSdpKeyField::SetL(class RStringF, class TDesC8 const &)
	?SetMediaL@CSdpMediaField@@QAEXVRStringF@@@Z @ 159 NONAME ; void CSdpMediaField::SetMediaL(class RStringF)
	?SetModifier@CSdpBandwidthField@@QAEXVRStringF@@@Z @ 160 NONAME ; void CSdpBandwidthField::SetModifier(class RStringF)
	?SetNumOfAddressL@CSdpConnectionField@@QAEXI@Z @ 161 NONAME ; void CSdpConnectionField::SetNumOfAddressL(unsigned int)
	?SetOriginField@CSdpDocument@@QAEXPAVCSdpOriginField@@@Z @ 162 NONAME ; void CSdpDocument::SetOriginField(class CSdpOriginField *)
	?SetPortCountL@CSdpMediaField@@QAEXI@Z @ 163 NONAME ; void CSdpMediaField::SetPortCountL(unsigned int)
	?SetPortL@CSdpMediaField@@QAEXI@Z @ 164 NONAME ; void CSdpMediaField::SetPortL(unsigned int)
	?SetProtocolL@CSdpMediaField@@QAEXVRStringF@@@Z @ 165 NONAME ; void CSdpMediaField::SetProtocolL(class RStringF)
	?SetRepeatIntervalL@CSdpRepeatField@@QAEXVTSdpTypedTime@@@Z @ 166 NONAME ; void CSdpRepeatField::SetRepeatIntervalL(class TSdpTypedTime)
	?SetSessionId@CSdpOriginField@@QAEX_J@Z @ 167 NONAME ; void CSdpOriginField::SetSessionId(long long)
	?SetSessionNameL@CSdpDocument@@QAEXABVTDesC8@@@Z @ 168 NONAME ; void CSdpDocument::SetSessionNameL(class TDesC8 const &)
	?SetTTLL@CSdpConnectionField@@QAEXH@Z @ 169 NONAME ; void CSdpConnectionField::SetTTLL(int)
	?SetTimeOffsetsL@CSdpRepeatField@@QAEXABV?$RArray@VTSdpTypedTime@@@@@Z @ 170 NONAME ; void CSdpRepeatField::SetTimeOffsetsL(class RArray<class TSdpTypedTime> const &)
	?SetTimesL@CSdpTimeField@@QAEXABVTDesC8@@0@Z @ 171 NONAME ; void CSdpTimeField::SetTimesL(class TDesC8 const &, class TDesC8 const &)
	?SetUri@CSdpDocument@@QAEXPAVCUri8@@@Z @ 172 NONAME ; void CSdpDocument::SetUri(class CUri8 *)
	?SetUserNameL@CSdpOriginField@@QAEXABVTDesC8@@@Z @ 173 NONAME ; void CSdpOriginField::SetUserNameL(class TDesC8 const &)
	?SetValue@CSdpBandwidthField@@QAEXK@Z @ 174 NONAME ; void CSdpBandwidthField::SetValue(unsigned long)
	?SetValue@TSdpTypedTime@@QAEX_JW4TUnit@1@@Z @ 175 NONAME ; void TSdpTypedTime::SetValue(long long, enum TSdpTypedTime::TUnit)
	?SetVersion@CSdpOriginField@@QAEX_J@Z @ 176 NONAME ; void CSdpOriginField::SetVersion(long long)
	?SetZoneAdjustmentsL@CSdpDocument@@QAEXABVTDesC8@@@Z @ 177 NONAME ; void CSdpDocument::SetZoneAdjustmentsL(class TDesC8 const &)
	?StartTime@CSdpTimeField@@QBEABVTDesC8@@XZ @ 178 NONAME ; class TDesC8 const & CSdpTimeField::StartTime(void) const
	?StopTime@CSdpTimeField@@QBEABVTDesC8@@XZ @ 179 NONAME ; class TDesC8 const & CSdpTimeField::StopTime(void) const
	?StringPoolL@SdpCodecStringPool@@SA?AVRStringPool@@XZ @ 180 NONAME ; class RStringPool SdpCodecStringPool::StringPoolL(void)
	?StringTableL@SdpCodecStringPool@@SAABUTStringTable@@XZ @ 181 NONAME ; struct TStringTable const & SdpCodecStringPool::StringTableL(void)
	?TTLValue@CSdpConnectionField@@QBEHXZ @ 182 NONAME ; int CSdpConnectionField::TTLValue(void) const
	?TimeFields@CSdpDocument@@QAEAAV?$RPointerArray@VCSdpTimeField@@@@XZ @ 183 NONAME ; class RPointerArray<class CSdpTimeField> & CSdpDocument::TimeFields(void)
	?TimeOffsets@CSdpRepeatField@@QBEABV?$RArray@VTSdpTypedTime@@@@XZ @ 184 NONAME ; class RArray<class TSdpTypedTime> const & CSdpRepeatField::TimeOffsets(void) const
	?Uri@CSdpDocument@@QAEPAVCUri8@@XZ @ 185 NONAME ; class CUri8 * CSdpDocument::Uri(void)
	?Uri@CSdpDocument@@QBEPBVCUri8@@XZ @ 186 NONAME ; class CUri8 const * CSdpDocument::Uri(void) const
	?UserName@CSdpOriginField@@QBEABVTDesC8@@XZ @ 187 NONAME ; class TDesC8 const & CSdpOriginField::UserName(void) const
	?Value@CSdpAttributeField@@QBEABVTDesC8@@XZ @ 188 NONAME ; class TDesC8 const & CSdpAttributeField::Value(void) const
	?Value@CSdpBandwidthField@@QBEKXZ @ 189 NONAME ; unsigned long CSdpBandwidthField::Value(void) const
	?Value@CSdpFmtAttributeField@@QBEABVTDesC8@@XZ @ 190 NONAME ; class TDesC8 const & CSdpFmtAttributeField::Value(void) const
	?Version@CSdpOriginField@@QBE_JXZ @ 191 NONAME ; long long CSdpOriginField::Version(void) const
	?ZoneAdjustments@CSdpDocument@@QBEABVTDesC8@@XZ @ 192 NONAME ; class TDesC8 const & CSdpDocument::ZoneAdjustments(void) const
	?__DbgTestInvariant@CSdpAttributeField@@QBEXXZ @ 193 NONAME ABSENT; void CSdpAttributeField::__DbgTestInvariant(void) const
	?__DbgTestInvariant@CSdpConnectionField@@QBEXXZ @ 194 NONAME ABSENT ; void CSdpConnectionField::__DbgTestInvariant(void) const
	?__DbgTestInvariant@CSdpFmtAttributeField@@QBEXXZ @ 195 NONAME ABSENT ; void CSdpFmtAttributeField::__DbgTestInvariant(void) const
	?__DbgTestInvariant@CSdpKeyField@@QBEXXZ @ 196 NONAME ABSENT ; void CSdpKeyField::__DbgTestInvariant(void) const
	?__DbgTestInvariant@CSdpOriginField@@QBEXXZ @ 197 NONAME ABSENT ; void CSdpOriginField::__DbgTestInvariant(void) const
	?__DbgTestInvariant@CSdpRepeatField@@QBEXXZ @ 198 NONAME ABSENT ; void CSdpRepeatField::__DbgTestInvariant(void) const
	?__DbgTestInvariant@CSdpTimeField@@QBEXXZ @ 199 NONAME ABSENT ; void CSdpTimeField::__DbgTestInvariant(void) const
	?AssignTo@CSdpAttributeField@@QAEXABVCSdpFmtAttributeField@@@Z @ 200 NONAME ; void CSdpAttributeField::AssignTo(class CSdpFmtAttributeField const &)
	?BelongsTo@CSdpAttributeField@@QBEHABVCSdpFmtAttributeField@@@Z @ 201 NONAME ; int CSdpAttributeField::BelongsTo(class CSdpFmtAttributeField const &) const

