EXPORTS
	??0CBufStore@@QAE@H@Z @1 NONAME
	??0CDirectFileStore@@QAE@AAVRFile@@@Z @2 NONAME
	??0CDirectFileStore@@QAE@AAVRFileBuf@@ABVTUidType@@@Z @3 NONAME
	??0CEmbeddedStore@@QAE@PAVMStreamBuf@@@Z @4 NONAME
	??0CFileStore@@IAE@AAVRFile@@@Z @5 NONAME
	??0CFileStore@@IAE@AAVRFileBuf@@ABVTUidType@@@Z @6 NONAME
	??0CMemPagePool@@QAE@XZ @7 NONAME
	??0CPageCache@@QAE@XZ @8 NONAME
	??0CPermanentFileStore@@QAE@AAVRFile@@@Z @9 NONAME
	??0CPermanentFileStore@@QAE@AAVRFileBuf@@ABVTUidType@@@Z @10 NONAME
	?ResetLC@RPermanentFileStoreIter@@QAEXABVCPermanentFileStore@@@Z @ 11 NONAME ; public: void __thiscall RPermanentFileStoreIter::ResetLC(class CPermanentFileStore const &)
	??0CStoreMap@@QAE@AAVCStreamStore@@@Z @12 NONAME
	??0CStreamDictionary@@QAE@XZ @13 NONAME
	??0RBufReadStream@@QAE@ABVCBufBase@@H@Z @14 NONAME
	??0RBufWriteStream@@QAE@AAVCBufBase@@H@Z @15 NONAME
	??0RDesReadStream@@QAE@ABVTDesC8@@@Z @16 NONAME
	??0RDesWriteStream@@QAE@AAVTDes8@@@Z @17 NONAME
	??0RFileBuf@@QAE@H@Z @18 NONAME
	??0RFileBuf@@QAE@XZ @19 NONAME
	??0RFilePagePool@@QAE@AAVCPageCache@@@Z @20 NONAME
	??0RFilePagePool@@QAE@XZ @21 NONAME
	??0RFileReadStream@@QAE@AAVRFile@@H@Z @22 NONAME
	??0RFileWriteStream@@QAE@AAVRFile@@H@Z @23 NONAME
	??0RMemReadStream@@QAE@PBXH@Z @24 NONAME
	??0RMemWriteStream@@QAE@PAXH@Z @25 NONAME
	??0RShareBuf@@QAE@XZ @26 NONAME
	??0RShareReadStream@@QAE@AAVTStreamExchange@@VTStreamPos@@@Z @27 NONAME
	??0RShareWriteStream@@QAE@AAVTStreamExchange@@VTStreamPos@@@Z @28 NONAME
	??0RStorePagePool@@QAE@AAVCPageCache@@@Z @29 NONAME
	??0RStorePagePool@@QAE@AAVCStreamStore@@@Z @30 NONAME
	??0RStorePagePool@@QAE@AAVCStreamStore@@ABVTStorePagePoolToken@@@Z @31 NONAME
	??0RStorePagePool@@QAE@XZ @32 NONAME
	??0TBtree@@QAE@ABVTBtreeToken@@W4TBtreeMode@@@Z @33 NONAME
	??0TBtree@@QAE@W4TBtreeMode@@@Z @34 NONAME
	??0TBtreeFixBase@@IAE@ABVTBtreeToken@@W4TBtreeMode@@HH@Z @35 NONAME
	??0TBtreeFixBase@@IAE@W4TBtreeMode@@HH@Z @36 NONAME
	??0TBtreeInlineIndexOrg@@QAE@XZ @37 NONAME
	??0TBtreeInlineLeafOrg@@QAE@XZ @38 NONAME
	??0TBtreeKey@@QAE@H@Z @39 NONAME
	??0TBtreeKey@@QAE@HW4TKeyCmpNumeric@@@Z @40 NONAME
	??0TBtreeKey@@QAE@HW4TKeyCmpText@@@Z @41 NONAME
	??0TBtreeKey@@QAE@HW4TKeyCmpText@@H@Z @42 NONAME
	??0TBtreeKey@@QAE@XZ @43 NONAME
	??0TBufBuf@@QAE@XZ @44 NONAME
	??0TDecryptFilter@@QAE@XZ @45 NONAME
	??0TDesBuf@@QAE@XZ @46 NONAME
	??0TEncryptFilter@@QAE@XZ @47 NONAME
	??0TMemBuf@@QAE@XZ @48 NONAME
	??0TPagedSetBase@@IAE@ABVTPagedSetToken@@H@Z @49 NONAME
	??0TPagedSetBase@@IAE@H@Z @50 NONAME
	??0TStreamBuf@@IAE@XZ @51 NONAME
	??0TStreamFilter@@IAE@XZ @52 NONAME
	??0TSwizzleCBase@@IAE@VTStreamId@@@Z @53 NONAME
	??1CBufStore@@UAE@XZ @54 NONAME
	??1CDictionaryStore@@UAE@XZ @55 NONAME
	??1CEmbeddedStore@@UAE@XZ @56 NONAME
	??1CFileStore@@UAE@XZ @57 NONAME
	??1CMemPagePool@@UAE@XZ @58 NONAME
	??1CPageCache@@UAE@XZ @59 NONAME
	??1CPermanentFileStore@@UAE@XZ @60 NONAME
	??1CStoreMap@@UAE@XZ @61 NONAME
	?AcquireL@CMemPagePool@@UAEP6AXAAVMPagePool@@@ZXZ @62 NONAME
	?AcquireL@TCachePagePool@@UAEP6AXAAVMPagePool@@@ZXZ @63 NONAME
	?AllocL@CMemPagePool@@UAEPAXXZ @64 NONAME
	?AllocL@TCachePagePool@@UAEPAXXZ @65 NONAME
	?AppendL@RStoreWriteStream@@QAEXAAVCStreamStore@@VTStreamId@@@Z @66 NONAME
	?AppendLC@RStoreWriteStream@@QAEXAAVCStreamStore@@VTStreamId@@@Z @67 NONAME
	?ArrayExternalizeCountL@@YAXHAAVRWriteStream@@@Z @68 NONAME
	?ArrayInternalizeCountL@@YAHAAVRReadStream@@@Z @69 NONAME
	?AsId@TSwizzleCBase@@QBE?AVTStreamId@@XZ @70 NONAME
	?AssignL@CMemPagePool@@UAE?AVTPageRef@@PBXW4TPageReclamation@@@Z @71 NONAME
	?AssignL@CStreamDictionary@@QAEXVTUid@@VTStreamId@@@Z @72 NONAME
	?AssignL@RDictionaryWriteStream@@QAEXAAVCDictionaryStore@@VTUid@@@Z @73 NONAME
	?AssignL@TCachePagePool@@UAE?AVTPageRef@@PBXW4TPageReclamation@@@Z @74 NONAME
	?AssignLC@RDictionaryWriteStream@@QAEXAAVCDictionaryStore@@VTUid@@@Z @75 NONAME
	?At@CStoreMap@@QBE?AVTStreamId@@V?$TSwizzleC@X@@@Z @76 NONAME
	?At@CStreamDictionary@@QBE?AVTStreamId@@VTUid@@@Z @77 NONAME
	?Attach@RFileBuf@@QAEXAAVRFile@@H@Z @78 NONAME
	?Attach@RFileReadStream@@QAEXAAVRFile@@H@Z @79 NONAME
	?Attach@RFileWriteStream@@QAEXAAVRFile@@H@Z @80 NONAME
	?DoRevertL@CSecureStore@@MAEXXZ @ 81 NONAME ; void CSecureStore::DoRevertL(void)
	?DoWriteL@CSecureStore@@MAEPAVMStreamBuf@@VTStreamId@@@Z @ 82 NONAME ; class MStreamBuf * CSecureStore::DoWriteL(class TStreamId)
	?Close@RPermanentFileStoreIter@@QAEXXZ @ 83 NONAME ; public: void __thiscall RPermanentFileStoreIter::Close(void)
	?NextL@RPermanentFileStoreIter@@QAE?AVTStreamId@@XZ @ 84 NONAME ; public: class TStreamId  __thiscall RPermanentFileStoreIter::NextL(void)
	?Avail@TStreamBuf@@IBEHH@Z @85 NONAME
	?Begin@CStoreMap@@QBEPBUTEntry@1@XZ @86 NONAME
	?Between@TBtreeKey@@UBEXPBX0AAV?$TBuf8@$0PP@@@@Z @87 NONAME
	?BindL@CStoreMap@@QAEXV?$TSwizzleC@X@@VTStreamId@@@Z @88 NONAME
	?Capacity@TSecureFilter@@MAEHH@Z @89 NONAME
	?CompleteL@TDecryptFilter@@EAEXAAVTDes8@@ABVTDesC8@@@Z @90 NONAME
	?ChangedL@CFileStore@@IAEXXZ @91 NONAME
	?ChildNode@TBtreeInlineIndexOrg@@UBE?AVTPageRef@@PBXH@Z @92 NONAME
	?Clear@TBtreeToken@@IAEXXZ @93 NONAME
	?Clear@TPagedSetToken@@IAEXXZ @94 NONAME
	?ClearL@TBtree@@QAEXXZ @95 NONAME
	?ClearL@TPagedSetBase@@QAEXXZ @96 NONAME
	?Close@MStreamBuf@@QAEXXZ @97 NONAME
	?Close@RFileBuf@@QAEXXZ @98 NONAME
	?Close@RFilePagePool@@QAEXXZ @99 NONAME
	?Close@RStorePagePool@@QAEXXZ @100 NONAME
	?Close@RWriteStream@@QAEXXZ @101 NONAME
	?Commit@CDictionaryStore@@QAEHXZ @102 NONAME
	?Commit@CStreamStore@@QAEHXZ @103 NONAME
	?CommitL@CDictionaryStore@@QAEXXZ @104 NONAME
	?CommitL@RWriteStream@@QAEXXZ @105 NONAME
	?CompactL@CStreamStore@@QAEHXZ @106 NONAME
	?CompactL@RStoreReclaim@@QAEXAAVCStreamStore@@AAH@Z @107 NONAME
	?CompactLC@RStoreReclaim@@QAEXAAVCStreamStore@@AAH@Z @108 NONAME
	?Compare@TBtreeKey@@UBEHPBX0@Z @109 NONAME
	?Concatenate@TBtreeInlineIndexOrg@@UBEXPAXPBXABVTDesC8@@@Z @110 NONAME
	?Concatenate@TBtreeInlineLeafOrg@@UBEXPAXPBX@Z @111 NONAME
	?Connect@TBtree@@QAEXPAVMPagePool@@PBVMBtreeKey@@PBVMBtreeLeafOrg@@PBVMBtreeIndexOrg@@@Z @112 NONAME
	?Connect@TBtreeFixBase@@QAEXPAVMPagePool@@PBVMBtreeKey@@@Z @113 NONAME
	?Connect@TPagedSetBase@@QAEXPAVMPagePool@@@Z @114 NONAME
	?ConstructL@CDictionaryStore@@IAEXXZ @115 NONAME
	?ConstructL@CEmbeddedStore@@QAEXAAVRWriteStream@@@Z @116 NONAME
	?ConstructL@CPageCache@@QAEXH@Z @117 NONAME
	?ContainsL@TPagedSetBase@@QBEHPBX@Z @118 NONAME
	?Create@RFileBuf@@QAEHAAVRFs@@ABVTDesC16@@I@Z @119 NONAME
	?Create@RFileWriteStream@@QAEHAAVRFs@@ABVTDesC16@@I@Z @120 NONAME
	?Create@RStorePagePool@@QAEXAAVCStreamStore@@@Z @121 NONAME
	?CreateL@CFileStore@@KAPAV1@AAVRFs@@ABVTDesC16@@IP6APAV1@AAVRFile@@@Z@Z @122 NONAME
	?CreateL@RStoreWriteStream@@QAE?AVTStreamId@@AAVCStreamStore@@@Z @123 NONAME
	?CreateLC@CFileStore@@KAPAV1@AAVRFs@@ABVTDesC16@@IP6APAV1@AAVRFile@@@Z@Z @124 NONAME
	?CreateLC@RStoreWriteStream@@QAE?AVTStreamId@@AAVCStreamStore@@@Z @125 NONAME
	?Delete@CStreamStore@@QAEXVTStreamId@@@Z @126 NONAME
	?Delete@MPagePool@@QAEXVTPageRef@@@Z @127 NONAME
	?Delete@TBtreeInlineIndexOrg@@UBEHPAXH@Z @128 NONAME
	?Delete@TBtreeInlineLeafOrg@@UBEHPAXH@Z @129 NONAME
	?DeleteAtL@TBtree@@QAEXAAVTBtreePos@@@Z @130 NONAME
	?DeleteL@CStreamStore@@QAEXVTStreamId@@@Z @131 NONAME
	?DeleteL@MPagePool@@QAEXVTPageRef@@@Z @132 NONAME
	?DeleteL@TBtree@@QAEHPBX@Z @133 NONAME
	?DeleteL@TPagedSetBase@@QAEXPBX@Z @134 NONAME
	?Destruct@CFileStore@@IAEXXZ @135 NONAME
	?DirectLC@FileStoreFactory@@SAPAVCFileStore@@AAVRFileBuf@@ABVTUidType@@@Z @136 NONAME
	?DoCommitL@CEmbeddedStore@@EAEXXZ @137 NONAME
	?DoCommitL@CFileStore@@MAEXXZ @138 NONAME
	?DoCommitL@CPermanentFileStore@@EAEXXZ @139 NONAME
	?DoCommitL@CStreamStore@@EAEXXZ @140 NONAME
	?DoCompactL@CPermanentFileStore@@EAEPAVMIncrementalCollector@@XZ @141 NONAME
	?DoCompactL@CStreamStore@@EAEPAVMIncrementalCollector@@XZ @142 NONAME
	?DoCreateL@CBufStore@@MAEPAVMStreamBuf@@AAVTStreamId@@@Z @143 NONAME
	?DoCreateL@CDirectFileStore@@MAEPAVMStreamBuf@@AAVTStreamId@@@Z @144 NONAME
	?DoCreateL@CEmbeddedStore@@MAEPAVMStreamBuf@@AAVTStreamId@@@Z @145 NONAME
	?DoCreateL@CPermanentFileStore@@MAEPAVMStreamBuf@@AAVTStreamId@@@Z @146 NONAME
	?DoCreateL@CSecureStore@@MAEPAVMStreamBuf@@AAVTStreamId@@@Z @147 NONAME
	?DoDeleteL@CBufStore@@MAEXVTStreamId@@@Z @148 NONAME
	?DoDeleteL@CMemPagePool@@MAEXVTPageRef@@@Z @149 NONAME
	?DoDeleteL@CPermanentFileStore@@EAEXVTStreamId@@@Z @150 NONAME
	?DoDeleteL@CStreamStore@@EAEXVTStreamId@@@Z @151 NONAME
	?DoDeleteL@RStorePagePool@@MAEXVTPageRef@@@Z @152 NONAME
	?DoDeleteL@TCachePagePool@@MAEXVTPageRef@@@Z @153 NONAME
	?DoExtendL@CBufStore@@MAE?AVTStreamId@@XZ @154 NONAME
	?DoExtendL@CPermanentFileStore@@EAE?AVTStreamId@@XZ @155 NONAME
	?DoExtendL@CStreamStore@@EAE?AVTStreamId@@XZ @156 NONAME
	?DoExternalizeAllL@@YAXABVCArrayFixBase@@AAVRWriteStream@@V?$TExternalizer@X@@@Z @157 NONAME
	?DoExternalizeL@TSwizzleCBase@@IBEXAAVRWriteStream@@V?$TExternalizer@X@@@Z @158 NONAME
	?DoInternalizeAllL@@YAXAAVCArrayFixBase@@AAVRReadStream@@V?$TInternalizer@X@@@Z @159 NONAME
	?DoNewL@CDirectFileStore@@CAPAVCFileStore@@AAVRFile@@@Z @160 NONAME
	?DoNewL@CPermanentFileStore@@CAPAVCFileStore@@AAVRFile@@@Z @161 NONAME
	?DoNextL@MIncrementalCollector@@EAEXAAV?$TPckgBuf@H@@AAVTRequestStatus@@0@Z @162 NONAME
	?DoReadL@CBufStore@@MBEPAVMStreamBuf@@VTStreamId@@@Z @163 NONAME
	?DoReadL@CDirectFileStore@@MBEPAVMStreamBuf@@VTStreamId@@@Z @164 NONAME
	?DoReadL@CEmbeddedStore@@MBEPAVMStreamBuf@@VTStreamId@@@Z @165 NONAME
	?DoReadL@CPermanentFileStore@@MBEPAVMStreamBuf@@VTStreamId@@@Z @166 NONAME
	?DoReadL@CSecureStore@@MBEPAVMStreamBuf@@VTStreamId@@@Z @167 NONAME
	?DoReadL@MStreamBuf@@EAE?AVTStreamTransfer@@AAVMStreamInput@@V2@@Z @168 NONAME
	?DoReadL@MStreamBuf@@EAEHAAVTDes8@@HAAVTRequestStatus@@@Z @169 NONAME
	?DoReadL@MStreamBuf@@EAEHPAXH@Z @170 NONAME
	?DoReadL@RFileBuf@@MAEHAAVTDes8@@HAAVTRequestStatus@@@Z @171 NONAME
	?DoReadL@RFileBuf@@MAEHPAXH@Z @172 NONAME
	?DoReadL@RShareBuf@@MAE?AVTStreamTransfer@@AAVMStreamInput@@V2@@Z @173 NONAME
	?DoReadL@RShareBuf@@MAEHAAVTDes8@@HAAVTRequestStatus@@@Z @174 NONAME
	?DoReadL@RShareBuf@@MAEHPAXH@Z @175 NONAME
	?DoReadL@TStreamBuf@@MAE?AVTStreamTransfer@@AAVMStreamInput@@V2@@Z @176 NONAME
	?DoReadL@TStreamBuf@@MAEHPAXH@Z @177 NONAME
	?DoReadL@TStreamExchange@@AAE?AVTStreamTransfer@@AAVMStreamInput@@V2@AAVTStreamMark@@@Z @178 NONAME
	?DoReadL@TStreamExchange@@AAEHAAVTDes8@@HAAVTRequestStatus@@AAVTStreamMark@@@Z @179 NONAME
	?DoReadL@TStreamExchange@@AAEHPAXHAAVTStreamMark@@@Z @180 NONAME
	?DoReadL@TStreamFilter@@MAEHPAXH@Z @181 NONAME
	?DoReclaimL@CPermanentFileStore@@EAEPAVMIncrementalCollector@@XZ @182 NONAME
	?DoReclaimL@CStreamStore@@EAEPAVMIncrementalCollector@@XZ @183 NONAME
	?DoRelease@MIncrementalCollector@@EAEXXZ @184 NONAME
	?DoRelease@MStreamBuf@@EAEXXZ @185 NONAME
	?DoRelease@RFileBuf@@MAEXXZ @186 NONAME
	?DoRelease@RShareBuf@@MAEXXZ @187 NONAME
	?DoRelease@TDecryptFilter@@MAEXXZ @188 NONAME
	?DoRelease@TEncryptFilter@@MAEXXZ @189 NONAME
	?DoRelease@TStreamFilter@@MAEXXZ @190 NONAME
	?DoReplaceL@CBufStore@@MAEPAVMStreamBuf@@VTStreamId@@@Z @191 NONAME
	?DoReplaceL@CPermanentFileStore@@MAEPAVMStreamBuf@@VTStreamId@@@Z @192 NONAME
	?DoReplaceL@CStreamStore@@EAEPAVMStreamBuf@@VTStreamId@@@Z @193 NONAME
	?DoRevertL@CFileStore@@MAEXXZ @194 NONAME
	?DoRevertL@CPermanentFileStore@@EAEXXZ @195 NONAME
	?DoRevertL@CStreamStore@@EAEXXZ @196 NONAME
	?DoSeekL@MStreamBuf@@EAE?AVTStreamPos@@HW4TStreamLocation@@H@Z @197 NONAME
	?DoSeekL@RFileBuf@@MAE?AVTStreamPos@@HW4TStreamLocation@@H@Z @198 NONAME
	?DoSeekL@RShareBuf@@MAE?AVTStreamPos@@HW4TStreamLocation@@H@Z @199 NONAME
	?DoSeekL@TBufBuf@@MAE?AVTStreamPos@@HW4TStreamLocation@@H@Z @200 NONAME
	?DoSeekL@TDesBuf@@MAE?AVTStreamPos@@HW4TStreamLocation@@H@Z @201 NONAME
	?DoSeekL@TMemBuf@@MAE?AVTStreamPos@@HW4TStreamLocation@@H@Z @202 NONAME
	?DoSeekL@TStreamExchange@@AAE?AVTStreamPos@@AAVTStreamMark@@W4TStreamLocation@@H@Z @203 NONAME
	?DoSetRootL@CDirectFileStore@@EAEXVTStreamId@@@Z @204 NONAME
	?DoSetRootL@CEmbeddedStore@@EAEXVTStreamId@@@Z @205 NONAME
	?DoSetRootL@CPermanentFileStore@@EAEXVTStreamId@@@Z @206 NONAME
	?DoSetRootL@CPersistentStore@@EAEXVTStreamId@@@Z @207 NONAME
	?DoSynchL@MStreamBuf@@EAEXXZ @208 NONAME
	?DoSynchL@RFileBuf@@MAEXXZ @209 NONAME
	?DoSynchL@TBufBuf@@MAEXXZ @210 NONAME
	?CompleteL@TEncryptFilter@@EAEXAAVTDes8@@ABVTDesC8@@@Z @211 NONAME
	?DoSynchL@TDesBuf@@MAEXXZ @212 NONAME
	?CryptL@TDecryptFilter@@EAEHAAVTDes8@@ABVTDesC8@@@Z @213 NONAME
	?DoSynchL@TStreamFilter@@MAEXXZ @214 NONAME
	?DoWriteL@CBufStore@@MAEPAVMStreamBuf@@VTStreamId@@@Z @215 NONAME
	?DoWriteL@CPermanentFileStore@@MAEPAVMStreamBuf@@VTStreamId@@@Z @216 NONAME
	?DoWriteL@CStreamStore@@EAEPAVMStreamBuf@@VTStreamId@@@Z @217 NONAME
	?DoWriteL@MStreamBuf@@EAE?AVTStreamTransfer@@AAVMStreamOutput@@V2@@Z @218 NONAME
	?DoWriteL@MStreamBuf@@EAEHABVTDesC8@@HAAVTRequestStatus@@@Z @219 NONAME
	?DoWriteL@MStreamBuf@@EAEXPBXH@Z @220 NONAME
	?DoWriteL@RFileBuf@@MAEHABVTDesC8@@HAAVTRequestStatus@@@Z @221 NONAME
	?DoWriteL@RFileBuf@@MAEXPBXH@Z @222 NONAME
	?DoWriteL@RShareBuf@@MAE?AVTStreamTransfer@@AAVMStreamOutput@@V2@@Z @223 NONAME
	?DoWriteL@RShareBuf@@MAEHABVTDesC8@@HAAVTRequestStatus@@@Z @224 NONAME
	?DoWriteL@RShareBuf@@MAEXPBXH@Z @225 NONAME
	?DoWriteL@TBufBuf@@MAEXPBXH@Z @226 NONAME
	?DoWriteL@TStreamBuf@@MAE?AVTStreamTransfer@@AAVMStreamOutput@@V2@@Z @227 NONAME
	?DoWriteL@TStreamBuf@@MAEXPBXH@Z @228 NONAME
	?DoWriteL@TStreamExchange@@AAE?AVTStreamTransfer@@AAVMStreamOutput@@V2@AAVTStreamMark@@@Z @229 NONAME
	?DoWriteL@TStreamExchange@@AAEHABVTDesC8@@HAAVTRequestStatus@@AAVTStreamMark@@@Z @230 NONAME
	?DoWriteL@TStreamExchange@@AAEXPBXHAAVTStreamMark@@@Z @231 NONAME
	?DoWriteL@TStreamFilter@@MAEXPBXH@Z @232 NONAME
	?Drop@TStreamExchange@@AAEXABVTStreamMark@@@Z @233 NONAME
	?EmitL@TStreamFilter@@IAEXPBXH@Z @234 NONAME
	?End@CStoreMap@@QBEPBUTEntry@1@XZ @235 NONAME
	?End@TStreamBuf@@IBEPAEH@Z @236 NONAME
	?Entry@TBtreeInlineIndexOrg@@UBE?AVTPtrC8@@PBXH@Z @237 NONAME
	?Entry@TBtreeInlineLeafOrg@@UBE?AVTPtrC8@@PBXH@Z @238 NONAME
	?EntryPtr@TBtreeInlineIndexOrg@@UBEPBXPBXH@Z @239 NONAME
	?EntryPtr@TBtreeInlineLeafOrg@@UBEPBXPBXH@Z @240 NONAME
	?ExtendL@RFilePagePool@@MAE?AVTPageRef@@PBXW4TPageReclamation@@@Z @241 NONAME
	?ExtendL@RStorePagePool@@MAE?AVTPageRef@@PBXW4TPageReclamation@@@Z @242 NONAME
	?ExternalizeL@@YAXABVCBufBase@@AAVRWriteStream@@@Z @243 NONAME
	?ExternalizeL@@YAXABVTCheckedUid@@AAVRWriteStream@@@Z @244 NONAME
	?ExternalizeL@@YAXABVTDesC16@@AAVRWriteStream@@@Z @245 NONAME
	?ExternalizeL@@YAXABVTDesC8@@AAVRWriteStream@@@Z @246 NONAME
	?ExternalizeL@@YAXABVTRect@@AAVRWriteStream@@@Z @247 NONAME
	?ExternalizeL@@YAX_JAAVRWriteStream@@@Z @248 NONAME
	?ExternalizeL@@YAXVTPoint@@AAVRWriteStream@@@Z @249 NONAME
	?ExternalizeL@@YAXVTSize@@AAVRWriteStream@@@Z @250 NONAME
	?ExternalizeL@CDirectFileStore@@EBEXAAVRWriteStream@@@Z @251 NONAME
	?ExternalizeL@CPermanentFileStore@@EBEXAAVRWriteStream@@@Z @252 NONAME
	?ExternalizeL@CStreamDictionary@@QBEXAAVRWriteStream@@@Z @253 NONAME
	?ExternalizeL@TBtreeToken@@QBEXAAVRWriteStream@@@Z @254 NONAME
	?ExternalizeL@TCardinality@@QBEXAAVRWriteStream@@@Z @255 NONAME
	?ExternalizeL@TPagedSetToken@@QBEXAAVRWriteStream@@@Z @256 NONAME
	?ExternalizeL@TStorePagePoolToken@@QBEXAAVRWriteStream@@@Z @257 NONAME
	?ExtractAtL@TBtree@@QBEXABVTBtreeMark@@PAXH@Z @258 NONAME
	?ExtractAtL@TBtree@@QBEXABVTBtreePos@@PAXH@Z @259 NONAME
	?ExtractAtL@TBtreeFixBase@@QBEXABVTBtreeMark@@PAX@Z @260 NONAME
	?ExtractAtL@TBtreeFixBase@@QBEXABVTBtreePos@@PAX@Z @261 NONAME
	?ExtractAtL@TPagedSetBiIterBase@@QBEXPAX@Z @262 NONAME
	?ExtractAtL@TPagedSetIterBase@@QBEXPAX@Z @263 NONAME
	?CryptL@TEncryptFilter@@EAEHAAVTDes8@@ABVTDesC8@@@Z @264 NONAME
	?DoSynchL@TSecureFilter@@MAEXXZ @265 NONAME
	?FindL@TBtree@@QBEHAAVTBtreePos@@PBXW4TFind@1@@Z @266 NONAME
	?FirstL@TBtree@@QBEHAAVTBtreePos@@@Z @267 NONAME
	?FirstL@TPagedSetBiIterBase@@QAEHXZ @268 NONAME
	?Flush@RFilePagePool@@QAEHXZ @269 NONAME
	?Flush@TCachePagePool@@QAEHXZ @270 NONAME
	?FlushL@RFilePagePool@@QAEXXZ @271 NONAME
	?FlushL@TCachePagePool@@QAEXXZ @272 NONAME
	?Forget@CStoreMap@@QAEXVTStreamId@@@Z @273 NONAME
	?FromL@CEmbeddedStore@@SAPAV1@AAVRReadStream@@@Z @274 NONAME
	?FromL@CFileStore@@KAPAV1@AAVRFile@@P6APAV1@AAVRFileBuf@@ABVTUidType@@@Z@Z @275 NONAME
	?FromL@CFileStore@@SAPAV1@AAVRFile@@@Z @276 NONAME
	?FromL@CFileStore@@SAPAV1@AAVRFile@@QBQ6APAV1@AAVRFileBuf@@ABVTUidType@@@Z@Z @277 NONAME
	?FromLC@CEmbeddedStore@@SAPAV1@AAVRReadStream@@@Z @278 NONAME
	?FromLC@CFileStore@@KAPAV1@AAVRFile@@P6APAV1@AAVRFileBuf@@ABVTUidType@@@Z@Z @279 NONAME
	?FromLC@CFileStore@@SAPAV1@AAVRFile@@@Z @280 NONAME
	?FromLC@CFileStore@@SAPAV1@AAVRFile@@QBQ6APAV1@AAVRFileBuf@@ABVTUidType@@@Z@Z @281 NONAME
	?GetL@TStreamExchange@@AAEXAAVTStreamMark@@@Z @282 NONAME
	?Host@TStreamExchange@@QAEPAVMStreamBuf@@XZ @283 NONAME
	?HostL@TStreamExchange@@QAEPAVMStreamBuf@@XZ @284 NONAME
	?Init@MBtreeNodeOrg@@UBEXPAX@Z @285 NONAME
	?Insert@RBufWriteStream@@QAEXAAVCBufBase@@H@Z @286 NONAME
	?Insert@TBtreeInlineIndexOrg@@UBEHPAXHABVTDesC8@@VTPageRef@@@Z @287 NONAME
	?Insert@TBtreeInlineLeafOrg@@UBEHPAXHABVTDesC8@@@Z @288 NONAME
	?InsertAllowDuplicatesL@TPagedSetBase@@IAEXPBX@Z @289 NONAME
	?InsertL@TBtree@@QAEHAAVTBtreePos@@PBXHW4TAllowDuplicates@@@Z @290 NONAME
	?InsertL@TBtreeFixBase@@QAEHAAVTBtreePos@@PBXW4TAllowDuplicates@@@Z @291 NONAME
	?InsertL@TPagedSetBase@@QAEXPBX@Z @292 NONAME
	?InsertOverflow@MBtreeIndexOrg@@UBEHPAX0HHABVTDesC8@@VTPageRef@@1AAV?$TBuf8@$0PP@@@@Z @293 NONAME
	?InsertOverflow@MBtreeLeafOrg@@UBEHPAX0HHABVTDesC8@@@Z @294 NONAME
	?InsertOverflow@TBtreeInlineIndexOrg@@UBEHPAX0HHABVTDesC8@@VTPageRef@@1AAV?$TBuf8@$0PP@@@@Z @295 NONAME
	?InsertOverflow@TBtreeInlineLeafOrg@@UBEHPAX0HHABVTDesC8@@@Z @296 NONAME
	?InsertSplit@TBtreeInlineIndexOrg@@UBEXPAX0HABVTDesC8@@VTPageRef@@AAV?$TBuf8@$0PP@@@@Z @297 NONAME
	?InsertSplit@TBtreeInlineLeafOrg@@UBEXPAX0HABVTDesC8@@@Z @298 NONAME
	?InternalizeL@@YAXAAVCBufBase@@AAVRReadStream@@@Z @299 NONAME
	?InternalizeL@@YAXAAVTCheckedUid@@AAVRReadStream@@@Z @300 NONAME
	?InternalizeL@@YAXAAVTDes16@@AAVRReadStream@@@Z @301 NONAME
	?InternalizeL@@YAXAAVTDes8@@AAVRReadStream@@@Z @302 NONAME
	?InternalizeL@@YAXAA_JAAVRReadStream@@@Z @303 NONAME
	?InternalizeL@@YAXAAVTPoint@@AAVRReadStream@@@Z @304 NONAME
	?InternalizeL@@YAXAAVTRect@@AAVRReadStream@@@Z @305 NONAME
	?InternalizeL@@YAXAAVTSize@@AAVRReadStream@@@Z @306 NONAME
	?InternalizeL@CDirectFileStore@@EAEXAAVRReadStream@@@Z @307 NONAME
	?InternalizeL@CPermanentFileStore@@EAEXAAVRReadStream@@@Z @308 NONAME
	?InternalizeL@CStreamDictionary@@QAEXAAVRReadStream@@@Z @309 NONAME
	?InternalizeL@TBtreeToken@@QAEXAAVRReadStream@@@Z @310 NONAME
	?InternalizeL@TCardinality@@QAEXAAVRReadStream@@@Z @311 NONAME
	?InternalizeL@TPagedSetToken@@QAEXAAVRReadStream@@@Z @312 NONAME
	?InternalizeL@TStorePagePoolToken@@QAEXAAVRReadStream@@@Z @313 NONAME
	?InternalizeL@TStreamId@@QAEXAAVRReadStream@@@Z @314 NONAME
	?InternalizeL@TSwizzleCBase@@QAEXAAVRReadStream@@@Z @315 NONAME
	?IsIdRep@TSwizzleCBase@@CAHPBX@Z @316 NONAME
	?IsPresentL@CDictionaryStore@@QBEHVTUid@@@Z @317 NONAME
	?IsPtrRep@TSwizzleCBase@@CAHPBX@Z @318 NONAME
	?Key@MBtreeKey@@UBEPBXPBX@Z @319 NONAME
	?Key@TBtreeKey@@UBEPBXPBX@Z @320 NONAME
	?Label@CStoreMap@@QBE?AV?$TSwizzleC@X@@VTStreamId@@@Z @321 NONAME
	?LastEntry@TBtreeInlineIndexOrg@@UBEHPBX@Z @322 NONAME
	?LastEntry@TBtreeInlineLeafOrg@@UBEHPBX@Z @323 NONAME
	?LastL@TBtree@@QBEHAAVTBtreePos@@@Z @324 NONAME
	?LastL@TPagedSetBiIterBase@@QAEHXZ @325 NONAME
	?Layout@CDirectFileStore@@UBE?AVTUid@@XZ @326 NONAME
	?Layout@CPermanentFileStore@@UBE?AVTUid@@XZ @327 NONAME
	?LinkNode@TBtreeInlineLeafOrg@@UBE?AVTPageRef@@PBX@Z @328 NONAME
	?LockL@CMemPagePool@@UAEPAXVTPageRef@@@Z @329 NONAME
	?LockL@TCachePagePool@@UAEPAXVTPageRef@@@Z @330 NONAME
	?MakeRoot@TBtreeInlineIndexOrg@@UBEXPAXVTPageRef@@@Z @331 NONAME
	?MarshalL@CEmbeddedStore@@QAEXAAVRReadStream@@@Z @332 NONAME
	?MarshalL@CFileStore@@QAEXXZ @333 NONAME
	?MarshalL@CPermanentFileStore@@QAEXXZ @334 NONAME
	?NewL@CBufStore@@SAPAV1@H@Z @335 NONAME
	?NewL@CEmbeddedStore@@SAPAV1@AAVRWriteStream@@@Z @336 NONAME
	?NewL@CFileStore@@KAPAV1@AAVRFile@@P6APAV1@0@Z@Z @337 NONAME
	?NewL@CMemPagePool@@SAPAV1@XZ @338 NONAME
	?NewL@CPageCache@@SAPAV1@H@Z @339 NONAME
	?DoReplaceL@CSecureStore@@MAEPAVMStreamBuf@@VTStreamId@@@Z @ 340 NONAME ; class MStreamBuf * CSecureStore::DoReplaceL(class TStreamId)
	?NewL@CStoreMap@@SAPAV1@AAVCStreamStore@@@Z @341 NONAME
	?NewL@CStreamDictionary@@SAPAV1@XZ @342 NONAME
	?NewL@HBufC16@@SAPAV1@AAVRReadStream@@H@Z @343 NONAME
	?NewL@HBufC8@@SAPAV1@AAVRReadStream@@H@Z @344 NONAME
	?NewLC@CBufStore@@SAPAV1@H@Z @345 NONAME
	?NewLC@CEmbeddedStore@@SAPAV1@AAVRWriteStream@@@Z @346 NONAME
	?NewLC@CFileStore@@KAPAV1@AAVRFile@@P6APAV1@0@Z@Z @347 NONAME
	?NewLC@CMemPagePool@@SAPAV1@XZ @348 NONAME
	?NewLC@CPageCache@@SAPAV1@H@Z @349 NONAME
	?DoExtendL@CSecureStore@@MAE?AVTStreamId@@XZ @ 350 NONAME ; class TStreamId CSecureStore::DoExtendL(void)
	?NewLC@CStoreMap@@SAPAV1@AAVCStreamStore@@@Z @351 NONAME
	?NewLC@CStreamDictionary@@SAPAV1@XZ @352 NONAME
	?NewLC@HBufC16@@SAPAV1@AAVRReadStream@@H@Z @353 NONAME
	?NewLC@HBufC8@@SAPAV1@AAVRReadStream@@H@Z @354 NONAME
	?Next@RStoreReclaim@@QAEHAAH@Z @355 NONAME
	?Next@RStoreReclaim@@QAEXAAV?$TPckgBuf@H@@AAVTRequestStatus@@@Z @356 NONAME
	?NextL@RStoreReclaim@@QAEXAAH@Z @357 NONAME
	?NextL@RStoreReclaim@@QAEXAAV?$TPckgBuf@H@@AAVTRequestStatus@@@Z @358 NONAME
	?NextL@TBtree@@QBEHAAVTBtreeMark@@@Z @359 NONAME
	?NextL@TBtree@@QBEHAAVTBtreePos@@@Z @360 NONAME
	?NextL@TPagedSetBiIterBase@@QAEHXZ @361 NONAME
	?NextL@TPagedSetIterBase@@QAEHXZ @362 NONAME
	?Open@RBufReadStream@@QAEXABVCBufBase@@H@Z @363 NONAME
	?Open@RBufWriteStream@@QAEXAAVCBufBase@@H@Z @364 NONAME
	?Open@RDesReadStream@@QAEXABVTDesC8@@@Z @365 NONAME
	?Open@RDesWriteStream@@QAEXAAVTDes8@@@Z @366 NONAME
	?Open@RFileBuf@@QAEHAAVRFs@@ABVTDesC16@@I@Z @367 NONAME
	?Open@RFileReadStream@@QAEHAAVRFs@@ABVTDesC16@@I@Z @368 NONAME
	?Open@RFileWriteStream@@QAEHAAVRFs@@ABVTDesC16@@I@Z @369 NONAME
	?Open@RMemReadStream@@QAEXPBXH@Z @370 NONAME
	?Open@RMemWriteStream@@QAEXPAXH@Z @371 NONAME
	?Open@RShareBuf@@QAEXAAVTStreamExchange@@VTStreamPos@@H@Z @372 NONAME
	?Open@RShareReadStream@@QAEXAAVTStreamExchange@@VTStreamPos@@@Z @373 NONAME
	?Open@RShareWriteStream@@QAEXAAVTStreamExchange@@VTStreamPos@@@Z @374 NONAME
	?Open@RStorePagePool@@QAEXAAVCStreamStore@@ABVTStorePagePoolToken@@@Z @375 NONAME
	?OpenL@CDictionaryFileStore@@SAPAV1@AAVRFs@@ABVTDesC16@@VTUid@@@Z @376 NONAME
	?OpenL@CFileStore@@KAPAV1@AAVRFs@@ABVTDesC16@@IP6APAV1@AAVRFileBuf@@ABVTUidType@@@Z@Z @377 NONAME
	?OpenL@CFileStore@@SAPAV1@AAVRFs@@ABVTDesC16@@I@Z @378 NONAME
	?OpenL@CFileStore@@SAPAV1@AAVRFs@@ABVTDesC16@@IQBQ6APAV1@AAVRFileBuf@@ABVTUidType@@@Z@Z @379 NONAME
	?DoDeleteL@CSecureStore@@MAEXVTStreamId@@@Z @ 380 NONAME ; void CSecureStore::DoDeleteL(class TStreamId)
	?OpenL@RDictionaryReadStream@@QAEXABVCDictionaryStore@@VTUid@@@Z @381 NONAME
	?DoCommitL@CSecureStore@@MAEXXZ @ 382 NONAME ; void CSecureStore::DoCommitL(void)
	?OpenL@RStoreReadStream@@QAEXABVCStreamStore@@VTStreamId@@@Z @383 NONAME
	?OpenL@RStoreReclaim@@QAEXAAVCStreamStore@@AAH@Z @384 NONAME
	?OpenL@RStoreWriteStream@@QAEXAAVCStreamStore@@VTStreamId@@@Z @385 NONAME
	?OpenLC@CDictionaryFileStore@@SAPAV1@AAVRFs@@ABVTDesC16@@VTUid@@@Z @386 NONAME
	?OpenLC@CFileStore@@KAPAV1@AAVRFs@@ABVTDesC16@@IP6APAV1@AAVRFileBuf@@ABVTUidType@@@Z@Z @387 NONAME
	?OpenLC@CFileStore@@SAPAV1@AAVRFs@@ABVTDesC16@@I@Z @388 NONAME
	?OpenLC@CFileStore@@SAPAV1@AAVRFs@@ABVTDesC16@@IQBQ6APAV1@AAVRFileBuf@@ABVTUidType@@@Z@Z @389 NONAME
	?SetL@TEncryptFilter@@QAEXPAVMStreamBuf@@PAVCPBEncryptor@@H@Z @ 390 NONAME ; void TEncryptFilter::SetL(class MStreamBuf *, class CPBEncryptor *, int)
	?OpenLC@RDictionaryReadStream@@QAEXABVCDictionaryStore@@VTUid@@@Z @391 NONAME
	?SetL@TDecryptFilter@@QAEXPAVMStreamBuf@@PAVCPBDecryptor@@H@Z @ 392 NONAME ; void TDecryptFilter::SetL(class MStreamBuf *, class CPBDecryptor *, int)
	?OpenLC@RStoreReadStream@@QAEXABVCStreamStore@@VTStreamId@@@Z @393 NONAME
	?OpenLC@RStoreReclaim@@QAEXAAVCStreamStore@@AAH@Z @394 NONAME
	?OpenLC@RStoreWriteStream@@QAEXAAVCStreamStore@@VTStreamId@@@Z @395 NONAME
	?OverflowL@RFileBuf@@MAEXXZ @396 NONAME
	?OverflowL@TBufBuf@@MAEXXZ @397 NONAME
	?OverflowL@TDesBuf@@MAEXXZ @398 NONAME
	?OverflowL@TMemBuf@@MAEXXZ @399 NONAME
	?PermanentLC@FileStoreFactory@@SAPAVCFileStore@@AAVRFileBuf@@ABVTUidType@@@Z @400 NONAME
	?PreviousL@TBtree@@QBEHAAVTBtreePos@@@Z @401 NONAME
	?PreviousL@TPagedSetBiIterBase@@QAEHXZ @402 NONAME
	?Ptr@TStreamBuf@@IBEPAEH@Z @403 NONAME
	?Purge@TCachePagePool@@QAEXXZ @404 NONAME
	?PushL@MPagePool@@QAEXXZ @405 NONAME
	?PushL@MStreamBuf@@QAEXXZ @406 NONAME
	?PushL@RReadStream@@QAEXXZ @407 NONAME
	?PushL@RWriteStream@@QAEXXZ @408 NONAME
	?Read@MStreamBuf@@QAEHAAVTDes8@@AAVTRequestStatus@@@Z @409 NONAME
	?Read@MStreamBuf@@QAEHAAVTDes8@@HAAVTRequestStatus@@@Z @410 NONAME
	?ReadInt16L@RReadStream@@QAEFXZ @411 NONAME
	?ReadInt32L@RReadStream@@QAEJXZ @412 NONAME
	?ReadInt8L@RReadStream@@QAECXZ @413 NONAME
	?ReadL@MStreamBuf@@QAEHAAVMStreamInput@@H@Z @414 NONAME
	?ReadL@MStreamBuf@@QAEHAAVTDes8@@AAVTRequestStatus@@@Z @415 NONAME
	?ReadL@RFilePagePool@@MAEXVTPageRef@@PAX@Z @416 NONAME
	?ReadL@RReadStream@@QAEXAAVTDes16@@@Z @417 NONAME
	?ReadL@RReadStream@@QAEXAAVTDes16@@H@Z @418 NONAME
	?ReadL@RReadStream@@QAEXAAVTDes16@@VTChar@@@Z @419 NONAME
	?ReadL@RReadStream@@QAEXAAVTDes8@@@Z @420 NONAME
	?ReadL@RReadStream@@QAEXAAVTDes8@@H@Z @421 NONAME
	?ReadL@RReadStream@@QAEXAAVTDes8@@VTChar@@@Z @422 NONAME
	?ReadL@RReadStream@@QAEXH@Z @423 NONAME
	?ReadL@RReadStream@@QAEXPAEH@Z @424 NONAME
	?ReadL@RReadStream@@QAEXPAGH@Z @425 NONAME
	?ReadL@RStorePagePool@@MAEXVTPageRef@@PAX@Z @426 NONAME
	?ReadReal32L@RReadStream@@QAEMXZ @427 NONAME
	?ReadReal64L@RReadStream@@QAENXZ @428 NONAME
	?ReadUint16L@RReadStream@@QAEGXZ @429 NONAME
	?ReadUint32L@RReadStream@@QAEKXZ @430 NONAME
	?ReadUint8L@RReadStream@@QAEEXZ @431 NONAME
	?ReclaimAllL@RStorePagePool@@QAEXXZ @432 NONAME
	?ReclaimL@CStreamStore@@QAEHXZ @433 NONAME
	?ReclaimL@RStorePagePool@@QAEHXZ @434 NONAME
	?Redistribute@TBtreeInlineIndexOrg@@UBEHPAX0ABVTDesC8@@AAV?$TBuf8@$0PP@@@@Z @435 NONAME
	?Redistribute@TBtreeInlineLeafOrg@@UBEHPAX0@Z @436 NONAME
	?RefersTo@TStreamExchange@@AAEHABVTStreamMark@@@Z @437 NONAME
	?RefreshL@CFileStore@@IAEXXZ @438 NONAME
	?Release@RFilePagePool@@QAEXXZ @439 NONAME
	?Release@RReadStream@@QAEXXZ @440 NONAME
	?Release@RStoreReclaim@@QAEXXZ @441 NONAME
	?Release@RWriteStream@@QAEXXZ @442 NONAME
	?Release@TStreamExchange@@QAEXXZ @443 NONAME
	?Remove@CDictionaryStore@@QAEXVTUid@@@Z @444 NONAME
	?Remove@CStreamDictionary@@QAEXVTUid@@@Z @445 NONAME
	?RemoveL@CDictionaryStore@@QAEXVTUid@@@Z @446 NONAME
	?RepairL@TBtree@@QAEHXZ @447 NONAME
	?RepairL@TPagedSetBase@@QAEHXZ @448 NONAME
	?Replace@RFileBuf@@QAEHAAVRFs@@ABVTDesC16@@I@Z @449 NONAME
	?Replace@RFileWriteStream@@QAEHAAVRFs@@ABVTDesC16@@I@Z @450 NONAME
	?ReplaceL@CFileStore@@KAPAV1@AAVRFs@@ABVTDesC16@@IP6APAV1@AAVRFile@@@Z@Z @451 NONAME
	?ReplaceL@RStoreWriteStream@@QAEXAAVCStreamStore@@VTStreamId@@@Z @452 NONAME
	?ReplaceLC@CFileStore@@KAPAV1@AAVRFs@@ABVTDesC16@@IP6APAV1@AAVRFile@@@Z@Z @453 NONAME
	?ReplaceLC@RStoreWriteStream@@QAEXAAVCStreamStore@@VTStreamId@@@Z @454 NONAME
	?Reset@CStoreMap@@QAEXXZ @455 NONAME
	?Reset@RFileBuf@@QAEXXZ @456 NONAME
	?ResetAndDestroy@CStoreMap@@QAEXXZ @457 NONAME
	?ResetL@RStoreReclaim@@QAEXAAH@Z @458 NONAME
	?ResetL@TBtree@@QBEHAAVTBtreeMark@@@Z @459 NONAME
	?ResetL@TPagedSetIterBase@@QAEHXZ @460 NONAME
	?Revert@CDictionaryStore@@QAEXXZ @461 NONAME
	?Revert@CStreamStore@@QAEXXZ @462 NONAME
	?RevertL@CDictionaryStore@@QAEXXZ @463 NONAME
	?Search@MBtreeIndexOrg@@UBEHPBX0ABVMBtreeKey@@HAAH@Z @464 NONAME
	?Search@MBtreeLeafOrg@@UBEHPBX0ABVMBtreeKey@@HAAH@Z @465 NONAME
	?Set@TBtree@@QAEXABVTBtreeToken@@W4TBtreeMode@@@Z @466 NONAME
	?Set@TBufBuf@@QAEXAAVCBufBase@@HH@Z @467 NONAME
	?OpenLC@REncryptStream@@QAEXAAVRWriteStream@@ABVCPBEncryptionBase@@@Z @ 468 NONAME ; void REncryptStream::OpenLC(class RWriteStream &, class CPBEncryptionBase const &)
	?Set@TDesBuf@@QAEXAAVTDes8@@H@Z @469 NONAME
	?OpenLC@RDecryptStream@@QAEXAAVRReadStream@@ABVCPBEncryptionBase@@@Z @ 470 NONAME ; void RDecryptStream::OpenLC(class RReadStream &, class CPBEncryptionBase const &)
	?Set@TMemBuf@@QAEXPAE0H@Z @471 NONAME
	?Set@TPagedSetBase@@QAEXABVTPagedSetToken@@@Z @472 NONAME
	?SetBuf@TStreamBuf@@IAEXHPAE0@Z @473 NONAME
	?SetEnd@TStreamBuf@@IAEXHPAE@Z @474 NONAME
	?SetEntrySize@TBtreeInlineIndexOrg@@QAEXH@Z @475 NONAME
	?SetEntrySize@TBtreeInlineLeafOrg@@QAEXH@Z @476 NONAME
	?SetLinkNode@TBtreeInlineLeafOrg@@UBEXPAXVTPageRef@@@Z @477 NONAME
	?SetPtr@TStreamBuf@@IAEXHPAE@Z @478 NONAME
	?SetSizeL@RFileBuf@@QAEXH@Z @479 NONAME
	?SetTypeL@CFileStore@@QAEXABVTUidType@@@Z @480 NONAME
	?SizeL@TStreamExchange@@QBEHXZ @481 NONAME
	?Synch@MStreamBuf@@QAEHXZ @482 NONAME
	?SynchL@CFileStore@@IAEXXZ @483 NONAME
	?Temp@RFileBuf@@QAEHAAVRFs@@ABVTDesC16@@AAV?$TBuf@$0BAA@@@I@Z @484 NONAME
	?Temp@RFileWriteStream@@QAEHAAVRFs@@ABVTDesC16@@AAV?$TBuf@$0BAA@@@I@Z @485 NONAME
	?TempL@CFileStore@@KAPAV1@AAVRFs@@ABVTDesC16@@AAV?$TBuf@$0BAA@@@IP6APAV1@AAVRFile@@@Z@Z @486 NONAME
	?TempLC@CFileStore@@KAPAV1@AAVRFs@@ABVTDesC16@@AAV?$TBuf@$0BAA@@@IP6APAV1@AAVRFile@@@Z@Z @487 NONAME
	?Token@RStorePagePool@@QBE?AVTStorePagePoolToken@@XZ @488 NONAME
	?Token@TBtree@@QBE?AVTBtreeToken@@XZ @489 NONAME
	?Token@TPagedSetBase@@QBE?AVTPagedSetToken@@XZ @490 NONAME
	?Truncate@RBufWriteStream@@QAEXAAVCBufBase@@H@Z @491 NONAME
	?Unbind@CStoreMap@@QAEXV?$TSwizzleC@X@@@Z @492 NONAME
	?UnderflowL@RFileBuf@@MAEHH@Z @493 NONAME
	?UnderflowL@TBufBuf@@MAEHH@Z @494 NONAME
	?UnderflowL@TDesBuf@@MAEHH@Z @495 NONAME
	?UnderflowL@TMemBuf@@MAEHH@Z @496 NONAME
	?Unlock@CMemPagePool@@UAEXPBXW4TPageChange@@@Z @497 NONAME
	?Unlock@TCachePagePool@@UAEXPBXW4TPageChange@@@Z @498 NONAME
	?Update@MBtreeIndexOrg@@UBEHPAXHABVTDesC8@@@Z @499 NONAME
	?Update@TBtreeInlineIndexOrg@@UBEHPAXHABVTDesC8@@@Z @500 NONAME
	?UpdateL@CMemPagePool@@UAEXPBX@Z @501 NONAME
	?UpdateL@TCachePagePool@@UAEXPBX@Z @502 NONAME
	?Write@MStreamBuf@@QAEHABVTDesC8@@AAVTRequestStatus@@@Z @503 NONAME
	?Write@MStreamBuf@@QAEHABVTDesC8@@HAAVTRequestStatus@@@Z @504 NONAME
	?WriteInt16L@RWriteStream@@QAEXH@Z @505 NONAME
	?WriteInt32L@RWriteStream@@QAEXJ@Z @506 NONAME
	?WriteInt8L@RWriteStream@@QAEXH@Z @507 NONAME
	?WriteL@MStreamBuf@@QAEHAAVMStreamOutput@@H@Z @508 NONAME
	?WriteL@MStreamBuf@@QAEHABVTDesC8@@AAVTRequestStatus@@@Z @509 NONAME
	?WriteL@RFilePagePool@@MAEXVTPageRef@@PBXW4TPageChange@@@Z @510 NONAME
	?WriteL@RStorePagePool@@MAEXVTPageRef@@PBXW4TPageChange@@@Z @511 NONAME
	?WriteL@RWriteStream@@QAEXAAVRReadStream@@@Z @512 NONAME
	?WriteL@RWriteStream@@QAEXAAVRReadStream@@H@Z @513 NONAME
	?WriteL@RWriteStream@@QAEXABVTDesC16@@@Z @514 NONAME
	?WriteL@RWriteStream@@QAEXABVTDesC16@@H@Z @515 NONAME
	?WriteL@RWriteStream@@QAEXABVTDesC8@@@Z @516 NONAME
	?WriteL@RWriteStream@@QAEXABVTDesC8@@H@Z @517 NONAME
	?WriteL@RWriteStream@@QAEXPBEH@Z @518 NONAME
	?WriteL@RWriteStream@@QAEXPBGH@Z @519 NONAME
	?WriteReal32L@RWriteStream@@QAEXN@Z @520 NONAME
	?WriteReal64L@RWriteStream@@QAEXN@Z @521 NONAME
	?WriteRefL@RWriteStream@@AAEXVTStreamRef@@@Z @522 NONAME
	?WriteUint16L@RWriteStream@@QAEXI@Z @523 NONAME
	?WriteUint32L@RWriteStream@@QAEXK@Z @524 NONAME
	?WriteUint8L@RWriteStream@@QAEXI@Z @525 NONAME
	?FilterL@TSecureFilter@@MAEHPAXHAAPBEPBE@Z @526 NONAME
	?Detach@CEmbeddedStore@@QAEXXZ @527 NONAME
	?SystemL@CDictionaryFileStore@@SAPAV1@AAVRFs@@@Z @528 NONAME
	?SystemLC@CDictionaryFileStore@@SAPAV1@AAVRFs@@@Z @529 NONAME
	??1CStreamDictionary@@UAE@XZ @530 NONAME
	?IsNull@CStreamDictionary@@QBEHXZ @531 NONAME
	?ReadL@TStreamMark@@QAEHAAVTStreamExchange@@AAVTDes8@@AAVTRequestStatus@@@Z @532 NONAME
	?WriteL@TStreamMark@@QAEHAAVTStreamExchange@@ABVTDesC8@@AAVTRequestStatus@@@Z @533 NONAME
	?IsNullL@CDictionaryStore@@QBEHXZ @534 NONAME
	?OpenL@RDecryptStream@@QAEXAAVRReadStream@@ABVCPBEncryptionBase@@@Z @ 535 NONAME ; void RDecryptStream::OpenL(class RReadStream &, class CPBEncryptionBase const &)
	?OpenL@REncryptStream@@QAEXAAVRWriteStream@@ABVCPBEncryptionBase@@@Z @ 536 NONAME ; void REncryptStream::OpenL(class RWriteStream &, class CPBEncryptionBase const &)
	?DoDeleteL@RSecureStorePagePool@@MAEXVTPageRef@@@Z @537 NONAME
	?ExtendL@RSecureStorePagePool@@MAE?AVTPageRef@@PBXW4TPageReclamation@@@Z @538 NONAME
	?ReadL@RSecureStorePagePool@@MAEXVTPageRef@@PAX@Z @539 NONAME
	?WriteL@RSecureStorePagePool@@MAEXVTPageRef@@PBXW4TPageChange@@@Z @540 NONAME
	?__DbgChkMode@TStreamFilter@@CAXH@Z @541 NONAME
	?__DbgChkNonNegative@TStreamTransfer@@CAXH@Z @542 NONAME
	?__DbgChkPos@TStreamMark@@CAXVTStreamPos@@@Z @543 NONAME
	?__DbgChkPtr@TSwizzleCBase@@CAXPBX@Z @544 NONAME
	?__DbgChkRange@TCardinality@@CAXH@Z @545 NONAME
	?__DbgChkRange@TStreamId@@CAXK@Z @546 NONAME
	?__DbgChkRef@TSwizzleCBase@@CAXVTStreamRef@@@Z @547 NONAME
	??0TUnicodeCompressor@@QAE@XZ @548 NONAME
	??0TUnicodeExpander@@QAE@XZ @549 NONAME
	?CompressL@TUnicodeCompressor@@QAEXAAVRWriteStream@@AAVMUnicodeSource@@HHPAH2@Z @550 NONAME
	?CompressL@TUnicodeCompressor@@QAEXPAEAAVMUnicodeSource@@HHPAH2@Z @551 NONAME
	?CompressedSizeL@TUnicodeCompressor@@SAHAAVMUnicodeSource@@H@Z @552 NONAME
	?ExpandL@TUnicodeExpander@@QAEXAAVMUnicodeSink@@AAVRReadStream@@HHPAH2@Z @553 NONAME
	?ExpandL@TUnicodeExpander@@QAEXAAVMUnicodeSink@@PBEHHPAH2@Z @554 NONAME
	?ExpandedSizeL@TUnicodeExpander@@SAHAAVRReadStream@@H@Z @555 NONAME
	?ExpandedSizeL@TUnicodeExpander@@SAHPBEH@Z @556 NONAME
	?FlushL@TUnicodeCompressor@@QAEHAAVRWriteStream@@HAAH@Z @557 NONAME
	?FlushL@TUnicodeCompressor@@QAEHPAEHAAH@Z @558 NONAME
	?FlushL@TUnicodeExpander@@QAEHAAVMUnicodeSink@@HAAH@Z @559 NONAME
	??0RSecureStorePagePool@@QAE@AAVCPageCache@@ABVCPBEncryptSet@@@Z @ 560 NONAME ; RSecureStorePagePool::RSecureStorePagePool(class CPageCache &, class CPBEncryptSet const &)
	??0RSecureStorePagePool@@QAE@ABVCPBEncryptSet@@@Z @ 561 NONAME ; RSecureStorePagePool::RSecureStorePagePool(class CPBEncryptSet const &)
	?AttachL@RDecryptStream@@QAEXAAVRReadStream@@ABVCPBEncryptionBase@@@Z @ 562 NONAME ; void RDecryptStream::AttachL(class RReadStream &, class CPBEncryptionBase const &)
	?AttachL@REncryptStream@@QAEXAAVRWriteStream@@ABVCPBEncryptionBase@@@Z @ 563 NONAME ; void REncryptStream::AttachL(class RWriteStream &, class CPBEncryptionBase const &)
	?AttachLC@RDecryptStream@@QAEXAAVRReadStream@@ABVCPBEncryptionBase@@@Z @ 564 NONAME ; void RDecryptStream::AttachLC(class RReadStream &, class CPBEncryptionBase const &)
	?AttachLC@REncryptStream@@QAEXAAVRWriteStream@@ABVCPBEncryptionBase@@@Z @ 565 NONAME ; void REncryptStream::AttachLC(class RWriteStream &, class CPBEncryptionBase const &)
	?ExternalizeL@CPBAuthData@@QBEXAAVRWriteStream@@@Z @ 566 NONAME ; void CPBAuthData::ExternalizeL(class RWriteStream &) const
	?ExternalizeL@CPBEncryptParms@@QBEXAAVRWriteStream@@@Z @ 567 NONAME ; void CPBEncryptParms::ExternalizeL(class RWriteStream &) const
	?ExternalizeL@CPBEncryptionData@@QBEXAAVRWriteStream@@@Z @ 568 NONAME ; void CPBEncryptionData::ExternalizeL(class RWriteStream &) const
	?NewL@CPBAuthData@@SAPAV1@AAVRReadStream@@@Z @ 569 NONAME ; class CPBAuthData * CPBAuthData::NewL(class RReadStream &)
	?NewL@CPBEncryptParms@@SAPAV1@AAVRReadStream@@@Z @ 570 NONAME ; class CPBEncryptParms * CPBEncryptParms::NewL(class RReadStream &)
	?NewL@CPBEncryptionData@@SAPAV1@AAVRReadStream@@@Z @ 571 NONAME ; class CPBEncryptionData * CPBEncryptionData::NewL(class RReadStream &)
	?NewL@CSecureStore@@SAPAV1@AAVCStreamStore@@ABVCPBEncryptSet@@@Z @ 572 NONAME ; class CSecureStore * CSecureStore::NewL(class CStreamStore &, class CPBEncryptSet const &)
	?NewLC@CPBAuthData@@SAPAV1@AAVRReadStream@@@Z @ 573 NONAME ; class CPBAuthData * CPBAuthData::NewLC(class RReadStream &)
	?NewLC@CPBEncryptParms@@SAPAV1@AAVRReadStream@@@Z @ 574 NONAME ; class CPBEncryptParms * CPBEncryptParms::NewLC(class RReadStream &)
	?NewLC@CPBEncryptionData@@SAPAV1@AAVRReadStream@@@Z @ 575 NONAME ; class CPBEncryptionData * CPBEncryptionData::NewLC(class RReadStream &)
	?NewLC@CSecureStore@@SAPAV1@AAVCStreamStore@@ABVCPBEncryptSet@@@Z @ 576 NONAME ; class CSecureStore * CSecureStore::NewLC(class CStreamStore &, class CPBEncryptSet const &)

