EXPORTS
	_ZN17UserPromptService11CPolicyList3TId3IdLERK7TDesC16RS1_ @ 1 NONAME
	_ZN17UserPromptService11CPolicyList3TIdC1ERK9TSecureIdRK4TUid @ 2 NONAME
	_ZN17UserPromptService11CPolicyList3TIdC1Ev @ 3 NONAME
	_ZN17UserPromptService11CPolicyList3TIdC2ERK9TSecureIdRK4TUid @ 4 NONAME
	_ZN17UserPromptService11CPolicyList3TIdC2Ev @ 5 NONAME
	_ZN17UserPromptService11CPolicyList4NewLERKNS0_3TIdERNS_13CPolicyReaderE @ 6 NONAME
	_ZN17UserPromptService11CPolicyList5NewLCERKNS0_3TIdERNS_13CPolicyReaderE @ 7 NONAME
	_ZN17UserPromptService11TSidClassesC1Et @ 8 NONAME
	_ZN17UserPromptService11TSidClassesC2Et @ 9 NONAME
	_ZN17UserPromptService12CFingerprint4NewLERK6TDesC8RK7TDesC16 @ 10 NONAME
	_ZN17UserPromptService12CFingerprint5NewLCERK6TDesC8RK7TDesC16 @ 11 NONAME
	_ZN17UserPromptService12CPolicyCache14ServiceConfigLERK9TSecureIdR6RArrayINS_14TServiceConfigEE @ 12 NONAME
	_ZN17UserPromptService12CPolicyCache4NewLER3RFsRK7TDesC16 @ 13 NONAME
	_ZN17UserPromptService12CPolicyCache6MatchLERKNS_14CPromptRequestE @ 14 NONAME
	_ZN17UserPromptService13CClientEntity4NewLERK6TDesC8 @ 15 NONAME
	_ZN17UserPromptService13CClientEntity5NewLCERK6TDesC8 @ 16 NONAME
	_ZN17UserPromptService13CPolicyReader11NextPolicyLEv @ 17 NONAME
	_ZN17UserPromptService13CPolicyReader11ReadPolicyLEv @ 18 NONAME ABSENT
	_ZN17UserPromptService13CPolicyReader14DefaultPolicyLEv @ 19 NONAME
	_ZN17UserPromptService13CPolicyReader4NewLER3RFsRK7TDesC16 @ 20 NONAME
	_ZN17UserPromptService13CPolicyReader5NewLCER3RFsRK7TDesC16 @ 21 NONAME
	_ZN17UserPromptService14CDialogCreator10Extension_EjRPvS1_ @ 22 NONAME
	_ZN17UserPromptService14CDialogCreator12GetExtensionEjRPvS1_ @ 23 NONAME
	_ZN17UserPromptService14CDialogCreator4NewLERK4TUid @ 24 NONAME
	_ZN17UserPromptService14CDialogCreatorC2Ev @ 25 NONAME
	_ZN17UserPromptService14CDialogCreatorD0Ev @ 26 NONAME
	_ZN17UserPromptService14CDialogCreatorD1Ev @ 27 NONAME
	_ZN17UserPromptService14CDialogCreatorD2Ev @ 28 NONAME
	_ZN17UserPromptService14CPluginManager13ReleasePluginEv @ 29 NONAME
	_ZN17UserPromptService14CPluginManager16CreateEvaluatorLERK4TUid @ 30 NONAME
	_ZN17UserPromptService14CPluginManager20CreateDialogCreatorLERK4TUid @ 31 NONAME
	_ZN17UserPromptService14CPluginManager4NewLEv @ 32 NONAME
	_ZN17UserPromptService14CPluginManager6UnloadEv @ 33 NONAME
	_ZN17UserPromptService14CPromptRequest4NewLERK9TSecureIdRK9TVendorIdRK9TThreadIdR10TProcessIdS3_RK4TUidR6RBuf16R5RBuf8i @ 34 NONAME
	_ZN17UserPromptService14CPromptRequest5NewLCERK9TSecureIdRK9TVendorIdRK9TThreadIdR10TProcessIdS3_RK4TUidR6RBuf16R5RBuf8i @ 35 NONAME
	_ZN17UserPromptService14CPromptRequestD0Ev @ 36 NONAME ABSENT
	_ZN17UserPromptService14CPromptRequestD1Ev @ 37 NONAME ABSENT
	_ZN17UserPromptService14CPromptRequestD2Ev @ 38 NONAME ABSENT
	_ZN17UserPromptService16CPolicyEvaluator10Extension_EjRPvS1_ @ 39 NONAME
	_ZN17UserPromptService16CPolicyEvaluator12ForcePromptLERKNS_15CDecisionRecordERj @ 40 NONAME
	_ZN17UserPromptService16CPolicyEvaluator12GetExtensionEjRPvS1_ @ 41 NONAME
	_ZN17UserPromptService16CPolicyEvaluator4NewLERK4TUid @ 42 NONAME
	_ZN17UserPromptService16CPolicyEvaluatorC2Ev @ 43 NONAME
	_ZN17UserPromptService16CPolicyEvaluatorD0Ev @ 44 NONAME
	_ZN17UserPromptService16CPolicyEvaluatorD1Ev @ 45 NONAME
	_ZN17UserPromptService16CPolicyEvaluatorD2Ev @ 46 NONAME
	_ZN17UserPromptService7CPolicy4NewLERKNS_11TSidClassesERK6RArrayI9TSecureIdERK7TDesC16jRK4TUidSE_tNS0_21TSystemServerSecurityEtti @ 47 NONAME
	_ZN17UserPromptService7CPolicy5NewLCERKNS_11TSidClassesERK6RArrayI9TSecureIdERK7TDesC16jRK4TUidSE_tNS0_21TSystemServerSecurityEtti @ 48 NONAME
	_ZNK17UserPromptService11CPolicyList13ServiceConfigEv @ 49 NONAME
	_ZNK17UserPromptService11CPolicyList2IdEv @ 50 NONAME
	_ZNK17UserPromptService11CPolicyList3TId16AppendNameToPathER6TDes16 @ 51 NONAME
	_ZNK17UserPromptService11CPolicyList3TIdeqERKS1_ @ 52 NONAME
	_ZNK17UserPromptService11CPolicyList5MatchERKNS_14CPromptRequestE @ 53 NONAME
	_ZNK17UserPromptService11TSidClasses8ContainsERK9TSecureId @ 54 NONAME
	_ZNK17UserPromptService12CFingerprint11DescriptionEv @ 55 NONAME
	_ZNK17UserPromptService12CFingerprint11FingerprintEv @ 56 NONAME
	_ZNK17UserPromptService13CClientEntity4NameEv @ 57 NONAME
	_ZNK17UserPromptService14CPromptRequest10OpaqueDataEv @ 58 NONAME
	_ZNK17UserPromptService14CPromptRequest11DestinationEv @ 59 NONAME
	_ZNK17UserPromptService14CPromptRequest14ClientThreadIdEv @ 60 NONAME
	_ZNK17UserPromptService14CPromptRequest14SecurityResultEv @ 61 NONAME
	_ZNK17UserPromptService14CPromptRequest20IsClientSidProtectedEv @ 62 NONAME
	_ZNK17UserPromptService14CPromptRequest9ClientSidEv @ 63 NONAME
	_ZNK17UserPromptService14CPromptRequest9ClientVidEv @ 64 NONAME
	_ZNK17UserPromptService14CPromptRequest9ServerSidEv @ 65 NONAME
	_ZNK17UserPromptService14CPromptRequest9ServiceIdEv @ 66 NONAME
	_ZNK17UserPromptService7CPolicy10SidClassesEv @ 67 NONAME
	_ZNK17UserPromptService7CPolicy14PromptRequiredEv @ 68 NONAME
	_ZNK17UserPromptService7CPolicy11DestinationEv @ 69 NONAME
	_ZNK17UserPromptService7CPolicy12MajorVersionEv @ 70 NONAME
	_ZNK17UserPromptService7CPolicy12MinorVersionEv @ 71 NONAME
	_ZNK17UserPromptService7CPolicy13DialogCreatorEv @ 72 NONAME
	_ZNK17UserPromptService7CPolicy15PolicyEvaluatorEv @ 73 NONAME
	_ZNK17UserPromptService7CPolicy20SystemServerSecurityEv @ 74 NONAME
	_ZNK17UserPromptService7CPolicy5FlagsEv @ 75 NONAME
	_ZNK17UserPromptService7CPolicy7DefaultEv @ 76 NONAME
	_ZNK17UserPromptService7CPolicy7MatchesERK9TSecureIdRK7TDesC16i @ 77 NONAME
	_ZNK17UserPromptService7CPolicy7OptionsEv @ 78 NONAME
	_ZNK17UserPromptService7CPolicy7SidListEv @ 79 NONAME
	_ZTIN17UserPromptService14CDialogCreatorE @ 80 NONAME
	_ZTIN17UserPromptService16CPolicyEvaluatorE @ 81 NONAME
	_ZTVN17UserPromptService14CDialogCreatorE @ 82 NONAME
	_ZTVN17UserPromptService16CPolicyEvaluatorE @ 83 NONAME
	_ZNK17UserPromptService13CPolicyReader6HeaderEv @ 84 NONAME
	_ZNK17UserPromptService14CPromptRequest15ClientProcessIdEv @ 85 NONAME
