EXPORTS
	_ZN18CCryptoPluginEntry9EnumerateE4TUidRi @ 1 NONAME
	_ZN18CCryptoPluginEntry27GetExtendedCharacteristicsLE4TUidRPN9CryptoSpi24CExtendedCharacteristicsE @ 2 NONAME
	_ZN18CCryptoPluginEntry23CreateAsymmetricCipherLERPN9CryptoSpi17MAsymmetricCipherE4TUidRKNS0_4CKeyES4_S4_PKNS0_13CCryptoParamsE @ 3 NONAME
	_ZN18CCryptoPluginEntry23CreateAsymmetricSignerLERPN9CryptoSpi7MSignerE4TUidRKNS0_4CKeyES4_PKNS0_13CCryptoParamsE @ 4 NONAME
	_ZN18CCryptoPluginEntry25CreateAsymmetricVerifierLERPN9CryptoSpi9MVerifierE4TUidRKNS0_4CKeyES4_PKNS0_13CCryptoParamsE @ 5 NONAME
	_ZN18CCryptoPluginEntry11CreateHashLERPN9CryptoSpi5MHashE4TUidS4_PKNS0_4CKeyEPKNS0_13CCryptoParamsE @ 6 NONAME
	_ZN18CCryptoPluginEntry19CreateKeyAgreementLERPN9CryptoSpi13MKeyAgreementE4TUidRKNS0_4CKeyEPKNS0_13CCryptoParamsE @ 7 NONAME
	_ZN18CCryptoPluginEntry23CreateKeyPairGeneratorLERPN9CryptoSpi17MKeyPairGeneratorE4TUidPKNS0_13CCryptoParamsE @ 8 NONAME
	_ZN18CCryptoPluginEntry13CreateRandomLERPN9CryptoSpi7MRandomE4TUidPKNS0_13CCryptoParamsE @ 9 NONAME
	_ZN18CCryptoPluginEntry22CreateSymmetricCipherLERPN9CryptoSpi16MSymmetricCipherE4TUidRKNS0_4CKeyES4_S4_S4_PKNS0_13CCryptoParamsE @ 10 NONAME
	_ZN18CCryptoPluginEntry10CreateMacLER5N9CryptoSpi4MMacE4TUidRKNS0_4CKeyEPKNS0_13CCryptoParamsE @ 11 NONAME ABSENT
	_ZN18CCryptoPluginEntry10CreateMacLER5N9CryptoSpi4MMacE4TUidRKNS0_4CKeyEPKNS0_13CCryptoParamsE @ 12 NONAME ABSENT
	_ZN18CCryptoPluginEntry10CreateMacLER5N9CryptoSpi4MMacE4TUidRKNS0_4CKeyEPKNS0_13CCryptoParamsE @ 13 NONAME ABSENT
	_ZN18CCryptoPluginEntry10CreateMacLER5N9CryptoSpi4MMacE4TUidRKNS0_4CKeyEPKNS0_13CCryptoParamsE @ 14 NONAME ABSENT
	_ZN18CCryptoPluginEntry10CreateMacLER5N9CryptoSpi4MMacE4TUidRKNS0_4CKeyEPKNS0_13CCryptoParamsE @ 15 NONAME ABSENT
	_ZN18CCryptoPluginEntry10CreateMacLER5N9CryptoSpi4MMacE4TUidRKNS0_4CKeyEPKNS0_13CCryptoParamsE @ 16 NONAME ABSENT
	_ZN18CCryptoPluginEntry10CreateMacLER5N9CryptoSpi4MMacE4TUidRKNS0_4CKeyEPKNS0_13CCryptoParamsE @ 17 NONAME ABSENT
	_ZN18CCryptoPluginEntry10CreateMacLER5N9CryptoSpi4MMacE4TUidRKNS0_4CKeyEPKNS0_13CCryptoParamsE @ 18 NONAME ABSENT
	_ZN18CCryptoPluginEntry10CreateMacLER5N9CryptoSpi4MMacE4TUidRKNS0_4CKeyEPKNS0_13CCryptoParamsE @ 19 NONAME ABSENT
	_ZN18CCryptoPluginEntry10CreateMacLER5N9CryptoSpi4MMacE4TUidRKNS0_4CKeyEPKNS0_13CCryptoParamsE @ 20 NONAME ABSENT
	_ZN18CCryptoPluginEntry10CreateMacLERPN9CryptoSpi4MMacE4TUidRKNS0_4CKeyEPKNS0_13CCryptoParamsE @ 21 NONAME
	_ZN18CCryptoPluginEntry10CreateMacLER5N9CryptoSpi4MMacE4TUidRKNS0_4CKeyEPKNS0_13CCryptoParamsE @ 22 NONAME ABSENT
	_ZN18CCryptoPluginEntry11CreateHashLERPN9CryptoSpi5MHashE4TUidPKNS0_13CCryptoParamsE @ 23 NONAME

