EXPORTS
	_Z31TranslateCppExceptionToSymErrorRKSt9exception @ 1 NONAME
	_Z31TranslateSymErrorToCppExceptioni @ 2 NONAME
	_ZN9stlp_priv12__get_fdigitERwPKw @ 3 NONAME
	_ZN9stlp_priv13__write_floatERNS_16__basic_iostringIcEEiid @ 4 NONAME
	_ZN9stlp_priv13__write_floatERNS_16__basic_iostringIcEEiie @ 5 NONAME
	_ZN9stlp_priv14_Init_timeinfoERNS_10_Time_InfoE @ 6 NONAME
	_ZN9stlp_priv14_Init_timeinfoERNS_10_Time_InfoEP12_Locale_time @ 7 NONAME
	_ZN9stlp_priv14__acquire_timeEPKcP17_Locale_name_hint @ 8 NONAME
	_ZN9stlp_priv14__narrow_atomsEv @ 9 NONAME
	_ZN9stlp_priv14__release_timeEP12_Locale_time @ 10 NONAME
	_ZN9stlp_priv16__get_date_orderEP12_Locale_time @ 11 NONAME
	_ZN9stlp_priv16__valid_groupingEPKcS1_S1_S1_ @ 12 NONAME
	_ZN9stlp_priv17__digit_val_tableEj @ 13 NONAME
	_ZN9stlp_priv17__insert_groupingEPcS0_RKSsccci @ 14 NONAME
	_ZN9stlp_priv17__insert_groupingEPwS0_RKSswwwi @ 15 NONAME
	_ZN9stlp_priv17__insert_groupingERNS_16__basic_iostringIcEEjRKSsccci @ 16 NONAME
	_ZN9stlp_priv17__insert_groupingERNS_16__basic_iostringIwEEjRKSswwwi @ 17 NONAME
	_ZN9stlp_priv17__string_to_floatERKNS_16__basic_iostringIcEERd @ 18 NONAME
	_ZN9stlp_priv17__string_to_floatERKNS_16__basic_iostringIcEERe @ 19 NONAME
	_ZN9stlp_priv17__string_to_floatERKNS_16__basic_iostringIcEERf @ 20 NONAME
	_ZN9stlp_priv18__get_floor_digitsERNS_16__basic_iostringIcEEe @ 21 NONAME
	_ZN9stlp_priv19__get_fdigit_or_sepERwwPKw @ 22 NONAME
	_ZN9stlp_priv19__hex_char_table_hiEv @ 23 NONAME
	_ZN9stlp_priv19__hex_char_table_loEv @ 24 NONAME
	_ZN9stlp_priv21_Initialize_get_floatERKSt5ctypeIwERwS4_S4_S4_Pw @ 25 NONAME
	_ZN9stlp_priv22__convert_float_bufferERKNS_16__basic_iostringIcEERNS0_IwEERKSt5ctypeIwEwb @ 26 NONAME
	_ZN9stlp_priv22__write_formatted_timeEPcjccRKNS_10_Time_InfoEPK2tm @ 27 NONAME
	_ZN9stlp_priv5_Bs_G12_S_first_oneEh @ 28 NONAME
	_ZN9stlp_priv5_Bs_G8_S_countEPKhS2_ @ 29 NONAME
	_ZNKSt10istrstream5rdbufEv @ 30 NONAME
	_ZNKSt10moneypunctIcLb0EE11do_groupingEv @ 31 NONAME
	_ZNKSt10moneypunctIcLb0EE13do_neg_formatEv @ 32 NONAME
	_ZNKSt10moneypunctIcLb0EE13do_pos_formatEv @ 33 NONAME
	_ZNKSt10moneypunctIcLb0EE14do_curr_symbolEv @ 34 NONAME
	_ZNKSt10moneypunctIcLb0EE14do_frac_digitsEv @ 35 NONAME
	_ZNKSt10moneypunctIcLb0EE16do_decimal_pointEv @ 36 NONAME
	_ZNKSt10moneypunctIcLb0EE16do_negative_signEv @ 37 NONAME
	_ZNKSt10moneypunctIcLb0EE16do_positive_signEv @ 38 NONAME
	_ZNKSt10moneypunctIcLb0EE16do_thousands_sepEv @ 39 NONAME
	_ZNKSt10moneypunctIcLb1EE11do_groupingEv @ 40 NONAME
	_ZNKSt10moneypunctIcLb1EE13do_neg_formatEv @ 41 NONAME
	_ZNKSt10moneypunctIcLb1EE13do_pos_formatEv @ 42 NONAME
	_ZNKSt10moneypunctIcLb1EE14do_curr_symbolEv @ 43 NONAME
	_ZNKSt10moneypunctIcLb1EE14do_frac_digitsEv @ 44 NONAME
	_ZNKSt10moneypunctIcLb1EE16do_decimal_pointEv @ 45 NONAME
	_ZNKSt10moneypunctIcLb1EE16do_negative_signEv @ 46 NONAME
	_ZNKSt10moneypunctIcLb1EE16do_positive_signEv @ 47 NONAME
	_ZNKSt10moneypunctIcLb1EE16do_thousands_sepEv @ 48 NONAME
	_ZNKSt10moneypunctIwLb0EE11do_groupingEv @ 49 NONAME
	_ZNKSt10moneypunctIwLb0EE13do_neg_formatEv @ 50 NONAME
	_ZNKSt10moneypunctIwLb0EE13do_pos_formatEv @ 51 NONAME
	_ZNKSt10moneypunctIwLb0EE14do_curr_symbolEv @ 52 NONAME
	_ZNKSt10moneypunctIwLb0EE14do_frac_digitsEv @ 53 NONAME
	_ZNKSt10moneypunctIwLb0EE16do_decimal_pointEv @ 54 NONAME
	_ZNKSt10moneypunctIwLb0EE16do_negative_signEv @ 55 NONAME
	_ZNKSt10moneypunctIwLb0EE16do_positive_signEv @ 56 NONAME
	_ZNKSt10moneypunctIwLb0EE16do_thousands_sepEv @ 57 NONAME
	_ZNKSt10moneypunctIwLb1EE11do_groupingEv @ 58 NONAME
	_ZNKSt10moneypunctIwLb1EE13do_neg_formatEv @ 59 NONAME
	_ZNKSt10moneypunctIwLb1EE13do_pos_formatEv @ 60 NONAME
	_ZNKSt10moneypunctIwLb1EE14do_curr_symbolEv @ 61 NONAME
	_ZNKSt10moneypunctIwLb1EE14do_frac_digitsEv @ 62 NONAME
	_ZNKSt10moneypunctIwLb1EE16do_decimal_pointEv @ 63 NONAME
	_ZNKSt10moneypunctIwLb1EE16do_negative_signEv @ 64 NONAME
	_ZNKSt10moneypunctIwLb1EE16do_positive_signEv @ 65 NONAME
	_ZNKSt10moneypunctIwLb1EE16do_thousands_sepEv @ 66 NONAME
	_ZNKSt10ostrstream5rdbufEv @ 67 NONAME
	_ZNKSt10ostrstream6pcountEv @ 68 NONAME
	_ZNKSt12ctype_bynameIcE10do_tolowerEPcPKc @ 69 NONAME
	_ZNKSt12ctype_bynameIcE10do_tolowerEc @ 70 NONAME
	_ZNKSt12ctype_bynameIcE10do_toupperEPcPKc @ 71 NONAME
	_ZNKSt12ctype_bynameIcE10do_toupperEc @ 72 NONAME
	_ZNKSt12ctype_bynameIwE10do_scan_isENSt10ctype_base4maskEPKwS4_ @ 73 NONAME
	_ZNKSt12ctype_bynameIwE10do_tolowerEPwPKw @ 74 NONAME
	_ZNKSt12ctype_bynameIwE10do_tolowerEw @ 75 NONAME
	_ZNKSt12ctype_bynameIwE10do_toupperEPwPKw @ 76 NONAME
	_ZNKSt12ctype_bynameIwE10do_toupperEw @ 77 NONAME
	_ZNKSt12ctype_bynameIwE11do_scan_notENSt10ctype_base4maskEPKwS4_ @ 78 NONAME
	_ZNKSt12ctype_bynameIwE5do_isENSt10ctype_base4maskEw @ 79 NONAME
	_ZNKSt12ctype_bynameIwE5do_isEPKwS2_PNSt10ctype_base4maskE @ 80 NONAME
	_ZNKSt12strstreambuf6pcountEv @ 81 NONAME
	_ZNKSt14codecvt_bynameIwc11_mb_state_tE10do_unshiftERS0_PcS3_RS3_ @ 82 NONAME
	_ZNKSt14codecvt_bynameIwc11_mb_state_tE11do_encodingEv @ 83 NONAME
	_ZNKSt14codecvt_bynameIwc11_mb_state_tE13do_max_lengthEv @ 84 NONAME
	_ZNKSt14codecvt_bynameIwc11_mb_state_tE16do_always_noconvEv @ 85 NONAME
	_ZNKSt14codecvt_bynameIwc11_mb_state_tE5do_inERS0_PKcS4_RS4_PwS6_RS6_ @ 86 NONAME
	_ZNKSt14codecvt_bynameIwc11_mb_state_tE6do_outERS0_PKwS4_RS4_PcS6_RS6_ @ 87 NONAME
	_ZNKSt14codecvt_bynameIwc11_mb_state_tE9do_lengthERKS0_PKcS5_j @ 88 NONAME
	_ZNKSt14collate_bynameIcE10do_compareEPKcS2_S2_S2_ @ 89 NONAME
	_ZNKSt14collate_bynameIcE12do_transformEPKcS2_ @ 90 NONAME
	_ZNKSt14collate_bynameIwE10do_compareEPKwS2_S2_S2_ @ 91 NONAME
	_ZNKSt14collate_bynameIwE12do_transformEPKwS2_ @ 92 NONAME
	_ZNKSt15numpunct_bynameIcE11do_groupingEv @ 93 NONAME
	_ZNKSt15numpunct_bynameIcE16do_decimal_pointEv @ 94 NONAME
	_ZNKSt15numpunct_bynameIcE16do_thousands_sepEv @ 95 NONAME
	_ZNKSt15numpunct_bynameIwE11do_groupingEv @ 96 NONAME
	_ZNKSt15numpunct_bynameIwE16do_decimal_pointEv @ 97 NONAME
	_ZNKSt15numpunct_bynameIwE16do_thousands_sepEv @ 98 NONAME
	_ZNKSt17__Named_exception4whatEv @ 99 NONAME
	_ZNKSt17moneypunct_bynameIcLb0EE11do_groupingEv @ 100 NONAME
	_ZNKSt17moneypunct_bynameIcLb0EE14do_curr_symbolEv @ 101 NONAME
	_ZNKSt17moneypunct_bynameIcLb0EE14do_frac_digitsEv @ 102 NONAME
	_ZNKSt17moneypunct_bynameIcLb0EE16do_decimal_pointEv @ 103 NONAME
	_ZNKSt17moneypunct_bynameIcLb0EE16do_negative_signEv @ 104 NONAME
	_ZNKSt17moneypunct_bynameIcLb0EE16do_positive_signEv @ 105 NONAME
	_ZNKSt17moneypunct_bynameIcLb0EE16do_thousands_sepEv @ 106 NONAME
	_ZNKSt17moneypunct_bynameIcLb1EE11do_groupingEv @ 107 NONAME
	_ZNKSt17moneypunct_bynameIcLb1EE14do_curr_symbolEv @ 108 NONAME
	_ZNKSt17moneypunct_bynameIcLb1EE14do_frac_digitsEv @ 109 NONAME
	_ZNKSt17moneypunct_bynameIcLb1EE16do_decimal_pointEv @ 110 NONAME
	_ZNKSt17moneypunct_bynameIcLb1EE16do_negative_signEv @ 111 NONAME
	_ZNKSt17moneypunct_bynameIcLb1EE16do_positive_signEv @ 112 NONAME
	_ZNKSt17moneypunct_bynameIcLb1EE16do_thousands_sepEv @ 113 NONAME
	_ZNKSt17moneypunct_bynameIwLb0EE11do_groupingEv @ 114 NONAME
	_ZNKSt17moneypunct_bynameIwLb0EE14do_curr_symbolEv @ 115 NONAME
	_ZNKSt17moneypunct_bynameIwLb0EE14do_frac_digitsEv @ 116 NONAME
	_ZNKSt17moneypunct_bynameIwLb0EE16do_decimal_pointEv @ 117 NONAME
	_ZNKSt17moneypunct_bynameIwLb0EE16do_negative_signEv @ 118 NONAME
	_ZNKSt17moneypunct_bynameIwLb0EE16do_positive_signEv @ 119 NONAME
	_ZNKSt17moneypunct_bynameIwLb0EE16do_thousands_sepEv @ 120 NONAME
	_ZNKSt17moneypunct_bynameIwLb1EE11do_groupingEv @ 121 NONAME
	_ZNKSt17moneypunct_bynameIwLb1EE14do_curr_symbolEv @ 122 NONAME
	_ZNKSt17moneypunct_bynameIwLb1EE14do_frac_digitsEv @ 123 NONAME
	_ZNKSt17moneypunct_bynameIwLb1EE16do_decimal_pointEv @ 124 NONAME
	_ZNKSt17moneypunct_bynameIwLb1EE16do_negative_signEv @ 125 NONAME
	_ZNKSt17moneypunct_bynameIwLb1EE16do_positive_signEv @ 126 NONAME
	_ZNKSt17moneypunct_bynameIwLb1EE16do_thousands_sepEv @ 127 NONAME
	_ZNKSt5ctypeIcE10do_tolowerEPcPKc @ 128 NONAME
	_ZNKSt5ctypeIcE10do_tolowerEc @ 129 NONAME
	_ZNKSt5ctypeIcE10do_toupperEPcPKc @ 130 NONAME
	_ZNKSt5ctypeIcE10do_toupperEc @ 131 NONAME
	_ZNKSt5ctypeIcE7scan_isENSt10ctype_base4maskEPKcS4_ @ 132 NONAME
	_ZNKSt5ctypeIcE8do_widenEPKcS2_Pc @ 133 NONAME
	_ZNKSt5ctypeIcE8do_widenEc @ 134 NONAME
	_ZNKSt5ctypeIcE8scan_notENSt10ctype_base4maskEPKcS4_ @ 135 NONAME
	_ZNKSt5ctypeIcE9do_narrowEPKcS2_cPc @ 136 NONAME
	_ZNKSt5ctypeIcE9do_narrowEcc @ 137 NONAME
	_ZNKSt5ctypeIwE10do_scan_isENSt10ctype_base4maskEPKwS4_ @ 138 NONAME
	_ZNKSt5ctypeIwE10do_tolowerEPwPKw @ 139 NONAME
	_ZNKSt5ctypeIwE10do_tolowerEw @ 140 NONAME
	_ZNKSt5ctypeIwE10do_toupperEPwPKw @ 141 NONAME
	_ZNKSt5ctypeIwE10do_toupperEw @ 142 NONAME
	_ZNKSt5ctypeIwE11do_scan_notENSt10ctype_base4maskEPKwS4_ @ 143 NONAME
	_ZNKSt5ctypeIwE5do_isENSt10ctype_base4maskEw @ 144 NONAME
	_ZNKSt5ctypeIwE5do_isEPKwS2_PNSt10ctype_base4maskE @ 145 NONAME
	_ZNKSt5ctypeIwE8do_widenEPKcS2_Pw @ 146 NONAME
	_ZNKSt5ctypeIwE8do_widenEc @ 147 NONAME
	_ZNKSt5ctypeIwE9do_narrowEPKwS2_cPc @ 148 NONAME
	_ZNKSt5ctypeIwE9do_narrowEwc @ 149 NONAME
	_ZNKSt6locale12_M_get_facetERKNS_2idE @ 150 NONAME
	_ZNKSt6locale12_M_use_facetERKNS_2idE @ 151 NONAME
	_ZNKSt6locale4nameEv @ 152 NONAME
	_ZNKSt6localeeqERKS_ @ 153 NONAME
	_ZNKSt6localeneERKS_ @ 154 NONAME
	_ZNKSt7codecvtIcc11_mb_state_tE10do_unshiftERS0_PcS3_RS3_ @ 155 NONAME
	_ZNKSt7codecvtIcc11_mb_state_tE11do_encodingEv @ 156 NONAME
	_ZNKSt7codecvtIcc11_mb_state_tE13do_max_lengthEv @ 157 NONAME
	_ZNKSt7codecvtIcc11_mb_state_tE16do_always_noconvEv @ 158 NONAME
	_ZNKSt7codecvtIcc11_mb_state_tE5do_inERS0_PKcS4_RS4_PcS6_RS6_ @ 159 NONAME
	_ZNKSt7codecvtIcc11_mb_state_tE6do_outERS0_PKcS4_RS4_PcS6_RS6_ @ 160 NONAME
	_ZNKSt7codecvtIcc11_mb_state_tE9do_lengthERKS0_PKcS5_j @ 161 NONAME
	_ZNKSt7codecvtIwc11_mb_state_tE10do_unshiftERS0_PcS3_RS3_ @ 162 NONAME
	_ZNKSt7codecvtIwc11_mb_state_tE11do_encodingEv @ 163 NONAME
	_ZNKSt7codecvtIwc11_mb_state_tE13do_max_lengthEv @ 164 NONAME
	_ZNKSt7codecvtIwc11_mb_state_tE16do_always_noconvEv @ 165 NONAME
	_ZNKSt7codecvtIwc11_mb_state_tE5do_inERS0_PKcS4_RS4_PwS6_RS6_ @ 166 NONAME
	_ZNKSt7codecvtIwc11_mb_state_tE6do_outERS0_PKwS4_RS4_PcS6_RS6_ @ 167 NONAME
	_ZNKSt7codecvtIwc11_mb_state_tE9do_lengthERKS0_PKcS5_j @ 168 NONAME
	_ZNKSt7collateIcE10do_compareEPKcS2_S2_S2_ @ 169 NONAME
	_ZNKSt7collateIcE12do_transformEPKcS2_ @ 170 NONAME
	_ZNKSt7collateIcE7do_hashEPKcS2_ @ 171 NONAME
	_ZNKSt7collateIwE10do_compareEPKwS2_S2_S2_ @ 172 NONAME
	_ZNKSt7collateIwE12do_transformEPKwS2_ @ 173 NONAME
	_ZNKSt7collateIwE7do_hashEPKwS2_ @ 174 NONAME
	_ZNKSt8messagesIcE6do_getEiiiRKSs @ 175 NONAME
	_ZNKSt8messagesIcE7do_openERKSsRKSt6locale @ 176 NONAME
	_ZNKSt8messagesIcE8do_closeEi @ 177 NONAME
	_ZNKSt8messagesIwE6do_getEiiiRKSbIwSt11char_traitsIwESaIwEE @ 178 NONAME
	_ZNKSt8messagesIwE7do_openERKSsRKSt6locale @ 179 NONAME
	_ZNKSt8messagesIwE8do_closeEi @ 180 NONAME
	_ZNKSt8numpunctIcE11do_groupingEv @ 181 NONAME
	_ZNKSt8numpunctIcE11do_truenameEv @ 182 NONAME
	_ZNKSt8numpunctIcE12do_falsenameEv @ 183 NONAME
	_ZNKSt8numpunctIcE16do_decimal_pointEv @ 184 NONAME
	_ZNKSt8numpunctIcE16do_thousands_sepEv @ 185 NONAME
	_ZNKSt8numpunctIwE11do_groupingEv @ 186 NONAME
	_ZNKSt8numpunctIwE11do_truenameEv @ 187 NONAME
	_ZNKSt8numpunctIwE12do_falsenameEv @ 188 NONAME
	_ZNKSt8numpunctIwE16do_decimal_pointEv @ 189 NONAME
	_ZNKSt8numpunctIwE16do_thousands_sepEv @ 190 NONAME
	_ZNKSt9strstream5rdbufEv @ 191 NONAME
	_ZNKSt9strstream6pcountEv @ 192 NONAME
	_ZNSt10_UnderflowIcSt11char_traitsIcEE7_M_doitEPSt13basic_filebufIcS1_E @ 193 NONAME
	_ZNSt10istrstream3strEv @ 194 NONAME
	_ZNSt10istrstreamC1EPKc @ 195 NONAME
	_ZNSt10istrstreamC1EPKci @ 196 NONAME
	_ZNSt10istrstreamC1EPc @ 197 NONAME
	_ZNSt10istrstreamC1EPci @ 198 NONAME
	_ZNSt10istrstreamC2EPKc @ 199 NONAME
	_ZNSt10istrstreamC2EPKci @ 200 NONAME
	_ZNSt10istrstreamC2EPc @ 201 NONAME
	_ZNSt10istrstreamC2EPci @ 202 NONAME
	_ZNSt10istrstreamD0Ev @ 203 NONAME
	_ZNSt10istrstreamD1Ev @ 204 NONAME
	_ZNSt10istrstreamD2Ev @ 205 NONAME
	_ZNSt10istrstreamD9Ev @ 206 NONAME ABSENT
	_ZNSt10moneypunctIcLb0EE16GetFacetLocaleIdEv @ 207 NONAME
	_ZNSt10moneypunctIcLb0EEC1Ej @ 208 NONAME
	_ZNSt10moneypunctIcLb0EEC2Ej @ 209 NONAME
	_ZNSt10moneypunctIcLb0EED0Ev @ 210 NONAME
	_ZNSt10moneypunctIcLb0EED1Ev @ 211 NONAME
	_ZNSt10moneypunctIcLb0EED2Ev @ 212 NONAME
	_ZNSt10moneypunctIcLb1EE16GetFacetLocaleIdEv @ 213 NONAME
	_ZNSt10moneypunctIcLb1EEC1Ej @ 214 NONAME
	_ZNSt10moneypunctIcLb1EEC2Ej @ 215 NONAME
	_ZNSt10moneypunctIcLb1EED0Ev @ 216 NONAME
	_ZNSt10moneypunctIcLb1EED1Ev @ 217 NONAME
	_ZNSt10moneypunctIcLb1EED2Ev @ 218 NONAME
	_ZNSt10moneypunctIwLb0EE16GetFacetLocaleIdEv @ 219 NONAME
	_ZNSt10moneypunctIwLb0EEC1Ej @ 220 NONAME
	_ZNSt10moneypunctIwLb0EEC2Ej @ 221 NONAME
	_ZNSt10moneypunctIwLb0EED0Ev @ 222 NONAME
	_ZNSt10moneypunctIwLb0EED1Ev @ 223 NONAME
	_ZNSt10moneypunctIwLb0EED2Ev @ 224 NONAME
	_ZNSt10moneypunctIwLb1EE16GetFacetLocaleIdEv @ 225 NONAME
	_ZNSt10moneypunctIwLb1EEC1Ej @ 226 NONAME
	_ZNSt10moneypunctIwLb1EEC2Ej @ 227 NONAME
	_ZNSt10moneypunctIwLb1EED0Ev @ 228 NONAME
	_ZNSt10moneypunctIwLb1EED1Ev @ 229 NONAME
	_ZNSt10moneypunctIwLb1EED2Ev @ 230 NONAME
	_ZNSt10ostrstream3strEv @ 231 NONAME
	_ZNSt10ostrstream6freezeEb @ 232 NONAME
	_ZNSt10ostrstreamC1EPcii @ 233 NONAME
	_ZNSt10ostrstreamC1Ev @ 234 NONAME
	_ZNSt10ostrstreamC2EPcii @ 235 NONAME
	_ZNSt10ostrstreamC2Ev @ 236 NONAME
	_ZNSt10ostrstreamD0Ev @ 237 NONAME
	_ZNSt10ostrstreamD1Ev @ 238 NONAME
	_ZNSt10ostrstreamD2Ev @ 239 NONAME
	_ZNSt10ostrstreamD9Ev @ 240 NONAME ABSENT
	_ZNSt11logic_errorD0Ev @ 241 NONAME
	_ZNSt11logic_errorD1Ev @ 242 NONAME
	_ZNSt11logic_errorD2Ev @ 243 NONAME
	_ZNSt11range_errorD0Ev @ 244 NONAME
	_ZNSt11range_errorD1Ev @ 245 NONAME
	_ZNSt11range_errorD2Ev @ 246 NONAME
	_ZNSt12__node_alloc11_M_allocateERj @ 247 NONAME
	_ZNSt12__node_alloc13_M_deallocateEPvj @ 248 NONAME
	_ZNSt12ctype_bynameIcEC1EPKcjP17_Locale_name_hint @ 249 NONAME
	_ZNSt12ctype_bynameIcEC2EPKcjP17_Locale_name_hint @ 250 NONAME
	_ZNSt12ctype_bynameIcED0Ev @ 251 NONAME
	_ZNSt12ctype_bynameIcED1Ev @ 252 NONAME
	_ZNSt12ctype_bynameIcED2Ev @ 253 NONAME
	_ZNSt12ctype_bynameIwEC1EPKcjP17_Locale_name_hint @ 254 NONAME
	_ZNSt12ctype_bynameIwEC2EPKcjP17_Locale_name_hint @ 255 NONAME
	_ZNSt12ctype_bynameIwED0Ev @ 256 NONAME
	_ZNSt12ctype_bynameIwED1Ev @ 257 NONAME
	_ZNSt12ctype_bynameIwED2Ev @ 258 NONAME
	_ZNSt12domain_errorD0Ev @ 259 NONAME
	_ZNSt12domain_errorD1Ev @ 260 NONAME
	_ZNSt12domain_errorD2Ev @ 261 NONAME
	_ZNSt12length_errorD0Ev @ 262 NONAME
	_ZNSt12length_errorD1Ev @ 263 NONAME
	_ZNSt12length_errorD2Ev @ 264 NONAME
	_ZNSt12out_of_rangeD0Ev @ 265 NONAME
	_ZNSt12out_of_rangeD1Ev @ 266 NONAME
	_ZNSt12out_of_rangeD2Ev @ 267 NONAME
	_ZNSt12strstreambuf3strEv @ 268 NONAME
	_ZNSt12strstreambuf6freezeEb @ 269 NONAME
	_ZNSt12strstreambuf6setbufEPci @ 270 NONAME
	_ZNSt12strstreambuf7seekoffExii @ 271 NONAME
	_ZNSt12strstreambuf7seekposESt4fposI11_mb_state_tEi @ 272 NONAME
	_ZNSt12strstreambuf8overflowEi @ 273 NONAME
	_ZNSt12strstreambuf9pbackfailEi @ 274 NONAME
	_ZNSt12strstreambuf9underflowEv @ 275 NONAME
	_ZNSt12strstreambufC1EPFPvjEPFvS0_E @ 276 NONAME
	_ZNSt12strstreambufC1EPKai @ 277 NONAME
	_ZNSt12strstreambufC1EPKci @ 278 NONAME
	_ZNSt12strstreambufC1EPKhi @ 279 NONAME
	_ZNSt12strstreambufC1EPaiS0_ @ 280 NONAME
	_ZNSt12strstreambufC1EPciS0_ @ 281 NONAME
	_ZNSt12strstreambufC1EPhiS0_ @ 282 NONAME
	_ZNSt12strstreambufC1Ei @ 283 NONAME
	_ZNSt12strstreambufC2EPFPvjEPFvS0_E @ 284 NONAME
	_ZNSt12strstreambufC2EPKai @ 285 NONAME
	_ZNSt12strstreambufC2EPKci @ 286 NONAME
	_ZNSt12strstreambufC2EPKhi @ 287 NONAME
	_ZNSt12strstreambufC2EPaiS0_ @ 288 NONAME
	_ZNSt12strstreambufC2EPciS0_ @ 289 NONAME
	_ZNSt12strstreambufC2EPhiS0_ @ 290 NONAME
	_ZNSt12strstreambufC2Ei @ 291 NONAME
	_ZNSt12strstreambufD0Ev @ 292 NONAME
	_ZNSt12strstreambufD1Ev @ 293 NONAME
	_ZNSt12strstreambufD2Ev @ 294 NONAME
	_ZNSt13_Filebuf_base11__page_sizeEv @ 295 NONAME
	_ZNSt13_Filebuf_base12_M_file_sizeEv @ 296 NONAME
	_ZNSt13_Filebuf_base7_M_mmapExx @ 297 NONAME
	_ZNSt13_Filebuf_base7_M_openEPKci @ 298 NONAME
	_ZNSt13_Filebuf_base7_M_openEPKcil @ 299 NONAME
	_ZNSt13_Filebuf_base7_M_openEii @ 300 NONAME
	_ZNSt13_Filebuf_base7_M_readEPci @ 301 NONAME
	_ZNSt13_Filebuf_base7_M_seekExi @ 302 NONAME
	_ZNSt13_Filebuf_base8_M_closeEv @ 303 NONAME
	_ZNSt13_Filebuf_base8_M_unmapEPvx @ 304 NONAME
	_ZNSt13_Filebuf_base8_M_writeEPci @ 305 NONAME
	_ZNSt13_Filebuf_baseC1Ev @ 306 NONAME
	_ZNSt13_Filebuf_baseC2Ev @ 307 NONAME
	_ZNSt13runtime_errorD0Ev @ 308 NONAME
	_ZNSt13runtime_errorD1Ev @ 309 NONAME
	_ZNSt13runtime_errorD2Ev @ 310 NONAME
	_ZNSt14codecvt_bynameIcc11_mb_state_tEC1EPKcj @ 311 NONAME
	_ZNSt14codecvt_bynameIcc11_mb_state_tEC2EPKcj @ 312 NONAME
	_ZNSt14codecvt_bynameIcc11_mb_state_tED0Ev @ 313 NONAME
	_ZNSt14codecvt_bynameIcc11_mb_state_tED1Ev @ 314 NONAME
	_ZNSt14codecvt_bynameIcc11_mb_state_tED2Ev @ 315 NONAME
	_ZNSt14codecvt_bynameIwc11_mb_state_tEC1EPKcjP17_Locale_name_hint @ 316 NONAME
	_ZNSt14codecvt_bynameIwc11_mb_state_tEC2EPKcjP17_Locale_name_hint @ 317 NONAME
	_ZNSt14codecvt_bynameIwc11_mb_state_tED0Ev @ 318 NONAME
	_ZNSt14codecvt_bynameIwc11_mb_state_tED1Ev @ 319 NONAME
	_ZNSt14codecvt_bynameIwc11_mb_state_tED2Ev @ 320 NONAME
	_ZNSt14collate_bynameIcEC1EPKcjP17_Locale_name_hint @ 321 NONAME
	_ZNSt14collate_bynameIcEC2EPKcjP17_Locale_name_hint @ 322 NONAME
	_ZNSt14collate_bynameIcED0Ev @ 323 NONAME
	_ZNSt14collate_bynameIcED1Ev @ 324 NONAME
	_ZNSt14collate_bynameIcED2Ev @ 325 NONAME
	_ZNSt14collate_bynameIwEC1EPKcjP17_Locale_name_hint @ 326 NONAME
	_ZNSt14collate_bynameIwEC2EPKcjP17_Locale_name_hint @ 327 NONAME
	_ZNSt14collate_bynameIwED0Ev @ 328 NONAME
	_ZNSt14collate_bynameIwED1Ev @ 329 NONAME
	_ZNSt14collate_bynameIwED2Ev @ 330 NONAME
	_ZNSt14overflow_errorD0Ev @ 331 NONAME
	_ZNSt14overflow_errorD1Ev @ 332 NONAME
	_ZNSt14overflow_errorD2Ev @ 333 NONAME
	_ZNSt15messages_bynameIcEC1EPKcjP17_Locale_name_hint @ 334 NONAME
	_ZNSt15messages_bynameIcEC2EPKcjP17_Locale_name_hint @ 335 NONAME
	_ZNSt15messages_bynameIcED0Ev @ 336 NONAME
	_ZNSt15messages_bynameIcED1Ev @ 337 NONAME
	_ZNSt15messages_bynameIcED2Ev @ 338 NONAME
	_ZNSt15messages_bynameIwEC1EPKcjP17_Locale_name_hint @ 339 NONAME
	_ZNSt15messages_bynameIwEC2EPKcjP17_Locale_name_hint @ 340 NONAME
	_ZNSt15messages_bynameIwED0Ev @ 341 NONAME
	_ZNSt15messages_bynameIwED1Ev @ 342 NONAME
	_ZNSt15messages_bynameIwED2Ev @ 343 NONAME
	_ZNSt15numpunct_bynameIcEC1EPKcjP17_Locale_name_hint @ 344 NONAME
	_ZNSt15numpunct_bynameIcEC2EPKcjP17_Locale_name_hint @ 345 NONAME
	_ZNSt15numpunct_bynameIcED0Ev @ 346 NONAME
	_ZNSt15numpunct_bynameIcED1Ev @ 347 NONAME
	_ZNSt15numpunct_bynameIcED2Ev @ 348 NONAME
	_ZNSt15numpunct_bynameIwEC1EPKcjP17_Locale_name_hint @ 349 NONAME
	_ZNSt15numpunct_bynameIwEC2EPKcjP17_Locale_name_hint @ 350 NONAME
	_ZNSt15numpunct_bynameIwED0Ev @ 351 NONAME
	_ZNSt15numpunct_bynameIwED1Ev @ 352 NONAME
	_ZNSt15numpunct_bynameIwED2Ev @ 353 NONAME
	_ZNSt15underflow_errorD0Ev @ 354 NONAME
	_ZNSt15underflow_errorD1Ev @ 355 NONAME
	_ZNSt15underflow_errorD2Ev @ 356 NONAME
	_ZNSt16invalid_argumentD0Ev @ 357 NONAME
	_ZNSt16invalid_argumentD1Ev @ 358 NONAME
	_ZNSt16invalid_argumentD2Ev @ 359 NONAME
	_ZNSt17__Named_exceptionC1ERKSs @ 360 NONAME
	_ZNSt17__Named_exceptionC2ERKSs @ 361 NONAME
	_ZNSt17__Named_exceptionD0Ev @ 362 NONAME
	_ZNSt17__Named_exceptionD1Ev @ 363 NONAME
	_ZNSt17__Named_exceptionD2Ev @ 364 NONAME
	_ZNSt17moneypunct_bynameIcLb0EEC1EPKcjP17_Locale_name_hint @ 365 NONAME
	_ZNSt17moneypunct_bynameIcLb0EEC2EPKcjP17_Locale_name_hint @ 366 NONAME
	_ZNSt17moneypunct_bynameIcLb0EED0Ev @ 367 NONAME
	_ZNSt17moneypunct_bynameIcLb0EED1Ev @ 368 NONAME
	_ZNSt17moneypunct_bynameIcLb0EED2Ev @ 369 NONAME
	_ZNSt17moneypunct_bynameIcLb1EEC1EPKcjP17_Locale_name_hint @ 370 NONAME
	_ZNSt17moneypunct_bynameIcLb1EEC2EPKcjP17_Locale_name_hint @ 371 NONAME
	_ZNSt17moneypunct_bynameIcLb1EED0Ev @ 372 NONAME
	_ZNSt17moneypunct_bynameIcLb1EED1Ev @ 373 NONAME
	_ZNSt17moneypunct_bynameIcLb1EED2Ev @ 374 NONAME
	_ZNSt17moneypunct_bynameIwLb0EEC1EPKcjP17_Locale_name_hint @ 375 NONAME
	_ZNSt17moneypunct_bynameIwLb0EEC2EPKcjP17_Locale_name_hint @ 376 NONAME
	_ZNSt17moneypunct_bynameIwLb0EED0Ev @ 377 NONAME
	_ZNSt17moneypunct_bynameIwLb0EED1Ev @ 378 NONAME
	_ZNSt17moneypunct_bynameIwLb0EED2Ev @ 379 NONAME
	_ZNSt17moneypunct_bynameIwLb1EEC1EPKcjP17_Locale_name_hint @ 380 NONAME
	_ZNSt17moneypunct_bynameIwLb1EEC2EPKcjP17_Locale_name_hint @ 381 NONAME
	_ZNSt17moneypunct_bynameIwLb1EED0Ev @ 382 NONAME
	_ZNSt17moneypunct_bynameIwLb1EED1Ev @ 383 NONAME
	_ZNSt17moneypunct_bynameIwLb1EED2Ev @ 384 NONAME
	_ZNSt5ctypeIcE13classic_tableEv @ 385 NONAME
	_ZNSt5ctypeIcE16GetFacetLocaleIdEv @ 386 NONAME
	_ZNSt5ctypeIcEC1EPKNSt10ctype_base4maskEbj @ 387 NONAME
	_ZNSt5ctypeIcEC2EPKNSt10ctype_base4maskEbj @ 388 NONAME
	_ZNSt5ctypeIcED0Ev @ 389 NONAME
	_ZNSt5ctypeIcED1Ev @ 390 NONAME
	_ZNSt5ctypeIcED2Ev @ 391 NONAME
	_ZNSt5ctypeIwE16GetFacetLocaleIdEv @ 392 NONAME
	_ZNSt5ctypeIwEC1Ej @ 393 NONAME
	_ZNSt5ctypeIwEC2Ej @ 394 NONAME
	_ZNSt5ctypeIwED0Ev @ 395 NONAME
	_ZNSt5ctypeIwED1Ev @ 396 NONAME
	_ZNSt5ctypeIwED2Ev @ 397 NONAME
	_ZNSt6locale22_M_throw_runtime_errorEPKc @ 398 NONAME
	_ZNSt6locale5facetD0Ev @ 399 NONAME
	_ZNSt6locale5facetD1Ev @ 400 NONAME
	_ZNSt6locale5facetD2Ev @ 401 NONAME
	_ZNSt6locale6globalERKS_ @ 402 NONAME
	_ZNSt6locale7classicEv @ 403 NONAME
	_ZNSt6locale9_M_insertEPNS_5facetERNS_2idE @ 404 NONAME
	_ZNSt6localeC1EPKc @ 405 NONAME
	_ZNSt6localeC1ERKS_ @ 406 NONAME
	_ZNSt6localeC1ERKS_PKci @ 407 NONAME
	_ZNSt6localeC1ERKS_S1_i @ 408 NONAME
	_ZNSt6localeC1Ev @ 409 NONAME
	_ZNSt6localeC2EPKc @ 410 NONAME
	_ZNSt6localeC2ERKS_ @ 411 NONAME
	_ZNSt6localeC2ERKS_PKci @ 412 NONAME
	_ZNSt6localeC2ERKS_S1_i @ 413 NONAME
	_ZNSt6localeC2Ev @ 414 NONAME
	_ZNSt6localeD1Ev @ 415 NONAME
	_ZNSt6localeD2Ev @ 416 NONAME
	_ZNSt6localeaSERKS_ @ 417 NONAME
	_ZNSt7codecvtIcc11_mb_state_tE16GetFacetLocaleIdEv @ 418 NONAME
	_ZNSt7codecvtIcc11_mb_state_tED0Ev @ 419 NONAME
	_ZNSt7codecvtIcc11_mb_state_tED1Ev @ 420 NONAME
	_ZNSt7codecvtIcc11_mb_state_tED2Ev @ 421 NONAME
	_ZNSt7codecvtIwc11_mb_state_tE16GetFacetLocaleIdEv @ 422 NONAME
	_ZNSt7codecvtIwc11_mb_state_tED0Ev @ 423 NONAME
	_ZNSt7codecvtIwc11_mb_state_tED1Ev @ 424 NONAME
	_ZNSt7codecvtIwc11_mb_state_tED2Ev @ 425 NONAME
	_ZNSt7collateIcE16GetFacetLocaleIdEv @ 426 NONAME
	_ZNSt7collateIcED0Ev @ 427 NONAME
	_ZNSt7collateIcED1Ev @ 428 NONAME
	_ZNSt7collateIcED2Ev @ 429 NONAME
	_ZNSt7collateIwE16GetFacetLocaleIdEv @ 430 NONAME
	_ZNSt7collateIwED0Ev @ 431 NONAME
	_ZNSt7collateIwED1Ev @ 432 NONAME
	_ZNSt7collateIwED2Ev @ 433 NONAME
	_ZNSt7complexIdE4_divERKdS2_S2_RdS3_ @ 434 NONAME
	_ZNSt7complexIdE4_divERKdS2_S2_S2_RdS3_ @ 435 NONAME
	_ZNSt7complexIeE4_divERKeS2_S2_ReS3_ @ 436 NONAME
	_ZNSt7complexIeE4_divERKeS2_S2_S2_ReS3_ @ 437 NONAME
	_ZNSt7complexIfE4_divERKfS2_S2_RfS3_ @ 438 NONAME
	_ZNSt7complexIfE4_divERKfS2_S2_S2_RfS3_ @ 439 NONAME
	_ZNSt7num_getIcSt19istreambuf_iteratorIcSt11char_traitsIcEEE16GetFacetLocaleIdEv @ 440 NONAME
	_ZNSt7num_getIwSt19istreambuf_iteratorIwSt11char_traitsIwEEE16GetFacetLocaleIdEv @ 441 NONAME
	_ZNSt7num_putIcSt19ostreambuf_iteratorIcSt11char_traitsIcEEE16GetFacetLocaleIdEv @ 442 NONAME
	_ZNSt7num_putIwSt19ostreambuf_iteratorIwSt11char_traitsIwEEE16GetFacetLocaleIdEv @ 443 NONAME
	_ZNSt8ios_base13_M_copy_stateERKS_ @ 444 NONAME
	_ZNSt8ios_base15sync_with_stdioEb @ 445 NONAME
	_ZNSt8ios_base16_M_throw_failureEv @ 446 NONAME
	_ZNSt8ios_base17register_callbackEPFvNS_5eventERS_iEi @ 447 NONAME
	_ZNSt8ios_base19_M_invoke_callbacksENS_5eventE @ 448 NONAME
	_ZNSt8ios_base4InitC1Ev @ 449 NONAME
	_ZNSt8ios_base4InitC2Ev @ 450 NONAME
	_ZNSt8ios_base4InitD1Ev @ 451 NONAME
	_ZNSt8ios_base4InitD2Ev @ 452 NONAME
	_ZNSt8ios_base5imbueERKSt6locale @ 453 NONAME
	_ZNSt8ios_base5iwordEi @ 454 NONAME
	_ZNSt8ios_base5pwordEi @ 455 NONAME
	_ZNSt8ios_base6xallocEv @ 456 NONAME
	_ZNSt8ios_base7failureC1ERKSs @ 457 NONAME
	_ZNSt8ios_base7failureC2ERKSs @ 458 NONAME
	_ZNSt8ios_base7failureD0Ev @ 459 NONAME
	_ZNSt8ios_base7failureD1Ev @ 460 NONAME
	_ZNSt8ios_base7failureD2Ev @ 461 NONAME
	_ZNSt8ios_baseC1Ev @ 462 NONAME
	_ZNSt8ios_baseC2Ev @ 463 NONAME
	_ZNSt8ios_baseD0Ev @ 464 NONAME
	_ZNSt8ios_baseD1Ev @ 465 NONAME
	_ZNSt8ios_baseD2Ev @ 466 NONAME
	_ZNSt8messagesIcE16GetFacetLocaleIdEv @ 467 NONAME
	_ZNSt8messagesIcEC1EPN9stlp_priv9_MessagesE @ 468 NONAME
	_ZNSt8messagesIcEC1Ej @ 469 NONAME
	_ZNSt8messagesIcEC1EjP16_Locale_messages @ 470 NONAME
	_ZNSt8messagesIcEC2EPN9stlp_priv9_MessagesE @ 471 NONAME
	_ZNSt8messagesIcEC2Ej @ 472 NONAME
	_ZNSt8messagesIcEC2EjP16_Locale_messages @ 473 NONAME
	_ZNSt8messagesIcED0Ev @ 474 NONAME
	_ZNSt8messagesIcED1Ev @ 475 NONAME
	_ZNSt8messagesIcED2Ev @ 476 NONAME
	_ZNSt8messagesIwE16GetFacetLocaleIdEv @ 477 NONAME
	_ZNSt8messagesIwEC1EPN9stlp_priv9_MessagesE @ 478 NONAME
	_ZNSt8messagesIwEC1Ej @ 479 NONAME
	_ZNSt8messagesIwEC1EjP16_Locale_messages @ 480 NONAME
	_ZNSt8messagesIwEC2EPN9stlp_priv9_MessagesE @ 481 NONAME
	_ZNSt8messagesIwEC2Ej @ 482 NONAME
	_ZNSt8messagesIwEC2EjP16_Locale_messages @ 483 NONAME
	_ZNSt8messagesIwED0Ev @ 484 NONAME
	_ZNSt8messagesIwED1Ev @ 485 NONAME
	_ZNSt8messagesIwED2Ev @ 486 NONAME
	_ZNSt8numpunctIcE16GetFacetLocaleIdEv @ 487 NONAME
	_ZNSt8numpunctIcED0Ev @ 488 NONAME
	_ZNSt8numpunctIcED1Ev @ 489 NONAME
	_ZNSt8numpunctIcED2Ev @ 490 NONAME
	_ZNSt8numpunctIwE16GetFacetLocaleIdEv @ 491 NONAME
	_ZNSt8numpunctIwED0Ev @ 492 NONAME
	_ZNSt8numpunctIwED1Ev @ 493 NONAME
	_ZNSt8numpunctIwED2Ev @ 494 NONAME
	_ZNSt8time_getIcSt19istreambuf_iteratorIcSt11char_traitsIcEEE16GetFacetLocaleIdEv @ 495 NONAME
	_ZNSt8time_getIwSt19istreambuf_iteratorIwSt11char_traitsIwEEE16GetFacetLocaleIdEv @ 496 NONAME
	_ZNSt8time_putIcSt19ostreambuf_iteratorIcSt11char_traitsIcEEE16GetFacetLocaleIdEv @ 497 NONAME
	_ZNSt8time_putIwSt19ostreambuf_iteratorIwSt11char_traitsIwEEE16GetFacetLocaleIdEv @ 498 NONAME
	_ZNSt9money_getIcSt19istreambuf_iteratorIcSt11char_traitsIcEEE16GetFacetLocaleIdEv @ 499 NONAME
	_ZNSt9money_getIwSt19istreambuf_iteratorIwSt11char_traitsIwEEE16GetFacetLocaleIdEv @ 500 NONAME
	_ZNSt9money_putIcSt19ostreambuf_iteratorIcSt11char_traitsIcEEE16GetFacetLocaleIdEv @ 501 NONAME
	_ZNSt9money_putIwSt19ostreambuf_iteratorIwSt11char_traitsIwEEE16GetFacetLocaleIdEv @ 502 NONAME
	_ZNSt9strstream3strEv @ 503 NONAME
	_ZNSt9strstream6freezeEb @ 504 NONAME
	_ZNSt9strstreamC1EPcii @ 505 NONAME
	_ZNSt9strstreamC1Ev @ 506 NONAME
	_ZNSt9strstreamC2EPcii @ 507 NONAME
	_ZNSt9strstreamC2Ev @ 508 NONAME
	_ZNSt9strstreamD0Ev @ 509 NONAME
	_ZNSt9strstreamD1Ev @ 510 NONAME
	_ZNSt9strstreamD2Ev @ 511 NONAME
	_ZNSt9strstreamD9Ev @ 512 NONAME  ABSENT
	_ZSt16_get_Locale_implPSt12_Locale_impl @ 513 NONAME
	_ZSt23__stl_throw_range_errorPKc @ 514 NONAME
	_ZSt24__stl_throw_length_errorPKc @ 515 NONAME
	_ZSt24__stl_throw_out_of_rangePKc @ 516 NONAME
	_ZSt25__stl_throw_runtime_errorPKc @ 517 NONAME
	_ZSt26__stl_throw_overflow_errorPKc @ 518 NONAME
	_ZSt26_copy_Nameless_Locale_implPSt12_Locale_impl @ 519 NONAME
	_ZSt28__stl_throw_invalid_argumentPKc @ 520 NONAME
	_ZSt3absIdET_RKSt7complexIS0_E @ 521 NONAME
	_ZSt3absIeET_RKSt7complexIS0_E @ 522 NONAME
	_ZSt3absIfET_RKSt7complexIS0_E @ 523 NONAME
	_ZSt3argIdET_RKSt7complexIS0_E @ 524 NONAME
	_ZSt3argIeET_RKSt7complexIS0_E @ 525 NONAME
	_ZSt3argIfET_RKSt7complexIS0_E @ 526 NONAME
	_ZSt3cosRKSt7complexIdE @ 527 NONAME
	_ZSt3cosRKSt7complexIeE @ 528 NONAME
	_ZSt3cosRKSt7complexIfE @ 529 NONAME
	_ZSt3expRKSt7complexIdE @ 530 NONAME
	_ZSt3expRKSt7complexIeE @ 531 NONAME
	_ZSt3expRKSt7complexIfE @ 532 NONAME
	_ZSt3logRKSt7complexIdE @ 533 NONAME
	_ZSt3logRKSt7complexIeE @ 534 NONAME
	_ZSt3logRKSt7complexIfE @ 535 NONAME
	_ZSt3powRKSt7complexIdERKd @ 536 NONAME
	_ZSt3powRKSt7complexIdES2_ @ 537 NONAME
	_ZSt3powRKSt7complexIdEi @ 538 NONAME
	_ZSt3powRKSt7complexIeERKe @ 539 NONAME
	_ZSt3powRKSt7complexIeES2_ @ 540 NONAME
	_ZSt3powRKSt7complexIeEi @ 541 NONAME
	_ZSt3powRKSt7complexIfERKf @ 542 NONAME
	_ZSt3powRKSt7complexIfES2_ @ 543 NONAME
	_ZSt3powRKSt7complexIfEi @ 544 NONAME
	_ZSt3powRKdRKSt7complexIdE @ 545 NONAME
	_ZSt3powRKeRKSt7complexIeE @ 546 NONAME
	_ZSt3powRKfRKSt7complexIfE @ 547 NONAME
	_ZSt3sinRKSt7complexIdE @ 548 NONAME
	_ZSt3sinRKSt7complexIeE @ 549 NONAME
	_ZSt3sinRKSt7complexIfE @ 550 NONAME
	_ZSt3tanRKSt7complexIdE @ 551 NONAME
	_ZSt3tanRKSt7complexIeE @ 552 NONAME
	_ZSt3tanRKSt7complexIfE @ 553 NONAME
	_ZSt4coshRKSt7complexIdE @ 554 NONAME
	_ZSt4coshRKSt7complexIeE @ 555 NONAME
	_ZSt4coshRKSt7complexIfE @ 556 NONAME
	_ZSt4sinhRKSt7complexIdE @ 557 NONAME
	_ZSt4sinhRKSt7complexIeE @ 558 NONAME
	_ZSt4sinhRKSt7complexIfE @ 559 NONAME
	_ZSt4sqrtRKSt7complexIdE @ 560 NONAME
	_ZSt4sqrtRKSt7complexIeE @ 561 NONAME
	_ZSt4sqrtRKSt7complexIfE @ 562 NONAME
	_ZSt4tanhRKSt7complexIdE @ 563 NONAME
	_ZSt4tanhRKSt7complexIeE @ 564 NONAME
	_ZSt4tanhRKSt7complexIfE @ 565 NONAME
	_ZSt5log10RKSt7complexIdE @ 566 NONAME
	_ZSt5log10RKSt7complexIeE @ 567 NONAME
	_ZSt5log10RKSt7complexIfE @ 568 NONAME
	_ZSt5polarIdESt7complexIT_ERKS1_S4_ @ 569 NONAME
	_ZSt5polarIeESt7complexIT_ERKS1_S4_ @ 570 NONAME
	_ZSt5polarIfESt7complexIT_ERKS1_S4_ @ 571 NONAME
	_ZSt7get_cinv @ 572 NONAME
	_ZSt8get_cerrv @ 573 NONAME
	_ZSt8get_clogv @ 574 NONAME
	_ZSt8get_coutv @ 575 NONAME
	_ZSt8get_wcinv @ 576 NONAME
	_ZSt9get_wcerrv @ 577 NONAME
	_ZSt9get_wclogv @ 578 NONAME
	_ZSt9get_wcoutv @ 579 NONAME
	_ZStlsRSoRKSt7complexIdE @ 580 NONAME
	_ZStlsRSoRKSt7complexIeE @ 581 NONAME
	_ZStlsRSoRKSt7complexIfE @ 582 NONAME
	_ZStrsRSiRSt7complexIdE @ 583 NONAME
	_ZStrsRSiRSt7complexIeE @ 584 NONAME
	_ZStrsRSiRSt7complexIfE @ 585 NONAME
	_ZTIN9stlp_priv14_Messages_implE @ 586 NONAME
	_ZTIN9stlp_priv16stdio_istreambufE @ 587 NONAME
	_ZTIN9stlp_priv16stdio_ostreambufE @ 588 NONAME
	_ZTIN9stlp_priv20stdio_streambuf_baseE @ 589 NONAME
	_ZTIN9stlp_priv9_MessagesE @ 590 NONAME
	_ZTINSt6locale5facetE @ 591 NONAME
	_ZTINSt8ios_base7failureE @ 592 NONAME
	_ZTISd @ 593 NONAME ABSENT
	_ZTISo @ 594 NONAME ABSENT
	_ZTISt10istrstream @ 595 NONAME
	_ZTISt10moneypunctIcLb0EE @ 596 NONAME
	_ZTISt10moneypunctIcLb1EE @ 597 NONAME
	_ZTISt10moneypunctIwLb0EE @ 598 NONAME
	_ZTISt10moneypunctIwLb1EE @ 599 NONAME
	_ZTISt10ostrstream @ 600 NONAME
	_ZTISt11logic_error @ 601 NONAME
	_ZTISt11range_error @ 602 NONAME
	_ZTISt12ctype_bynameIcE @ 603 NONAME
	_ZTISt12ctype_bynameIwE @ 604 NONAME
	_ZTISt12domain_error @ 605 NONAME
	_ZTISt12length_error @ 606 NONAME
	_ZTISt12out_of_range @ 607 NONAME
	_ZTISt12strstreambuf @ 608 NONAME
	_ZTISt13basic_filebufIcSt11char_traitsIcEE @ 609 NONAME ABSENT
	_ZTISt13basic_filebufIwSt11char_traitsIwEE @ 610 NONAME ABSENT
	_ZTISt13basic_ostreamIwSt11char_traitsIwEE @ 611 NONAME ABSENT
	_ZTISt13runtime_error @ 612 NONAME
	_ZTISt14basic_iostreamIwSt11char_traitsIwEE @ 613 NONAME ABSENT
	_ZTISt14codecvt_bynameIcc11_mb_state_tE @ 614 NONAME
	_ZTISt14codecvt_bynameIwc11_mb_state_tE @ 615 NONAME
	_ZTISt14collate_bynameIcE @ 616 NONAME
	_ZTISt14collate_bynameIwE @ 617 NONAME
	_ZTISt14overflow_error @ 618 NONAME
	_ZTISt15basic_streambufIcSt11char_traitsIcEE @ 619 NONAME ABSENT
	_ZTISt15basic_streambufIwSt11char_traitsIwEE @ 620 NONAME ABSENT
	_ZTISt15basic_stringbufIcSt11char_traitsIcESaIcEE @ 621 NONAME ABSENT
	_ZTISt15basic_stringbufIwSt11char_traitsIwESaIwEE @ 622 NONAME ABSENT
	_ZTISt15messages_bynameIcE @ 623 NONAME
	_ZTISt15messages_bynameIwE @ 624 NONAME
	_ZTISt15numpunct_bynameIcE @ 625 NONAME
	_ZTISt15numpunct_bynameIwE @ 626 NONAME
	_ZTISt15underflow_error @ 627 NONAME
	_ZTISt16invalid_argument @ 628 NONAME
	_ZTISt17__Named_exception @ 629 NONAME
	_ZTISt17moneypunct_bynameIcLb0EE @ 630 NONAME
	_ZTISt17moneypunct_bynameIcLb1EE @ 631 NONAME
	_ZTISt17moneypunct_bynameIwLb0EE @ 632 NONAME
	_ZTISt17moneypunct_bynameIwLb1EE @ 633 NONAME
	_ZTISt18basic_stringstreamIcSt11char_traitsIcESaIcEE @ 634 NONAME ABSENT
	_ZTISt18basic_stringstreamIwSt11char_traitsIwESaIwEE @ 635 NONAME ABSENT
	_ZTISt19basic_istringstreamIcSt11char_traitsIcESaIcEE @ 636 NONAME ABSENT
	_ZTISt19basic_istringstreamIwSt11char_traitsIwESaIwEE @ 637 NONAME ABSENT
	_ZTISt19basic_ostringstreamIcSt11char_traitsIcESaIcEE @ 638 NONAME ABSENT
	_ZTISt19basic_ostringstreamIwSt11char_traitsIwESaIwEE @ 639 NONAME ABSENT
	_ZTISt5ctypeIcE @ 640 NONAME
	_ZTISt5ctypeIwE @ 641 NONAME
	_ZTISt7codecvtIcc11_mb_state_tE @ 642 NONAME
	_ZTISt7codecvtIwc11_mb_state_tE @ 643 NONAME
	_ZTISt7collateIcE @ 644 NONAME
	_ZTISt7collateIwE @ 645 NONAME
	_ZTISt7num_getIcSt19istreambuf_iteratorIcSt11char_traitsIcEEE @ 646 NONAME
	_ZTISt7num_getIwSt19istreambuf_iteratorIwSt11char_traitsIwEEE @ 647 NONAME
	_ZTISt7num_putIcSt19ostreambuf_iteratorIcSt11char_traitsIcEEE @ 648 NONAME
	_ZTISt7num_putIwSt19ostreambuf_iteratorIwSt11char_traitsIwEEE @ 649 NONAME
	_ZTISt8ios_base @ 650 NONAME
	_ZTISt8messagesIcE @ 651 NONAME
	_ZTISt8messagesIwE @ 652 NONAME
	_ZTISt8numpunctIcE @ 653 NONAME
	_ZTISt8numpunctIwE @ 654 NONAME
	_ZTISt8time_getIcSt19istreambuf_iteratorIcSt11char_traitsIcEEE @ 655 NONAME
	_ZTISt8time_getIwSt19istreambuf_iteratorIwSt11char_traitsIwEEE @ 656 NONAME
	_ZTISt8time_putIcSt19ostreambuf_iteratorIcSt11char_traitsIcEEE @ 657 NONAME
	_ZTISt8time_putIwSt19ostreambuf_iteratorIwSt11char_traitsIwEEE @ 658 NONAME
	_ZTISt9money_getIcSt19istreambuf_iteratorIcSt11char_traitsIcEEE @ 659 NONAME
	_ZTISt9money_getIwSt19istreambuf_iteratorIwSt11char_traitsIwEEE @ 660 NONAME
	_ZTISt9money_putIcSt19ostreambuf_iteratorIcSt11char_traitsIcEEE @ 661 NONAME
	_ZTISt9money_putIwSt19ostreambuf_iteratorIwSt11char_traitsIwEEE @ 662 NONAME
	_ZTISt9strstream @ 663 NONAME
	_ZTTSd @ 664 NONAME ABSENT
	_ZTTSi @ 665 NONAME ABSENT 
	_ZTTSo @ 666 NONAME ABSENT
	_ZTTSt10istrstream @ 667 NONAME
	_ZTTSt10ostrstream @ 668 NONAME
	_ZTTSt13basic_fstreamIcSt11char_traitsIcEE @ 669 NONAME ABSENT
	_ZTTSt13basic_fstreamIwSt11char_traitsIwEE @ 670 NONAME  ABSENT
	_ZTTSt13basic_istreamIwSt11char_traitsIwEE @ 671 NONAME ABSENT
	_ZTTSt13basic_ostreamIwSt11char_traitsIwEE @ 672 NONAME ABSENT
	_ZTTSt14basic_ifstreamIcSt11char_traitsIcEE @ 673 NONAME  ABSENT
	_ZTTSt14basic_ifstreamIwSt11char_traitsIwEE @ 674 NONAME ABSENT
	_ZTTSt14basic_iostreamIwSt11char_traitsIwEE @ 675 NONAME ABSENT
	_ZTTSt14basic_ofstreamIcSt11char_traitsIcEE @ 676 NONAME  ABSENT
	_ZTTSt14basic_ofstreamIwSt11char_traitsIwEE @ 677 NONAME  ABSENT
	_ZTTSt18basic_stringstreamIcSt11char_traitsIcESaIcEE @ 678 NONAME ABSENT
	_ZTTSt18basic_stringstreamIwSt11char_traitsIwESaIwEE @ 679 NONAME ABSENT
	_ZTTSt19basic_istringstreamIcSt11char_traitsIcESaIcEE @ 680 NONAME ABSENT
	_ZTTSt19basic_istringstreamIwSt11char_traitsIwESaIwEE @ 681 NONAME ABSENT
	_ZTTSt19basic_ostringstreamIcSt11char_traitsIcESaIcEE @ 682 NONAME ABSENT
	_ZTTSt19basic_ostringstreamIwSt11char_traitsIwESaIwEE @ 683 NONAME ABSENT
	_ZTTSt9strstream @ 684 NONAME
	_ZTVN9stlp_priv14_Messages_implE @ 685 NONAME
	_ZTVN9stlp_priv16stdio_istreambufE @ 686 NONAME
	_ZTVN9stlp_priv16stdio_ostreambufE @ 687 NONAME
	_ZTVN9stlp_priv20stdio_streambuf_baseE @ 688 NONAME
	_ZTVN9stlp_priv9_MessagesE @ 689 NONAME
	_ZTVNSt6locale5facetE @ 690 NONAME
	_ZTVNSt8ios_base7failureE @ 691 NONAME
	_ZTVSd @ 692 NONAME ABSENT
	_ZTVSo @ 693 NONAME ABSENT
	_ZTVSt10istrstream @ 694 NONAME
	_ZTVSt10moneypunctIcLb0EE @ 695 NONAME
	_ZTVSt10moneypunctIcLb1EE @ 696 NONAME
	_ZTVSt10moneypunctIwLb0EE @ 697 NONAME
	_ZTVSt10moneypunctIwLb1EE @ 698 NONAME
	_ZTVSt10ostrstream @ 699 NONAME
	_ZTVSt11logic_error @ 700 NONAME
	_ZTVSt11range_error @ 701 NONAME
	_ZTVSt12ctype_bynameIcE @ 702 NONAME
	_ZTVSt12ctype_bynameIwE @ 703 NONAME
	_ZTVSt12domain_error @ 704 NONAME
	_ZTVSt12length_error @ 705 NONAME
	_ZTVSt12out_of_range @ 706 NONAME
	_ZTVSt12strstreambuf @ 707 NONAME
	_ZTVSt13basic_filebufIcSt11char_traitsIcEE @ 708 NONAME ABSENT
	_ZTVSt13basic_filebufIwSt11char_traitsIwEE @ 709 NONAME ABSENT
	_ZTVSt13basic_ostreamIwSt11char_traitsIwEE @ 710 NONAME ABSENT
	_ZTVSt13runtime_error @ 711 NONAME
	_ZTVSt14basic_iostreamIwSt11char_traitsIwEE @ 712 NONAME ABSENT
	_ZTVSt14codecvt_bynameIcc11_mb_state_tE @ 713 NONAME
	_ZTVSt14codecvt_bynameIwc11_mb_state_tE @ 714 NONAME
	_ZTVSt14collate_bynameIcE @ 715 NONAME
	_ZTVSt14collate_bynameIwE @ 716 NONAME
	_ZTVSt14overflow_error @ 717 NONAME
	_ZTVSt15basic_streambufIcSt11char_traitsIcEE @ 718 NONAME ABSENT
	_ZTVSt15basic_streambufIwSt11char_traitsIwEE @ 719 NONAME ABSENT
	_ZTVSt15basic_stringbufIcSt11char_traitsIcESaIcEE @ 720 NONAME ABSENT
	_ZTVSt15basic_stringbufIwSt11char_traitsIwESaIwEE @ 721 NONAME ABSENT
	_ZTVSt15messages_bynameIcE @ 722 NONAME
	_ZTVSt15messages_bynameIwE @ 723 NONAME
	_ZTVSt15numpunct_bynameIcE @ 724 NONAME
	_ZTVSt15numpunct_bynameIwE @ 725 NONAME
	_ZTVSt15underflow_error @ 726 NONAME
	_ZTVSt16invalid_argument @ 727 NONAME
	_ZTVSt17__Named_exception @ 728 NONAME
	_ZTVSt17moneypunct_bynameIcLb0EE @ 729 NONAME
	_ZTVSt17moneypunct_bynameIcLb1EE @ 730 NONAME
	_ZTVSt17moneypunct_bynameIwLb0EE @ 731 NONAME
	_ZTVSt17moneypunct_bynameIwLb1EE @ 732 NONAME
	_ZTVSt18basic_stringstreamIcSt11char_traitsIcESaIcEE @ 733 NONAME ABSENT
	_ZTVSt18basic_stringstreamIwSt11char_traitsIwESaIwEE @ 734 NONAME ABSENT
	_ZTVSt19basic_istringstreamIcSt11char_traitsIcESaIcEE @ 735 NONAME ABSENT
	_ZTVSt19basic_istringstreamIwSt11char_traitsIwESaIwEE @ 736 NONAME ABSENT
	_ZTVSt19basic_ostringstreamIcSt11char_traitsIcESaIcEE @ 737 NONAME ABSENT
	_ZTVSt19basic_ostringstreamIwSt11char_traitsIwESaIwEE @ 738 NONAME ABSENT
	_ZTVSt5ctypeIcE @ 739 NONAME
	_ZTVSt5ctypeIwE @ 740 NONAME
	_ZTVSt7codecvtIcc11_mb_state_tE @ 741 NONAME
	_ZTVSt7codecvtIwc11_mb_state_tE @ 742 NONAME
	_ZTVSt7collateIcE @ 743 NONAME
	_ZTVSt7collateIwE @ 744 NONAME
	_ZTVSt7num_getIcSt19istreambuf_iteratorIcSt11char_traitsIcEEE @ 745 NONAME
	_ZTVSt7num_getIwSt19istreambuf_iteratorIwSt11char_traitsIwEEE @ 746 NONAME
	_ZTVSt7num_putIcSt19ostreambuf_iteratorIcSt11char_traitsIcEEE @ 747 NONAME
	_ZTVSt7num_putIwSt19ostreambuf_iteratorIwSt11char_traitsIwEEE @ 748 NONAME
	_ZTVSt8ios_base @ 749 NONAME
	_ZTVSt8messagesIcE @ 750 NONAME
	_ZTVSt8messagesIwE @ 751 NONAME
	_ZTVSt8numpunctIcE @ 752 NONAME
	_ZTVSt8numpunctIwE @ 753 NONAME
	_ZTVSt8time_getIcSt19istreambuf_iteratorIcSt11char_traitsIcEEE @ 754 NONAME
	_ZTVSt8time_getIwSt19istreambuf_iteratorIwSt11char_traitsIwEEE @ 755 NONAME
	_ZTVSt8time_putIcSt19ostreambuf_iteratorIcSt11char_traitsIcEEE @ 756 NONAME
	_ZTVSt8time_putIwSt19ostreambuf_iteratorIwSt11char_traitsIwEEE @ 757 NONAME
	_ZTVSt9money_getIcSt19istreambuf_iteratorIcSt11char_traitsIcEEE @ 758 NONAME
	_ZTVSt9money_getIwSt19istreambuf_iteratorIwSt11char_traitsIwEEE @ 759 NONAME
	_ZTVSt9money_putIcSt19ostreambuf_iteratorIcSt11char_traitsIcEEE @ 760 NONAME
	_ZTVSt9money_putIwSt19ostreambuf_iteratorIwSt11char_traitsIwEEE @ 761 NONAME
	_ZTVSt9strstream @ 762 NONAME
	_ZThn8_NSt9strstreamD0Ev @ 763 NONAME
	_ZThn8_NSt9strstreamD1Ev @ 764 NONAME
	_ZThn8_NSt9strstreamD9Ev @ 765 NONAME ABSENT
	_ZTv0_n12_NSt10istrstreamD0Ev @ 766 NONAME
	_ZTv0_n12_NSt10istrstreamD1Ev @ 767 NONAME
	_ZTv0_n12_NSt10istrstreamD9Ev @ 768 NONAME ABSENT
	_ZTv0_n12_NSt10ostrstreamD0Ev @ 769 NONAME
	_ZTv0_n12_NSt10ostrstreamD1Ev @ 770 NONAME
	_ZTv0_n12_NSt10ostrstreamD9Ev @ 771 NONAME ABSENT
	_ZTv0_n12_NSt9strstreamD0Ev @ 772 NONAME
	_ZTv0_n12_NSt9strstreamD1Ev @ 773 NONAME
	_ZTv0_n12_NSt9strstreamD9Ev @ 774 NONAME ABSENT
	_ZNK9stlp_priv9_Messages6do_getEiiiRKSs @ 775 NONAME
	_ZNK9stlp_priv9_Messages7do_openERKSsRKSt6locale @ 776 NONAME
	_ZNK9stlp_priv9_Messages8do_closeEi @ 777 NONAME
	_Z12backend_freePv @ 778 NONAME
	_Z16backend_allocatej @ 779 NONAME

