EXPORTS
	_Z12ExternalizeL5TSizeR12RWriteStream @ 1 NONAME
	_Z12ExternalizeLxR12RWriteStream @ 2 NONAME
	_Z12ExternalizeL6TPointR12RWriteStream @ 3 NONAME
	_Z12ExternalizeLRK11TCheckedUidR12RWriteStream @ 4 NONAME
	_Z12ExternalizeLRK5TRectR12RWriteStream @ 5 NONAME
	_Z12ExternalizeLRK6TDesC8R12RWriteStream @ 6 NONAME
	_Z12ExternalizeLRK7TDesC16R12RWriteStream @ 7 NONAME
	_Z12ExternalizeLRK8CBufBaseR12RWriteStream @ 8 NONAME
	_Z12InternalizeLR11TCheckedUidR11RReadStream @ 9 NONAME
	_Z12InternalizeLR5TDes8R11RReadStream @ 10 NONAME
	_Z12InternalizeLR5TRectR11RReadStream @ 11 NONAME
	_Z12InternalizeLR5TSizeR11RReadStream @ 12 NONAME
	_Z12InternalizeLR6TDes16R11RReadStream @ 13 NONAME
	_Z12InternalizeLRxR11RReadStream @ 14 NONAME
	_Z12InternalizeLR6TPointR11RReadStream @ 15 NONAME
	_Z12InternalizeLR8CBufBaseR11RReadStream @ 16 NONAME
	_Z17DoExternalizeAllLRK13CArrayFixBaseR12RWriteStream13TExternalizerIvE @ 17 NONAME
	_Z17DoInternalizeAllLR13CArrayFixBaseR11RReadStream13TInternalizerIvE @ 18 NONAME
	_Z22ArrayExternalizeCountLiR12RWriteStream @ 19 NONAME
	_Z22ArrayInternalizeCountLR11RReadStream @ 20 NONAME
	_ZN10CFileStore4NewLER5RFilePFPS_S1_E @ 21 NONAME
	_ZN10CFileStore5FromLER5RFile @ 22 NONAME
	_ZN10CFileStore5FromLER5RFilePFPS_R8RFileBufRK8TUidTypeE @ 23 NONAME
	_ZN10CFileStore5FromLER5RFilePKPFPS_R8RFileBufRK8TUidTypeE @ 24 NONAME
	_ZN10CFileStore5NewLCER5RFilePFPS_S1_E @ 25 NONAME
	_ZN10CFileStore5OpenLER3RFsRK7TDesC16j @ 26 NONAME
	_ZN10CFileStore5OpenLER3RFsRK7TDesC16jPFPS_R8RFileBufRK8TUidTypeE @ 27 NONAME
	_ZN10CFileStore5OpenLER3RFsRK7TDesC16jPKPFPS_R8RFileBufRK8TUidTypeE @ 28 NONAME
	_ZN10CFileStore5TempLER3RFsRK7TDesC16R4TBufILi256EEjPFPS_R5RFileE @ 29 NONAME
	_ZN10CFileStore6FromLCER5RFile @ 30 NONAME
	_ZN10CFileStore6FromLCER5RFilePFPS_R8RFileBufRK8TUidTypeE @ 31 NONAME
	_ZN10CFileStore6FromLCER5RFilePKPFPS_R8RFileBufRK8TUidTypeE @ 32 NONAME
	_ZN10CFileStore6OpenLCER3RFsRK7TDesC16j @ 33 NONAME
	_ZN10CFileStore6OpenLCER3RFsRK7TDesC16jPFPS_R8RFileBufRK8TUidTypeE @ 34 NONAME
	_ZN10CFileStore6OpenLCER3RFsRK7TDesC16jPKPFPS_R8RFileBufRK8TUidTypeE @ 35 NONAME
	_ZN10CFileStore6SynchLEv @ 36 NONAME
	_ZN10CFileStore6TempLCER3RFsRK7TDesC16R4TBufILi256EEjPFPS_R5RFileE @ 37 NONAME
	_ZN10CFileStore7CreateLER3RFsRK7TDesC16jPFPS_R5RFileE @ 38 NONAME
	_ZN10CFileStore8ChangedLEv @ 39 NONAME
	_ZN10CFileStore8CreateLCER3RFsRK7TDesC16jPFPS_R5RFileE @ 40 NONAME
	_ZN10CFileStore8DestructEv @ 41 NONAME
	_ZN10CFileStore8MarshalLEv @ 42 NONAME
	_ZN10CFileStore8RefreshLEv @ 43 NONAME
	_ZN10CFileStore8ReplaceLER3RFsRK7TDesC16jPFPS_R5RFileE @ 44 NONAME
	_ZN10CFileStore8SetTypeLERK8TUidType @ 45 NONAME
	_ZN10CFileStore9DoCommitLEv @ 46 NONAME
	_ZN10CFileStore9DoRevertLEv @ 47 NONAME
	_ZN10CFileStore9ReplaceLCER3RFsRK7TDesC16jPFPS_R5RFileE @ 48 NONAME
	_ZN23RPermanentFileStoreIter7ResetLCERK19CPermanentFileStore @ 49 NONAME
	_ZN23RPermanentFileStoreIter5NextLEv @ 50 NONAME
	_ZN10CFileStoreC2ER5RFile @ 51 NONAME
	_ZN10CFileStoreC2ER8RFileBufRK8TUidType @ 52 NONAME
	_ZN10CFileStoreD0Ev @ 53 NONAME
	_ZN10CFileStoreD1Ev @ 54 NONAME
	_ZN10CFileStoreD2Ev @ 55 NONAME
	_ZN10CPageCache10ConstructLEi @ 56 NONAME
	_ZN10CPageCache4NewLEi @ 57 NONAME
	_ZN10CPageCache5NewLCEi @ 58 NONAME
	_ZN10CPageCacheC1Ev @ 59 NONAME
	_ZN10CPageCacheC2Ev @ 60 NONAME
	_ZN10CPageCacheD0Ev @ 61 NONAME
	_ZN10CPageCacheD1Ev @ 62 NONAME
	_ZN10CPageCacheD2Ev @ 63 NONAME
	_ZN10MStreamBuf4ReadER5TDes8R14TRequestStatus @ 64 NONAME
	_ZN10MStreamBuf4ReadER5TDes8iR14TRequestStatus @ 65 NONAME
	_ZN10MStreamBuf5CloseEv @ 66 NONAME
	_ZN10MStreamBuf5PushLEv @ 67 NONAME
	_ZN10MStreamBuf5ReadLER12MStreamInputi @ 68 NONAME
	_ZN10MStreamBuf5ReadLER5TDes8R14TRequestStatus @ 69 NONAME
	_ZN10MStreamBuf5SynchEv @ 70 NONAME
	_ZN10MStreamBuf5WriteERK6TDesC8R14TRequestStatus @ 71 NONAME
	_ZN10MStreamBuf5WriteERK6TDesC8iR14TRequestStatus @ 72 NONAME
	_ZN10MStreamBuf6WriteLER13MStreamOutputi @ 73 NONAME
	_ZN10MStreamBuf6WriteLERK6TDesC8R14TRequestStatus @ 74 NONAME
	_ZN10MStreamBuf7DoReadLEPvi @ 75 NONAME
	_ZN10MStreamBuf7DoReadLER12MStreamInput15TStreamTransfer @ 76 NONAME
	_ZN10MStreamBuf7DoReadLER5TDes8iR14TRequestStatus @ 77 NONAME
	_ZN10MStreamBuf7DoSeekLEi15TStreamLocationi @ 78 NONAME
	_ZN10MStreamBuf8DoSynchLEv @ 79 NONAME
	_ZN10MStreamBuf8DoWriteLEPKvi @ 80 NONAME
	_ZN10MStreamBuf8DoWriteLER13MStreamOutput15TStreamTransfer @ 81 NONAME
	_ZN10MStreamBuf8DoWriteLERK6TDesC8iR14TRequestStatus @ 82 NONAME
	_ZN10MStreamBuf9DoReleaseEv @ 83 NONAME
	_ZN10TStreamBuf6SetBufEiPhS0_ @ 84 NONAME
	_ZN10TStreamBuf6SetEndEiPh @ 85 NONAME
	_ZN10TStreamBuf6SetPtrEiPh @ 86 NONAME
	_ZN10TStreamBuf7DoReadLEPvi @ 87 NONAME
	_ZN10TStreamBuf7DoReadLER12MStreamInput15TStreamTransfer @ 88 NONAME
	_ZN10TStreamBuf8DoWriteLEPKvi @ 89 NONAME
	_ZN10TStreamBuf8DoWriteLER13MStreamOutput15TStreamTransfer @ 90 NONAME
	_ZN23RPermanentFileStoreIter5CloseEv @ 91 NONAME
	_ZN10TStreamBufC2Ev @ 92 NONAME
	_ZN11CPBAuthData4NewLER11RReadStream @ 93 NONAME
	_ZN11CPBAuthData5NewLCER11RReadStream @ 94 NONAME
	_ZN11RReadStream10ReadInt16LEv @ 95 NONAME
	_ZN11RReadStream10ReadInt32LEv @ 96 NONAME
	_ZN11RReadStream10ReadUint8LEv @ 97 NONAME
	_ZN11RReadStream11ReadReal32LEv @ 98 NONAME
	_ZN11RReadStream11ReadReal64LEv @ 99 NONAME
	_ZN11RReadStream11ReadUint16LEv @ 100 NONAME
	_ZN11RReadStream11ReadUint32LEv @ 101 NONAME
	_ZN11RReadStream5PushLEv @ 102 NONAME
	_ZN11RReadStream5ReadLEPhi @ 103 NONAME
	_ZN11RReadStream5ReadLEPti @ 104 NONAME
	_ZN11RReadStream5ReadLER5TDes8 @ 105 NONAME
	_ZN11RReadStream5ReadLER5TDes85TChar @ 106 NONAME
	_ZN11RReadStream5ReadLER5TDes8i @ 107 NONAME
	_ZN11RReadStream5ReadLER6TDes16 @ 108 NONAME
	_ZN11RReadStream5ReadLER6TDes165TChar @ 109 NONAME
	_ZN11RReadStream5ReadLER6TDes16i @ 110 NONAME
	_ZN11RReadStream5ReadLEi @ 111 NONAME
	_ZN11RReadStream7ReleaseEv @ 112 NONAME
	_ZN11RReadStream9ReadInt8LEv @ 113 NONAME
	_ZN11TBtreeToken12InternalizeLER11RReadStream @ 114 NONAME
	_ZN11TBtreeToken5ClearEv @ 115 NONAME
	_ZN11TStreamMark11__DbgChkPosE10TStreamPos @ 116 NONAME
	_ZN11TStreamMark5ReadLER15TStreamExchangeR5TDes8R14TRequestStatus @ 117 NONAME
	_ZN11TStreamMark6WriteLER15TStreamExchangeRK6TDesC8R14TRequestStatus @ 118 NONAME
	_ZN12CMemPagePool4NewLEv @ 119 NONAME
	_ZN12CMemPagePool5LockLE8TPageRef @ 120 NONAME
	_ZN12CMemPagePool5NewLCEv @ 121 NONAME
	_ZN12CMemPagePool6AllocLEv @ 122 NONAME
	_ZN12CMemPagePool6UnlockEPKv11TPageChange @ 123 NONAME
	_ZN12CMemPagePool7AssignLEPKv16TPageReclamation @ 124 NONAME
	_ZN12CMemPagePool7UpdateLEPKv @ 125 NONAME
	_ZN12CMemPagePool8AcquireLEv @ 126 NONAME
	_ZN12CMemPagePool9DoDeleteLE8TPageRef @ 127 NONAME
	_ZN12CMemPagePoolC1Ev @ 128 NONAME
	_ZN12CMemPagePoolC2Ev @ 129 NONAME
	_ZN12CMemPagePoolD0Ev @ 130 NONAME
	_ZN12CMemPagePoolD1Ev @ 131 NONAME
	_ZN12CMemPagePoolD2Ev @ 132 NONAME
	_ZN12CSecureStore10DoReplaceLE9TStreamId @ 133 NONAME
	_ZN12CSecureStore4NewLER12CStreamStoreRK13CPBEncryptSet @ 134 NONAME
	_ZTV24CPermanentStoreCollector @ 135 NONAME ABSENT ; #<VT>#
	_ZN12CSecureStore5NewLCER12CStreamStoreRK13CPBEncryptSet @ 136 NONAME
	_ZTV20CPermanentStoreCoord @ 137 NONAME ABSENT ; #<VT>#
	_ZN12CSecureStore8DoWriteLE9TStreamId @ 138 NONAME
	_ZN12CSecureStore9DoCommitLEv @ 139 NONAME
	_ZN12CSecureStore9DoCreateLER9TStreamId @ 140 NONAME
	_ZN12CSecureStore9DoDeleteLE9TStreamId @ 141 NONAME
	_ZN12CSecureStore9DoExtendLEv @ 142 NONAME
	_ZN12CSecureStore9DoRevertLEv @ 143 NONAME
	_ZTV19HDictionaryStoreBuf @ 144 NONAME ABSENT ; #<VT>#
	_ZTV18HPermanentStoreBuf @ 145 NONAME ABSENT ; #<VT>#
	_ZN12CStreamStore10DoCompactLEv @ 146 NONAME
	_ZN12CStreamStore10DoReclaimLEv @ 147 NONAME
	_ZN12CStreamStore10DoReplaceLE9TStreamId @ 148 NONAME
	_ZN12CStreamStore6CommitEv @ 149 NONAME
	_ZN12CStreamStore6DeleteE9TStreamId @ 150 NONAME
	_ZN12CStreamStore6RevertEv @ 151 NONAME
	_ZN12CStreamStore7DeleteLE9TStreamId @ 152 NONAME
	_ZN12CStreamStore8CompactLEv @ 153 NONAME
	_ZN12CStreamStore8DoWriteLE9TStreamId @ 154 NONAME
	_ZN12CStreamStore8ReclaimLEv @ 155 NONAME
	_ZN12CStreamStore9DoCommitLEv @ 156 NONAME
	_ZN12CStreamStore9DoDeleteLE9TStreamId @ 157 NONAME
	_ZN12CStreamStore9DoExtendLEv @ 158 NONAME
	_ZN12CStreamStore9DoRevertLEv @ 159 NONAME
	_ZN12RWriteStream10WriteInt8LEi @ 160 NONAME
	_ZN12RWriteStream11WriteInt16LEi @ 161 NONAME
	_ZN12RWriteStream11WriteInt32LEl @ 162 NONAME
	_ZN12RWriteStream11WriteUint8LEj @ 163 NONAME
	_ZN12RWriteStream12WriteReal32LEd @ 164 NONAME
	_ZN12RWriteStream12WriteReal64LEd @ 165 NONAME
	_ZN12RWriteStream12WriteUint16LEj @ 166 NONAME
	_ZN12RWriteStream12WriteUint32LEm @ 167 NONAME
	_ZN12RWriteStream5CloseEv @ 168 NONAME
	_ZN12RWriteStream5PushLEv @ 169 NONAME
	_ZN12RWriteStream6WriteLEPKhi @ 170 NONAME
	_ZN12RWriteStream6WriteLEPKti @ 171 NONAME
	_ZN12RWriteStream6WriteLER11RReadStream @ 172 NONAME
	_ZN12RWriteStream6WriteLER11RReadStreami @ 173 NONAME
	_ZN12RWriteStream6WriteLERK6TDesC8 @ 174 NONAME
	_ZN12RWriteStream6WriteLERK6TDesC8i @ 175 NONAME
	_ZN12RWriteStream6WriteLERK7TDesC16 @ 176 NONAME
	_ZN12RWriteStream6WriteLERK7TDesC16i @ 177 NONAME
	_ZN12RWriteStream7CommitLEv @ 178 NONAME
	_ZN12RWriteStream7ReleaseEv @ 179 NONAME
	_ZN12RWriteStream9WriteRefLE10TStreamRef @ 180 NONAME
	_ZN12TCardinality12InternalizeLER11RReadStream @ 181 NONAME
	_ZN12TCardinality13__DbgChkRangeEi @ 182 NONAME
	_ZN13RFilePagePool5CloseEv @ 183 NONAME
	_ZN13RFilePagePool5FlushEv @ 184 NONAME
	_ZN13RFilePagePool5ReadLE8TPageRefPv @ 185 NONAME
	_ZN13RFilePagePool6FlushLEv @ 186 NONAME
	_ZN13RFilePagePool6WriteLE8TPageRefPKv11TPageChange @ 187 NONAME
	_ZN13RFilePagePool7ExtendLEPKv16TPageReclamation @ 188 NONAME
	_ZN13RFilePagePool7ReleaseEv @ 189 NONAME
	_ZN13RFilePagePoolC1ER10CPageCache @ 190 NONAME
	_ZN13RFilePagePoolC1Ev @ 191 NONAME
	_ZN13RFilePagePoolC2ER10CPageCache @ 192 NONAME
	_ZN13RFilePagePoolC2Ev @ 193 NONAME
	_ZN13RStoreReclaim4NextER8TPckgBufIiER14TRequestStatus @ 194 NONAME
	_ZN13RStoreReclaim4NextERi @ 195 NONAME
	_ZN13RStoreReclaim5NextLER8TPckgBufIiER14TRequestStatus @ 196 NONAME
	_ZN13RStoreReclaim5NextLERi @ 197 NONAME
	_ZN13RStoreReclaim5OpenLER12CStreamStoreRi @ 198 NONAME
	_ZN13RStoreReclaim6OpenLCER12CStreamStoreRi @ 199 NONAME
	_ZN13RStoreReclaim6ResetLERi @ 200 NONAME
	_ZN13RStoreReclaim7ReleaseEv @ 201 NONAME
	_ZN13RStoreReclaim8CompactLER12CStreamStoreRi @ 202 NONAME
	_ZN13RStoreReclaim9CompactLCER12CStreamStoreRi @ 203 NONAME
	_ZN13TBtreeFixBase7ConnectEP9MPagePoolPK9MBtreeKey @ 204 NONAME
	_ZN13TBtreeFixBase7InsertLER9TBtreePosPKv16TAllowDuplicates @ 205 NONAME
	_ZN13TBtreeFixBaseC1E10TBtreeModeii @ 206 NONAME
	_ZN13TBtreeFixBaseC1ERK11TBtreeToken10TBtreeModeii @ 207 NONAME
	_ZN13TBtreeFixBaseC2E10TBtreeModeii @ 208 NONAME
	_ZN13TBtreeFixBaseC2ERK11TBtreeToken10TBtreeModeii @ 209 NONAME
	_ZN13TPagedSetBase22InsertAllowDuplicatesLEPKv @ 210 NONAME
	_ZN13TPagedSetBase3SetERK14TPagedSetToken @ 211 NONAME
	_ZN13TPagedSetBase6ClearLEv @ 212 NONAME
	_ZN13TPagedSetBase7ConnectEP9MPagePool @ 213 NONAME
	_ZN13TPagedSetBase7DeleteLEPKv @ 214 NONAME
	_ZN13TPagedSetBase7InsertLEPKv @ 215 NONAME
	_ZN13TPagedSetBase7RepairLEv @ 216 NONAME
	_ZN13TPagedSetBaseC1ERK14TPagedSetTokeni @ 217 NONAME
	_ZN13TPagedSetBaseC1Ei @ 218 NONAME
	_ZN13TPagedSetBaseC2ERK14TPagedSetTokeni @ 219 NONAME
	_ZN13TPagedSetBaseC2Ei @ 220 NONAME
	_ZN13TSecureFilter7FilterLEPviRPKhS2_ @ 221 NONAME
	_ZN13TSecureFilter8CapacityEi @ 222 NONAME
	_ZN13TSecureFilter8DoSynchLEv @ 223 NONAME
	_ZN13TStreamFilter12__DbgChkModeEi @ 224 NONAME
	_ZN13TStreamFilter5EmitLEPKvi @ 225 NONAME
	_ZN13TStreamFilter7DoReadLEPvi @ 226 NONAME
	_ZN13TStreamFilter8DoSynchLEv @ 227 NONAME
	_ZN13TStreamFilter8DoWriteLEPKvi @ 228 NONAME
	_ZN13TStreamFilter9DoReleaseEv @ 229 NONAME
	_ZThn4_N12CMemPagePool9DoDeleteLE8TPageRef @ 230 NONAME ; #<thunk>#
	_ZN13TStreamFilterC2Ev @ 231 NONAME
	_ZN13TSwizzleCBase11__DbgChkPtrEPKv @ 232 NONAME
	_ZN13TSwizzleCBase11__DbgChkRefE10TStreamRef @ 233 NONAME
	_ZN13TSwizzleCBase12InternalizeLER11RReadStream @ 234 NONAME
	_ZN13TSwizzleCBase7IsIdRepEPKv @ 235 NONAME
	_ZN13TSwizzleCBase8IsPtrRepEPKv @ 236 NONAME
	_ZN13TSwizzleCBaseC1E9TStreamId @ 237 NONAME
	_ZN13TSwizzleCBaseC2E9TStreamId @ 238 NONAME
	_ZN14CEmbeddedStore10ConstructLER12RWriteStream @ 239 NONAME
	_ZN14CEmbeddedStore10DoSetRootLE9TStreamId @ 240 NONAME
	_ZN14CEmbeddedStore4NewLER12RWriteStream @ 241 NONAME
	_ZN14CEmbeddedStore5FromLER11RReadStream @ 242 NONAME
	_ZN14CEmbeddedStore5NewLCER12RWriteStream @ 243 NONAME
	_ZN14CEmbeddedStore6DetachEv @ 244 NONAME
	_ZN14CEmbeddedStore6FromLCER11RReadStream @ 245 NONAME
	_ZN14CEmbeddedStore8MarshalLER11RReadStream @ 246 NONAME
	_ZN14CEmbeddedStore9DoCommitLEv @ 247 NONAME
	_ZN14CEmbeddedStore9DoCreateLER9TStreamId @ 248 NONAME
	_ZN14CEmbeddedStoreC1EP10MStreamBuf @ 249 NONAME
	_ZN14CEmbeddedStoreC2EP10MStreamBuf @ 250 NONAME
	_ZN14CEmbeddedStoreD0Ev @ 251 NONAME
	_ZN14CEmbeddedStoreD1Ev @ 252 NONAME
	_ZN14CEmbeddedStoreD2Ev @ 253 NONAME
	_ZN14RBufReadStream4OpenERK8CBufBasei @ 254 NONAME
	_ZN14RBufReadStreamC1ERK8CBufBasei @ 255 NONAME
	_ZN14RBufReadStreamC2ERK8CBufBasei @ 256 NONAME
	_ZTV18CPermanentStoreToc @ 257 NONAME ABSENT ; #<VT>#
	_ZN14RDecryptStream5OpenLER11RReadStreamRK17CPBEncryptionBase @ 258 NONAME
	_ZTV17TDelimitedInput16 @ 259 NONAME ABSENT ; #<VT>#
	_ZN14RDecryptStream6OpenLCER11RReadStreamRK17CPBEncryptionBase @ 260 NONAME
	_ZTV17CPBEncryptionData @ 261 NONAME ; #<VT>#
	_ZN14RDecryptStream7AttachLER11RReadStreamRK17CPBEncryptionBase @ 262 NONAME
	_ZTV16TDelimitedInput8 @ 263 NONAME ABSENT ; #<VT>#
	_ZN14RDecryptStream8AttachLCER11RReadStreamRK17CPBEncryptionBase @ 264 NONAME
	_ZN14RDesReadStream4OpenERK6TDesC8 @ 265 NONAME
	_ZN14RDesReadStreamC1ERK6TDesC8 @ 266 NONAME
	_ZN14RDesReadStreamC2ERK6TDesC8 @ 267 NONAME
	_ZTV16CDictionaryStore @ 268 NONAME ; #<VT>#
	_ZN14REncryptStream5OpenLER12RWriteStreamRK17CPBEncryptionBase @ 269 NONAME
	_ZTV15TRelocatorInput @ 270 NONAME ABSENT ; #<VT>#
	_ZN14REncryptStream6OpenLCER12RWriteStreamRK17CPBEncryptionBase @ 271 NONAME
	_ZTV15HDirectStoreBuf @ 272 NONAME ABSENT ; #<VT>#
	_ZN14REncryptStream7AttachLER12RWriteStreamRK17CPBEncryptionBase @ 273 NONAME
	_ZTV15CPBEncryptParms @ 274 NONAME ; #<VT>#
	_ZN14REncryptStream8AttachLCER12RWriteStreamRK17CPBEncryptionBase @ 275 NONAME
	_ZN14RMemReadStream4OpenEPKvi @ 276 NONAME
	_ZN14RMemReadStreamC1EPKvi @ 277 NONAME
	_ZN14RMemReadStreamC2EPKvi @ 278 NONAME
	_ZN14RStorePagePool11ReclaimAllLEv @ 279 NONAME
	_ZN14RStorePagePool4OpenER12CStreamStoreRK19TStorePagePoolToken @ 280 NONAME
	_ZN14RStorePagePool5CloseEv @ 281 NONAME
	_ZN14RStorePagePool5ReadLE8TPageRefPv @ 282 NONAME
	_ZN14RStorePagePool6CreateER12CStreamStore @ 283 NONAME
	_ZN14RStorePagePool6WriteLE8TPageRefPKv11TPageChange @ 284 NONAME
	_ZN14RStorePagePool7ExtendLEPKv16TPageReclamation @ 285 NONAME
	_ZN14RStorePagePool8ReclaimLEv @ 286 NONAME
	_ZN14RStorePagePool9DoDeleteLE8TPageRef @ 287 NONAME
	_ZN14RStorePagePoolC1ER10CPageCache @ 288 NONAME
	_ZN14RStorePagePoolC1ER12CStreamStore @ 289 NONAME
	_ZN14RStorePagePoolC1ER12CStreamStoreRK19TStorePagePoolToken @ 290 NONAME
	_ZN14RStorePagePoolC1Ev @ 291 NONAME
	_ZN14RStorePagePoolC2ER10CPageCache @ 292 NONAME
	_ZN14RStorePagePoolC2ER12CStreamStore @ 293 NONAME
	_ZN14RStorePagePoolC2ER12CStreamStoreRK19TStorePagePoolToken @ 294 NONAME
	_ZN14RStorePagePoolC2Ev @ 295 NONAME
	_ZN14TCachePagePool5FlushEv @ 296 NONAME
	_ZN14TCachePagePool5LockLE8TPageRef @ 297 NONAME
	_ZN14TCachePagePool5PurgeEv @ 298 NONAME
	_ZN14TCachePagePool6AllocLEv @ 299 NONAME
	_ZN14TCachePagePool6FlushLEv @ 300 NONAME
	_ZN14TCachePagePool6UnlockEPKv11TPageChange @ 301 NONAME
	_ZN14TCachePagePool7AssignLEPKv16TPageReclamation @ 302 NONAME
	_ZN14TCachePagePool7UpdateLEPKv @ 303 NONAME
	_ZN14TCachePagePool8AcquireLEv @ 304 NONAME
	_ZN14TCachePagePool9DoDeleteLE8TPageRef @ 305 NONAME
	_ZTV14TCachePagePool @ 306 NONAME ; #<VT>#
	_ZN14TDecryptFilter4SetLEP10MStreamBufP12CPBDecryptori @ 307 NONAME
	_ZN14TDecryptFilter6CryptLER5TDes8RK6TDesC8 @ 308 NONAME
	_ZN14TDecryptFilter9CompleteLER5TDes8RK6TDesC8 @ 309 NONAME
	_ZN14TDecryptFilter9DoReleaseEv @ 310 NONAME
	_ZN14TDecryptFilterC1Ev @ 311 NONAME
	_ZN14TDecryptFilterC2Ev @ 312 NONAME
	_ZTV14HEncryptFilter @ 313 NONAME ABSENT ; #<VT>#
	_ZN14TEncryptFilter4SetLEP10MStreamBufP12CPBEncryptori @ 314 NONAME
	_ZN14TEncryptFilter6CryptLER5TDes8RK6TDesC8 @ 315 NONAME
	_ZN14TEncryptFilter9CompleteLER5TDes8RK6TDesC8 @ 316 NONAME
	_ZN14TEncryptFilter9DoReleaseEv @ 317 NONAME
	_ZN14TEncryptFilterC1Ev @ 318 NONAME
	_ZN14TEncryptFilterC2Ev @ 319 NONAME
	_ZN14TPagedSetToken12InternalizeLER11RReadStream @ 320 NONAME
	_ZN14TPagedSetToken5ClearEv @ 321 NONAME
	_ZN15CPBEncryptParms4NewLER11RReadStream @ 322 NONAME
	_ZN15CPBEncryptParms5NewLCER11RReadStream @ 323 NONAME
	_ZN15RBufWriteStream4OpenER8CBufBasei @ 324 NONAME
	_ZN15RBufWriteStream6InsertER8CBufBasei @ 325 NONAME
	_ZN15RBufWriteStream8TruncateER8CBufBasei @ 326 NONAME
	_ZN15RBufWriteStreamC1ER8CBufBasei @ 327 NONAME
	_ZN15RBufWriteStreamC2ER8CBufBasei @ 328 NONAME
	_ZN15RDesWriteStream4OpenER5TDes8 @ 329 NONAME
	_ZN15RDesWriteStreamC1ER5TDes8 @ 330 NONAME
	_ZN15RDesWriteStreamC2ER5TDes8 @ 331 NONAME
	_ZN15RFileReadStream4OpenER3RFsRK7TDesC16j @ 332 NONAME
	_ZN15RFileReadStream6AttachER5RFilei @ 333 NONAME
	_ZN15RFileReadStreamC1ER5RFilei @ 334 NONAME
	_ZN15RFileReadStreamC2ER5RFilei @ 335 NONAME
	_ZN15RMemWriteStream4OpenEPvi @ 336 NONAME
	_ZN15RMemWriteStreamC1EPvi @ 337 NONAME
	_ZN15RMemWriteStreamC2EPvi @ 338 NONAME
	_ZN15TStreamExchange4DropERK11TStreamMark @ 339 NONAME
	_ZN15TStreamExchange4GetLER11TStreamMark @ 340 NONAME
	_ZN15TStreamExchange4HostEv @ 341 NONAME
	_ZN15TStreamExchange5HostLEv @ 342 NONAME
	_ZN15TStreamExchange7DoReadLEPviR11TStreamMark @ 343 NONAME
	_ZN15TStreamExchange7DoReadLER12MStreamInput15TStreamTransferR11TStreamMark @ 344 NONAME
	_ZN15TStreamExchange7DoReadLER5TDes8iR14TRequestStatusR11TStreamMark @ 345 NONAME
	_ZN15TStreamExchange7DoSeekLER11TStreamMark15TStreamLocationi @ 346 NONAME
	_ZN15TStreamExchange7ReleaseEv @ 347 NONAME
	_ZN15TStreamExchange8DoWriteLEPKviR11TStreamMark @ 348 NONAME
	_ZN15TStreamExchange8DoWriteLER13MStreamOutput15TStreamTransferR11TStreamMark @ 349 NONAME
	_ZN15TStreamExchange8DoWriteLERK6TDesC8iR14TRequestStatusR11TStreamMark @ 350 NONAME
	_ZN15TStreamExchange8RefersToERK11TStreamMark @ 351 NONAME
	_ZN15TStreamTransfer19__DbgChkNonNegativeEi @ 352 NONAME
	_ZN16CDictionaryStore10ConstructLEv @ 353 NONAME
	_ZN16CDictionaryStore6CommitEv @ 354 NONAME
	_ZN16CDictionaryStore6RemoveE4TUid @ 355 NONAME
	_ZN16CDictionaryStore6RevertEv @ 356 NONAME
	_ZN16CDictionaryStore7CommitLEv @ 357 NONAME
	_ZN16CDictionaryStore7RemoveLE4TUid @ 358 NONAME
	_ZN16CDictionaryStore7RevertLEv @ 359 NONAME
	_ZN16CDictionaryStoreD0Ev @ 360 NONAME
	_ZN16CDictionaryStoreD1Ev @ 361 NONAME
	_ZN16CDictionaryStoreD2Ev @ 362 NONAME
	_ZN16CDirectFileStore10DoSetRootLE9TStreamId @ 363 NONAME
	_ZN16CDirectFileStore12InternalizeLER11RReadStream @ 364 NONAME
	_ZN16CDirectFileStore6DoNewLER5RFile @ 365 NONAME
	_ZN16CDirectFileStore9DoCreateLER9TStreamId @ 366 NONAME
	_ZN16CDirectFileStoreC1ER5RFile @ 367 NONAME
	_ZN16CDirectFileStoreC1ER8RFileBufRK8TUidType @ 368 NONAME
	_ZN16CDirectFileStoreC2ER5RFile @ 369 NONAME
	_ZN16CDirectFileStoreC2ER8RFileBufRK8TUidType @ 370 NONAME
	_ZN16CPersistentStore10DoSetRootLE9TStreamId @ 371 NONAME
	_ZN16FileStoreFactory11PermanentLCER8RFileBufRK8TUidType @ 372 NONAME
	_ZN16FileStoreFactory8DirectLCER8RFileBufRK8TUidType @ 373 NONAME
	_ZN16RFileWriteStream4OpenER3RFsRK7TDesC16j @ 374 NONAME
	_ZN16RFileWriteStream4TempER3RFsRK7TDesC16R4TBufILi256EEj @ 375 NONAME
	_ZN16RFileWriteStream6AttachER5RFilei @ 376 NONAME
	_ZN16RFileWriteStream6CreateER3RFsRK7TDesC16j @ 377 NONAME
	_ZN16RFileWriteStream7ReplaceER3RFsRK7TDesC16j @ 378 NONAME
	_ZN16RFileWriteStreamC1ER5RFilei @ 379 NONAME
	_ZN16RFileWriteStreamC2ER5RFilei @ 380 NONAME
	_ZN16RShareReadStream4OpenER15TStreamExchange10TStreamPos @ 381 NONAME
	_ZN16RShareReadStreamC1ER15TStreamExchange10TStreamPos @ 382 NONAME
	_ZN16RShareReadStreamC2ER15TStreamExchange10TStreamPos @ 383 NONAME
	_ZN16RStoreReadStream5OpenLERK12CStreamStore9TStreamId @ 384 NONAME
	_ZN16RStoreReadStream6OpenLCERK12CStreamStore9TStreamId @ 385 NONAME
	_ZN16TUnicodeExpander13ExpandedSizeLEPKhi @ 386 NONAME
	_ZN16TUnicodeExpander13ExpandedSizeLER11RReadStreami @ 387 NONAME
	_ZN16TUnicodeExpander6FlushLER12MUnicodeSinkiRi @ 388 NONAME
	_ZN16TUnicodeExpander7ExpandLER12MUnicodeSinkPKhiiPiS4_ @ 389 NONAME
	_ZN16TUnicodeExpander7ExpandLER12MUnicodeSinkR11RReadStreamiiPiS4_ @ 390 NONAME
	_ZN16TUnicodeExpanderC1Ev @ 391 NONAME
	_ZN16TUnicodeExpanderC2Ev @ 392 NONAME
	_ZN17CPBEncryptionData4NewLER11RReadStream @ 393 NONAME
	_ZN17CPBEncryptionData5NewLCER11RReadStream @ 394 NONAME
	_ZN17CStreamDictionary12InternalizeLER11RReadStream @ 395 NONAME
	_ZN17CStreamDictionary4NewLEv @ 396 NONAME
	_ZN17CStreamDictionary5NewLCEv @ 397 NONAME
	_ZN17CStreamDictionary6RemoveE4TUid @ 398 NONAME
	_ZN17CStreamDictionary7AssignLE4TUid9TStreamId @ 399 NONAME
	_ZN17CStreamDictionaryC1Ev @ 400 NONAME
	_ZN17CStreamDictionaryC2Ev @ 401 NONAME
	_ZN17CStreamDictionaryD0Ev @ 402 NONAME
	_ZN17CStreamDictionaryD1Ev @ 403 NONAME
	_ZN17CStreamDictionaryD2Ev @ 404 NONAME
	_ZN17RShareWriteStream4OpenER15TStreamExchange10TStreamPos @ 405 NONAME
	_ZN17RShareWriteStreamC1ER15TStreamExchange10TStreamPos @ 406 NONAME
	_ZN17RShareWriteStreamC2ER15TStreamExchange10TStreamPos @ 407 NONAME
	_ZN17RStoreWriteStream5OpenLER12CStreamStore9TStreamId @ 408 NONAME
	_ZN17RStoreWriteStream6OpenLCER12CStreamStore9TStreamId @ 409 NONAME
	_ZN17RStoreWriteStream7AppendLER12CStreamStore9TStreamId @ 410 NONAME
	_ZN17RStoreWriteStream7CreateLER12CStreamStore @ 411 NONAME
	_ZN17RStoreWriteStream8AppendLCER12CStreamStore9TStreamId @ 412 NONAME
	_ZN17RStoreWriteStream8CreateLCER12CStreamStore @ 413 NONAME
	_ZN17RStoreWriteStream8ReplaceLER12CStreamStore9TStreamId @ 414 NONAME
	_ZN17RStoreWriteStream9ReplaceLCER12CStreamStore9TStreamId @ 415 NONAME
	_ZN17TPagedSetIterBase5NextLEv @ 416 NONAME
	_ZN17TPagedSetIterBase6ResetLEv @ 417 NONAME
	_ZN18TUnicodeCompressor15CompressedSizeLER14MUnicodeSourcei @ 418 NONAME
	_ZN18TUnicodeCompressor6FlushLEPhiRi @ 419 NONAME
	_ZN18TUnicodeCompressor6FlushLER12RWriteStreamiRi @ 420 NONAME
	_ZN18TUnicodeCompressor9CompressLEPhR14MUnicodeSourceiiPiS3_ @ 421 NONAME
	_ZN18TUnicodeCompressor9CompressLER12RWriteStreamR14MUnicodeSourceiiPiS4_ @ 422 NONAME
	_ZN18TUnicodeCompressorC1Ev @ 423 NONAME
	_ZN18TUnicodeCompressorC2Ev @ 424 NONAME
	_ZN19CPermanentFileStore10DoCompactLEv @ 425 NONAME
	_ZN19CPermanentFileStore10DoReclaimLEv @ 426 NONAME
	_ZN19CPermanentFileStore10DoReplaceLE9TStreamId @ 427 NONAME
	_ZN19CPermanentFileStore10DoSetRootLE9TStreamId @ 428 NONAME
	_ZN19CPermanentFileStore12InternalizeLER11RReadStream @ 429 NONAME
	_ZN19CPermanentFileStore6DoNewLER5RFile @ 430 NONAME
	_ZN19CPermanentFileStore8DoWriteLE9TStreamId @ 431 NONAME
	_ZN19CPermanentFileStore8MarshalLEv @ 432 NONAME
	_ZN19CPermanentFileStore9DoCommitLEv @ 433 NONAME
	_ZN19CPermanentFileStore9DoCreateLER9TStreamId @ 434 NONAME
	_ZN19CPermanentFileStore9DoDeleteLE9TStreamId @ 435 NONAME
	_ZN19CPermanentFileStore9DoExtendLEv @ 436 NONAME
	_ZN19CPermanentFileStore9DoRevertLEv @ 437 NONAME
	_ZN19CPermanentFileStoreC1ER5RFile @ 438 NONAME
	_ZN19CPermanentFileStoreC1ER8RFileBufRK8TUidType @ 439 NONAME
	_ZN19CPermanentFileStoreC2ER5RFile @ 440 NONAME
	_ZN19CPermanentFileStoreC2ER8RFileBufRK8TUidType @ 441 NONAME
	_ZN19CPermanentFileStoreD0Ev @ 442 NONAME
	_ZN19CPermanentFileStoreD1Ev @ 443 NONAME
	_ZN19CPermanentFileStoreD2Ev @ 444 NONAME
	_ZN19TBtreeInlineLeafOrg12SetEntrySizeEi @ 445 NONAME
	_ZN19TBtreeInlineLeafOrgC1Ev @ 446 NONAME
	_ZN19TBtreeInlineLeafOrgC2Ev @ 447 NONAME
	_ZN19TPagedSetBiIterBase5LastLEv @ 448 NONAME
	_ZN19TPagedSetBiIterBase5NextLEv @ 449 NONAME
	_ZN19TPagedSetBiIterBase6FirstLEv @ 450 NONAME
	_ZN19TPagedSetBiIterBase9PreviousLEv @ 451 NONAME
	_ZN19TStorePagePoolToken12InternalizeLER11RReadStream @ 452 NONAME
	_ZN20CDictionaryFileStore5OpenLER3RFsRK7TDesC164TUid @ 453 NONAME
	_ZN20CDictionaryFileStore6OpenLCER3RFsRK7TDesC164TUid @ 454 NONAME
	_ZN20CDictionaryFileStore7SystemLER3RFs @ 455 NONAME
	_ZN20CDictionaryFileStore8SystemLCER3RFs @ 456 NONAME
	_ZN20RSecureStorePagePool5ReadLE8TPageRefPv @ 457 NONAME
	_ZN20RSecureStorePagePool6WriteLE8TPageRefPKv11TPageChange @ 458 NONAME
	_ZN20RSecureStorePagePool7ExtendLEPKv16TPageReclamation @ 459 NONAME
	_ZN20RSecureStorePagePool9DoDeleteLE8TPageRef @ 460 NONAME
	_ZN20RSecureStorePagePoolC1ER10CPageCacheRK13CPBEncryptSet @ 461 NONAME
	_ZTV14HDecryptFilter @ 462 NONAME ABSENT ; #<VT>#
	_ZN20RSecureStorePagePoolC1ERK13CPBEncryptSet @ 463 NONAME
	_ZTV13TSourceOutput @ 464 NONAME ABSENT ; #<VT>#
	_ZN20RSecureStorePagePoolC2ER10CPageCacheRK13CPBEncryptSet @ 465 NONAME
	_ZTV13TSecureFilter @ 466 NONAME ; #<VT>#
	_ZN20RSecureStorePagePoolC2ERK13CPBEncryptSet @ 467 NONAME
	_ZTV13TFilterOutput @ 468 NONAME ABSENT ; #<VT>#
	_ZN20TBtreeInlineIndexOrg12SetEntrySizeEi @ 469 NONAME
	_ZN20TBtreeInlineIndexOrgC1Ev @ 470 NONAME
	_ZN20TBtreeInlineIndexOrgC2Ev @ 471 NONAME
	_ZN21MIncrementalCollector7DoNextLER8TPckgBufIiER14TRequestStatusS2_ @ 472 NONAME
	_ZN21MIncrementalCollector9DoReleaseEv @ 473 NONAME
	_ZN21RDictionaryReadStream5OpenLERK16CDictionaryStore4TUid @ 474 NONAME
	_ZN21RDictionaryReadStream6OpenLCERK16CDictionaryStore4TUid @ 475 NONAME
	_ZN22RDictionaryWriteStream7AssignLER16CDictionaryStore4TUid @ 476 NONAME
	_ZN22RDictionaryWriteStream8AssignLCER16CDictionaryStore4TUid @ 477 NONAME
	_ZN6HBufC84NewLER11RReadStreami @ 478 NONAME
	_ZN6HBufC85NewLCER11RReadStreami @ 479 NONAME
	_ZN6TBtree3SetERK11TBtreeToken10TBtreeMode @ 480 NONAME
	_ZN6TBtree6ClearLEv @ 481 NONAME
	_ZN6TBtree7ConnectEP9MPagePoolPK9MBtreeKeyPK13MBtreeLeafOrgPK14MBtreeIndexOrg @ 482 NONAME
	_ZN6TBtree7DeleteLEPKv @ 483 NONAME
	_ZN6TBtree7InsertLER9TBtreePosPKvi16TAllowDuplicates @ 484 NONAME
	_ZN6TBtree7RepairLEv @ 485 NONAME
	_ZN6TBtree9DeleteAtLER9TBtreePos @ 486 NONAME
	_ZN6TBtreeC1E10TBtreeMode @ 487 NONAME
	_ZN6TBtreeC1ERK11TBtreeToken10TBtreeMode @ 488 NONAME
	_ZN6TBtreeC2E10TBtreeMode @ 489 NONAME
	_ZN6TBtreeC2ERK11TBtreeToken10TBtreeMode @ 490 NONAME
	_ZN7HBufC164NewLER11RReadStreami @ 491 NONAME
	_ZN7HBufC165NewLCER11RReadStreami @ 492 NONAME
	_ZN7TBufBuf10UnderflowLEi @ 493 NONAME
	_ZN7TBufBuf3SetER8CBufBaseii @ 494 NONAME
	_ZN7TBufBuf7DoSeekLEi15TStreamLocationi @ 495 NONAME
	_ZN7TBufBuf8DoSynchLEv @ 496 NONAME
	_ZN7TBufBuf8DoWriteLEPKvi @ 497 NONAME
	_ZN7TBufBuf9OverflowLEv @ 498 NONAME
	_ZN7TBufBufC1Ev @ 499 NONAME
	_ZN7TBufBufC2Ev @ 500 NONAME
	_ZN7TDesBuf10UnderflowLEi @ 501 NONAME
	_ZN7TDesBuf3SetER5TDes8i @ 502 NONAME
	_ZN7TDesBuf7DoSeekLEi15TStreamLocationi @ 503 NONAME
	_ZN7TDesBuf8DoSynchLEv @ 504 NONAME
	_ZN7TDesBuf9OverflowLEv @ 505 NONAME
	_ZN7TDesBufC1Ev @ 506 NONAME
	_ZN7TDesBufC2Ev @ 507 NONAME
	_ZN7TMemBuf10UnderflowLEi @ 508 NONAME
	_ZN7TMemBuf3SetEPhS0_i @ 509 NONAME
	_ZN7TMemBuf7DoSeekLEi15TStreamLocationi @ 510 NONAME
	_ZN7TMemBuf9OverflowLEv @ 511 NONAME
	_ZN7TMemBufC1Ev @ 512 NONAME
	_ZN7TMemBufC2Ev @ 513 NONAME
	_ZN8RFileBuf10UnderflowLEi @ 514 NONAME
	_ZN8RFileBuf4OpenER3RFsRK7TDesC16j @ 515 NONAME
	_ZN8RFileBuf4TempER3RFsRK7TDesC16R4TBufILi256EEj @ 516 NONAME
	_ZN8RFileBuf5CloseEv @ 517 NONAME
	_ZN8RFileBuf5ResetEv @ 518 NONAME
	_ZN8RFileBuf6AttachER5RFilei @ 519 NONAME
	_ZN8RFileBuf6CreateER3RFsRK7TDesC16j @ 520 NONAME
	_ZN8RFileBuf7DoReadLEPvi @ 521 NONAME
	_ZN8RFileBuf7DoReadLER5TDes8iR14TRequestStatus @ 522 NONAME
	_ZN8RFileBuf7DoSeekLEi15TStreamLocationi @ 523 NONAME
	_ZN8RFileBuf7ReplaceER3RFsRK7TDesC16j @ 524 NONAME
	_ZN8RFileBuf8DoSynchLEv @ 525 NONAME
	_ZN8RFileBuf8DoWriteLEPKvi @ 526 NONAME
	_ZN8RFileBuf8DoWriteLERK6TDesC8iR14TRequestStatus @ 527 NONAME
	_ZN8RFileBuf8SetSizeLEi @ 528 NONAME
	_ZN8RFileBuf9DoReleaseEv @ 529 NONAME
	_ZN8RFileBuf9OverflowLEv @ 530 NONAME
	_ZN8RFileBufC1Ei @ 531 NONAME
	_ZN8RFileBufC1Ev @ 532 NONAME
	_ZN8RFileBufC2Ei @ 533 NONAME
	_ZN8RFileBufC2Ev @ 534 NONAME
	_ZN9CBufStore10DoReplaceLE9TStreamId @ 535 NONAME
	_ZN9CBufStore4NewLEi @ 536 NONAME
	_ZN9CBufStore5NewLCEi @ 537 NONAME
	_ZN9CBufStore8DoWriteLE9TStreamId @ 538 NONAME
	_ZN9CBufStore9DoCreateLER9TStreamId @ 539 NONAME
	_ZN9CBufStore9DoDeleteLE9TStreamId @ 540 NONAME
	_ZN9CBufStore9DoExtendLEv @ 541 NONAME
	_ZN9CBufStoreC1Ei @ 542 NONAME
	_ZN9CBufStoreC2Ei @ 543 NONAME
	_ZN9CBufStoreD0Ev @ 544 NONAME
	_ZN9CBufStoreD1Ev @ 545 NONAME
	_ZN9CBufStoreD2Ev @ 546 NONAME
	_ZN9CStoreMap15ResetAndDestroyEv @ 547 NONAME
	_ZN9CStoreMap4NewLER12CStreamStore @ 548 NONAME
	_ZN9CStoreMap5BindLE9TSwizzleCIvE9TStreamId @ 549 NONAME
	_ZN9CStoreMap5NewLCER12CStreamStore @ 550 NONAME
	_ZN9CStoreMap5ResetEv @ 551 NONAME
	_ZN9CStoreMap6ForgetE9TStreamId @ 552 NONAME
	_ZN9CStoreMap6UnbindE9TSwizzleCIvE @ 553 NONAME
	_ZN9CStoreMapC1ER12CStreamStore @ 554 NONAME
	_ZN9CStoreMapC2ER12CStreamStore @ 555 NONAME
	_ZN9CStoreMapD0Ev @ 556 NONAME
	_ZN9CStoreMapD1Ev @ 557 NONAME
	_ZN9CStoreMapD2Ev @ 558 NONAME
	_ZN9MPagePool5PushLEv @ 559 NONAME
	_ZN9MPagePool6DeleteE8TPageRef @ 560 NONAME
	_ZN9MPagePool7DeleteLE8TPageRef @ 561 NONAME
	_ZN9RShareBuf4OpenER15TStreamExchange10TStreamPosi @ 562 NONAME
	_ZN9RShareBuf7DoReadLEPvi @ 563 NONAME
	_ZN9RShareBuf7DoReadLER12MStreamInput15TStreamTransfer @ 564 NONAME
	_ZN9RShareBuf7DoReadLER5TDes8iR14TRequestStatus @ 565 NONAME
	_ZN9RShareBuf7DoSeekLEi15TStreamLocationi @ 566 NONAME
	_ZN9RShareBuf8DoWriteLEPKvi @ 567 NONAME
	_ZN9RShareBuf8DoWriteLER13MStreamOutput15TStreamTransfer @ 568 NONAME
	_ZN9RShareBuf8DoWriteLERK6TDesC8iR14TRequestStatus @ 569 NONAME
	_ZN9RShareBuf9DoReleaseEv @ 570 NONAME
	_ZN9RShareBufC1Ev @ 571 NONAME
	_ZN9RShareBufC2Ev @ 572 NONAME
	_ZN9TBtreeKeyC1Ei @ 573 NONAME
	_ZN9TBtreeKeyC1Ei11TKeyCmpText @ 574 NONAME
	_ZN9TBtreeKeyC1Ei11TKeyCmpTexti @ 575 NONAME
	_ZN9TBtreeKeyC1Ei14TKeyCmpNumeric @ 576 NONAME
	_ZN9TBtreeKeyC1Ev @ 577 NONAME
	_ZN9TBtreeKeyC2Ei @ 578 NONAME
	_ZN9TBtreeKeyC2Ei11TKeyCmpText @ 579 NONAME
	_ZN9TBtreeKeyC2Ei11TKeyCmpTexti @ 580 NONAME
	_ZN9TBtreeKeyC2Ei14TKeyCmpNumeric @ 581 NONAME
	_ZN9TBtreeKeyC2Ev @ 582 NONAME
	_ZN9TStreamId12InternalizeLER11RReadStream @ 583 NONAME
	_ZN9TStreamId13__DbgChkRangeEm @ 584 NONAME
	_ZNK10TStreamBuf3EndEi @ 585 NONAME
	_ZNK10TStreamBuf3PtrEi @ 586 NONAME
	_ZNK10TStreamBuf5AvailEi @ 587 NONAME
	_ZNK11CPBAuthData12ExternalizeLER12RWriteStream @ 588 NONAME
	_ZNK11TBtreeToken12ExternalizeLER12RWriteStream @ 589 NONAME
	_ZNK12CSecureStore7DoReadLE9TStreamId @ 590 NONAME
	_ZNK12TCardinality12ExternalizeLER12RWriteStream @ 591 NONAME
	_ZNK13MBtreeLeafOrg14InsertOverflowEPvS0_iiRK6TDesC8 @ 592 NONAME
	_ZNK13MBtreeLeafOrg6SearchEPKvS1_RK9MBtreeKeyiRi @ 593 NONAME
	_ZNK13MBtreeNodeOrg4InitEPv @ 594 NONAME
	_ZNK13TBtreeFixBase10ExtractAtLERK10TBtreeMarkPv @ 595 NONAME
	_ZNK13TBtreeFixBase10ExtractAtLERK9TBtreePosPv @ 596 NONAME
	_ZNK13TPagedSetBase5TokenEv @ 597 NONAME
	_ZNK13TPagedSetBase9ContainsLEPKv @ 598 NONAME
	_ZNK13TSwizzleCBase14DoExternalizeLER12RWriteStream13TExternalizerIvE @ 599 NONAME
	_ZNK13TSwizzleCBase4AsIdEv @ 600 NONAME
	_ZNK14CEmbeddedStore7DoReadLE9TStreamId @ 601 NONAME
	_ZNK14MBtreeIndexOrg14InsertOverflowEPvS0_iiRK6TDesC88TPageRefS3_R5TBuf8ILi255EE @ 602 NONAME
	_ZNK14MBtreeIndexOrg6SearchEPKvS1_RK9MBtreeKeyiRi @ 603 NONAME
	_ZNK14MBtreeIndexOrg6UpdateEPviRK6TDesC8 @ 604 NONAME
	_ZNK14RStorePagePool5TokenEv @ 605 NONAME
	_ZNK14TPagedSetToken12ExternalizeLER12RWriteStream @ 606 NONAME
	_ZNK15CPBEncryptParms12ExternalizeLER12RWriteStream @ 607 NONAME
	_ZNK15TStreamExchange5SizeLEv @ 608 NONAME
	_ZNK16CDictionaryStore10IsPresentLE4TUid @ 609 NONAME
	_ZNK16CDictionaryStore7IsNullLEv @ 610 NONAME
	_ZNK16CDirectFileStore12ExternalizeLER12RWriteStream @ 611 NONAME
	_ZNK16CDirectFileStore6LayoutEv @ 612 NONAME
	_ZNK16CDirectFileStore7DoReadLE9TStreamId @ 613 NONAME
	_ZNK17CPBEncryptionData12ExternalizeLER12RWriteStream @ 614 NONAME
	_ZNK17CStreamDictionary12ExternalizeLER12RWriteStream @ 615 NONAME
	_ZNK17CStreamDictionary2AtE4TUid @ 616 NONAME
	_ZNK17CStreamDictionary6IsNullEv @ 617 NONAME
	_ZNK17TPagedSetIterBase10ExtractAtLEPv @ 618 NONAME
	_ZNK19CPermanentFileStore12ExternalizeLER12RWriteStream @ 619 NONAME
	_ZNK19CPermanentFileStore6LayoutEv @ 620 NONAME
	_ZNK19CPermanentFileStore7DoReadLE9TStreamId @ 621 NONAME
	_ZNK19TBtreeInlineLeafOrg11ConcatenateEPvPKv @ 622 NONAME
	_ZNK19TBtreeInlineLeafOrg11InsertSplitEPvS0_iRK6TDesC8 @ 623 NONAME
	_ZNK19TBtreeInlineLeafOrg11SetLinkNodeEPv8TPageRef @ 624 NONAME
	_ZNK19TBtreeInlineLeafOrg12RedistributeEPvS0_ @ 625 NONAME
	_ZNK19TBtreeInlineLeafOrg14InsertOverflowEPvS0_iiRK6TDesC8 @ 626 NONAME
	_ZNK19TBtreeInlineLeafOrg5EntryEPKvi @ 627 NONAME
	_ZNK19TBtreeInlineLeafOrg6DeleteEPvi @ 628 NONAME
	_ZNK19TBtreeInlineLeafOrg6InsertEPviRK6TDesC8 @ 629 NONAME
	_ZNK19TBtreeInlineLeafOrg8EntryPtrEPKvi @ 630 NONAME
	_ZNK19TBtreeInlineLeafOrg8LinkNodeEPKv @ 631 NONAME
	_ZNK19TBtreeInlineLeafOrg9LastEntryEPKv @ 632 NONAME
	_ZNK19TPagedSetBiIterBase10ExtractAtLEPv @ 633 NONAME
	_ZNK19TStorePagePoolToken12ExternalizeLER12RWriteStream @ 634 NONAME
	_ZNK20TBtreeInlineIndexOrg11ConcatenateEPvPKvRK6TDesC8 @ 635 NONAME
	_ZNK20TBtreeInlineIndexOrg11InsertSplitEPvS0_iRK6TDesC88TPageRefR5TBuf8ILi255EE @ 636 NONAME
	_ZNK20TBtreeInlineIndexOrg12RedistributeEPvS0_RK6TDesC8R5TBuf8ILi255EE @ 637 NONAME
	_ZNK20TBtreeInlineIndexOrg14InsertOverflowEPvS0_iiRK6TDesC88TPageRefS3_R5TBuf8ILi255EE @ 638 NONAME
	_ZNK20TBtreeInlineIndexOrg5EntryEPKvi @ 639 NONAME
	_ZNK20TBtreeInlineIndexOrg6DeleteEPvi @ 640 NONAME
	_ZNK20TBtreeInlineIndexOrg6InsertEPviRK6TDesC88TPageRef @ 641 NONAME
	_ZNK20TBtreeInlineIndexOrg6UpdateEPviRK6TDesC8 @ 642 NONAME
	_ZNK20TBtreeInlineIndexOrg8EntryPtrEPKvi @ 643 NONAME
	_ZNK20TBtreeInlineIndexOrg8MakeRootEPv8TPageRef @ 644 NONAME
	_ZNK20TBtreeInlineIndexOrg9ChildNodeEPKvi @ 645 NONAME
	_ZNK20TBtreeInlineIndexOrg9LastEntryEPKv @ 646 NONAME
	_ZNK6TBtree10ExtractAtLERK10TBtreeMarkPvi @ 647 NONAME
	_ZNK6TBtree10ExtractAtLERK9TBtreePosPvi @ 648 NONAME
	_ZNK6TBtree5FindLER9TBtreePosPKvNS_5TFindE @ 649 NONAME
	_ZNK6TBtree5LastLER9TBtreePos @ 650 NONAME
	_ZNK6TBtree5NextLER10TBtreeMark @ 651 NONAME
	_ZNK6TBtree5NextLER9TBtreePos @ 652 NONAME
	_ZNK6TBtree5TokenEv @ 653 NONAME
	_ZNK6TBtree6FirstLER9TBtreePos @ 654 NONAME
	_ZNK6TBtree6ResetLER10TBtreeMark @ 655 NONAME
	_ZNK6TBtree9PreviousLER9TBtreePos @ 656 NONAME
	_ZNK9CBufStore7DoReadLE9TStreamId @ 657 NONAME
	_ZNK9CStoreMap2AtE9TSwizzleCIvE @ 658 NONAME
	_ZNK9CStoreMap3EndEv @ 659 NONAME
	_ZNK9CStoreMap5BeginEv @ 660 NONAME
	_ZNK9CStoreMap5LabelE9TStreamId @ 661 NONAME
	_ZNK9MBtreeKey3KeyEPKv @ 662 NONAME
	_ZNK9TBtreeKey3KeyEPKv @ 663 NONAME
	_ZNK9TBtreeKey7BetweenEPKvS1_R5TBuf8ILi255EE @ 664 NONAME
	_ZNK9TBtreeKey7CompareEPKvS1_ @ 665 NONAME
	_ZTI10CFileStore @ 666 NONAME ; #<TI>#
	_ZTI10CPageCache @ 667 NONAME ; #<TI>#
	_ZTI10MStreamBuf @ 668 NONAME ; #<TI>#
	_ZTI10TStreamBuf @ 669 NONAME ; #<TI>#
	_ZTI12CMemPagePool @ 670 NONAME ; #<TI>#
	_ZTI12CSecureStore @ 671 NONAME ; #<TI>#
	_ZTI12CStreamStore @ 672 NONAME ; #<TI>#
	_ZTV9TPtrInput @ 673 NONAME ABSENT ; #<VT>#
	_ZTI13MBtreeLeafOrg @ 674 NONAME ; #<TI>#
	_ZTI13MBtreeNodeOrg @ 675 NONAME ; #<TI>#
	_ZTI13RFilePagePool @ 676 NONAME ; #<TI>#
	_ZTI13TStreamFilter @ 677 NONAME ; #<TI>#
	_ZTI14CEmbeddedStore @ 678 NONAME ; #<TI>#
	_ZTI14MBtreeIndexOrg @ 679 NONAME ; #<TI>#
	_ZTI14RStorePagePool @ 680 NONAME ; #<TI>#
	_ZTI14TDecryptFilter @ 681 NONAME ; #<TI>#
	_ZTI14TEncryptFilter @ 682 NONAME ; #<TI>#
	_ZTI16CDirectFileStore @ 683 NONAME ; #<TI>#
	_ZTI16CPersistentStore @ 684 NONAME ; #<TI>#
	_ZTI17CStreamDictionary @ 685 NONAME ; #<TI>#
	_ZTI19CPermanentFileStore @ 686 NONAME ; #<TI>#
	_ZTI19TBtreeInlineLeafOrg @ 687 NONAME ; #<TI>#
	_ZTV8HNullBuf @ 688 NONAME ABSENT ; #<VT>#
	_ZTV7HBufBuf @ 689 NONAME ABSENT ; #<VT>#
	_ZTI20RSecureStorePagePool @ 690 NONAME ; #<TI>#
	_ZTI20TBtreeInlineIndexOrg @ 691 NONAME ; #<TI>#
	_ZTI21MIncrementalCollector @ 692 NONAME ; #<TI>#
	_ZTI7TBufBuf @ 693 NONAME ; #<TI>#
	_ZTI7TDesBuf @ 694 NONAME ; #<TI>#
	_ZTI7TMemBuf @ 695 NONAME ; #<TI>#
	_ZTI8RFileBuf @ 696 NONAME ; #<TI>#
	_ZTI9CBufStore @ 697 NONAME ; #<TI>#
	_ZTI9CStoreMap @ 698 NONAME ; #<TI>#
	_ZTI9MBtreeKey @ 699 NONAME ; #<TI>#
	_ZTI9RShareBuf @ 700 NONAME ; #<TI>#
	_ZTI9TBtreeKey @ 701 NONAME ; #<TI>#
	_ZTV10CFileStore @ 702 NONAME ; #<VT>#
	_ZTV10CPageCache @ 703 NONAME ; #<VT>#
	_ZTV10MStreamBuf @ 704 NONAME ; #<VT>#
	_ZTV10TStreamBuf @ 705 NONAME ; #<VT>#
	_ZTV12CMemPagePool @ 706 NONAME ; #<VT>#
	_ZTV12CSecureStore @ 707 NONAME ; #<VT>#
	_ZTV12CStreamStore @ 708 NONAME ; #<VT>#
	_ZTV13MBtreeLeafOrg @ 709 NONAME ; #<VT>#
	_ZTV13MBtreeNodeOrg @ 710 NONAME ; #<VT>#
	_ZTV13RFilePagePool @ 711 NONAME ; #<VT>#
	_ZTV13TStreamFilter @ 712 NONAME ; #<VT>#
	_ZTV14CEmbeddedStore @ 713 NONAME ; #<VT>#
	_ZTV14MBtreeIndexOrg @ 714 NONAME ; #<VT>#
	_ZTV14RStorePagePool @ 715 NONAME ; #<VT>#
	_ZTV14TDecryptFilter @ 716 NONAME ; #<VT>#
	_ZTV14TEncryptFilter @ 717 NONAME ; #<VT>#
	_ZTV16CDirectFileStore @ 718 NONAME ; #<VT>#
	_ZTV16CPersistentStore @ 719 NONAME ; #<VT>#
	_ZTV17CStreamDictionary @ 720 NONAME ; #<VT>#
	_ZTV19CPermanentFileStore @ 721 NONAME ; #<VT>#
	_ZTV19TBtreeInlineLeafOrg @ 722 NONAME ; #<VT>#
	_ZTV20RSecureStorePagePool @ 723 NONAME ; #<VT>#
	_ZTV20TBtreeInlineIndexOrg @ 724 NONAME ; #<VT>#
	_ZTV21MIncrementalCollector @ 725 NONAME ; #<VT>#
	_ZTV7TBufBuf @ 726 NONAME ; #<VT>#
	_ZTV7TDesBuf @ 727 NONAME ; #<VT>#
	_ZTV7TMemBuf @ 728 NONAME ; #<VT>#
	_ZTV8RFileBuf @ 729 NONAME ; #<VT>#
	_ZTV9CBufStore @ 730 NONAME ; #<VT>#
	_ZTV9CStoreMap @ 731 NONAME ; #<VT>#
	_ZTV9MBtreeKey @ 732 NONAME ; #<VT>#
	_ZTV9RShareBuf @ 733 NONAME ; #<VT>#
	_ZTV9TBtreeKey @ 734 NONAME ; #<VT>#
	_ZThn4_N12CMemPagePool5LockLE8TPageRef @ 735 NONAME ; #<thunk>#
	_ZThn4_N12CMemPagePool6AllocLEv @ 736 NONAME ; #<thunk>#
	_ZThn4_N12CMemPagePool6UnlockEPKv11TPageChange @ 737 NONAME ; #<thunk>#
	_ZThn4_N12CMemPagePool7AssignLEPKv16TPageReclamation @ 738 NONAME ; #<thunk>#
	_ZThn4_N12CMemPagePool7UpdateLEPKv @ 739 NONAME ; #<thunk>#
	_ZThn4_N12CMemPagePool8AcquireLEv @ 740 NONAME ; #<thunk>#
	_ZTI10TNullInput @ 741 NONAME ABSENT ; #<TI>#
	_ZTI10TPtrOutput @ 742 NONAME ABSENT ; #<TI>#
	_ZTI11CPBAuthData @ 743 NONAME ; #<TI>#
	_ZTI11RFrame16Buf @ 744 NONAME ABSENT ; #<TI>#
	_ZTI12TFilterInput @ 745 NONAME ABSENT ; #<TI>#
	_ZTI13TFilterOutput @ 746 NONAME ABSENT ; #<TI>#
	_ZTI13TSecureFilter @ 747 NONAME ; #<TI>#
	_ZTI13TSourceOutput @ 748 NONAME ABSENT ; #<TI>#
	_ZTI14HDecryptFilter @ 749 NONAME ABSENT ; #<TI>#
	_ZTI14HEncryptFilter @ 750 NONAME ABSENT ; #<TI>#
	_ZTI14TCachePagePool @ 751 NONAME ; #<TI>#
	_ZTI15CPBEncryptParms @ 752 NONAME ; #<TI>#
	_ZTI15HDirectStoreBuf @ 753 NONAME ABSENT ; #<TI>#
	_ZTI15TRelocatorInput @ 754 NONAME ABSENT ; #<TI>#
	_ZTI16CDictionaryStore @ 755 NONAME ; #<TI>#
	_ZTV12TFilterInput @ 756 NONAME ABSENT ; #<VT>#
	_ZTV11RFrame16Buf @ 757 NONAME ABSENT ; #<VT>#
	_ZTI16TDelimitedInput8 @ 758 NONAME ABSENT ; #<TI>#
	_ZTI17CPBEncryptionData @ 759 NONAME ; #<TI>#
	_ZTI17TDelimitedInput16 @ 760 NONAME ABSENT ; #<TI>#
	_ZTI18CPermanentStoreToc @ 761 NONAME ABSENT ; #<TI>#
	_ZTI18HPermanentStoreBuf @ 762 NONAME ABSENT ; #<TI>#
	_ZTI19HDictionaryStoreBuf @ 763 NONAME ABSENT ; #<TI>#
	_ZTI20CPermanentStoreCoord @ 764 NONAME ABSENT ; #<TI>#
	_ZTV11CPBAuthData @ 765 NONAME ; #<VT>#
	_ZTI24CPermanentStoreCollector @ 766 NONAME ABSENT ; #<TI>#
	_ZTV10TPtrOutput @ 767 NONAME ABSENT ; #<VT>#
	_ZTI7HBufBuf @ 768 NONAME ABSENT ; #<TI>#
	_ZTI8HNullBuf @ 769 NONAME ABSENT ; #<TI>#
	_ZTI9TPtrInput @ 770 NONAME ABSENT ; #<TI>#
	_ZTV10TNullInput @ 771 NONAME ABSENT ; #<VT>#

