EXPORTS
	?GetChunk@CInputData@@QAEPBXPBDKAAK@Z @ 1 NONAME ; void const * CInputData::GetChunk(char const *, unsigned long, unsigned long &)
	??1COutputFramework@Ulogger@@UAE@XZ @ 2 NONAME ; Ulogger::COutputFramework::~COutputFramework(void)
	?GetInputPlugin@CPluginAllocator@Ulogger@@QAEPAVMInputPlugin@2@XZ @ 3 NONAME ; class Ulogger::MInputPlugin * Ulogger::CPluginAllocator::GetInputPlugin(void)
	?CreatePackage@CInputData@@QAEPADPAXJ@Z @ 4 NONAME ; char * CInputData::CreatePackage(void *, long)
	?NewL@CPluginAllocator@Ulogger@@SAPAV12@ABVTPtrC8@@0@Z @ 5 NONAME ; class Ulogger::CPluginAllocator * Ulogger::CPluginAllocator::NewL(class TPtrC8 const &, class TPtrC8 const &)
	??1CInputFramework@Ulogger@@UAE@XZ @ 6 NONAME ; Ulogger::CInputFramework::~CInputFramework(void)
	?ReleaseOutputResources@COutputFramework@Ulogger@@QAEXXZ @ 7 NONAME ; void Ulogger::COutputFramework::ReleaseOutputResources(void)
	??1CInputData@@UAE@XZ @ 8 NONAME ; CInputData::~CInputData(void)
	?DoCommandL@CInputFramework@Ulogger@@UAEHW4TCommand@@ABV?$RArray@VTPtrC16@@@@@Z @ 9 NONAME ; int Ulogger::CInputFramework::DoCommandL(enum TCommand, class RArray<class TPtrC16> const &)
	??1CPluginAllocator@Ulogger@@UAE@XZ @ 10 NONAME ; Ulogger::CPluginAllocator::~CPluginAllocator(void)
	?NewL@CInputFramework@Ulogger@@SAPAV12@PAVMInputPlugin@2@ABV?$RPointerArray@VTPluginConfiguration@Ulogger@@@@PAVMInputFrameworkObserver@2@@Z @ 11 NONAME ; class Ulogger::CInputFramework * Ulogger::CInputFramework::NewL(class Ulogger::MInputPlugin *, class RPointerArray<class Ulogger::TPluginConfiguration> const &, class Ulogger::MInputFrameworkObserver *)
	?NewLC@CPluginAllocator@Ulogger@@SAPAV12@ABVTPtrC8@@0@Z @ 12 NONAME ; class Ulogger::CPluginAllocator * Ulogger::CPluginAllocator::NewLC(class TPtrC8 const &, class TPtrC8 const &)
	?ListAllImplementationsL@CPluginAllocator@Ulogger@@SAXAAV?$RPointerArray@VCImplementationInformation@@@@@Z @ 13 NONAME ; void Ulogger::CPluginAllocator::ListAllImplementationsL(class RPointerArray<class CImplementationInformation> &)
	?ConstructL@CPluginAllocator@Ulogger@@QAEXABVTPtrC8@@0@Z @ 14 NONAME ; void Ulogger::CPluginAllocator::ConstructL(class TPtrC8 const &, class TPtrC8 const &)
	?GetSize@CInputData@@QAEKPBD@Z @ 15 NONAME ; unsigned long CInputData::GetSize(char const *)
	??0CInputData@@QAE@I@Z @ 16 NONAME ; CInputData::CInputData(unsigned int)
	?GetChunksCount@CInputData@@QAEKPBD@Z @ 17 NONAME ; unsigned long CInputData::GetChunksCount(char const *)
	?StartReading@CInputFramework@Ulogger@@QAEHXZ @ 18 NONAME ; int Ulogger::CInputFramework::StartReading(void)
	?GetOutputPlugin@CPluginAllocator@Ulogger@@QAEPAVMOutputPlugin@2@XZ @ 19 NONAME ; class Ulogger::MOutputPlugin * Ulogger::CPluginAllocator::GetOutputPlugin(void)
	?SendData@COutputFramework@Ulogger@@QAEHABVTDesC8@@@Z @ 20 NONAME ; int Ulogger::COutputFramework::SendData(class TDesC8 const &)
	?AppendNewData@CInputData@@QAEKAAPADPBXK@Z @ 21 NONAME ; unsigned long CInputData::AppendNewData(char * &, void const *, unsigned long)
	?StopReading@CInputFramework@Ulogger@@QAEXXZ @ 22 NONAME ; void Ulogger::CInputFramework::StopReading(void)
	?NewLC@CInputFramework@Ulogger@@SAPAV12@PAVMInputPlugin@2@ABV?$RPointerArray@VTPluginConfiguration@Ulogger@@@@PAVMInputFrameworkObserver@2@@Z @ 23 NONAME ; class Ulogger::CInputFramework * Ulogger::CInputFramework::NewLC(class Ulogger::MInputPlugin *, class RPointerArray<class Ulogger::TPluginConfiguration> const &, class Ulogger::MInputFrameworkObserver *)
	?NewL@COutputFramework@Ulogger@@SAPAV12@AAVMOutputPlugin@2@ABV?$RPointerArray@VTPluginConfiguration@Ulogger@@@@@Z @ 24 NONAME ; class Ulogger::COutputFramework * Ulogger::COutputFramework::NewL(class Ulogger::MOutputPlugin &, class RPointerArray<class Ulogger::TPluginConfiguration> const &)

