EXPORTS
	?DeActivateInputPlugin@CConfig@Ulogger@@QAEHABVTDesC8@@@Z @ 1 NONAME ; int Ulogger::CConfig::DeActivateInputPlugin(class TDesC8 const &)
	?DeActivateInputPlugin@CConfigFileManager@Ulogger@@QAEHABVTDesC8@@@Z @ 2 NONAME ; int Ulogger::CConfigFileManager::DeActivateInputPlugin(class TDesC8 const &)
	??1CConfigSettingsIter@Ulogger@@UAE@XZ @ 3 NONAME ; Ulogger::CConfigSettingsIter::~CConfigSettingsIter(void)
	?GetOutputPlugins@CConfig@Ulogger@@QAEHAAVCConfigSettingsIter@2@@Z @ 4 NONAME ; int Ulogger::CConfig::GetOutputPlugins(class Ulogger::CConfigSettingsIter &)
	??1CConfig@Ulogger@@UAE@XZ @ 5 NONAME ; Ulogger::CConfig::~CConfig(void)
	?SetActiveFilter@CConfigFileManager@Ulogger@@QAEHABV?$RArray@K@@ABVTDesC8@@@Z @ 6 NONAME ; int Ulogger::CConfigFileManager::SetActiveFilter(class RArray<unsigned long> const &, class TDesC8 const &)
	?SetActiveInputPlugin@CConfigFileManager@Ulogger@@QAEHABVTDesC8@@@Z @ 7 NONAME ; int Ulogger::CConfigFileManager::SetActiveInputPlugin(class TDesC8 const &)
	?RemovePluginSettings@CConfigFileManager@Ulogger@@QAEHABVTDesC8@@@Z @ 8 NONAME ; int Ulogger::CConfigFileManager::RemovePluginSettings(class TDesC8 const &)
	?GetSectionValues@CConfigFileManager@Ulogger@@QAEHABVTDesC8@@AAVCConfigSettingsIter@2@@Z @ 9 NONAME ; int Ulogger::CConfigFileManager::GetSectionValues(class TDesC8 const &, class Ulogger::CConfigSettingsIter &)
	?SetTraceSettings@CConfig@Ulogger@@QAEHABVTDesC8@@0@Z @ 10 NONAME ; int Ulogger::CConfig::SetTraceSettings(class TDesC8 const &, class TDesC8 const &)
	?NewL@CConfig@Ulogger@@SAPAV12@PAVRHeap@@AAV?$TBuf@$0BAA@@@@Z @ 11 NONAME ; class Ulogger::CConfig * Ulogger::CConfig::NewL(class RHeap *, class TBuf<256> &)
	?SetPluginSetting@CConfigFileManager@Ulogger@@QAEHABVTDesC8@@00@Z @ 12 NONAME ; int Ulogger::CConfigFileManager::SetPluginSetting(class TDesC8 const &, class TDesC8 const &, class TDesC8 const &)
	?SetActiveInputPlugin@CConfig@Ulogger@@QAEHABVTDesC8@@@Z @ 13 NONAME ; int Ulogger::CConfig::SetActiveInputPlugin(class TDesC8 const &)
	?Next@CConfigSettingsIter@Ulogger@@QAEHAAVTPtrC8@@0@Z @ 14 NONAME ; int Ulogger::CConfigSettingsIter::Next(class TPtrC8 &, class TPtrC8 &)
	?SetPluginSetting@CConfig@Ulogger@@QAEHABVTDesC8@@00@Z @ 15 NONAME ; int Ulogger::CConfig::SetPluginSetting(class TDesC8 const &, class TDesC8 const &, class TDesC8 const &)
	?SetActiveOutputPlugin@CConfigFileManager@Ulogger@@QAEHABVTDesC8@@@Z @ 16 NONAME ; int Ulogger::CConfigFileManager::SetActiveOutputPlugin(class TDesC8 const &)
	?GetActiveFilters@CConfigFileManager@Ulogger@@QAEHAAVCConfigSettingsIter@2@H@Z @ 17 NONAME ; int Ulogger::CConfigFileManager::GetActiveFilters(class Ulogger::CConfigSettingsIter &, int)
	?GetActivePlugins@CConfig@Ulogger@@QAEHAAVCConfigSettingsIter@2@@Z @ 18 NONAME ; int Ulogger::CConfig::GetActivePlugins(class Ulogger::CConfigSettingsIter &)
	?SetTraceSettings@CConfigFileManager@Ulogger@@QAEHABVTDesC8@@0@Z @ 19 NONAME ; int Ulogger::CConfigFileManager::SetTraceSettings(class TDesC8 const &, class TDesC8 const &)
	?DeActivateOutputPlugin@CConfigFileManager@Ulogger@@QAEHABVTDesC8@@@Z @ 20 NONAME ; int Ulogger::CConfigFileManager::DeActivateOutputPlugin(class TDesC8 const &)
	?GetOutputPlugins@CConfigFileManager@Ulogger@@QAEHAAVCConfigSettingsIter@2@@Z @ 21 NONAME ; int Ulogger::CConfigFileManager::GetOutputPlugins(class Ulogger::CConfigSettingsIter &)
	?RemoveActiveFilter@CConfigFileManager@Ulogger@@QAEHABV?$RArray@K@@ABH@Z @ 22 NONAME ; int Ulogger::CConfigFileManager::RemoveActiveFilter(class RArray<unsigned long> const &, int const &)
	?RemovePluginSettings@CConfig@Ulogger@@QAEHABVTDesC8@@@Z @ 23 NONAME ; int Ulogger::CConfig::RemovePluginSettings(class TDesC8 const &)
	?GetSectionValues@CConfig@Ulogger@@QAEHABVTDesC8@@AAVCConfigSettingsIter@2@@Z @ 24 NONAME ; int Ulogger::CConfig::GetSectionValues(class TDesC8 const &, class Ulogger::CConfigSettingsIter &)
	?NewL@CConfigSettingsIter@Ulogger@@SAPAV12@XZ @ 25 NONAME ; class Ulogger::CConfigSettingsIter * Ulogger::CConfigSettingsIter::NewL(void)
	?RemoveActiveFilter@CConfig@Ulogger@@QAEHABV?$RArray@K@@ABH@Z @ 26 NONAME ; int Ulogger::CConfig::RemoveActiveFilter(class RArray<unsigned long> const &, int const &)
	?GetActiveInputPlugins@CConfigFileManager@Ulogger@@QAEHAAVCConfigSettingsIter@2@@Z @ 27 NONAME ; int Ulogger::CConfigFileManager::GetActiveInputPlugins(class Ulogger::CConfigSettingsIter &)
	?SetActiveFilter@CConfig@Ulogger@@QAEHABV?$RArray@K@@ABVTDesC8@@@Z @ 28 NONAME ; int Ulogger::CConfig::SetActiveFilter(class RArray<unsigned long> const &, class TDesC8 const &)
	?GetPluginSettings@CConfigFileManager@Ulogger@@QAEHAAVCConfigSettingsIter@2@@Z @ 29 NONAME ; int Ulogger::CConfigFileManager::GetPluginSettings(class Ulogger::CConfigSettingsIter &)
	?GetActiveFilters@CConfig@Ulogger@@QAEHAAVCConfigSettingsIter@2@H@Z @ 30 NONAME ; int Ulogger::CConfig::GetActiveFilters(class Ulogger::CConfigSettingsIter &, int)
	?NewL@CConfigFileManager@Ulogger@@SAPAV12@XZ @ 31 NONAME ; class Ulogger::CConfigFileManager * Ulogger::CConfigFileManager::NewL(void)
	?DeActivateOutputPlugin@CConfig@Ulogger@@QAEHABVTDesC8@@@Z @ 32 NONAME ; int Ulogger::CConfig::DeActivateOutputPlugin(class TDesC8 const &)
	?NewLC@CConfig@Ulogger@@SAPAV12@PAVRHeap@@AAV?$TBuf@$0BAA@@@@Z @ 33 NONAME ; class Ulogger::CConfig * Ulogger::CConfig::NewLC(class RHeap *, class TBuf<256> &)
	?RefreshConfigFiles@CConfigFileManager@Ulogger@@QAEHXZ @ 34 NONAME ; int Ulogger::CConfigFileManager::RefreshConfigFiles(void)
	?Reset@CConfigSettingsIter@Ulogger@@QAEXXZ @ 35 NONAME ; void Ulogger::CConfigSettingsIter::Reset(void)
	?SetActiveOutputPlugin@CConfig@Ulogger@@QAEHABVTDesC8@@@Z @ 36 NONAME ; int Ulogger::CConfig::SetActiveOutputPlugin(class TDesC8 const &)
	?GetTraceSettings@CConfig@Ulogger@@QAEHAAVCConfigSettingsIter@2@@Z @ 37 NONAME ; int Ulogger::CConfig::GetTraceSettings(class Ulogger::CConfigSettingsIter &)

