EXPORTS
	?SetSecondaryFilteringEnabled@RULogger@Ulogger@@QAEHH@Z @ 1 NONAME ; int Ulogger::RULogger::SetSecondaryFilteringEnabled(int)
	?SetPrimaryFiltersEnabled@RULogger@Ulogger@@QAEHABV?$CArrayFixFlat@E@@H@Z @ 2 NONAME ; int Ulogger::RULogger::SetPrimaryFiltersEnabled(class CArrayFixFlat<unsigned char> const &, int)
	?GetInstalledInputPlugins@RULogger@Ulogger@@QAEHAAV?$CArrayPtrFlat@VHBufC8@@@@@Z @ 3 NONAME ; int Ulogger::RULogger::GetInstalledInputPlugins(class CArrayPtrFlat<class HBufC8> &)
	?GetBufferMode@RULogger@Ulogger@@QAEHAAH@Z @ 4 NONAME ; int Ulogger::RULogger::GetBufferMode(int &)
	?RunAsService@RULogger@Ulogger@@QAEHH@Z @ 5 NONAME ; int Ulogger::RULogger::RunAsService(int)
	?SetSecondaryFiltersEnabled@RULogger@Ulogger@@QAEHABV?$RArray@K@@H@Z @ 6 NONAME ; int Ulogger::RULogger::SetSecondaryFiltersEnabled(class RArray<unsigned long> const &, int)
	?ActivateInputPlugin@RULogger@Ulogger@@QAEHABVTDesC8@@@Z @ 7 NONAME ; int Ulogger::RULogger::ActivateInputPlugin(class TDesC8 const &)
	?SetPluginConfigurations@RULogger@Ulogger@@QAEHABVTDesC8@@ABVTPluginConfiguration@2@@Z @ 8 NONAME ; int Ulogger::RULogger::SetPluginConfigurations(class TDesC8 const &, class Ulogger::TPluginConfiguration const &)
	?SetBufferSize@RULogger@Ulogger@@QAEHH@Z @ 9 NONAME ; int Ulogger::RULogger::SetBufferSize(int)
	?GetSecondaryFilteringEnabled@RULogger@Ulogger@@QAEHAAH@Z @ 10 NONAME ; int Ulogger::RULogger::GetSecondaryFilteringEnabled(int &)
	?GetActiveInputPlugin@RULogger@Ulogger@@QAEHAAVTDes8@@@Z @ 11 NONAME ; int Ulogger::RULogger::GetActiveInputPlugin(class TDes8 &)
	?GetPluginConfigurations@RULogger@Ulogger@@QAEHABVTDesC8@@AAV?$RPointerArray@VTPluginConfiguration@Ulogger@@@@@Z @ 12 NONAME ; int Ulogger::RULogger::GetPluginConfigurations(class TDesC8 const &, class RPointerArray<class Ulogger::TPluginConfiguration> &)
	?SetNotificationSize@RULogger@Ulogger@@QAEHH@Z @ 13 NONAME ; int Ulogger::RULogger::SetNotificationSize(int)
	?Start@RULogger@Ulogger@@QAEHXZ @ 14 NONAME ; int Ulogger::RULogger::Start(void)
	?Restart@RULogger@Ulogger@@QAEHXZ @ 15 NONAME ; int Ulogger::RULogger::Restart(void)
	?GetInstalledOutputPlugins@RULogger@Ulogger@@QAEHAAV?$CArrayPtrFlat@VHBufC8@@@@@Z @ 16 NONAME ; int Ulogger::RULogger::GetInstalledOutputPlugins(class CArrayPtrFlat<class HBufC8> &)
	?DeActivateInputPlugin@RULogger@Ulogger@@QAEHXZ @ 17 NONAME ; int Ulogger::RULogger::DeActivateInputPlugin(void)
	?Stop@RULogger@Ulogger@@QAEHXZ @ 18 NONAME ; int Ulogger::RULogger::Stop(void)
	?ActivateOutputPlugin@RULogger@Ulogger@@QAEHABVTDesC8@@@Z @ 19 NONAME ; int Ulogger::RULogger::ActivateOutputPlugin(class TDesC8 const &)
	??1RULogger@Ulogger@@QAE@XZ @ 20 NONAME ; Ulogger::RULogger::~RULogger(void)
	?GetNotificationSize@RULogger@Ulogger@@QAEHAAH@Z @ 21 NONAME ; int Ulogger::RULogger::GetNotificationSize(int &)
	?GetSecondaryFiltersEnabled@RULogger@Ulogger@@QAEHAAV?$RArray@K@@@Z @ 22 NONAME ; int Ulogger::RULogger::GetSecondaryFiltersEnabled(class RArray<unsigned long> &)
	?SetBufferMode@RULogger@Ulogger@@QAEHH@Z @ 23 NONAME ; int Ulogger::RULogger::SetBufferMode(int)
	??0RULogger@Ulogger@@QAE@XZ @ 24 NONAME ; Ulogger::RULogger::RULogger(void)
	?Version@RULogger@Ulogger@@QAE?AVTVersion@@XZ @ 25 NONAME ; class TVersion Ulogger::RULogger::Version(void)
	?Connect@RULogger@Ulogger@@QAEHXZ @ 26 NONAME ; int Ulogger::RULogger::Connect(void)
	?GetPrimaryFiltersEnabled@RULogger@Ulogger@@QAEHAAV?$CArrayFixFlat@E@@@Z @ 27 NONAME ; int Ulogger::RULogger::GetPrimaryFiltersEnabled(class CArrayFixFlat<unsigned char> &)
	?GetActiveOutputPlugin@RULogger@Ulogger@@QAEHAAVTDes8@@@Z @ 28 NONAME ; int Ulogger::RULogger::GetActiveOutputPlugin(class TDes8 &)
	?GetBufferSize@RULogger@Ulogger@@QAEHAAH@Z @ 29 NONAME ; int Ulogger::RULogger::GetBufferSize(int &)
	?RemovePluginConfigurations@RULogger@Ulogger@@QAEHABVTDesC8@@@Z @ 30 NONAME ; int Ulogger::RULogger::RemovePluginConfigurations(class TDesC8 const &)

