EXPORTS
	??1CTestKeyAssociation@StreamAccess@@UAE@XZ @ 1 NONAME ; StreamAccess::CTestKeyAssociation::~CTestKeyAssociation(void)
	??1CTestKeyStreamSink@StreamAccess@@UAE@XZ @ 2 NONAME ; StreamAccess::CTestKeyStreamSink::~CTestKeyStreamSink(void)
	??1CTestProtectedStreamDesc@StreamAccess@@UAE@XZ @ 3 NONAME ; StreamAccess::CTestProtectedStreamDesc::~CTestProtectedStreamDesc(void)
	?CloneLC@CTestKeyStreamSink@StreamAccess@@UBEPAVCKeyStreamSink@2@XZ @ 4 NONAME ; class StreamAccess::CKeyStreamSink * StreamAccess::CTestKeyStreamSink::CloneLC(void) const
	?CreateKeyStreamSinkLC@CTestProtectedStreamDesc@StreamAccess@@UBEPAVCKeyStreamSink@2@XZ @ 5 NONAME ; class StreamAccess::CKeyStreamSink * StreamAccess::CTestProtectedStreamDesc::CreateKeyStreamSinkLC(void) const
	?DoExternalizeL@CTestKeyStreamSink@StreamAccess@@MBEXAAVRWriteStream@@@Z @ 6 NONAME ; void StreamAccess::CTestKeyStreamSink::DoExternalizeL(class RWriteStream &) const
	?ExternalizeL@CTestKeyAssociation@StreamAccess@@QBEXAAVRWriteStream@@@Z @ 7 NONAME ; void StreamAccess::CTestKeyAssociation::ExternalizeL(class RWriteStream &) const
	?GetAttributeL@CTestAgentKeyStreamDecoder@StreamAccess@@UAEXABW4TAttribute@2@AAH@Z @ 8 NONAME ; void StreamAccess::CTestAgentKeyStreamDecoder::GetAttributeL(enum StreamAccess::TAttribute const &, int &)
	?GetAttributeL@CTestSingleProcessKeyStreamDecoder@StreamAccess@@UAEXABW4TAttribute@2@AAH@Z @ 9 NONAME ; void StreamAccess::CTestSingleProcessKeyStreamDecoder::GetAttributeL(enum StreamAccess::TAttribute const &, int &)
	?GetPostDeliveryRightsL@CTestAgentKeyStreamDecoder@StreamAccess@@UAEXAAVRFile@@AAVTDes8@@11@Z @ 10 NONAME ; void StreamAccess::CTestAgentKeyStreamDecoder::GetPostDeliveryRightsL(class RFile &, class TDes8 &, class TDes8 &, class TDes8 &)
	?GetPostDeliveryRightsL@CTestSingleProcessKeyStreamDecoder@StreamAccess@@UAEXAAVRFile@@AAVTDes8@@11@Z @ 11 NONAME ; void StreamAccess::CTestSingleProcessKeyStreamDecoder::GetPostDeliveryRightsL(class RFile &, class TDes8 &, class TDes8 &, class TDes8 &)
	?GetStringAttributeLC@CTestAgentKeyStreamDecoder@StreamAccess@@UAEPAVHBufC16@@ABW4TStringAttribute@2@@Z @ 12 NONAME ; class HBufC16 * StreamAccess::CTestAgentKeyStreamDecoder::GetStringAttributeLC(enum StreamAccess::TStringAttribute const &)
	?GetStringAttributeLC@CTestSingleProcessKeyStreamDecoder@StreamAccess@@UAEPAVHBufC16@@ABW4TStringAttribute@2@@Z @ 13 NONAME ; class HBufC16 * StreamAccess::CTestSingleProcessKeyStreamDecoder::GetStringAttributeLC(enum StreamAccess::TStringAttribute const &)
	?GetTestKey@CTestKeyAssociation@StreamAccess@@QBEPBVHBufC8@@XZ @ 14 NONAME ; class HBufC8 const * StreamAccess::CTestKeyAssociation::GetTestKey(void) const
	?NewL@CTestAgentKeyStreamDecoder@StreamAccess@@SAPAV12@ABVCKeyStreamSink@2@ABVCSdpMediaField@@ABVCSdpDocument@@@Z @ 15 NONAME ; class StreamAccess::CTestAgentKeyStreamDecoder * StreamAccess::CTestAgentKeyStreamDecoder::NewL(class StreamAccess::CKeyStreamSink const &, class CSdpMediaField const &, class CSdpDocument const &)
	?NewL@CTestKeyAssociation@StreamAccess@@SAPAV12@AAVRReadStream@@@Z @ 16 NONAME ; class StreamAccess::CTestKeyAssociation * StreamAccess::CTestKeyAssociation::NewL(class RReadStream &)
	?NewL@CTestKeyAssociation@StreamAccess@@SAPAV12@ABVTDesC8@@@Z @ 17 NONAME ; class StreamAccess::CTestKeyAssociation * StreamAccess::CTestKeyAssociation::NewL(class TDesC8 const &)
	?NewL@CTestKeyStreamSink@StreamAccess@@SAPAV12@AAVRReadStream@@@Z @ 18 NONAME ; class StreamAccess::CTestKeyStreamSink * StreamAccess::CTestKeyStreamSink::NewL(class RReadStream &)
	?NewL@CTestKeyStreamSink@StreamAccess@@SAPAV12@ABVTDesC16@@@Z @ 19 NONAME ; class StreamAccess::CTestKeyStreamSink * StreamAccess::CTestKeyStreamSink::NewL(class TDesC16 const &)
	?NewL@CTestProtectedStreamDesc@StreamAccess@@SAPAV12@ABVTDesC16@@@Z @ 20 NONAME ; class StreamAccess::CTestProtectedStreamDesc * StreamAccess::CTestProtectedStreamDesc::NewL(class TDesC16 const &)
	?NewL@CTestSingleProcessKeyStreamDecoder@StreamAccess@@SAPAV12@ABVCKeyStreamSink@2@ABVCSdpMediaField@@ABVCSdpDocument@@@Z @ 21 NONAME ; class StreamAccess::CTestSingleProcessKeyStreamDecoder * StreamAccess::CTestSingleProcessKeyStreamDecoder::NewL(class StreamAccess::CKeyStreamSink const &, class CSdpMediaField const &, class CSdpDocument const &)
	?NewLC@CTestAgentKeyStreamDecoder@StreamAccess@@SAPAV12@ABVCKeyStreamSink@2@ABVCSdpMediaField@@ABVCSdpDocument@@@Z @ 22 NONAME ; class StreamAccess::CTestAgentKeyStreamDecoder * StreamAccess::CTestAgentKeyStreamDecoder::NewLC(class StreamAccess::CKeyStreamSink const &, class CSdpMediaField const &, class CSdpDocument const &)
	?NewLC@CTestSingleProcessKeyStreamDecoder@StreamAccess@@SAPAV12@ABVCKeyStreamSink@2@ABVCSdpMediaField@@ABVCSdpDocument@@@Z @ 23 NONAME ; class StreamAccess::CTestSingleProcessKeyStreamDecoder * StreamAccess::CTestSingleProcessKeyStreamDecoder::NewLC(class StreamAccess::CKeyStreamSink const &, class CSdpMediaField const &, class CSdpDocument const &)
	?ProcessNewKeyAssociationL@CTestKeyStreamSink@StreamAccess@@UAEXABVCKeyAssociation@2@@Z @ 24 NONAME ; void StreamAccess::CTestKeyStreamSink::ProcessNewKeyAssociationL(class StreamAccess::CKeyAssociation const &)
	?SendIpSecAssociationL@CTestAgentKeyStreamDecoder@StreamAccess@@UBEXJPAVHBufC8@@0@Z @ 25 NONAME ; void StreamAccess::CTestAgentKeyStreamDecoder::SendIpSecAssociationL(long, class HBufC8 *, class HBufC8 *) const
	?SendIpSecAssociationL@CTestSingleProcessKeyStreamDecoder@StreamAccess@@UBEXJPAVHBufC8@@0@Z @ 26 NONAME ; void StreamAccess::CTestSingleProcessKeyStreamDecoder::SendIpSecAssociationL(long, class HBufC8 *, class HBufC8 *) const
	?SendKeyStreamL@CTestAgentKeyStreamDecoder@StreamAccess@@UBEXABVTDesC8@@@Z @ 27 NONAME ; void StreamAccess::CTestAgentKeyStreamDecoder::SendKeyStreamL(class TDesC8 const &) const
	?SendKeyStreamL@CTestSingleProcessKeyStreamDecoder@StreamAccess@@UBEXABVTDesC8@@@Z @ 28 NONAME ; void StreamAccess::CTestSingleProcessKeyStreamDecoder::SendKeyStreamL(class TDesC8 const &) const
	?SetAuthenticationAlgorithmL@CTestKeyStreamSink@StreamAccess@@UAEXABW4TAuthenticationAlgorithm@2@@Z @ 29 NONAME ; void StreamAccess::CTestKeyStreamSink::SetAuthenticationAlgorithmL(enum StreamAccess::TAuthenticationAlgorithm const &)
	?SetEncryptionAlgorithmL@CTestKeyStreamSink@StreamAccess@@UAEXABW4TEncryptionAlgorithm@2@@Z @ 30 NONAME ; void StreamAccess::CTestKeyStreamSink::SetEncryptionAlgorithmL(enum StreamAccess::TEncryptionAlgorithm const &)

