EXPORTS
	??0CBaflFileSortTable@@QAE@XZ @ 1 NONAME ; public: __thiscall CBaflFileSortTable::CBaflFileSortTable(void)
	??0CDesC16Array@@IAE@P6APAVCBufBase@@H@ZH@Z @ 2 NONAME ; protected: __thiscall CDesC16Array::CDesC16Array(class CBufBase * (__cdecl*)(int),int)
	??0CDesC16ArrayFlat@@QAE@H@Z @ 3 NONAME ; public: __thiscall CDesC16ArrayFlat::CDesC16ArrayFlat(int)
	??0CDesC16ArraySeg@@QAE@H@Z @ 4 NONAME ; public: __thiscall CDesC16ArraySeg::CDesC16ArraySeg(int)
	??0CDesC8Array@@IAE@P6APAVCBufBase@@H@ZH@Z @ 5 NONAME ; protected: __thiscall CDesC8Array::CDesC8Array(class CBufBase * (__cdecl*)(int),int)
	??0CDesC8ArrayFlat@@QAE@H@Z @ 6 NONAME ; public: __thiscall CDesC8ArrayFlat::CDesC8ArrayFlat(int)
	??0CDesC8ArraySeg@@QAE@H@Z @ 7 NONAME ; public: __thiscall CDesC8ArraySeg::CDesC8ArraySeg(int)
	??0CFindFileByType@@QAE@AAVRFs@@@Z @ 8 NONAME ; public: __thiscall CFindFileByType::CFindFileByType(class RFs &)
	??0CPtrC16Array@@QAE@H@Z @ 9 NONAME ; public: __thiscall CPtrC16Array::CPtrC16Array(int)
	??0CPtrC8Array@@QAE@H@Z @ 10 NONAME ; public: __thiscall CPtrC8Array::CPtrC8Array(int)
	??0RIncrMatcherPtr@@QAE@AAVTDes16@@@Z @ 11 NONAME ; public: __thiscall RIncrMatcherPtr::RIncrMatcherPtr(class TDes16 &)
	??0RIncrMatcherPtr@@QAE@XZ @ 12 NONAME ; public: __thiscall RIncrMatcherPtr::RIncrMatcherPtr(void)
	??0RIncrMatcherTextBuf@@QAE@XZ @ 13 NONAME ; public: __thiscall RIncrMatcherTextBuf::RIncrMatcherTextBuf(void)
	??0RResourceFile@@QAE@XZ @ 14 NONAME ; public: __thiscall RResourceFile::RResourceFile(void)
	??0RTextBuf@@QAE@XZ @ 15 NONAME ; public: __thiscall RTextBuf::RTextBuf(void)
	??0TIter@TRangeRef@@QAE@ABV1@@Z @ 16 NONAME ; public: __thiscall TRangeRef::TIter::TIter(class TIter const &)
	??0TLibAssocBase@@IAE@ABVRLibrary@@PAX@Z @ 17 NONAME ; protected: __thiscall TLibAssocBase::TLibAssocBase(class RLibrary const &,void *)
	??1CClipboard@@UAE@XZ @ 18 NONAME ; public: virtual __thiscall CClipboard::~CClipboard(void)
	??1CCommandLineArguments@@UAE@XZ @ 19 NONAME ; public: virtual __thiscall CCommandLineArguments::~CCommandLineArguments(void)
	??1CDesC16Array@@UAE@XZ @ 20 NONAME ; public: virtual __thiscall CDesC16Array::~CDesC16Array(void)
	??1CDesC16ArrayFlat@@UAE@XZ @ 21 NONAME ; public: virtual __thiscall CDesC16ArrayFlat::~CDesC16ArrayFlat(void)
	??1CDesC16ArraySeg@@UAE@XZ @ 22 NONAME ; public: virtual __thiscall CDesC16ArraySeg::~CDesC16ArraySeg(void)
	??1CDesC8Array@@UAE@XZ @ 23 NONAME ; public: virtual __thiscall CDesC8Array::~CDesC8Array(void)
	??1CDesC8ArrayFlat@@UAE@XZ @ 24 NONAME ; public: virtual __thiscall CDesC8ArrayFlat::~CDesC8ArrayFlat(void)
	??1CDesC8ArraySeg@@UAE@XZ @ 25 NONAME ; public: virtual __thiscall CDesC8ArraySeg::~CDesC8ArraySeg(void)
	??1CEnvironmentChangeNotifier@@UAE@XZ @ 26 NONAME ; public: virtual __thiscall CEnvironmentChangeNotifier::~CEnvironmentChangeNotifier(void)
	??1CFindFileByType@@UAE@XZ @ 27 NONAME ; public: virtual __thiscall CFindFileByType::~CFindFileByType(void)
	??1CPtrC16Array@@UAE@XZ @ 28 NONAME ; public: virtual __thiscall CPtrC16Array::~CPtrC16Array(void)
	??1CPtrC8Array@@UAE@XZ @ 29 NONAME ; public: virtual __thiscall CPtrC8Array::~CPtrC8Array(void)
	??1RIncrMatcherBase@@UAE@XZ @ 30 NONAME ; public: virtual __thiscall RIncrMatcherBase::~RIncrMatcherBase(void)
	??1RIncrMatcherPtr@@UAE@XZ @ 31 NONAME ; public: virtual __thiscall RIncrMatcherPtr::~RIncrMatcherPtr(void)
	??1RIncrMatcherTextBuf@@UAE@XZ @ 32 NONAME ; public: virtual __thiscall RIncrMatcherTextBuf::~RIncrMatcherTextBuf(void)
	??1RTextBuf@@QAE@XZ @ 33 NONAME ; public: __thiscall RTextBuf::~RTextBuf(void)
	??8TRangeRef@@QBEHABV0@@Z @ 34 NONAME ; public: int __thiscall TRangeRef::operator==(class TRangeRef const &)const 
	??ETIter@TRangeRef@@QAEHXZ @ 35 NONAME ; public: int __thiscall TRangeRef::TIter::operator++(void)
	??G@YA?AVTCellRef@@ABV0@0@Z @ 36 NONAME ; class TCellRef  __cdecl operator-(class TCellRef const &,class TCellRef const &)
	??H@YA?AVTCellRef@@ABV0@0@Z @ 37 NONAME ; class TCellRef  __cdecl operator+(class TCellRef const &,class TCellRef const &)
	?AbbreviateFileName@BaflUtils@@SAXABV?$TBuf@$0BAA@@@AAVTDes16@@@Z @ 38 NONAME ; public: static void __cdecl BaflUtils::AbbreviateFileName(class TBuf<256> const &,class TDes16 &)
	?Advance@TResourceReader@@QAEXH@Z @ 39 NONAME ; public: void __thiscall TResourceReader::Advance(int)
	?AllocReadL@RResourceFile@@QBEPAVHBufC8@@H@Z @ 40 NONAME ; public: class HBufC8 * __thiscall RResourceFile::AllocReadL(int)const 
	?AllocReadLC@RResourceFile@@QBEPAVHBufC8@@H@Z @ 41 NONAME ; public: class HBufC8 * __thiscall RResourceFile::AllocReadLC(int)const 
	?AppendChar@RIncrMatcherBase@@QAEXVTChar@@@Z @ 42 NONAME ; public: void __thiscall RIncrMatcherBase::AppendChar(class TChar)
	?AppendL@CDesC16Array@@QAEXABVTDesC16@@@Z @ 43 NONAME ; public: void __thiscall CDesC16Array::AppendL(class TDesC16 const &)
	?AppendL@CDesC8Array@@QAEXABVTDesC8@@@Z @ 44 NONAME ; public: void __thiscall CDesC8Array::AppendL(class TDesC8 const &)
	?Arg@CCommandLineArguments@@QBE?AVTPtrC16@@H@Z @ 45 NONAME ; public: class TPtrC16  __thiscall CCommandLineArguments::Arg(int)const 
	?CheckFolder@BaflUtils@@SAHAAVRFs@@ABVTDesC16@@@Z @ 46 NONAME ; public: static int __cdecl BaflUtils::CheckFolder(class RFs &,class TDesC16 const &)
	?CheckWhetherFullNameRefersToFolder@BaflUtils@@SAHABVTDesC16@@AAH@Z @ 47 NONAME ; public: static int __cdecl BaflUtils::CheckWhetherFullNameRefersToFolder(class TDesC16 const &,int &)
	?Clear@CClipboard@@SAHAAVRFs@@@Z @ 48 NONAME ; public: static int __cdecl CClipboard::Clear(class RFs &)
	?Close@RResourceFile@@QAEXXZ @ 49 NONAME ; public: void __thiscall RResourceFile::Close(void)
	?CommitL@CClipboard@@QAEXXZ @ 50 NONAME ; public: void __thiscall CClipboard::CommitL(void)
	?ConfirmSignatureL@RResourceFile@@QAEXH@Z @ 51 NONAME ; public: void __thiscall RResourceFile::ConfirmSignatureL(int)
	?ConstructFromResourceL@CBaflFileSortTable@@QAEXAAVTResourceReader@@@Z @ 52 NONAME ; public: void __thiscall CBaflFileSortTable::ConstructFromResourceL(class TResourceReader &)
	?Contains@TRangeRef@@QBEHABVTCellRef@@@Z @ 53 NONAME ; public: int __thiscall TRangeRef::Contains(class TCellRef const &)const 
	?CopyFile@BaflUtils@@SAHAAVRFs@@ABVTDesC16@@1I@Z @ 54 NONAME ; public: static int __cdecl BaflUtils::CopyFile(class RFs &,class TDesC16 const &,class TDesC16 const &,unsigned int)
	?CopyL@CPtrC16Array@@QAEXABVMDesC16Array@@@Z @ 55 NONAME ; public: void __thiscall CPtrC16Array::CopyL(class MDesC16Array const &)
	?CopyL@CPtrC8Array@@QAEXABVMDesC8Array@@@Z @ 56 NONAME ; public: void __thiscall CPtrC8Array::CopyL(class MDesC8Array const &)
	?CopyToL@CClipboard@@QAEXN@Z @ 57 NONAME ; public: void __thiscall CClipboard::CopyToL(double)
	?CopyWithTruncation@BaflUtils@@SAXAAVTDes16@@ABVTDesC16@@VTChar@@@Z @ 58 NONAME ; public: static void __cdecl BaflUtils::CopyWithTruncation(class TDes16 &,class TDesC16 const &,class TChar)
	?Count@CCommandLineArguments@@QBEHXZ @ 59 NONAME ; public: int __thiscall CCommandLineArguments::Count(void)const 
	?Delete@CDesC16Array@@QAEXH@Z @ 60 NONAME ; public: void __thiscall CDesC16Array::Delete(int)
	?Delete@CDesC16Array@@QAEXHH@Z @ 61 NONAME ; public: void __thiscall CDesC16Array::Delete(int,int)
	?Delete@CDesC8Array@@QAEXH@Z @ 62 NONAME ; public: void __thiscall CDesC8Array::Delete(int)
	?Delete@CDesC8Array@@QAEXHH@Z @ 63 NONAME ; public: void __thiscall CDesC8Array::Delete(int,int)
	?DeleteFile@BaflUtils@@SAHAAVRFs@@ABVTDesC16@@I@Z @ 64 NONAME ; public: static int __cdecl BaflUtils::DeleteFile(class RFs &,class TDesC16 const &,unsigned int)
	?DeleteLastChar@RIncrMatcherBase@@QAEXXZ @ 65 NONAME ; public: void __thiscall RIncrMatcherBase::DeleteLastChar(void)
	?DiskIsReadOnly@BaflUtils@@SAHAAVRFs@@ABVTDesC16@@AAH@Z @ 66 NONAME ; public: static int __cdecl BaflUtils::DiskIsReadOnly(class RFs &,class TDesC16 const &,int &)
	?DisplayError@CBaActiveScheduler@@UBEXH@Z @ 67 NONAME ; public: virtual void __thiscall CBaActiveScheduler::DisplayError(int)const 
	?DisplayExtendedError@CBaActiveScheduler@@SAXVTUid@@H@Z @ 68 NONAME ; public: static void __cdecl CBaActiveScheduler::DisplayExtendedError(class TUid,int)
	?DoUnload@TLibAssocBase@@KAXPAX@Z @ 69 NONAME ; protected: static void __cdecl TLibAssocBase::DoUnload(void *)
	?DriveAndPathFromFullName@BaflUtils@@SA?AV?$TBuf@$0BAA@@@ABVTDesC16@@@Z @ 70 NONAME ; public: static class TBuf<256>  __cdecl BaflUtils::DriveAndPathFromFullName(class TDesC16 const &)
	?EnsurePathExistsL@BaflUtils@@SAXAAVRFs@@ABVTDesC16@@@Z @ 71 NONAME ; public: static void __cdecl BaflUtils::EnsurePathExistsL(class RFs &,class TDesC16 const &)
	?Entry@CFindFileByType@@QBEABVTEntry@@XZ @ 72 NONAME ; public: class TEntry const & __thiscall CFindFileByType::Entry(void)const 
	?Error@CBaActiveScheduler@@UBEXH@Z @ 73 NONAME ; public: virtual void __thiscall CBaActiveScheduler::Error(int)const 
	?Exit@CBaActiveScheduler@@SAXXZ @ 74 NONAME ; public: static void __cdecl CBaActiveScheduler::Exit(void)
	?ExtendedError@CBaActiveScheduler@@SAABUSExtendedError@@XZ @ 75 NONAME ; public: static struct SExtendedError const & __cdecl CBaActiveScheduler::ExtendedError(void)
	?ExternalizeL@TRangeRef@@QBEXAAVRWriteStream@@@Z @ 76 NONAME ; public: void __thiscall TRangeRef::ExternalizeL(class RWriteStream &)const 
	?ExtractAppNameFromFullName@BaflUtils@@SA?AVTPtrC16@@ABV?$TBuf@$0BAA@@@@Z @ 77 NONAME ; public: static class TPtrC16  __cdecl BaflUtils::ExtractAppNameFromFullName(class TBuf<256> const &)
	?FileExists@BaflUtils@@SAHABVRFs@@ABVTDesC16@@@Z @ 78 NONAME ; public: static int __cdecl BaflUtils::FileExists(class RFs const &,class TDesC16 const &)
	?Find@CDesC16Array@@QBEHABVTDesC16@@AAHW4TKeyCmpText@@@Z @ 79 NONAME ; public: int __thiscall CDesC16Array::Find(class TDesC16 const &,int &,enum TKeyCmpText)const 
	?Find@CDesC8Array@@QBEHABVTDesC8@@AAHW4TKeyCmpText@@@Z @ 80 NONAME ; public: int __thiscall CDesC8Array::Find(class TDesC8 const &,int &,enum TKeyCmpText)const 
	?FindFirst@CFindFileByType@@QAEHABVTDesC16@@0ABVTUidType@@@Z @ 81 NONAME ; public: int __thiscall CFindFileByType::FindFirst(class TDesC16 const &,class TDesC16 const &,class TUidType const &)
	?FindIsq@CDesC16Array@@QBEHABVTDesC16@@AAHW4TKeyCmpText@@@Z @ 82 NONAME ; public: int __thiscall CDesC16Array::FindIsq(class TDesC16 const &,int &,enum TKeyCmpText)const 
	?FindIsq@CDesC8Array@@QBEHABVTDesC8@@AAHW4TKeyCmpText@@@Z @ 83 NONAME ; public: int __thiscall CDesC8Array::FindIsq(class TDesC8 const &,int &,enum TKeyCmpText)const 
	?FindNext@CFindFileByType@@QAEHXZ @ 84 NONAME ; public: int __thiscall CFindFileByType::FindNext(void)
	?FirstMatchingIndex@RIncrMatcherBase@@QBEHAAHABVMDesC16Array@@H@Z @ 85 NONAME ; public: int __thiscall RIncrMatcherBase::FirstMatchingIndex(int &,class MDesC16Array const &,int)const 
	?FirstMatchingIndexC@RIncrMatcherBase@@QBEHAAHABVMDesC16Array@@H@Z @ 86 NONAME ; public: int __thiscall RIncrMatcherBase::FirstMatchingIndexC(int &,class MDesC16Array const &,int)const 
	?FirstMatchingIndexF@RIncrMatcherBase@@QBEHAAHABVMDesC16Array@@H@Z @ 87 NONAME ; public: int __thiscall RIncrMatcherBase::FirstMatchingIndexF(int &,class MDesC16Array const &,int)const 
	?FolderExists@BaflUtils@@SAHAAVRFs@@ABVTDesC16@@@Z @ 88 NONAME ; public: static int __cdecl BaflUtils::FolderExists(class RFs &,class TDesC16 const &)
	?FolderNameFromFullName@BaflUtils@@SA?AV?$TBuf@$0BAA@@@ABVTDesC16@@@Z @ 89 NONAME ; public: static class TBuf<256>  __cdecl BaflUtils::FolderNameFromFullName(class TDesC16 const &)
	?InsertIsqAllowDuplicatesL@CDesC16Array@@QAEHABVTDesC16@@W4TKeyCmpText@@@Z @ 90 NONAME ; public: int __thiscall CDesC16Array::InsertIsqAllowDuplicatesL(class TDesC16 const &,enum TKeyCmpText)
	?InsertIsqAllowDuplicatesL@CDesC8Array@@QAEHABVTDesC8@@W4TKeyCmpText@@@Z @ 91 NONAME ; public: int __thiscall CDesC8Array::InsertIsqAllowDuplicatesL(class TDesC8 const &,enum TKeyCmpText)
	?InsertIsqL@CDesC16Array@@QAEHABVTDesC16@@W4TKeyCmpText@@@Z @ 92 NONAME ; public: int __thiscall CDesC16Array::InsertIsqL(class TDesC16 const &,enum TKeyCmpText)
	?InsertIsqL@CDesC8Array@@QAEHABVTDesC8@@W4TKeyCmpText@@@Z @ 93 NONAME ; public: int __thiscall CDesC8Array::InsertIsqL(class TDesC8 const &,enum TKeyCmpText)
	?InsertL@CDesC16Array@@QAEXHABVTDesC16@@@Z @ 94 NONAME ; public: void __thiscall CDesC16Array::InsertL(int,class TDesC16 const &)
	?InsertL@CDesC8Array@@QAEXHABVTDesC8@@@Z @ 95 NONAME ; public: void __thiscall CDesC8Array::InsertL(int,class TDesC8 const &)
	?InternalizeL@TCellRef@@QAEXAAVRReadStream@@@Z @ 96 NONAME ; public: void __thiscall TCellRef::InternalizeL(class RReadStream &)
	?InternalizeL@TRangeRef@@QAEXAAVRReadStream@@@Z @ 97 NONAME ; public: void __thiscall TRangeRef::InternalizeL(class RReadStream &)
	?IsFirstDriveForSocket@BaflUtils@@SAHVTDriveUnit@@@Z @ 98 NONAME ; public: static int __cdecl BaflUtils::IsFirstDriveForSocket(class TDriveUnit)
	?IsFolder@BaflUtils@@SAHABVRFs@@ABVTDesC16@@AAH@Z @ 99 NONAME ; public: static int __cdecl BaflUtils::IsFolder(class RFs const &,class TDesC16 const &,int &)
	?IsMatch@RIncrMatcherBase@@QBEHABVTDesC16@@@Z @ 100 NONAME ; public: int __thiscall RIncrMatcherBase::IsMatch(class TDesC16 const &)const 
	?IsMatchC@RIncrMatcherBase@@QBEHABVTDesC16@@@Z @ 101 NONAME ; public: int __thiscall RIncrMatcherBase::IsMatchC(class TDesC16 const &)const 
	?IsMatchF@RIncrMatcherBase@@QBEHABVTDesC16@@@Z @ 102 NONAME ; public: int __thiscall RIncrMatcherBase::IsMatchF(class TDesC16 const &)const 
	?LeaveForAlert@CBaActiveScheduler@@SAXVTUid@@H@Z @ 103 NONAME ; public: static void __cdecl CBaActiveScheduler::LeaveForAlert(class TUid,int)
	?LeaveForErrorHandler@CBaActiveScheduler@@SAXPBVCBaErrorHandler@@@Z @ 104 NONAME ; public: static void __cdecl CBaActiveScheduler::LeaveForErrorHandler(class CBaErrorHandler const *)
	?LeaveForInfoPrint@CBaActiveScheduler@@SAXVTUid@@H@Z @ 105 NONAME ; public: static void __cdecl CBaActiveScheduler::LeaveForInfoPrint(class TUid,int)
	?LeaveNoAlert@CBaActiveScheduler@@SAXXZ @ 106 NONAME ; public: static void __cdecl CBaActiveScheduler::LeaveNoAlert(void)
	?MatchDes@RIncrMatcherPtr@@MAEAAVTDes16@@XZ @ 107 NONAME ; protected: virtual class TDes16 & __thiscall RIncrMatcherPtr::MatchDes(void)
	?MatchDes@RIncrMatcherPtr@@MBEABVTDes16@@XZ @ 108 NONAME ; protected: virtual class TDes16 const & __thiscall RIncrMatcherPtr::MatchDes(void)const 
	?MatchDes@RIncrMatcherTextBuf@@MAEAAVTDes16@@XZ @ 109 NONAME ; protected: virtual class TDes16 & __thiscall RIncrMatcherTextBuf::MatchDes(void)
	?MatchDes@RIncrMatcherTextBuf@@MBEABVTDes16@@XZ @ 110 NONAME ; protected: virtual class TDes16 const & __thiscall RIncrMatcherTextBuf::MatchDes(void)const 
	?MdcaCount@CDesC16Array@@UBEHXZ @ 111 NONAME ; public: virtual int __thiscall CDesC16Array::MdcaCount(void)const 
	?MdcaCount@CDesC8Array@@UBEHXZ @ 112 NONAME ; public: virtual int __thiscall CDesC8Array::MdcaCount(void)const 
	?MdcaCount@CPtrC16Array@@UBEHXZ @ 113 NONAME ; public: virtual int __thiscall CPtrC16Array::MdcaCount(void)const 
	?MdcaCount@CPtrC8Array@@UBEHXZ @ 114 NONAME ; public: virtual int __thiscall CPtrC8Array::MdcaCount(void)const 
	?MdcaPoint@CDesC16Array@@UBE?AVTPtrC16@@H@Z @ 115 NONAME ; public: virtual class TPtrC16  __thiscall CDesC16Array::MdcaPoint(int)const 
	?MdcaPoint@CDesC8Array@@UBE?AVTPtrC8@@H@Z @ 116 NONAME ; public: virtual class TPtrC8  __thiscall CDesC8Array::MdcaPoint(int)const 
	?MdcaPoint@CPtrC16Array@@UBE?AVTPtrC16@@H@Z @ 117 NONAME ; public: virtual class TPtrC16  __thiscall CPtrC16Array::MdcaPoint(int)const 
	?MdcaPoint@CPtrC8Array@@UBE?AVTPtrC8@@H@Z @ 118 NONAME ; public: virtual class TPtrC8  __thiscall CPtrC8Array::MdcaPoint(int)const 
	?MostSignificantPartOfFullName@BaflUtils@@SAHABVTDesC16@@AAV?$TBuf@$0BAA@@@@Z @ 119 NONAME ; public: static int __cdecl BaflUtils::MostSignificantPartOfFullName(class TDesC16 const &,class TBuf<256> &)
	?NearestLanguageFile@BaflUtils@@SAXABVRFs@@AAV?$TBuf@$0BAA@@@@Z @ 120 NONAME ; public: static void __cdecl BaflUtils::NearestLanguageFile(class RFs const &,class TBuf<256> &)
	?NewForReadingL@CClipboard@@SAPAV1@AAVRFs@@@Z @ 121 NONAME ; public: static class CClipboard * __cdecl CClipboard::NewForReadingL(class RFs &)
	?NewForReadingLC@CClipboard@@SAPAV1@AAVRFs@@@Z @ 122 NONAME ; public: static class CClipboard * __cdecl CClipboard::NewForReadingLC(class RFs &)
	?NewForWritingLC@CClipboard@@SAPAV1@AAVRFs@@@Z @ 123 NONAME ; public: static class CClipboard * __cdecl CClipboard::NewForWritingLC(class RFs &)
	?NewL@CCommandLineArguments@@SAPAV1@XZ @ 124 NONAME ; public: static class CCommandLineArguments * __cdecl CCommandLineArguments::NewL(void)
	?NewL@CEnvironmentChangeNotifier@@SAPAV1@HABVTCallBack@@@Z @ 125 NONAME ; public: static class CEnvironmentChangeNotifier * __cdecl CEnvironmentChangeNotifier::NewL(int,class TCallBack const &)
	?NewLC@CCommandLineArguments@@SAPAV1@XZ @ 126 NONAME ; public: static class CCommandLineArguments * __cdecl CCommandLineArguments::NewLC(void)
	?NoCells@TRangeRef@@QBEHXZ @ 127 NONAME ; public: int __thiscall TRangeRef::NoCells(void)const 
	?Offset@TCellRef@@QAEXHH@Z @ 128 NONAME ; public: void __thiscall TCellRef::Offset(int,int)
	?OpenL@RResourceFile@@QAEXAAVRFs@@ABVTDesC16@@@Z @ 129 NONAME ; public: void __thiscall RResourceFile::OpenL(class RFs &,class TDesC16 const &)
	?OwnsResourceId@RResourceFile@@QBEHH@Z @ 130 NONAME ; public: int __thiscall RResourceFile::OwnsResourceId(int)const 
	?Parse@BaflUtils@@SAHABVTDesC16@@@Z @ 131 NONAME ; public: static int __cdecl BaflUtils::Parse(class TDesC16 const &)
	?PasteFromL@CClipboard@@QAEHAAN@Z @ 132 NONAME ; public: int __thiscall CClipboard::PasteFromL(double &)
	?PathExists@BaflUtils@@SAHAAVRFs@@ABVTDesC16@@@Z @ 133 NONAME ; public: static int __cdecl BaflUtils::PathExists(class RFs &,class TDesC16 const &)
	?Ptr@TResourceReader@@QAEPBXXZ @ 134 NONAME ; public: void const * __thiscall TResourceReader::Ptr(void)
	?Read@TResourceReader@@QAEXPAXH@Z @ 135 NONAME ; public: void __thiscall TResourceReader::Read(void *,int)
	?ReadDesC16ArrayL@TResourceReader@@QAEPAVCDesC16ArrayFlat@@XZ @ 136 NONAME ; public: class CDesC16ArrayFlat * __thiscall TResourceReader::ReadDesC16ArrayL(void)
	?ReadDesC8ArrayL@TResourceReader@@QAEPAVCDesC8ArrayFlat@@XZ @ 137 NONAME ; public: class CDesC8ArrayFlat * __thiscall TResourceReader::ReadDesC8ArrayL(void)
	?ReadHBufC16L@TResourceReader@@QAEPAVHBufC16@@XZ @ 138 NONAME ; public: class HBufC16 * __thiscall TResourceReader::ReadHBufC16L(void)
	?ReadHBufC8L@TResourceReader@@QAEPAVHBufC8@@XZ @ 139 NONAME ; public: class HBufC8 * __thiscall TResourceReader::ReadHBufC8L(void)
	?ReadInt16@TResourceReader@@QAEHXZ @ 140 NONAME ; public: int __thiscall TResourceReader::ReadInt16(void)
	?ReadInt32@TResourceReader@@QAEHXZ @ 141 NONAME ; public: int __thiscall TResourceReader::ReadInt32(void)
	?ReadInt8@TResourceReader@@QAEHXZ @ 142 NONAME ; public: int __thiscall TResourceReader::ReadInt8(void)
	?ReadL@RResourceFile@@QBEXAAVTDes8@@H@Z @ 143 NONAME ; public: void __thiscall RResourceFile::ReadL(class TDes8 &,int)const 
	?ReadReal64@TResourceReader@@QAENXZ @ 144 NONAME ; public: double __thiscall TResourceReader::ReadReal64(void)
	?ReadTPtrC16@TResourceReader@@QAE?AVTPtrC16@@HPBVTDesC8@@@Z @ 145 NONAME ; public: class TPtrC16  __thiscall TResourceReader::ReadTPtrC16(int,class TDesC8 const *)
	?ReadTPtrC16@TResourceReader@@QAE?AVTPtrC16@@XZ @ 146 NONAME ; public: class TPtrC16  __thiscall TResourceReader::ReadTPtrC16(void)
	?ReadTPtrC8@TResourceReader@@QAE?AVTPtrC8@@HPBVTDesC8@@@Z @ 147 NONAME ; public: class TPtrC8  __thiscall TResourceReader::ReadTPtrC8(int,class TDesC8 const *)
	?ReadTPtrC8@TResourceReader@@QAE?AVTPtrC8@@XZ @ 148 NONAME ; public: class TPtrC8  __thiscall TResourceReader::ReadTPtrC8(void)
	?ReadUint16@TResourceReader@@QAEIXZ @ 149 NONAME ; public: unsigned int __thiscall TResourceReader::ReadUint16(void)
	?ReadUint32@TResourceReader@@QAEIXZ @ 150 NONAME ; public: unsigned int __thiscall TResourceReader::ReadUint32(void)
	?ReadUint8@TResourceReader@@QAEIXZ @ 151 NONAME ; public: unsigned int __thiscall TResourceReader::ReadUint8(void)
	?RemoveSystemDirectory@BaflUtils@@SAXAAVCDir@@@Z @ 152 NONAME ; public: static void __cdecl BaflUtils::RemoveSystemDirectory(class CDir &)
	?RenameFile@BaflUtils@@SAHAAVRFs@@ABVTDesC16@@1I@Z @ 153 NONAME ; public: static int __cdecl BaflUtils::RenameFile(class RFs &,class TDesC16 const &,class TDesC16 const &,unsigned int)
	?Reserved_1@CBaActiveScheduler@@EAEXXZ @ 154 NONAME ; private: virtual void __thiscall CBaActiveScheduler::Reserved_1(void)
	?Reserved_2@CBaActiveScheduler@@EAEXXZ @ 155 NONAME ; private: virtual void __thiscall CBaActiveScheduler::Reserved_2(void)
	?Reset@CDesC16Array@@QAEXXZ @ 156 NONAME ; public: void __thiscall CDesC16Array::Reset(void)
	?Reset@CDesC8Array@@QAEXXZ @ 157 NONAME ; public: void __thiscall CDesC8Array::Reset(void)
	?Rewind@TResourceReader@@QAEXH@Z @ 158 NONAME ; public: void __thiscall TResourceReader::Rewind(int)
	?RootFolderPath@BaflUtils@@SA?AV?$TBuf@$0BAA@@@V?$TBuf@$00@@@Z @ 159 NONAME ; public: static class TBuf<256>  __cdecl BaflUtils::RootFolderPath(class TBuf<1>)
	?Set@CEnvironmentChangeNotifier@@QAEHABVTCallBack@@@Z @ 160 NONAME ; public: int __thiscall CEnvironmentChangeNotifier::Set(class TCallBack const &)
	?Set@TLibAssocBase@@IAEXABVRLibrary@@PAX@Z @ 161 NONAME ; protected: void __thiscall TLibAssocBase::Set(class RLibrary const &,void *)
	?SetBestMatch@RIncrMatcherBase@@QAEXABVTDesC16@@@Z @ 162 NONAME ; public: void __thiscall RIncrMatcherBase::SetBestMatch(class TDesC16 const &)
	?SetBestMatchC@RIncrMatcherBase@@QAEXABVTDesC16@@@Z @ 163 NONAME ; public: void __thiscall RIncrMatcherBase::SetBestMatchC(class TDesC16 const &)
	?SetBestMatchF@RIncrMatcherBase@@QAEXABVTDesC16@@@Z @ 164 NONAME ; public: void __thiscall RIncrMatcherBase::SetBestMatchF(class TDesC16 const &)
	?SetBuffer@TResourceReader@@QAEXPBVTDesC8@@@Z @ 165 NONAME ; public: void __thiscall TResourceReader::SetBuffer(class TDesC8 const *)
	?SetMaxLengthL@RTextBuf@@QAEXH@Z @ 166 NONAME ; public: void __thiscall RTextBuf::SetMaxLengthL(int)
	?SignatureL@RResourceFile@@QBEHXZ @ 167 NONAME ; public: int __thiscall RResourceFile::SignatureL(void)const 
	?Sort@CDesC16Array@@QAEXW4TKeyCmpText@@@Z @ 168 NONAME ; public: void __thiscall CDesC16Array::Sort(enum TKeyCmpText)
	?Sort@CDesC8Array@@QAEXW4TKeyCmpText@@@Z @ 169 NONAME ; public: void __thiscall CDesC8Array::Sort(enum TKeyCmpText)
	?SortByTable@BaflUtils@@SAHAAVCDir@@PAVCBaflFileSortTable@@@Z @ 170 NONAME ; public: static int __cdecl BaflUtils::SortByTable(class CDir &,class CBaflFileSortTable *)
	?Start@CEnvironmentChangeNotifier@@QAEXXZ @ 171 NONAME ; public: void __thiscall CEnvironmentChangeNotifier::Start(void)
	?UidTypeMatches@BaflUtils@@SAHABVTUidType@@0@Z @ 172 NONAME ; public: static int __cdecl BaflUtils::UidTypeMatches(class TUidType const &,class TUidType const &)
	?UpdateDiskListL@BaflUtils@@SAXABVRFs@@AAVCDesC16Array@@HW4TDriveNumber@@@Z @ 173 NONAME ; public: static void __cdecl BaflUtils::UpdateDiskListL(class RFs const &,class CDesC16Array &,int,enum TDriveNumber)
	?ValidateFolderNameTypedByUserL@BaflUtils@@SAHABVRFs@@ABVTDesC16@@1AAV?$TBuf@$0BAA@@@@Z @ 174 NONAME ; public: static int __cdecl BaflUtils::ValidateFolderNameTypedByUserL(class RFs const &,class TDesC16 const &,class TDesC16 const &,class TBuf<256> &)
	??0TBaSystemSoundInfo@@QAE@ABVTBaSystemSoundType@@ABV?$TBuf@$0BAA@@@HH@Z @ 175 NONAME ; public: __thiscall TBaSystemSoundInfo::TBaSystemSoundInfo(class TBaSystemSoundType const &,class TBuf<256> const &,int,int)
	??0TBaSystemSoundInfo@@QAE@XZ @ 176 NONAME ; public: __thiscall TBaSystemSoundInfo::TBaSystemSoundInfo(void)
	??0TBaSystemSoundType@@QAE@VTUid@@0@Z @ 177 NONAME ; public: __thiscall TBaSystemSoundType::TBaSystemSoundType(class TUid,class TUid)
	??0TBaSystemSoundType@@QAE@XZ @ 178 NONAME ; public: __thiscall TBaSystemSoundType::TBaSystemSoundType(void)
	?At@CBaSystemSoundArray@@QAE?AVTBaSystemSoundInfo@@H@Z @ 179 NONAME ; public: class TBaSystemSoundInfo  __thiscall CBaSystemSoundArray::At(int)
	?Count@CBaSystemSoundArray@@QAEHXZ @ 180 NONAME ; public: int __thiscall CBaSystemSoundArray::Count(void)
	?GetSound@BaSystemSound@@SAHAAVRFs@@ABVTBaSystemSoundType@@AAVTBaSystemSoundInfo@@@Z @ 181 NONAME ; public: static int __cdecl BaSystemSound::GetSound(class RFs &,class TBaSystemSoundType const &,class TBaSystemSoundInfo &)
	?NewL@CBaSystemSoundArray@@SAPAV1@XZ @ 182 NONAME ; public: static class CBaSystemSoundArray * __cdecl CBaSystemSoundArray::NewL(void)
	?NewLC@CBaSystemSoundArray@@SAPAV1@XZ @ 183 NONAME ; public: static class CBaSystemSoundArray * __cdecl CBaSystemSoundArray::NewLC(void)
	?RestoreL@CBaSystemSoundArray@@QAEXAAVRFs@@VTUid@@@Z @ 184 NONAME ; public: void __thiscall CBaSystemSoundArray::RestoreL(class RFs &,class TUid)
	?SetSoundL@BaSystemSound@@SAXAAVRFs@@ABVTBaSystemSoundInfo@@@Z @ 185 NONAME ; public: static void __cdecl BaSystemSound::SetSoundL(class RFs &,class TBaSystemSoundInfo const &)
	??0TBaSystemSoundInfo@@QAE@ABVTBaSystemSoundType@@HHH@Z @ 186 NONAME ; public: __thiscall TBaSystemSoundInfo::TBaSystemSoundInfo(class TBaSystemSoundType const &,int,int,int)
	??0TBaSystemSoundInfo@@QAE@ABVTBaSystemSoundType@@VTTone@0@HH@Z @ 187 NONAME ; public: __thiscall TBaSystemSoundInfo::TBaSystemSoundInfo(class TBaSystemSoundType const &,class TBaSystemSoundInfo::TTone,int,int)
	?SetFileName@TBaSystemSoundInfo@@QAEXABV?$TBuf@$0BAA@@@@Z @ 188 NONAME ; public: void __thiscall TBaSystemSoundInfo::SetFileName(class TBuf<256> const &)
	?SetFixedSequenceNumber@TBaSystemSoundInfo@@QAEXH@Z @ 189 NONAME ; public: void __thiscall TBaSystemSoundInfo::SetFixedSequenceNumber(int)
	?SetTone@TBaSystemSoundInfo@@QAEXABVTTone@1@@Z @ 190 NONAME ; public: void __thiscall TBaSystemSoundInfo::SetTone(class TBaSystemSoundInfo::TTone const &)
	?SoundCategory@TBaSystemSoundInfo@@QBE?AW4TSoundCategory@1@XZ @ 191 NONAME ; public: enum TBaSystemSoundInfo::TSoundCategory  __thiscall TBaSystemSoundInfo::SoundCategory(void)const 
	??8TBaSystemSoundType@@QBEHABV0@@Z @ 192 NONAME ; public: int __thiscall TBaSystemSoundType::operator==(class TBaSystemSoundType const &)const 
	??1CBaBackupSessionWrapper@@UAE@XZ @ 193 NONAME ; public: virtual __thiscall CBaBackupSessionWrapper::~CBaBackupSessionWrapper(void)
	?CloseAll@CBaBackupSessionWrapper@@QAEXW4TFileLockFlags@MBackupObserver@@AAVTRequestStatus@@@Z @ 194 NONAME ; public: void __thiscall CBaBackupSessionWrapper::CloseAll(enum MBackupObserver::TFileLockFlags,class TRequestStatus &)
	?CloseFileL@CBaBackupSessionWrapper@@QAEXABVTDesC16@@W4TFileLockFlags@MBackupObserver@@@Z @ 195 NONAME ; public: void __thiscall CBaBackupSessionWrapper::CloseFileL(class TDesC16 const &,enum MBackupObserver::TFileLockFlags)
	?DeregisterFile@CBaBackupSessionWrapper@@QAEXABVTDesC16@@@Z @ 196 NONAME ; public: void __thiscall CBaBackupSessionWrapper::DeregisterFile(class TDesC16 const &)
	?NewL@CBaBackupSessionWrapper@@SAPAV1@XZ @ 197 NONAME ; public: static class CBaBackupSessionWrapper * __cdecl CBaBackupSessionWrapper::NewL(void)
	?RegisterFileL@CBaBackupSessionWrapper@@QAEXABVTDesC16@@AAVMBackupObserver@@@Z @ 198 NONAME ; public: void __thiscall CBaBackupSessionWrapper::RegisterFileL(class TDesC16 const &,class MBackupObserver &)
	?RestartAll@CBaBackupSessionWrapper@@QAEXXZ @ 199 NONAME ; public: void __thiscall CBaBackupSessionWrapper::RestartAll(void)
	?RestartFile@CBaBackupSessionWrapper@@QAEXABVTDesC16@@@Z @ 200 NONAME ; public: void __thiscall CBaBackupSessionWrapper::RestartFile(class TDesC16 const &)
	;?CloseServer@CBaBackupSessionWrapper@@QAEXXZ @ 201 NONAME ABSENT ; public: void __thiscall CBaBackupSessionWrapper::CloseServer(void)
	??0TBaSoundPriorityEncoder@@QAE@HW4TMdaPriorityPreference@@@Z @ 202 NONAME ; public: __thiscall TBaSoundPriorityEncoder::TBaSoundPriorityEncoder(int,enum TMdaPriorityPreference)
	?PriorityPreference@TBaSoundPriorityBase@@QBE?AW4TMdaPriorityPreference@@XZ @ 203 NONAME ; public: enum TMdaPriorityPreference  __thiscall TBaSoundPriorityBase::PriorityPreference(void)const 
	?SystemSoundFile@BaSystemSound@@SA?AV?$TBuf@$0BAA@@@XZ @ 204 NONAME ; public: static class TBuf<256>  __cdecl BaSystemSound::SystemSoundFile(void)
	?IndexOfIdentifier@CBaNamedPlugins@@QBEHABVTDesC16@@P6AH00@Z@Z @ 205 NONAME ; public: int __thiscall CBaNamedPlugins::IndexOfIdentifier(class TDesC16 const &,int (__cdecl*)(class TDesC16 const &,class TDesC16 const &))const 
	?IndexOfUid@CBaNamedPlugins@@QBEHVTUid@@@Z @ 206 NONAME ; public: int __thiscall CBaNamedPlugins::IndexOfUid(class TUid)const 
	?MFallBackName_Reserved_1@MFallBackName@CBaNamedPlugins@@EAEXXZ @ 207 NONAME ; private: virtual void __thiscall CBaNamedPlugins::MFallBackName::MFallBackName_Reserved_1(void)
	?MFallBackName_Reserved_2@MFallBackName@CBaNamedPlugins@@EAEXXZ @ 208 NONAME ; private: virtual void __thiscall CBaNamedPlugins::MFallBackName::MFallBackName_Reserved_2(void)
	?MdcaCount@CBaNamedPlugins@@UBEHXZ @ 209 NONAME ; public: virtual int __thiscall CBaNamedPlugins::MdcaCount(void)const 
	?MdcaPoint@CBaNamedPlugins@@UBE?AVTPtrC16@@H@Z @ 210 NONAME ; public: virtual class TPtrC16  __thiscall CBaNamedPlugins::MdcaPoint(int)const 
	?NewL@CBaNamedPlugins@@SAPAV1@ABVCParameters@1@@Z @ 211 NONAME ; public: static class CBaNamedPlugins * __cdecl CBaNamedPlugins::NewL(class CBaNamedPlugins::CParameters const &)
	?NewL@CParameters@CBaNamedPlugins@@SAPAV12@AAVRFs@@ABV?$TArray@VTResourceFile@CBaNamedPlugins@@@@@Z @ 212 NONAME ; public: static class CBaNamedPlugins::CParameters * __cdecl CBaNamedPlugins::CParameters::NewL(class RFs &,class TArray<class CBaNamedPlugins::TResourceFile> const &)
	?NewLC@CBaNamedPlugins@@SAPAV1@ABVCParameters@1@@Z @ 213 NONAME ; public: static class CBaNamedPlugins * __cdecl CBaNamedPlugins::NewLC(class CBaNamedPlugins::CParameters const &)
	?NewLC@CParameters@CBaNamedPlugins@@SAPAV12@AAVRFs@@ABV?$TArray@VTResourceFile@CBaNamedPlugins@@@@@Z @ 214 NONAME ; public: static class CBaNamedPlugins::CParameters * __cdecl CBaNamedPlugins::CParameters::NewLC(class RFs &,class TArray<class CBaNamedPlugins::TResourceFile> const &)
	?SetCompareNames@CParameters@CBaNamedPlugins@@QAEXP6AHABVTDesC16@@0@Z@Z @ 215 NONAME ; public: void __thiscall CBaNamedPlugins::CParameters::SetCompareNames(int (__cdecl*)(class TDesC16 const &,class TDesC16 const &))
	?SetFallBackName@CParameters@CBaNamedPlugins@@QAEXABVMFallBackName@2@@Z @ 216 NONAME ; public: void __thiscall CBaNamedPlugins::CParameters::SetFallBackName(class CBaNamedPlugins::MFallBackName const &)
	?SetTextForNone@CParameters@CBaNamedPlugins@@QAEXPAVHBufC16@@W4TArrayPosition@2@@Z @ 217 NONAME ; public: void __thiscall CBaNamedPlugins::CParameters::SetTextForNone(class HBufC16 *,enum CBaNamedPlugins::TArrayPosition)
	?SetTextForNoneL@CParameters@CBaNamedPlugins@@QAEXABVTDesC16@@W4TArrayPosition@2@@Z @ 218 NONAME ; public: void __thiscall CBaNamedPlugins::CParameters::SetTextForNoneL(class TDesC16 const &,enum CBaNamedPlugins::TArrayPosition)
	?UidAtIndex@CBaNamedPlugins@@QBE?AVTUid@@H@Z @ 219 NONAME ; public: class TUid  __thiscall CBaNamedPlugins::UidAtIndex(int)const 
	??1CBaNamedPlugins@@UAE@XZ @ 220 NONAME ; public: virtual __thiscall CBaNamedPlugins::~CBaNamedPlugins(void)
	??1CParameters@CBaNamedPlugins@@UAE@XZ @ 221 NONAME ; public: virtual __thiscall CBaNamedPlugins::CParameters::~CParameters(void)
	?IdentifierAtIndex@CBaNamedPlugins@@QBEPBVTDesC16@@H@Z @ 222 NONAME ; public: class TDesC16 const * __thiscall CBaNamedPlugins::IdentifierAtIndex(int)const 
	?GetSystemDrive@BaflUtils@@SAHAAW4TDriveNumber@@@Z @ 223 NONAME ; public: static int __cdecl BaflUtils::GetSystemDrive(enum TDriveNumber &)
	?UidType@RResourceFile@@QBE?AVTUidType@@XZ @ 224 NONAME ; public: class TUidType  __thiscall RResourceFile::UidType(void)const 
	?DeRegisterBackupOperationObserver@CBaBackupSessionWrapper@@QAEXAAVMBackupOperationObserver@@@Z @ 225 NONAME ; public: void __thiscall CBaBackupSessionWrapper::DeRegisterBackupOperationObserver(class MBackupOperationObserver &)
	?IsBackupOperationRunning@CBaBackupSessionWrapper@@QBEHXZ @ 226 NONAME ; public: int __thiscall CBaBackupSessionWrapper::IsBackupOperationRunning(void)const 
	?NotifyBackupOperationL@CBaBackupSessionWrapper@@QAEXABVTBackupOperationAttributes@@@Z @ 227 NONAME ; public: void __thiscall CBaBackupSessionWrapper::NotifyBackupOperationL(class TBackupOperationAttributes const &)
	?RegisterBackupOperationObserverL@CBaBackupSessionWrapper@@QAEXAAVMBackupOperationObserver@@@Z @ 228 NONAME ; public: void __thiscall CBaBackupSessionWrapper::RegisterBackupOperationObserverL(class MBackupOperationObserver &)
	?Reserved1@MBackupOperationObserver@@EAEXXZ @ 229 NONAME ; private: virtual void __thiscall MBackupOperationObserver::Reserved1(void)
	?Close@RStringPool@@QAEXXZ @ 230 NONAME ; public: void __thiscall RStringPool::Close(void)
	?Copy@RStringBase@@QAE?AV1@XZ @ 231 NONAME ; public: class RStringBase  __thiscall RStringBase::Copy(void)
	?DesC@RStringBase@@QBEABVTDesC8@@XZ @ 232 NONAME ; public: class TDesC8 const & __thiscall RStringBase::DesC(void)const 
	?Index@RStringBase@@QBEHABUTStringTable@@@Z @ 233 NONAME ; public: int __thiscall RStringBase::Index(struct TStringTable const &)const 
	?OpenFStringL@RStringPool@@QBE?AVRStringF@@ABVTDesC8@@@Z @ 234 NONAME ; public: class RStringF  __thiscall RStringPool::OpenFStringL(class TDesC8 const &)const 
	?OpenL@RStringPool@@QAEXABUTStringTable@@@Z @ 235 NONAME ; public: void __thiscall RStringPool::OpenL(struct TStringTable const &)
	?OpenL@RStringPool@@QAEXXZ @ 236 NONAME ; public: void __thiscall RStringPool::OpenL(void)
	?OpenStringL@RStringPool@@QBE?AVRString@@ABVTDesC8@@@Z @ 237 NONAME ; public: class RString  __thiscall RStringPool::OpenStringL(class TDesC8 const &)const 
	?String@RStringPool@@QBE?AVRString@@HABUTStringTable@@@Z @ 238 NONAME ; public: class RString  __thiscall RStringPool::String(int,struct TStringTable const &)const 
	?String@RStringPool@@QBE?AVRString@@VRStringToken@@@Z @ 239 NONAME ; public: class RString  __thiscall RStringPool::String(class RStringToken)const 
	?StringF@RStringPool@@QBE?AVRStringF@@HABUTStringTable@@@Z @ 240 NONAME ; public: class RStringF  __thiscall RStringPool::StringF(int,struct TStringTable const &)const 
	?StringF@RStringPool@@QBE?AVRStringF@@VRStringTokenF@@@Z @ 241 NONAME ; public: class RStringF  __thiscall RStringPool::StringF(class RStringTokenF)const 
	?GetDowngradePathL@BaflUtils@@SAXABVRFs@@W4TLanguage@@AAV?$RArray@W4TLanguage@@@@@Z @ 242 NONAME ; public: static void __cdecl BaflUtils::GetDowngradePathL(class RFs const &,enum TLanguage,class RArray<enum TLanguage> &)
	?OpenL@RStringPool@@QAEXABUTStringTable@@AAVMStringPoolCloseCallBack@@@Z @ 243 NONAME ; public: void __thiscall RStringPool::OpenL(struct TStringTable const &,class MStringPoolCloseCallBack &)
	?Close@RStringBase@@QAEXXZ @ 244 NONAME ; public: void __thiscall RStringBase::Close(void)
	?OriginalTableRef@RStringBase@@QBEPBUTStringTable@@XZ @ 245 NONAME ; public: struct TStringTable const * __thiscall RStringBase::OriginalTableRef(void)const 
	?PersistLocale@BaflUtils@@SAXXZ @ 246 NONAME ; public: static void __cdecl BaflUtils::PersistLocale(void)
	?PersistHAL@BaflUtils@@SAHXZ @ 247 NONAME ; public: static int __cdecl BaflUtils::PersistHAL(void)
	?PersistScreenCalibration@BaflUtils@@SAXABVTDigitizerCalibration@@@Z @ 248 NONAME ; public: static void __cdecl BaflUtils::PersistScreenCalibration(class TDigitizerCalibration const &)
	?InitialiseHAL@BaflUtils@@SAXAAVRFs@@@Z @ 249 NONAME ; public: static void __cdecl BaflUtils::InitialiseHAL(class RFs &)
	?InitialiseLocale@BaflUtils@@SAXAAVRFs@@@Z @ 250 NONAME ; public: static void __cdecl BaflUtils::InitialiseLocale(class RFs &)
	?InitialiseScreenCalibration@BaflUtils@@SAXAAVRFs@@@Z @ 251 NONAME ; public: static void __cdecl BaflUtils::InitialiseScreenCalibration(class RFs &)
	?ClipboardFileDrive@CClipboard@@SA?AV?$TBuf@$01@@XZ @ 252 NONAME ; public: static class TBuf<2>  __cdecl CClipboard::ClipboardFileDrive(void)
	?Close@RTextBuf@@QAEXXZ @ 253 NONAME ; public: void __thiscall RTextBuf::Close(void)
	?ConfirmSignatureL@RResourceFile@@QAEXXZ @ 254 NONAME ; public: void __thiscall RResourceFile::ConfirmSignatureL(void)
	?OpenL@RResourceFile@@QAEXAAVRFs@@ABVTDesC16@@IH@Z @ 255 NONAME ; public: void __thiscall RResourceFile::OpenL(class RFs &,class TDesC16 const &,unsigned int,int)
	??0RResourceReader@@QAE@XZ @ 256 NONAME ; public: __thiscall RResourceReader::RResourceReader(void)
	??1CResourceFile@@UAE@XZ @ 257 NONAME ; public: virtual __thiscall CResourceFile::~CResourceFile(void)
	??1RResourceReader@@QAE@XZ @ 258 NONAME ; public: __thiscall RResourceReader::~RResourceReader(void)
	?AdvanceL@RResourceReader@@QAEXH@Z @ 259 NONAME ; public: void __thiscall RResourceReader::AdvanceL(int)
	?AllocReadL@CResourceFile@@QBEPAVHBufC8@@H@Z @ 260 NONAME ; public: class HBufC8 * __thiscall CResourceFile::AllocReadL(int)const 
	?AllocReadLC@CResourceFile@@QBEPAVHBufC8@@H@Z @ 261 NONAME ; public: class HBufC8 * __thiscall CResourceFile::AllocReadLC(int)const 
	?Close@RResourceReader@@QAEXXZ @ 262 NONAME ; public: void __thiscall RResourceReader::Close(void)
	?ConfirmSignatureL@CResourceFile@@QAEXH@Z @ 263 NONAME ; public: void __thiscall CResourceFile::ConfirmSignatureL(int)
	?ConfirmSignatureL@CResourceFile@@QAEXXZ @ 264 NONAME ; public: void __thiscall CResourceFile::ConfirmSignatureL(void)
	?NewL@CResourceFile@@SAPAV1@AAVRFs@@ABVTDesC16@@IH@Z @ 265 NONAME ; public: static class CResourceFile * __cdecl CResourceFile::NewL(class RFs &,class TDesC16 const &,unsigned int,int)
	?NewLC@CResourceFile@@SAPAV1@AAVRFs@@ABVTDesC16@@IH@Z @ 266 NONAME ; public: static class CResourceFile * __cdecl CResourceFile::NewLC(class RFs &,class TDesC16 const &,unsigned int,int)
	?Offset@CResourceFile@@QBEHXZ @ 267 NONAME ; public: int __thiscall CResourceFile::Offset(void)const 
	?OpenL@RResourceReader@@QAEXPBVCResourceFile@@H@Z @ 268 NONAME ; public: void __thiscall RResourceReader::OpenL(class CResourceFile const *,int)
	?OpenLC@RResourceReader@@QAEXPBVCResourceFile@@H@Z @ 269 NONAME ; public: void __thiscall RResourceReader::OpenLC(class CResourceFile const *,int)
	?OwnsResourceIdL@CResourceFile@@QBEHH@Z @ 270 NONAME ; public: int __thiscall CResourceFile::OwnsResourceIdL(int)const 
	?ReadDesC16ArrayL@RResourceReader@@QAEPAVCDesC16ArrayFlat@@XZ @ 271 NONAME ; public: class CDesC16ArrayFlat * __thiscall RResourceReader::ReadDesC16ArrayL(void)
	?ReadDesC8ArrayL@RResourceReader@@QAEPAVCDesC8ArrayFlat@@XZ @ 272 NONAME ; public: class CDesC8ArrayFlat * __thiscall RResourceReader::ReadDesC8ArrayL(void)
	?ReadDesCArrayL@RResourceReader@@QAEPAVCDesC16ArrayFlat@@XZ @ 273 NONAME ; public: class CDesC16ArrayFlat * __thiscall RResourceReader::ReadDesCArrayL(void)
	?ReadHBufC16L@RResourceReader@@QAEPAVHBufC16@@XZ @ 274 NONAME ; public: class HBufC16 * __thiscall RResourceReader::ReadHBufC16L(void)
	?ReadHBufC8L@RResourceReader@@QAEPAVHBufC8@@XZ @ 275 NONAME ; public: class HBufC8 * __thiscall RResourceReader::ReadHBufC8L(void)
	?ReadHBufCL@RResourceReader@@QAEPAVHBufC16@@XZ @ 276 NONAME ; public: class HBufC16 * __thiscall RResourceReader::ReadHBufCL(void)
	?ReadInt16L@RResourceReader@@QAEHXZ @ 277 NONAME ; public: int __thiscall RResourceReader::ReadInt16L(void)
	?ReadInt32L@RResourceReader@@QAEHXZ @ 278 NONAME ; public: int __thiscall RResourceReader::ReadInt32L(void)
	?ReadInt8L@RResourceReader@@QAEHXZ @ 279 NONAME ; public: int __thiscall RResourceReader::ReadInt8L(void)
	?ReadL@CResourceFile@@QBEXAAVTDes8@@H@Z @ 280 NONAME ; public: void __thiscall CResourceFile::ReadL(class TDes8 &,int)const 
	?ReadL@RResourceReader@@QAEXPAXH@Z @ 281 NONAME ; public: void __thiscall RResourceReader::ReadL(void *,int)
	?ReadReal64L@RResourceReader@@QAENXZ @ 282 NONAME ; public: double __thiscall RResourceReader::ReadReal64L(void)
	?ReadTPtrC16L@RResourceReader@@QAE?AVTPtrC16@@XZ @ 283 NONAME ; public: class TPtrC16  __thiscall RResourceReader::ReadTPtrC16L(void)
	?ReadTPtrC8L@RResourceReader@@QAE?AVTPtrC8@@XZ @ 284 NONAME ; public: class TPtrC8  __thiscall RResourceReader::ReadTPtrC8L(void)
	?ReadTPtrCL@RResourceReader@@QAE?AVTPtrC16@@XZ @ 285 NONAME ; public: class TPtrC16  __thiscall RResourceReader::ReadTPtrCL(void)
	?ReadUint16L@RResourceReader@@QAEIXZ @ 286 NONAME ; public: unsigned int __thiscall RResourceReader::ReadUint16L(void)
	?ReadUint32L@RResourceReader@@QAEIXZ @ 287 NONAME ; public: unsigned int __thiscall RResourceReader::ReadUint32L(void)
	?ReadUint8L@RResourceReader@@QAEIXZ @ 288 NONAME ; public: unsigned int __thiscall RResourceReader::ReadUint8L(void)
	?RewindL@RResourceReader@@QAEXH@Z @ 289 NONAME ; public: void __thiscall RResourceReader::RewindL(int)
	?SignatureL@CResourceFile@@QBEHXZ @ 290 NONAME ; public: int __thiscall CResourceFile::SignatureL(void)const 
	?UidType@CResourceFile@@QBE?AVTUidType@@XZ @ 291 NONAME ; public: class TUidType  __thiscall CResourceFile::UidType(void)const 
	?Offset2@RResourceFile@@ABEHXZ @ 292 NONAME ; private: int __thiscall RResourceFile::Offset2(void)const 
	?OwnsResourceIdL@RResourceFile@@QBEHH@Z @ 293 NONAME ; int RResourceFile::OwnsResourceIdL(int) const
	?OpenL@RResourceReader@@QAEXABVTDesC8@@@Z @ 294 NONAME ; public: void __thiscall RResourceReader::OpenL(class TDesC8 const &)
	?OpenLC@RResourceReader@@QAEXABVTDesC8@@@Z @ 295 NONAME ; public: void __thiscall RResourceReader::OpenLC(class TDesC8 const &)
	?IdealLanguage@BaflUtils@@SA?AW4TLanguage@@XZ @ 296 NONAME ; enum TLanguage BaflUtils::IdealLanguage(void)
	?NearestLanguageFile@BaflUtils@@SAXABVRFs@@AAV?$TBuf@$0BAA@@@AAW4TLanguage@@@Z @ 297 NONAME ; void BaflUtils::NearestLanguageFile(class RFs const &, class TBuf<256> &, enum TLanguage &)
	?ReleaseIdealLanguage@BaflUtils@@SAXXZ @ 298 NONAME ; void BaflUtils::ReleaseIdealLanguage(void)
	?SetIdealLanguage@BaflUtils@@SAHW4TLanguage@@@Z @ 299 NONAME ; int BaflUtils::SetIdealLanguage(enum TLanguage)
	?DriveIsReadOnlyInternal@BaflUtils@@SAHAAVRFs@@ABVTDesC16@@AAH@Z @ 300 NONAME ; int BaflUtils::DriveIsReadOnlyInternal(class RFs &, class TDesC16 const &, int &)
	?Close@RResourceArchive@@QAEXXZ @ 301 NONAME ; void RResourceArchive::Close(void)
	?NewL@CResourceFile@@SAPAV1@ABVTDesC8@@@Z @ 302 NONAME ; class CResourceFile * CResourceFile::NewL(class TDesC8 const &)
	?NextL@RResourceArchive@@QAEPAVCResourceFile@@AAPAVHBufC16@@@Z @ 303 NONAME ; class CResourceFile * RResourceArchive::NextL(class HBufC16 * &)
	?OpenL@RResourceArchive@@QAEXAAVRFs@@ABVTDesC16@@@Z @ 304 NONAME ; void RResourceArchive::OpenL(class RFs &, class TDesC16 const &)
	?Reset@RResourceArchive@@QAEXXZ @ 305 NONAME ; void RResourceArchive::Reset(void)
	?Type@RResourceArchive@@QAE?AVTUid@@XZ @ 306 NONAME ; class TUid RResourceArchive::Type(void)
	??0RResourceArchive@@QAE@XZ @ 307 NONAME ; RResourceArchive::RResourceArchive(void)
	?End@RResourceArchive@@QAEHXZ @ 308 NONAME ; int RResourceArchive::End(void)
	?GetDiskListL@BaflUtils@@SAXABVRFs@@AAVCDesC16Array@@@Z @ 309 NONAME ; void BaflUtils::GetDiskListL(class RFs const &, class CDesC16Array &)
	?OpenL@RResourceArchive@@QAEXAAVRFs@@ABVTDesC16@@1@Z @ 310 NONAME ; void RResourceArchive::OpenL(class RFs &, class TDesC16 const &, class TDesC16 const &)
	??0CBaActiveScheduler@@QAE@XZ @ 311  NONAME ; CBaActiveScheduler::CBaActiveScheduler(void)
	??1CBaActiveScheduler@@UAE@XZ @ 312  NONAME ; CBaActiveScheduler::~CBaActiveScheduler(void)
	?GetEquivalentLanguageList@BaflUtils@@SAXW4TLanguage@@AAY0BB@W42@@Z @ 313 NONAME ; void BaflUtils::GetEquivalentLanguageList(enum TLanguage, enum TLanguage [17] &)
	?NearestLanguageFileV2@BaflUtils@@SAXABVRFs@@AAV?$TBuf@$0BAA@@@AAW4TLanguage@@@Z @ 314 NONAME ; void BaflUtils::NearestLanguageFileV2(class RFs const &, class TBuf<256> &, enum TLanguage &)

