EXPORTS
	??0CBaBackupServer@@IAE@H@Z @ 1 NONAME ; CBaBackupServer::CBaBackupServer(int)
	??0CBaServBackupSession@@IAE@XZ @ 2 NONAME ; CBaServBackupSession::CBaServBackupSession(void)
	??1CBaBackupServer@@UAE@XZ @ 3 NONAME ; CBaBackupServer::~CBaBackupServer(void)
	??1CBaServBackupSession@@UAE@XZ @ 4 NONAME ; CBaServBackupSession::~CBaServBackupSession(void)
	?CloseAllFilesL@CBaBackupServer@@UAEXW4TFileLockFlags@MBackupObserver@@@Z @ 5 NONAME ; void CBaBackupServer::CloseAllFilesL(enum MBackupObserver::TFileLockFlags)
	?CloseAllFilesL@CBaServBackupSession@@MAE?AW4TCompletionType@@ABVRMessage2@@@Z @ 6 NONAME ; enum TCompletionType CBaServBackupSession::CloseAllFilesL(class RMessage2 const &)
	?CompleteClosingFiles@CBaBackupServer@@UAEXPAV?$CArrayFix@VTClosedFile@CBaServBackupSession@@@@@Z @ 7 NONAME ; void CBaBackupServer::CompleteClosingFiles(class CArrayFix<class CBaServBackupSession::TClosedFile> *)
	?ConstructL@CBaBackupServer@@UAEXXZ @ 8 NONAME ; void CBaBackupServer::ConstructL(void)
	?ConstructL@CBaServBackupSession@@MAEXXZ @ 9 NONAME ; void CBaServBackupSession::ConstructL(void)
	?CreateL@CBaServBackupSession@@MAEXXZ @ 10 NONAME ; void CBaServBackupSession::CreateL(void)
	?Error@CBaServBackupScheduler@@UBEXH@Z @ 11 NONAME ; void CBaServBackupScheduler::Error(int) const
	?HandleError@CBaServBackupSession@@UAEXH@Z @ 12 NONAME ; void CBaServBackupSession::HandleError(int)
	?IsClientBusy@CBaBackupServer@@QBEHK@Z @ 13 NONAME ; int CBaBackupServer::IsClientBusy(unsigned long) const
	?IsOtherClientBusy@CBaBackupServer@@UBEHK@Z @ 14 NONAME ; int CBaBackupServer::IsOtherClientBusy(unsigned long) const
	?NewL@CBaBackupServer@@SAPAV1@XZ @ 15 NONAME ; class CBaBackupServer * CBaBackupServer::NewL(void)
	?NewSessionL@CBaBackupServer@@MBEPAVCSession2@@ABVTVersion@@ABVRMessage2@@@Z @ 16 NONAME ; class CSession2 * CBaBackupServer::NewSessionL(class TVersion const &, class RMessage2 const &) const
	?RestartAll@CBaBackupServer@@UAEXXZ @ 17 NONAME ; void CBaBackupServer::RestartAll(void)
	?RestartAll@CBaServBackupSession@@MAEXXZ @ 18 NONAME ; void CBaServBackupSession::RestartAll(void)
	?RunError@CBaBackupServer@@UAEHH@Z @ 19 NONAME ; int CBaBackupServer::RunError(int)
	?ServiceL@CBaServBackupSession@@MAEXABVRMessage2@@@Z @ 20 NONAME ; void CBaServBackupSession::ServiceL(class RMessage2 const &)
	?SetBusy@CBaBackupServer@@QAEXK@Z @ 21 NONAME ; void CBaBackupServer::SetBusy(unsigned long)
	?SetErrorHandler@CBaServBackupScheduler@@QAEXPAVCBaServBackupSession@@@Z @ 22 NONAME ; void CBaServBackupScheduler::SetErrorHandler(class CBaServBackupSession *)
	?SignalBackupOperation@CBaBackupServer@@QAEXABVTBackupOperationAttributes@@@Z @ 23 NONAME ; void CBaBackupServer::SignalBackupOperation(class TBackupOperationAttributes const &)
	?DoCloseAllFilesL@CBaServBackupSession@@IAE?AW4TCompletionType@@ABVRMessage2@@@Z @ 24 NONAME ; enum TCompletionType CBaServBackupSession::DoCloseAllFilesL(class RMessage2 const &)
	?HaveAllCloseAllFilesClientsReRegistered@CBaBackupServer@@QAEHXZ @ 25 NONAME ; int CBaBackupServer::HaveAllCloseAllFilesClientsReRegistered(void)
	?KBaBackupCloseallFilesTimeout@@3HB @ 26 NONAME ; int const KBaBackupCloseallFilesTimeout
	?KBaBackupFileLockReRegistrationTimeout@@3HB @ 27 NONAME ; int const KBaBackupFileLockReRegistrationTimeout
	?SetCloseAllOperationRunningState@CBaBackupServer@@QAEXH@Z @ 28 NONAME ; void CBaBackupServer::SetCloseAllOperationRunningState(int)
	??0CBaServBackupScheduler@@QAE@XZ @ 29  NONAME ; CBaServBackupScheduler::CBaServBackupScheduler(void)
	??1CBaServBackupScheduler@@UAE@XZ @ 30  NONAME ; CBaServBackupScheduler::~CBaServBackupScheduler(void)

